T 0x403f93
0x403f89:	mov	eax, r12d
0x403f8c:	pop	r12
0x403f8e:	ret	
T 0x4037f4
0x4037f4:	mov	rax, r12
0x4037f7:	pop	r12
0x4037f9:	pop	r13
0x4037fb:	ret	
T 0x403f89
0x403f89:	mov	eax, r12d
0x403f8c:	pop	r12
0x403f8e:	ret	
T 0x403824
0x4037f4:	mov	rax, r12
0x4037f7:	pop	r12
0x4037f9:	pop	r13
0x4037fb:	ret	
T 0x404e8f
0x403911:	pop	r12
0x403913:	ret	
T 0x40c60b
0x406ec5:	mov	rax, r12
0x406ec8:	pop	r12
0x406eca:	ret	
T 0x40c605
0x40c605:	imul	edi, edi, -1
0x40c608:	add	r12, rax
0x40c60b:	mov	rax, r12
0x40c60e:	pop	r12
0x40c610:	ret	
T 0x40c5f7
0x406ec5:	mov	rax, r12
0x406ec8:	pop	r12
0x406eca:	ret	
T 0x403f96
0x403911:	pop	r12
0x403913:	ret	
T 0x406ec5
0x406ec5:	mov	rax, r12
0x406ec8:	pop	r12
0x406eca:	ret	
T 0x40b93e
0x403911:	pop	r12
0x403913:	ret	
T 0x406ec4
0x406ec4:	pop	rbp
0x406ec5:	mov	rax, r12
0x406ec8:	pop	r12
0x406eca:	ret	
T 0x40c60e
0x403911:	pop	r12
0x403913:	ret	
T 0x408bb8
0x408bb8:	mov	rax, r12
0x408bbb:	pop	rbp
0x408bbc:	pop	r12
0x408bbe:	pop	r13
0x408bc0:	ret	
T 0x406c4c
0x403911:	pop	r12
0x403913:	ret	
T 0x406c47
0x406c47:	mov	rax, r12
0x406c4a:	pop	rbx
0x406c4b:	pop	rbp
0x406c4c:	pop	r12
0x406c4e:	ret	
T 0x406e4c
0x403911:	pop	r12
0x403913:	ret	
T 0x40bd99
0x40bd99:	mov	rax, r12
0x40bd9c:	pop	rbx
0x40bd9d:	pop	r12
0x40bd9f:	pop	r13
0x40bda1:	ret	
T 0x403911
0x403911:	pop	r12
0x403913:	ret	
T 0x406eb7
0x406c47:	mov	rax, r12
0x406c4a:	pop	rbx
0x406c4b:	pop	rbp
0x406c4c:	pop	r12
0x406c4e:	ret	
T 0x40b792
0x403911:	pop	r12
0x403913:	ret	
T 0x406ec3
0x406ec3:	pop	rbx
0x406ec4:	pop	rbp
0x406ec5:	mov	rax, r12
0x406ec8:	pop	r12
0x406eca:	ret	
T 0x406ec8
0x403911:	pop	r12
0x403913:	ret	
T 0x40b714
0x408ba5:	mov	rax, r12
0x408ba8:	pop	rbx
0x408ba9:	pop	rbp
0x408baa:	pop	r12
0x408bac:	pop	r13
0x408bae:	ret	
T 0x404f07
0x403911:	pop	r12
0x403913:	ret	
T 0x408bb7
0x408bb7:	pop	rbx
0x408bb8:	mov	rax, r12
0x408bbb:	pop	rbp
0x408bbc:	pop	r12
0x408bbe:	pop	r13
0x408bc0:	ret	
T 0x40c608
0x40c608:	add	r12, rax
0x40c60b:	mov	rax, r12
0x40c60e:	pop	r12
0x40c610:	ret	
T 0x40b593
0x408ba5:	mov	rax, r12
0x408ba8:	pop	rbx
0x408ba9:	pop	rbp
0x408baa:	pop	r12
0x408bac:	pop	r13
0x408bae:	ret	
T 0x403829
0x4037f9:	pop	r13
0x4037fb:	ret	
T 0x40590c
0x40590c:	mov	rax, r13
0x40590f:	pop	rbp
0x405910:	pop	r12
0x405912:	pop	r13
0x405914:	pop	r14
0x405916:	ret	
T 0x406ebc
0x403911:	pop	r12
0x403913:	ret	
T 0x40b5f8
0x408ba5:	mov	rax, r12
0x408ba8:	pop	rbx
0x408ba9:	pop	rbp
0x408baa:	pop	r12
0x408bac:	pop	r13
0x408bae:	ret	
T 0x404d49
0x403911:	pop	r12
0x403913:	ret	
T 0x408ba5
0x408ba5:	mov	rax, r12
0x408ba8:	pop	rbx
0x408ba9:	pop	rbp
0x408baa:	pop	r12
0x408bac:	pop	r13
0x408bae:	ret	
T 0x40b53f
0x403911:	pop	r12
0x403913:	ret	
T 0x40b5e1
0x408ba5:	mov	rax, r12
0x408ba8:	pop	rbx
0x408ba9:	pop	rbp
0x408baa:	pop	r12
0x408bac:	pop	r13
0x408bae:	ret	
T 0x4064e0
0x4064e0:	pop	rax
0x4064e1:	pop	rbx
0x4064e2:	pop	rbp
0x4064e3:	pop	r12
0x4064e5:	pop	r13
0x4064e7:	pop	r14
0x4064e9:	pop	r15
0x4064eb:	ret	
T 0x4064d8
0x4064d8:	mov	rax, qword ptr [rsp + 0x28]
0x4064dd:	add	rsp, 0x58
0x4064e1:	pop	rbx
0x4064e2:	pop	rbp
0x4064e3:	pop	r12
0x4064e5:	pop	r13
0x4064e7:	pop	r14
0x4064e9:	pop	r15
0x4064eb:	ret	
T 0x40bd9f
0x4037f9:	pop	r13
0x4037fb:	ret	
T 0x40590b
0x40590b:	pop	rbx
0x40590c:	mov	rax, r13
0x40590f:	pop	rbp
0x405910:	pop	r12
0x405912:	pop	r13
0x405914:	pop	r14
0x405916:	ret	
F 0x40691e
0x40691e:	mov	qword ptr [rip + 0x1d21b], rdi
0x406925:	mov	byte ptr [rip + 0x1d221], al
0x40692b:	ret	
F 0x40b2e0
0x40379f:	pop	rbp
0x4037a0:	ret	
F 0x409a4c
0x403911:	pop	r12
0x403913:	ret	
F 0x409fb6
0x40419b:	pop	rbp
0x40419c:	pop	r12
0x40419e:	pop	r13
0x4041a0:	pop	r14
0x4041a2:	pop	r15
0x4041a4:	ret	
F 0x40c453
0x40c453:	add	dword ptr [rax], eax
0x40c455:	add	byte ptr [rbx + 0x5d], bl
0x40c458:	pop	r12
0x40c45a:	pop	r13
0x40c45c:	pop	r14
0x40c45e:	ret	
F 0x407934
0x407934:	jmp	0x407421
F 0x407f24
0x403016:	ret	
F 0x408f3c
0x403016:	ret	
F 0x403e15
0x403e15:	test	al, al
0x403e17:	cmove	eax, edx
0x403e1a:	ret	
F 0x408bbe
0x4037f9:	pop	r13
0x4037fb:	ret	
F 0x406db7
0x406db7:	nop	word ptr [rax + rax]
0x406dc0:	ret	
F 0x408d14
0x403635:	pop	rsi
0x403636:	ret	
F 0x406cc0
0x406cc0:	mov	byte ptr [rip + 0x1ce86], al
0x406cc6:	ret	
F 0x40b7f8
0x40b7f8:	dec	dword ptr [rax + 9]
0x40b7fb:	ret	
F 0x404bd3
0x404bd3:	or	eax, 0xc0940f0a
0x404bd8:	ret	
F 0x40b5e6
0x4037f7:	pop	r12
0x4037f9:	pop	r13
0x4037fb:	ret	
F 0x40b58a
0x40b58a:	mov	byte ptr [rsp + rbp + 0x10], 0
0x40b58f:	add	rsp, 8
0x40b593:	mov	rax, r12
0x40b596:	pop	rbx
0x40b597:	pop	rbp
0x40b598:	pop	r12
0x40b59a:	pop	r13
0x40b59c:	ret	
F 0x40c1ac
0x40419a:	pop	rbx
0x40419b:	pop	rbp
0x40419c:	pop	r12
0x40419e:	pop	r13
0x4041a0:	pop	r14
0x4041a2:	pop	r15
0x4041a4:	ret	
F 0x4090fa
0x403f2c:	mov	rax, r8
0x403f2f:	pop	rbx
0x403f30:	pop	rbp
0x403f31:	ret	
F 0x403630
0x403630:	pop	r12
0x403632:	pop	r13
0x403634:	pop	r14
0x403636:	ret	
F 0x4045b9
0x4045b9:	add	byte ptr [rax - 0x75], cl
0x4045bc:	cmp	cl, byte ptr [rax - 0x7d]
0x4045bf:	ret	0x4808
F 0x409924
0x403016:	ret	
F 0x406f66
0x406f66:	nop	word ptr cs:[rax + rax]
0x406f70:	mov	eax, dword ptr [rip + 0x1a3ce]
0x406f76:	ret	
F 0x4050f7
0x403016:	ret	
F 0x406a85
0x406a85:	movzx	eax, byte ptr [rax]
0x406a88:	mov	byte ptr [rip + 0x1d0be], al
0x406a8e:	pop	rbx
0x406a8f:	ret	
F 0x40bb0a
0x40bb0a:	test	byte ptr [rax], al
0x40bb0c:	add	byte ptr [rax], al
0x40bb0e:	add	byte ptr [rax], al
0x40bb10:	mov	eax, 1
0x40bb15:	ret	
F 0x4064eb
0x403016:	ret	
F 0x403908
0x403908:	add	byte ptr [rcx], al
0x40390a:	add	rsp, 8
0x40390e:	xor	eax, eax
0x403910:	pop	rbp
0x403911:	pop	r12
0x403913:	ret	
F 0x406fe3
0x406fe3:	adc	ebx, ecx
0x406fe5:	add	dword ptr [rax], eax
0x406fe7:	ret	
F 0x406f67
0x406f67:	nop	dword ptr cs:[rax + rax]
0x406f70:	mov	eax, dword ptr [rip + 0x1a3ce]
0x406f76:	ret	
F 0x409c55
0x409c55:	add	dword ptr [rax], eax
0x409c57:	mov	qword ptr [rdi], rax
0x409c5a:	movsxd	rax, dword ptr [rip + 0x176e7]
0x409c61:	ret	
F 0x4051ec
0x4041a3:	pop	rdi
0x4041a4:	ret	
F 0x406b8b
0x406b8b:	mov	dword ptr [rip + 0x1cf6f], eax
0x406b91:	movzx	eax, byte ptr [rdx]
0x406b94:	mov	byte ptr [rip + 0x1cfb2], al
0x406b9a:	ret	
F 0x405a83
0x405a83:	lea	rax, [rip + 0x1b8a6]
0x405a8a:	mov	qword ptr [rip + 0x1e02f], rax
0x405a91:	ret	
F 0x40a514
0x4054d7:	mov	eax, ebp
0x4054d9:	pop	rbx
0x4054da:	pop	rbp
0x4054db:	pop	r12
0x4054dd:	pop	r13
0x4054df:	pop	r14
0x4054e1:	pop	r15
0x4054e3:	ret	
F 0x406fa5
0x406fa5:	add	bl, al
0x406fa7:	nop	word ptr [rax + rax]
0x406fb0:	mov	rax, qword ptr [rip + 0x1cb39]
0x406fb7:	ret	
F 0x409c40
0x403f2f:	pop	rbx
0x403f30:	pop	rbp
0x403f31:	ret	
F 0x4052b7
0x4041a2:	pop	r15
0x4041a4:	ret	
F 0x40606b
0x403016:	ret	
F 0x409108
0x403f2d:	mov	eax, eax
0x403f2f:	pop	rbx
0x403f30:	pop	rbp
0x403f31:	ret	
F 0x4037f0
0x4037f0:	add	rsp, 8
0x4037f4:	mov	rax, r12
0x4037f7:	pop	r12
0x4037f9:	pop	r13
0x4037fb:	ret	
F 0x405b71
0x403016:	ret	
F 0x40c541
0x40c541:	sub	eax, eax
0x40c543:	sub	rax, 1
0x40c547:	ret	
F 0x40afdf
0x403016:	ret	
F 0x4066fa
0x403016:	ret	
F 0x405a89
0x405a89:	add	byte ptr [rax - 0x77], cl
0x405a8c:	add	eax, 0x1e02f
0x405a91:	ret	
F 0x406b6a
0x403016:	ret	
F 0x40c5fa
0x403911:	pop	r12
0x403913:	ret	
F 0x40467f
0x404548:	pop	rbx
0x404549:	pop	rbp
0x40454a:	pop	r12
0x40454c:	pop	r13
0x40454e:	ret	
F 0x40b139
0x4094b8:	pop	rbx
0x4094b9:	pop	r12
0x4094bb:	ret	
F 0x403efe
0x403efe:	pop	rbx
0x403eff:	pop	rbp
0x403f00:	mov	rax, r8
0x403f03:	ret	
F 0x408fba
0x40429f:	add	rsp, 8
0x4042a3:	pop	rbx
0x4042a4:	pop	rbp
0x4042a5:	ret	
F 0x4056b5
0x4037f7:	pop	r12
0x4037f9:	pop	r13
0x4037fb:	ret	
F 0x4070b0
0x4042a2:	or	byte ptr [rbx + 0x5d], bl
0x4042a5:	ret	
F 0x403f03
0x403016:	ret	
F 0x40683a
0x40683a:	adc	eax, 0x1d2c9
0x40683f:	ret	
F 0x404378
0x404378:	add	byte ptr [rax + 0xf], cl
0x40437b:	ret	0x8348
F 0x40454d
0x40379f:	pop	rbp
0x4037a0:	ret	
F 0x4037a6
0x403726:	add	byte ptr [rax], al
0x403728:	ret	
F 0x404376
0x404376:	add	byte ptr [rax], al
0x404378:	add	byte ptr [rax + 0xf], cl
0x40437b:	ret	0x8348
F 0x405706
0x405706:	jmp	0x405741
F 0x404948
0x404948:	ror	byte ptr [rax - 0x73], 0x15
0x40494c:	ret	
F 0x40bd9a
0x40bd9a:	mov	eax, esp
0x40bd9c:	pop	rbx
0x40bd9d:	pop	r12
0x40bd9f:	pop	r13
0x40bda1:	ret	
F 0x409be4
0x409be4:	add	dword ptr [rax], eax
0x409be6:	mov	dword ptr [rip + 0x19f98], edi
0x409bec:	ret	
F 0x40955f
0x4041a0:	pop	r14
0x4041a2:	pop	r15
0x4041a4:	ret	
F 0x406ff3
0x406ff3:	movabs	dword ptr [0x841f0f66c30001], eax
0x406ffc:	add	byte ptr [rax], al
0x406ffe:	add	byte ptr [rax], al
0x407000:	mov	dword ptr [rip + 0x1a33a], edi
0x407006:	ret	
F 0x404de9
0x403e4c:	add	byte ptr [rax], al
0x403e4e:	add	byte ptr [rax], al
0x403e50:	add	rsp, 8
0x403e54:	ret	
F 0x406f8e
0x406f8e:	add	byte ptr [rax], al
0x406f90:	mov	rax, qword ptr [rip + 0x1cb61]
0x406f97:	ret	
F 0x4093ff
0x4093ff:	add	byte ptr [rbp + 5], dh
0x409402:	add	rsp, 0x18
0x409406:	ret	
F 0x4070a4
0x4070a4:	add	eax, 0x1ca4b
0x4070a9:	add	byte ptr [rax], al
0x4070ab:	add	byte ptr [rax], al
0x4070ad:	add	rsp, 8
0x4070b1:	pop	rbx
0x4070b2:	pop	rbp
0x4070b3:	ret	
F 0x409f12
0x409f12:	sbb	eax, 0x19f21
0x409f17:	pop	rbx
0x409f18:	ret	
F 0x403f7d
0x403f7d:	add	byte ptr [rax + 0xf], cl
0x403f80:	ret	0x8948
F 0x40b53b
0x4094b5:	mov	eax, r12d
0x4094b8:	pop	rbx
0x4094b9:	pop	r12
0x4094bb:	ret	
F 0x406f97
0x403016:	ret	
F 0x40b0b6
0x40371f:	jmp	rax
F 0x406fc0
0x406fc0:	mov	dword ptr [rip + 0x1a37e], edi
0x406fc6:	ret	
F 0x408494
0x403016:	ret	
F 0x403df7
0x403df7:	mov	byte ptr [rip + 0x1d485], 0
0x403dfe:	ret	
F 0x405012
0x403016:	ret	
F 0x406beb
0x406beb:	and	al, 1
0x406bee:	add	byte ptr [rax], al
0x406bf0:	add	byte ptr [rcx + rcx*4 + 6], al
0x406bf4:	add	rsp, 8
0x406bf8:	pop	rbx
0x406bf9:	pop	rbp
0x406bfa:	ret	
F 0x403f27
0x403f27:	mov	ecx, 0x8c48348
0x403f2c:	mov	rax, r8
0x403f2f:	pop	rbx
0x403f30:	pop	rbp
0x403f31:	ret	
F 0x404ca9
0x404ca9:	add	eax, 0xfffff172
0x404cae:	mov	byte ptr [rip + 0x1cc07], 1
0x404cb5:	mov	qword ptr [rip + 0x1cc24], rax
0x404cbc:	ret	
F 0x4047f4
0x403016:	ret	
F 0x406fc8
0x406fc8:	nop	dword ptr [rax + rax]
0x406fd0:	mov	qword ptr [rip + 0x1cb29], rdi
0x406fd7:	ret	
F 0x403903
0x403903:	mov	byte ptr [rip + 0x1dfbf], 1
0x40390a:	add	rsp, 8
0x40390e:	xor	eax, eax
0x403910:	pop	rbp
0x403911:	pop	r12
0x403913:	ret	
F 0x406fe8
0x406fe8:	nop	dword ptr [rax + rax]
0x406ff0:	mov	eax, dword ptr [rip + 0x1a34a]
0x406ff6:	ret	
F 0x4067cc
0x4067cc:	add	dword ptr [rax], eax
0x4067ce:	pop	rbx
0x4067cf:	mov	eax, edx
0x4067d1:	pop	rbp
0x4067d2:	pop	r12
0x4067d4:	pop	r13
0x4067d6:	pop	r14
0x4067d8:	pop	r15
0x4067da:	ret	
F 0x40bbef
0x403016:	ret	
F 0x4041b5
0x4041b5:	add	eax, 0x1d74e
0x4041ba:	jmp	0x404193
F 0x40b589
0x40b589:	mov	byte ptr [r12 + r13 + 0x10], 0
0x40b58f:	add	rsp, 8
0x40b593:	mov	rax, r12
0x40b596:	pop	rbx
0x40b597:	pop	rbp
0x40b598:	pop	r12
0x40b59a:	pop	r13
0x40b59c:	ret	
F 0x403eff
0x403eff:	pop	rbp
0x403f00:	mov	rax, r8
0x403f03:	ret	
F 0x4095aa
0x4095aa:	sal	byte ptr [rdi + rbx + 0x48], 0x83
0x4095af:	ret	
F 0x406c4a
0x404f05:	pop	rbx
0x404f06:	pop	rbp
0x404f07:	pop	r12
0x404f09:	ret	
F 0x40bbf5
0x403016:	ret	
F 0x406f8f
0x406f8f:	add	byte ptr [rax - 0x75], cl
0x406f92:	add	eax, 0x1cb61
0x406f97:	ret	
F 0x403823
0x4037f3:	or	byte ptr [rcx + rcx*4 - 0x20], cl
0x4037f7:	pop	r12
0x4037f9:	pop	r13
0x4037fb:	ret	
F 0x406b8f
0x406b8f:	add	dword ptr [rax], eax
0x406b91:	movzx	eax, byte ptr [rdx]
0x406b94:	mov	byte ptr [rip + 0x1cfb2], al
0x406b9a:	ret	
F 0x40375a
0x40375a:	add	byte ptr [rax - 0x7b], cl
0x40375d:	sal	byte ptr [rax + rcx - 1], 0xe0
0x403762:	nop	word ptr [rax + rax]
0x403768:	ret	
F 0x405780
0x403630:	pop	r12
0x403632:	pop	r13
0x403634:	pop	r14
0x403636:	ret	
F 0x406fa7
0x406fa7:	nop	word ptr [rax + rax]
0x406fb0:	mov	rax, qword ptr [rip + 0x1cb39]
0x406fb7:	ret	
F 0x409b14
0x403016:	ret	
F 0x403f90
0x403f90:	xor	r12d, r12d
0x403f93:	mov	eax, r12d
0x403f96:	pop	r12
0x403f98:	ret	
F 0x40b12c
0x40b12c:	add	eax, 0x18d53
0x40b131:	add	byte ptr [rax], al
0x40b133:	add	byte ptr [rax], al
0x40b135:	add	rsp, 8
0x40b139:	pop	rbx
0x40b13a:	pop	r12
0x40b13c:	ret	
F 0x409acf
0x409acf:	add	byte ptr [rax - 0x75], cl
0x409ad2:	add	eax, 0x1a091
0x409ad7:	mov	eax, dword ptr [rax + 0x20]
0x409ada:	ret	
F 0x40afd4
0x40afd4:	sal	dword ptr [rbp - 0x1f], cl
0x40afd7:	pop	rbx
0x40afd8:	pop	rbp
0x40afd9:	pop	r12
0x40afdb:	pop	r13
0x40afdd:	pop	r14
0x40afdf:	ret	
F 0x40505f
0x40429f:	add	rsp, 8
0x4042a3:	pop	rbx
0x4042a4:	pop	rbp
0x4042a5:	ret	
F 0x404945
0x404945:	add	byte ptr [rcx - 0x77], cl
0x404948:	ror	byte ptr [rax - 0x73], 0x15
0x40494c:	ret	
F 0x409d5c
0x409d5c:	nop	dword ptr [rax]
0x409d60:	mov	eax, ecx
0x409d62:	sub	eax, dword ptr [rbx + 8]
0x409d65:	pop	rbx
0x409d66:	pop	rbp
0x409d67:	ret	
F 0x40bb81
0x40bb81:	mov	eax, r11d
0x40bb84:	pop	rbp
0x40bb85:	pop	r12
0x40bb87:	pop	r13
0x40bb89:	ret	
F 0x408bbc
0x4037f7:	pop	r12
0x4037f9:	pop	r13
0x4037fb:	ret	
F 0x40b5ff
0x4037f9:	pop	r13
0x4037fb:	ret	
F 0x4050ea
0x4050ea:	sal	byte ptr [rbp - 0x15], 0xc6
0x4050ee:	add	dword ptr [r8], eax
0x4050f1:	add	rsp, 8
0x4050f5:	pop	rbx
0x4050f6:	pop	rbp
0x4050f7:	ret	
F 0x409f15
0x406a8c:	add	dword ptr [rax], eax
0x406a8e:	pop	rbx
0x406a8f:	ret	
F 0x408ba9
0x403fd6:	pop	rbp
0x403fd7:	pop	r12
0x403fd9:	pop	r13
0x403fdb:	ret	
F 0x40a246
0x40a246:	add	eax, 0x19cad
0x40a24b:	mov	qword ptr [rbx + 8], rax
0x40a24f:	add	rsp, 8
0x40a253:	pop	rbx
0x40a254:	pop	rbp
0x40a255:	ret	
F 0x40681d
0x40681d:	ret	0x348
F 0x403910
0x403910:	pop	rbp
0x403911:	pop	r12
0x403913:	ret	
F 0x40a150
0x40467b:	add	rsp, 8
0x40467f:	pop	rbx
0x404680:	pop	rbp
0x404681:	pop	r12
0x404683:	pop	r13
0x404685:	ret	
F 0x403f3b
0x403f00:	mov	rax, r8
0x403f03:	ret	
F 0x4046f4
0x404548:	pop	rbx
0x404549:	pop	rbp
0x40454a:	pop	r12
0x40454c:	pop	r13
0x40454e:	ret	
F 0x4057bf
0x403016:	ret	
F 0x406b90
0x406b90:	add	byte ptr [rdi], cl
0x406b92:	mov	dh, 2
0x406b94:	mov	byte ptr [rip + 0x1cfb2], al
0x406b9a:	ret	
F 0x40a8a9
0x40a8a9:	xchg	eax, edi
0x40a8aa:	ret	0xda80
F 0x4037a0
0x403016:	ret	
F 0x40916a
0x4041a0:	pop	r14
0x4041a2:	pop	r15
0x4041a4:	ret	
F 0x40429f
0x40429f:	add	rsp, 8
0x4042a3:	pop	rbx
0x4042a4:	pop	rbp
0x4042a5:	ret	
F 0x409bd7
0x409bd7:	mov	byte ptr [rip + 0x19faa], 0
0x409bde:	ret	
F 0x403625
0x403625:	add	byte ptr [rbp + 0x75], dh
0x403628:	add	rsp, 0x20
0x40362c:	xor	eax, eax
0x40362e:	pop	rbx
0x40362f:	pop	rbp
0x403630:	pop	r12
0x403632:	pop	r13
0x403634:	pop	r14
0x403636:	ret	
F 0x409d74
0x403016:	ret	
F 0x40b02c
0x40b02c:	mov	byte ptr [rax], 0
0x40b02f:	pop	rbx
0x40b030:	pop	rbp
0x40b031:	pop	r12
0x40b033:	pop	r13
0x40b035:	pop	r14
0x40b037:	ret	
F 0x4064e3
0x40419c:	pop	r12
0x40419e:	pop	r13
0x4041a0:	pop	r14
0x4041a2:	pop	r15
0x4041a4:	ret	
F 0x40b5e8
0x4037f9:	pop	r13
0x4037fb:	ret	
F 0x409ecb
0x409ecb:	mov	qword ptr [rip + 0x19f66], rbx
0x409ed2:	pop	rbx
0x409ed3:	ret	
F 0x409551
0x409551:	jmp	0x409553
F 0x403d95
0x403765:	add	byte ptr [rax], r8b
0x403768:	ret	
F 0x40b71d
0x403016:	ret	
F 0x40c1a3
0x40c1a3:	add	byte ptr [rax], al
0x40c1a5:	add	byte ptr [rbp + 0x64], dh
0x40c1a8:	add	rsp, 0x48
0x40c1ac:	pop	rbx
0x40c1ad:	pop	rbp
0x40c1ae:	pop	r12
0x40c1b0:	pop	r13
0x40c1b2:	pop	r14
0x40c1b4:	pop	r15
0x40c1b6:	ret	
F 0x40b7b6
0x40429f:	add	rsp, 8
0x4042a3:	pop	rbx
0x4042a4:	pop	rbp
0x4042a5:	ret	
F 0x409d6e
0x409d6e:	add	byte ptr [rax], al
0x409d70:	xor	eax, eax
0x409d72:	pop	rbx
0x409d73:	pop	rbp
0x409d74:	ret	
F 0x4056af
0x40467b:	add	rsp, 8
0x40467f:	pop	rbx
0x404680:	pop	rbp
0x404681:	pop	r12
0x404683:	pop	r13
0x404685:	ret	
F 0x406f82
0x406f82:	add	eax, 0x1cb79
0x406f87:	ret	
F 0x40b904
0x403724:	add	byte ptr [rax], al
0x403726:	add	byte ptr [rax], al
0x403728:	ret	
F 0x40b830
0x403016:	ret	
F 0x404ed0
0x404ed0:	mov	dword ptr [rdi + 0x14], ecx
0x404ed3:	ret	
F 0x404f59
0x403f2f:	pop	rbx
0x403f30:	pop	rbp
0x403f31:	ret	
F 0x408ba1
0x408ba1:	add	rsp, 8
0x408ba5:	mov	rax, r12
0x408ba8:	pop	rbx
0x408ba9:	pop	rbp
0x408baa:	pop	r12
0x408bac:	pop	r13
0x408bae:	ret	
F 0x405786
0x403016:	ret	
F 0x406831
0x406831:	add	byte ptr [rbx - 0x78], bl
0x406834:	or	eax, 0x1d313
0x406839:	mov	dword ptr [rip + 0x1d2c9], edx
0x40683f:	ret	
F 0x40b78e
0x406f2d:	add	byte ptr [rax], al
0x406f2f:	pop	rbx
0x406f30:	pop	rbp
0x406f31:	pop	r12
0x406f33:	ret	
F 0x40375d
0x40375d:	sal	byte ptr [rax + rcx - 1], 0xe0
0x403762:	nop	word ptr [rax + rax]
0x403768:	ret	
F 0x406cbc
0x406cbc:	add	byte ptr [rdi], cl
0x406cbe:	mov	dh, 0
0x406cc0:	mov	byte ptr [rip + 0x1ce86], al
0x406cc6:	ret	
F 0x406f96
0x406f96:	add	bl, al
0x406f98:	nop	dword ptr [rax + rax]
0x406fa0:	mov	eax, dword ptr [rip + 0x1cb62]
0x406fa6:	ret	
F 0x405784
0x403634:	pop	r14
0x403636:	ret	
F 0x404bcf
0x404bcf:	nop	
0x404bd0:	cmp	word ptr [rdi], 0xa0d
0x404bd5:	sete	al
0x404bd8:	ret	
F 0x404fad
0x403016:	ret	
F 0x403fd6
0x403fd6:	pop	rbp
0x403fd7:	pop	r12
0x403fd9:	pop	r13
0x403fdb:	ret	
F 0x406f33
0x403016:	ret	
F 0x4064e2
0x40419b:	pop	rbp
0x40419c:	pop	r12
0x40419e:	pop	r13
0x4041a0:	pop	r14
0x4041a2:	pop	r15
0x4041a4:	ret	
F 0x4069a8
0x4069a8:	adc	dword ptr [rax + 0x20], eax
0x4069ab:	movups	xmmword ptr [rax + 0x30], xmm0
0x4069af:	add	rsp, 8
0x4069b3:	pop	rbx
0x4069b4:	pop	rbp
0x4069b5:	ret	
F 0x408ba4
0x408ba4:	or	byte ptr [rcx + rcx*4 - 0x20], cl
0x408ba8:	pop	rbx
0x408ba9:	pop	rbp
0x408baa:	pop	r12
0x408bac:	pop	r13
0x408bae:	ret	
F 0x403d83
0x403d83:	add	bh, al
0x403d85:	add	eax, 0x1db46
0x403d8a:	add	dword ptr [rax], eax
0x403d8c:	add	byte ptr [rax], al
0x403d8e:	add	rsp, 8
0x403d92:	ret	
F 0x40b596
0x404548:	pop	rbx
0x404549:	pop	rbp
0x40454a:	pop	r12
0x40454c:	pop	r13
0x40454e:	ret	
F 0x405a85
0x405a85:	add	eax, 0x1b8a6
0x405a8a:	mov	qword ptr [rip + 0x1e02f], rax
0x405a91:	ret	
F 0x40b1b1
0x40b1b1:	add	byte ptr [rax], al
0x40b1b3:	mov	dword ptr [rip + 0x18ccb], 0
0x40b1bd:	jmp	0x40b135
F 0x4092d6
0x403e4c:	add	byte ptr [rax], al
0x403e4e:	add	byte ptr [rax], al
0x403e50:	add	rsp, 8
0x403e54:	ret	
F 0x40b940
0x403016:	ret	
F 0x406f6a
0x406f6a:	test	byte ptr [rax], al
0x406f6c:	add	byte ptr [rax], al
0x406f6e:	add	byte ptr [rax], al
0x406f70:	mov	eax, dword ptr [rip + 0x1a3ce]
0x406f76:	ret	
F 0x404540
0x404540:	add	rsp, 0xa8
0x404548:	pop	rbx
0x404549:	pop	rbp
0x40454a:	pop	r12
0x40454c:	pop	r13
0x40454e:	ret	
F 0x404cda
0x403e25:	add	dword ptr [rax], eax
0x403e27:	ret	
F 0x409e69
0x4048e8:	add	byte ptr [rax - 0x77], cl
0x4048eb:	ret	
F 0x4067ce
0x4067ce:	pop	rbx
0x4067cf:	mov	eax, edx
0x4067d1:	pop	rbp
0x4067d2:	pop	r12
0x4067d4:	pop	r13
0x4067d6:	pop	r14
0x4067d8:	pop	r15
0x4067da:	ret	
F 0x404ece
0x404ece:	add	byte ptr [rax], al
0x404ed0:	mov	dword ptr [rdi + 0x14], ecx
0x404ed3:	ret	
F 0x4054e2
0x4041a3:	pop	rdi
0x4041a4:	ret	
F 0x403ca0
0x403ca0:	mov	dword ptr [rip + 0x1dc2a], 0xffffffff
0x403caa:	add	rsp, 8
0x403cae:	ret	
F 0x4077f5
0x403016:	ret	
F 0x404062
0x404062:	mov	byte ptr [rdx + rax], 0
0x404066:	mov	eax, r12d
0x404069:	pop	rbp
0x40406a:	pop	r12
0x40406c:	pop	r13
0x40406e:	ret	
F 0x403765
0x403765:	add	byte ptr [rax], r8b
0x403768:	ret	
F 0x4077fc
0x403016:	ret	
F 0x409ec8
0x409ec8:	add	bh, byte ptr [rdi + 0xd]
0x409ecb:	mov	qword ptr [rip + 0x19f66], rbx
0x409ed2:	pop	rbx
0x409ed3:	ret	
F 0x406a7e
0x406a7e:	mov	qword ptr [rip + 0x1d06b], rax
0x406a85:	movzx	eax, byte ptr [rax]
0x406a88:	mov	byte ptr [rip + 0x1d0be], al
0x406a8e:	pop	rbx
0x406a8f:	ret	
F 0x407160
0x407160:	add	eax, 0x1a1db
0x407165:	add	rsp, 8
0x407169:	ret	
F 0x403fcf
0x403fcf:	add	byte ptr [rax], al
0x403fd1:	add	byte ptr [rax], al
0x403fd3:	mov	eax, r12d
0x403fd6:	pop	rbp
0x403fd7:	pop	r12
0x403fd9:	pop	r13
0x403fdb:	ret	
F 0x403f31
0x403016:	ret	
F 0x403ddf
0x403012:	add	rsp, 8
0x403016:	ret	
F 0x409c31
0x409c31:	mov	qword ptr [rip + 0x19f54], 0xd
0x409c3c:	add	rsp, 8
0x409c40:	pop	rbx
0x409c41:	pop	rbp
0x409c42:	ret	
F 0x403fc9
0x403fc9:	mov	dword ptr [rip + 0x1d945], 0
0x403fd3:	mov	eax, r12d
0x403fd6:	pop	rbp
0x403fd7:	pop	r12
0x403fd9:	pop	r13
0x403fdb:	ret	
F 0x406e45
0x406e45:	add	eax, 0x1cd02
0x406e4a:	pop	rbx
0x406e4b:	pop	rbp
0x406e4c:	pop	r12
0x406e4e:	ret	
F 0x4069e7
0x4069e7:	mov	dword ptr [rip + 0x1d16f], 0
0x4069f1:	add	rsp, 8
0x4069f5:	pop	rbx
0x4069f6:	pop	rbp
0x4069f7:	ret	
F 0x4069f6
0x40379f:	pop	rbp
0x4037a0:	ret	
F 0x40b5fb
0x404548:	pop	rbx
0x404549:	pop	rbp
0x40454a:	pop	r12
0x40454c:	pop	r13
0x40454e:	ret	
F 0x404cb6
0x404cb6:	mov	dword ptr [rip + 0x1cc24], eax
0x404cbc:	ret	
F 0x40c045
0x403f81:	ret	0x8948
F 0x40c1b2
0x4041a0:	pop	r14
0x4041a2:	pop	r15
0x4041a4:	ret	
F 0x409e3c
0x409e3c:	add	byte ptr [rax], al
0x409e3e:	add	byte ptr [rax], al
0x409e40:	mov	rax, qword ptr [rip + 0x19ff1]
0x409e47:	mov	rax, qword ptr [rax]
0x409e4a:	ret	
F 0x40c673
0x40419b:	pop	rbp
0x40419c:	pop	r12
0x40419e:	pop	r13
0x4041a0:	pop	r14
0x4041a2:	pop	r15
0x4041a4:	ret	
F 0x403893
0x40379f:	pop	rbp
0x4037a0:	ret	
F 0x40710b
0x40710b:	clc	
0x40710c:	emms	
0x40710e:	or	al, 0x48
0x407110:	lea	eax, [rip + 0x6eaa]
0x407116:	movzx	r8d, byte ptr [rax + rdx]
0x40711b:	mov	eax, r8d
0x40711e:	ret	
F 0x409b0c
0x409b0c:	mov	byte ptr [rip + 0x1a075], 0
0x409b13:	pop	rbx
0x409b14:	ret	
F 0x40c457
0x40362f:	pop	rbp
0x403630:	pop	r12
0x403632:	pop	r13
0x403634:	pop	r14
0x403636:	ret	
F 0x4046f1
0x4046f1:	mov	eax, r12d
0x4046f4:	pop	rbx
0x4046f5:	pop	rbp
0x4046f6:	pop	r12
0x4046f8:	pop	r13
0x4046fa:	ret	
F 0x409c58
0x409c58:	mov	dword ptr [rdi], eax
0x409c5a:	movsxd	rax, dword ptr [rip + 0x176e7]
0x409c61:	ret	
F 0x405a18
0x4042a2:	or	byte ptr [rbx + 0x5d], bl
0x4042a5:	ret	
F 0x403820
0x4037f0:	add	rsp, 8
0x4037f4:	mov	rax, r12
0x4037f7:	pop	r12
0x4037f9:	pop	r13
0x4037fb:	ret	
F 0x40b59a
0x4037f9:	pop	r13
0x4037fb:	ret	
F 0x404cb4
0x404cb4:	add	dword ptr [rax - 0x77], ecx
0x404cb7:	add	eax, 0x1cc24
0x404cbc:	ret	
F 0x408d11
0x403632:	pop	r13
0x403634:	pop	r14
0x403636:	ret	
F 0x40bb15
0x403016:	ret	
F 0x408b31
0x408b31:	mov	eax, dword ptr [rip + 0x1afb9]
0x408b37:	mov	qword ptr [rdi], rax
0x408b3a:	movsxd	rax, dword ptr [rip + 0x1afc7]
0x408b41:	ret	
F 0x40b036
0x403635:	pop	rsi
0x403636:	ret	
F 0x40691b
0x40691b:	movzx	eax, byte ptr [rdi]
0x40691e:	mov	qword ptr [rip + 0x1d21b], rdi
0x406925:	mov	byte ptr [rip + 0x1d221], al
0x40692b:	ret	
F 0x406cbe
0x406cbe:	mov	dh, 0
0x406cc0:	mov	byte ptr [rip + 0x1ce86], al
0x406cc6:	ret	
F 0x409c32
0x409c32:	mov	dword ptr [rip + 0x19f54], 0xd
0x409c3c:	add	rsp, 8
0x409c40:	pop	rbx
0x409c41:	pop	rbp
0x409c42:	ret	
F 0x408bc0
0x403016:	ret	
F 0x409bc0
0x404636:	add	byte ptr [rax], al
0x404638:	xor	eax, eax
0x40463a:	pop	rbx
0x40463b:	ret	
F 0x4067d9
0x4041a3:	pop	rdi
0x4041a4:	ret	
F 0x40463a
0x403e94:	pop	rbx
0x403e95:	ret	
F 0x4054de
0x40419f:	pop	rbp
0x4041a0:	pop	r14
0x4041a2:	pop	r15
0x4041a4:	ret	
F 0x40b789
0x40b789:	nop	dword ptr [rax]
0x40b790:	pop	rbx
0x40b791:	pop	rbp
0x40b792:	pop	r12
0x40b794:	ret	
F 0x406e43
0x406e43:	add	byte ptr [rax + 0x1cd0205], cl
0x406e49:	add	byte ptr [rbx + 0x5d], bl
0x406e4c:	pop	r12
0x406e4e:	ret	
F 0x4069a9
0x4069a9:	and	byte ptr [rdi], cl
0x4069ac:	adc	dword ptr [rax + 0x30], eax
0x4069af:	add	rsp, 8
0x4069b3:	pop	rbx
0x4069b4:	pop	rbp
0x4069b5:	ret	
F 0x409fbf
0x403016:	ret	
F 0x405a87
0x405a87:	mov	eax, 0x89480001
0x405a8c:	add	eax, 0x1e02f
0x405a91:	ret	
F 0x406ef5
0x403016:	ret	
F 0x406e3b
0x406e3b:	mov	dh, 2
0x406e3d:	mov	qword ptr [rip + 0x1ccfc], rdx
0x406e44:	mov	byte ptr [rip + 0x1cd02], al
0x406e4a:	pop	rbx
0x406e4b:	pop	rbp
0x406e4c:	pop	r12
0x406e4e:	ret	
F 0x40955d
0x40419e:	pop	r13
0x4041a0:	pop	r14
0x4041a2:	pop	r15
0x4041a4:	ret	
F 0x406fdd
0x406fdd:	add	byte ptr [rax], al
0x406fdf:	add	byte ptr [rax - 0x77], cl
0x406fe2:	cmp	eax, 0x1cb11
0x406fe7:	ret	
F 0x4037ed
0x4037ed:	add	bh, byte ptr [rdi + 0x10]
0x4037f0:	add	rsp, 8
0x4037f4:	mov	rax, r12
0x4037f7:	pop	r12
0x4037f9:	pop	r13
0x4037fb:	ret	
F 0x4037fa
0x40379f:	pop	rbp
0x4037a0:	ret	
F 0x406f7a
0x406f7a:	test	byte ptr [rax], al
0x406f7c:	add	byte ptr [rax], al
0x406f7e:	add	byte ptr [rax], al
0x406f80:	mov	rax, qword ptr [rip + 0x1cb79]
0x406f87:	ret	
F 0x403766
0x403726:	add	byte ptr [rax], al
0x403728:	ret	
F 0x404d4b
0x403016:	ret	
F 0x40bb0e
0x40bb0e:	add	byte ptr [rax], al
0x40bb10:	mov	eax, 1
0x40bb15:	ret	
F 0x40b52f
0x40b52f:	add	ebx, eax
0x40b531:	sub	r12d, r9d
0x40b534:	mov	byte ptr [rbx], 0
0x40b537:	add	rsp, 8
0x40b53b:	mov	eax, r12d
0x40b53e:	pop	rbx
0x40b53f:	pop	r12
0x40b541:	ret	
F 0x4055ed
0x4055ed:	or	byte ptr [rcx + rcx*4 - 0x20], al
0x4055f1:	pop	rbp
0x4055f2:	pop	r12
0x4055f4:	pop	r13
0x4055f6:	pop	r14
0x4055f8:	ret	
F 0x4090f9
0x403f2b:	or	byte ptr [rcx + rcx*4 - 0x40], cl
0x403f2f:	pop	rbx
0x403f30:	pop	rbp
0x403f31:	ret	
F 0x408e76
0x403016:	ret	
F 0x40afd8
0x40362f:	pop	rbp
0x403630:	pop	r12
0x403632:	pop	r13
0x403634:	pop	r14
0x403636:	ret	
F 0x40b82e
0x403726:	add	byte ptr [rax], al
0x403728:	ret	
F 0x40bf8f
0x40379f:	pop	rbp
0x4037a0:	ret	
F 0x403e0c
0x403e0c:	add	dword ptr [rax], eax
0x403e0e:	mov	byte ptr [rip + 0x1d46e], 0
0x403e15:	test	al, al
0x403e17:	cmove	eax, edx
0x403e1a:	ret	
F 0x406a82
0x406a82:	rol	byte ptr [rcx], 1
0x406a84:	add	byte ptr [rdi], cl
0x406a86:	mov	dh, 0
0x406a88:	mov	byte ptr [rip + 0x1d0be], al
0x406a8e:	pop	rbx
0x406a8f:	ret	
F 0x4057da
0x4057da:	sub	ecx, dword ptr [rcx + 0x445d5bd8]
0x4057e0:	sub	eax, esp
0x4057e2:	pop	r12
0x4057e4:	pop	r13
0x4057e6:	pop	r14
0x4057e8:	ret	
F 0x404cd7
0x404cd7:	add	eax, 0x1cc04
0x404cdc:	ret	
F 0x40b0ba
0x406b0a:	test	byte ptr [rax], al
0x406b0c:	add	byte ptr [rax], al
0x406b0e:	add	byte ptr [rax], al
0x406b10:	ret	
F 0x404fac
0x403635:	pop	rsi
0x403636:	ret	
F 0x4069a7
0x4069a7:	movups	xmmword ptr [rax + 0x20], xmm0
0x4069ab:	movups	xmmword ptr [rax + 0x30], xmm0
0x4069af:	add	rsp, 8
0x4069b3:	pop	rbx
0x4069b4:	pop	rbp
0x4069b5:	ret	
F 0x40bf81
0x40bf81:	add	dword ptr [rax], eax
0x40bf83:	add	byte ptr [rbp - 0x26], dh
0x40bf86:	add	rsp, 8
0x40bf8a:	pop	rbx
0x40bf8b:	pop	rbp
0x40bf8c:	pop	r12
0x40bf8e:	pop	r13
0x40bf90:	ret	
F 0x40c610
0x403016:	ret	
F 0x405a7e
0x405a7e:	add	byte ptr [rax], al
0x405a80:	add	byte ptr [rbp + 0xe], dh
0x405a83:	lea	rax, [rip + 0x1b8a6]
0x405a8a:	mov	qword ptr [rip + 0x1e02f], rax
0x405a91:	ret	
F 0x40b0c0
0x403016:	ret	
F 0x4070b2
0x40379f:	pop	rbp
0x4037a0:	ret	
F 0x407773
0x403016:	ret	
F 0x40b64a
0x403f2f:	pop	rbx
0x403f30:	pop	rbp
0x403f31:	ret	
F 0x403ef6
0x403ef6:	cmove	r8, rax
0x403efa:	add	rsp, 8
0x403efe:	pop	rbx
0x403eff:	pop	rbp
0x403f00:	mov	rax, r8
0x403f03:	ret	
F 0x407117
0x407117:	movzx	eax, byte ptr [rax + rdx]
0x40711b:	mov	eax, r8d
0x40711e:	ret	
F 0x409e40
0x409e40:	mov	rax, qword ptr [rip + 0x19ff1]
0x409e47:	mov	rax, qword ptr [rax]
0x409e4a:	ret	
F 0x40c1a7
0x40c1a7:	add	rsp, 0x48
0x40c1ac:	pop	rbx
0x40c1ad:	pop	rbp
0x40c1ae:	pop	r12
0x40c1b0:	pop	r13
0x40c1b2:	pop	r14
0x40c1b4:	pop	r15
0x40c1b6:	ret	
F 0x40b68a
0x40b68a:	adc	eax, 0x3944c031
0x40b68f:	jmp	0x40b64b
F 0x40505b
0x40505b:	mov	byte ptr [rdx + rax], 0
0x40505f:	add	rsp, 8
0x405063:	pop	rbx
0x405064:	pop	rbp
0x405065:	ret	
F 0x40b5dd
0x408ba1:	add	rsp, 8
0x408ba5:	mov	rax, r12
0x408ba8:	pop	rbx
0x408ba9:	pop	rbp
0x408baa:	pop	r12
0x408bac:	pop	r13
0x408bae:	ret	
F 0x40b12a
0x40b12a:	or	al, bh
0x40b12c:	add	eax, 0x18d53
0x40b131:	add	byte ptr [rax], al
0x40b133:	add	byte ptr [rax], al
0x40b135:	add	rsp, 8
0x40b139:	pop	rbx
0x40b13a:	pop	r12
0x40b13c:	ret	
F 0x406835
0x406835:	adc	edx, ebx
0x406837:	add	dword ptr [rax], eax
0x406839:	mov	dword ptr [rip + 0x1d2c9], edx
0x40683f:	ret	
F 0x404677
0x404677:	add	byte ptr [rax], al
0x404679:	add	byte ptr [rax], al
0x40467b:	add	rsp, 8
0x40467f:	pop	rbx
0x404680:	pop	rbp
0x404681:	pop	r12
0x404683:	pop	r13
0x404685:	ret	
F 0x406f88
0x406f88:	nop	dword ptr [rax + rax]
0x406f90:	mov	rax, qword ptr [rip + 0x1cb61]
0x406f97:	ret	
F 0x40c674
0x40419c:	pop	r12
0x40419e:	pop	r13
0x4041a0:	pop	r14
0x4041a2:	pop	r15
0x4041a4:	ret	
F 0x404ec6
0x404ec6:	clc	
0x404ec7:	mov	dword ptr [rdi], edx
0x404ec9:	mov	dword ptr [rdi + 0x10], 0
0x404ed0:	mov	dword ptr [rdi + 0x14], ecx
0x404ed3:	ret	
F 0x405703
0x405703:	push	qword ptr [rbp + 0x2c]
0x405706:	jmp	0x405741
F 0x40b8a8
0x40b7f8:	dec	dword ptr [rax + 9]
0x40b7fb:	ret	
F 0x40bd9c
0x40bd9c:	pop	rbx
0x40bd9d:	pop	r12
0x40bd9f:	pop	r13
0x40bda1:	ret	
F 0x40b644
0x40b644:	ret	0x8348
F 0x404633
0x404633:	add	byte ptr [rax], 0
0x404636:	add	byte ptr [rax], al
0x404638:	xor	eax, eax
0x40463a:	pop	rbx
0x40463b:	ret	
F 0x40a249
0x40a249:	add	dword ptr [rax], eax
0x40a24b:	mov	qword ptr [rbx + 8], rax
0x40a24f:	add	rsp, 8
0x40a253:	pop	rbx
0x40a254:	pop	rbp
0x40a255:	ret	
F 0x40c4ed
0x40c4ce:	add	al, 0x48
0x40c4d0:	mov	eax, dword ptr [rax + 0x20]
0x40c4d3:	add	rsp, 8
0x40c4d7:	ret	
F 0x40371f
0x40371f:	jmp	rax
F 0x404ef6
0x404ef6:	mov	dword ptr [rax + 8], esp
0x404ef9:	mov	dword ptr [rax], ebp
0x404efb:	mov	dword ptr [rax + 0x10], 0
0x404f02:	mov	dword ptr [rax + 0x14], ebx
0x404f05:	pop	rbx
0x404f06:	pop	rbp
0x404f07:	pop	r12
0x404f09:	ret	
F 0x4050ed
0x4050ed:	mov	byte ptr [rbx + 1], 0
0x4050f1:	add	rsp, 8
0x4050f5:	pop	rbx
0x4050f6:	pop	rbp
0x4050f7:	ret	
F 0x409921
0x4058a6:	dec	dword ptr [rax - 0x77]
0x4058a9:	ret	
F 0x403f36
0x403f36:	add	byte ptr [rax], al
0x403f38:	xor	r8d, r8d
0x403f3b:	mov	rax, r8
0x403f3e:	ret	
F 0x409553
0x409553:	add	byte ptr [rax], al
0x409555:	add	rsp, 8
0x409559:	pop	rbx
0x40955a:	pop	rbp
0x40955b:	pop	r12
0x40955d:	pop	r13
0x40955f:	pop	r14
0x409561:	pop	r15
0x409563:	ret	
F 0x404ad7
0x404ad7:	add	byte ptr [rax], al
0x404ad9:	mov	eax, r12d
0x404adc:	pop	rbx
0x404add:	pop	rbp
0x404ade:	pop	r12
0x404ae0:	pop	r13
0x404ae2:	pop	r14
0x404ae4:	pop	r15
0x404ae6:	ret	
F 0x40bb10
0x409e31:	mov	eax, 1
0x409e36:	ret	
F 0x40be9d
0x40be9d:	add	byte ptr [rax - 0x75], cl
0x40bea0:	cmp	ecx, dword ptr [rax - 0x7d]
0x40bea3:	ret	
F 0x40b719
0x4037f7:	pop	r12
0x4037f9:	pop	r13
0x4037fb:	ret	
F 0x403f7c
0x403f7c:	add	byte ptr [rax], al
0x403f7e:	cmove	rax, rdx
0x403f82:	mov	qword ptr [rip + 0x1d997], rax
0x403f89:	mov	eax, r12d
0x403f8c:	pop	r12
0x403f8e:	ret	
F 0x40b541
0x403016:	ret	
F 0x403f2d
0x403f2d:	mov	eax, eax
0x403f2f:	pop	rbx
0x403f30:	pop	rbp
0x403f31:	ret	
F 0x4052b0
0x40419b:	pop	rbp
0x40419c:	pop	r12
0x40419e:	pop	r13
0x4041a0:	pop	r14
0x4041a2:	pop	r15
0x4041a4:	ret	
F 0x407428
0x40419a:	pop	rbx
0x40419b:	pop	rbp
0x40419c:	pop	r12
0x40419e:	pop	r13
0x4041a0:	pop	r14
0x4041a2:	pop	r15
0x4041a4:	ret	
F 0x40b676
0x403016:	ret	
F 0x409e37
0x409e37:	nop	word ptr [rax + rax]
0x409e40:	mov	rax, qword ptr [rip + 0x19ff1]
0x409e47:	mov	rax, qword ptr [rax]
0x409e4a:	ret	
F 0x404547
0x404547:	add	byte ptr [rbx + 0x5d], bl
0x40454a:	pop	r12
0x40454c:	pop	r13
0x40454e:	ret	
F 0x409e7e
0x403f81:	ret	0x8948
F 0x40577d
0x40577d:	adc	bl, byte ptr [rbx + 0x5d]
0x405780:	pop	r12
0x405782:	pop	r13
0x405784:	pop	r14
0x405786:	ret	
F 0x406fd5
0x403e25:	add	dword ptr [rax], eax
0x403e27:	ret	
F 0x409a48
0x409a48:	mov	eax, r12d
0x409a4b:	pop	rbp
0x409a4c:	pop	r12
0x409a4e:	ret	
F 0x40912d
0x403f00:	mov	rax, r8
0x403f03:	ret	
F 0x406f70
0x406f70:	mov	eax, dword ptr [rip + 0x1a3ce]
0x406f76:	ret	
F 0x40a512
0x40a512:	pop	rax
0x40a513:	mov	eax, r13d
0x40a516:	pop	rbx
0x40a517:	pop	rbp
0x40a518:	pop	r12
0x40a51a:	pop	r13
0x40a51c:	pop	r14
0x40a51e:	pop	r15
0x40a520:	ret	
F 0x40b63a
0x40b63a:	add	byte ptr [rax], al
0x40b63c:	seta	al
0x40b63f:	neg	eax
0x40b641:	cmp	ebp, ebx
0x40b643:	cmovb	eax, edx
0x40b646:	add	rsp, 8
0x40b64a:	pop	rbx
0x40b64b:	pop	rbp
0x40b64c:	ret	
F 0x40b04c
0x40b04c:	add	eax, 0x18e33
0x40b051:	add	byte ptr [rax], al
0x40b053:	add	byte ptr [rax], al
0x40b055:	ret	
F 0x40b641
0x40b641:	cmp	ebp, ebx
0x40b643:	cmovb	eax, edx
0x40b646:	add	rsp, 8
0x40b64a:	pop	rbx
0x40b64b:	pop	rbp
0x40b64c:	ret	
F 0x4051e9
0x4041a0:	pop	r14
0x4041a2:	pop	r15
0x4041a4:	ret	
F 0x409c0f
0x403016:	ret	
F 0x40a15a
0x403016:	ret	
F 0x406f9c
0x406f9c:	add	byte ptr [rax], al
0x406f9e:	add	byte ptr [rax], al
0x406fa0:	mov	eax, dword ptr [rip + 0x1cb62]
0x406fa6:	ret	
F 0x403825
0x4037f5:	mov	eax, esp
0x4037f7:	pop	r12
0x4037f9:	pop	r13
0x4037fb:	ret	
F 0x403760
0x40371f:	jmp	rax
F 0x403fd9
0x4037f9:	pop	r13
0x4037fb:	ret	
F 0x403633
0x403633:	pop	rbp
0x403634:	pop	r14
0x403636:	ret	
F 0x404e88
0x404e88:	add	byte ptr [rax], al
0x404e8a:	add	rsp, 8
0x404e8e:	pop	rbp
0x404e8f:	pop	r12
0x404e91:	ret	
F 0x4067ae
0x403016:	ret	
F 0x407051
0x407051:	sti	
F 0x40b049
0x40b049:	add	byte ptr [rax], al
0x40b04b:	mov	dword ptr [rip + 0x18e33], 0
0x40b055:	ret	
F 0x405785
0x403635:	pop	rsi
0x403636:	ret	
F 0x406817
0x406817:	add	byte ptr [rax + 0x6348030c], cl
0x40681d:	ret	0x348
F 0x409165
0x40419b:	pop	rbp
0x40419c:	pop	r12
0x40419e:	pop	r13
0x4041a0:	pop	r14
0x4041a2:	pop	r15
0x4041a4:	ret	
F 0x406fb8
0x406fb8:	nop	dword ptr [rax + rax]
0x406fc0:	mov	dword ptr [rip + 0x1a37e], edi
0x406fc6:	ret	
F 0x406f86
0x406f86:	add	bl, al
0x406f88:	nop	dword ptr [rax + rax]
0x406f90:	mov	rax, qword ptr [rip + 0x1cb61]
0x406f97:	ret	
F 0x405783
0x403633:	pop	rbp
0x403634:	pop	r14
0x403636:	ret	
F 0x406e49
0x406e49:	add	byte ptr [rbx + 0x5d], bl
0x406e4c:	pop	r12
0x406e4e:	ret	
F 0x4092cf
0x4092cf:	mov	qword ptr [rip + 0x1a896], 0
0x4092da:	add	rsp, 8
0x4092de:	ret	
F 0x40bc0f
0x40bc0f:	jmp	0x40bb7c
F 0x40681a
0x40681a:	add	ecx, dword ptr [rax + 0x63]
0x40681d:	ret	0x348
F 0x409c2f
0x409c2f:	add	dword ptr [rax], eax
0x409c31:	mov	qword ptr [rip + 0x19f54], 0xd
0x409c3c:	add	rsp, 8
0x409c40:	pop	rbx
0x409c41:	pop	rbp
0x409c42:	ret	
F 0x409559
0x40419a:	pop	rbx
0x40419b:	pop	rbp
0x40419c:	pop	r12
0x40419e:	pop	r13
0x4041a0:	pop	r14
0x4041a2:	pop	r15
0x4041a4:	ret	
F 0x409bdc
0x403726:	add	byte ptr [rax], al
0x403728:	ret	
F 0x40bb7d
0x40bb7d:	mov	byte ptr [rax], 0
0x40bb80:	pop	rbx
0x40bb81:	mov	eax, r11d
0x40bb84:	pop	rbp
0x40bb85:	pop	r12
0x40bb87:	pop	r13
0x40bb89:	ret	
F 0x406f2e
0x406e49:	add	byte ptr [rbx + 0x5d], bl
0x406e4c:	pop	r12
0x406e4e:	ret	
F 0x407116
0x407116:	movzx	r8d, byte ptr [rax + rdx]
0x40711b:	mov	eax, r8d
0x40711e:	ret	
F 0x4050f1
0x40429f:	add	rsp, 8
0x4042a3:	pop	rbx
0x4042a4:	pop	rbp
0x4042a5:	ret	
F 0x4055ee
0x4055ee:	mov	eax, r12d
0x4055f1:	pop	rbp
0x4055f2:	pop	r12
0x4055f4:	pop	r13
0x4055f6:	pop	r14
0x4055f8:	ret	
F 0x40b601
0x403016:	ret	
F 0x40683f
0x403016:	ret	
F 0x406f7f
0x406f7f:	add	byte ptr [rax - 0x75], cl
0x406f82:	add	eax, 0x1cb79
0x406f87:	ret	
F 0x40a50f
0x40a50f:	add	rsp, 0x58
0x40a513:	mov	eax, r13d
0x40a516:	pop	rbx
0x40a517:	pop	rbp
0x40a518:	pop	r12
0x40a51a:	pop	r13
0x40a51c:	pop	r14
0x40a51e:	pop	r15
0x40a520:	ret	
F 0x40bd96
0x40bd96:	push	qword ptr [rdi + rcx + 0x4c]
0x40bd9a:	mov	eax, esp
0x40bd9c:	pop	rbx
0x40bd9d:	pop	r12
0x40bd9f:	pop	r13
0x40bda1:	ret	
F 0x40bf7d
0x40bf7d:	ret	0x3d48
F 0x408b30
0x408b30:	mov	rax, qword ptr [rip + 0x1afb9]
0x408b37:	mov	qword ptr [rdi], rax
0x408b3a:	movsxd	rax, dword ptr [rip + 0x1afc7]
0x408b41:	ret	
F 0x406fdf
0x406fdf:	add	byte ptr [rax - 0x77], cl
0x406fe2:	cmp	eax, 0x1cb11
0x406fe7:	ret	
F 0x406bf8
0x403f2f:	pop	rbx
0x403f30:	pop	rbp
0x403f31:	ret	
F 0x40b53e
0x4094b8:	pop	rbx
0x4094b9:	pop	r12
0x4094bb:	ret	
F 0x40406d
0x40379f:	pop	rbp
0x4037a0:	ret	
F 0x406a89
0x406a89:	add	eax, 0x1d0be
0x406a8e:	pop	rbx
0x406a8f:	ret	
F 0x4057e2
0x403630:	pop	r12
0x403632:	pop	r13
0x403634:	pop	r14
0x403636:	ret	
F 0x40c4f2
0x403012:	add	rsp, 8
0x403016:	ret	
F 0x40bb05
0x403016:	ret	
F 0x40419e
0x40419e:	pop	r13
0x4041a0:	pop	r14
0x4041a2:	pop	r15
0x4041a4:	ret	
F 0x403e4c
0x403e4c:	add	byte ptr [rax], al
0x403e4e:	add	byte ptr [rax], al
0x403e50:	add	rsp, 8
0x403e54:	ret	
F 0x404d3d
0x404d3d:	add	byte ptr [rax], al
0x404d3f:	add	byte ptr [rbp + 0x50], dh
0x404d42:	add	rsp, 0xa0
0x404d49:	pop	r12
0x404d4b:	ret	
F 0x4054d9
0x40419a:	pop	rbx
0x40419b:	pop	rbp
0x40419c:	pop	r12
0x40419e:	pop	r13
0x4041a0:	pop	r14
0x4041a2:	pop	r15
0x4041a4:	ret	
F 0x409e38
0x409e38:	nop	dword ptr [rax + rax]
0x409e40:	mov	rax, qword ptr [rip + 0x19ff1]
0x409e47:	mov	rax, qword ptr [rax]
0x409e4a:	ret	
F 0x404545
0x404545:	add	byte ptr [rax], al
0x404547:	add	byte ptr [rbx + 0x5d], bl
0x40454a:	pop	r12
0x40454c:	pop	r13
0x40454e:	ret	
F 0x406f2d
0x406f2d:	add	byte ptr [rax], al
0x406f2f:	pop	rbx
0x406f30:	pop	rbp
0x406f31:	pop	r12
0x406f33:	ret	
F 0x403f00
0x403f00:	mov	rax, r8
0x403f03:	ret	
F 0x409e78
0x409e78:	add	byte ptr [rax - 0x77], cl
0x409e7b:	add	ecx, dword ptr [rax - 0x77]
0x409e7e:	ret	0x8948
F 0x407805
0x407805:	mov	dh, 5
0x407807:	ret	
F 0x4056b9
0x403016:	ret	
F 0x404f9e
0x404f9e:	mov	byte ptr [rdx + rax], 0
0x404fa2:	mov	eax, r13d
0x404fa5:	pop	rbx
0x404fa6:	pop	rbp
0x404fa7:	pop	r12
0x404fa9:	pop	r13
0x404fab:	pop	r14
0x404fad:	ret	
F 0x40b8b4
0x403016:	ret	
F 0x40710e
0x40710e:	or	al, 0x48
0x407110:	lea	eax, [rip + 0x6eaa]
0x407116:	movzx	r8d, byte ptr [rax + rdx]
0x40711b:	mov	eax, r8d
0x40711e:	ret	
F 0x403f7e
0x403f7e:	cmove	rax, rdx
0x403f82:	mov	qword ptr [rip + 0x1d997], rax
0x403f89:	mov	eax, r12d
0x403f8c:	pop	r12
0x403f8e:	ret	
F 0x40682d
0x40682d:	add	dword ptr [rax], eax
0x40682f:	mov	byte ptr [rax], 0
0x406832:	pop	rbx
0x406833:	mov	byte ptr [rip + 0x1d313], cl
0x406839:	mov	dword ptr [rip + 0x1d2c9], edx
0x40683f:	ret	
F 0x40b6a6
0x4037f7:	pop	r12
0x4037f9:	pop	r13
0x4037fb:	ret	
F 0x40390d
0x40390d:	or	byte ptr [rcx], dh
0x40390f:	rcr	byte ptr [rbp + 0x41], 0x5c
0x403913:	ret	
F 0x40c543
0x40c543:	sub	rax, 1
0x40c547:	ret	
F 0x4070a9
0x4069ed:	add	byte ptr [rax], al
0x4069ef:	add	byte ptr [rax], al
0x4069f1:	add	rsp, 8
0x4069f5:	pop	rbx
0x4069f6:	pop	rbp
0x4069f7:	ret	
F 0x403d63
0x403d63:	mov	dword ptr [rip + 0x1db67], 1
0x403d6d:	add	rsp, 8
0x403d71:	ret	
F 0x403e54
0x403016:	ret	
F 0x406eba
0x404f05:	pop	rbx
0x404f06:	pop	rbp
0x404f07:	pop	r12
0x404f09:	ret	
F 0x40a517
0x40419b:	pop	rbp
0x40419c:	pop	r12
0x40419e:	pop	r13
0x4041a0:	pop	r14
0x4041a2:	pop	r15
0x4041a4:	ret	
F 0x407797
0x403016:	ret	
F 0x406fb5
0x403e25:	add	dword ptr [rax], eax
0x403e27:	ret	
F 0x40b5d8
0x40b58a:	mov	byte ptr [rsp + rbp + 0x10], 0
0x40b58f:	add	rsp, 8
0x40b593:	mov	rax, r12
0x40b596:	pop	rbx
0x40b597:	pop	rbp
0x40b598:	pop	r12
0x40b59a:	pop	r13
0x40b59c:	ret	
F 0x40c678
0x4041a0:	pop	r14
0x4041a2:	pop	r15
0x4041a4:	ret	
F 0x403fca
0x403fca:	add	eax, 0x1d945
0x403fcf:	add	byte ptr [rax], al
0x403fd1:	add	byte ptr [rax], al
0x403fd3:	mov	eax, r12d
0x403fd6:	pop	rbp
0x403fd7:	pop	r12
0x403fd9:	pop	r13
0x403fdb:	ret	
F 0x40c547
0x403016:	ret	
F 0x403e1b
0x403e1b:	nop	dword ptr [rax + rax]
0x403e20:	mov	rax, qword ptr [rip + 0x1fc61]
0x403e27:	ret	
F 0x406063
0x40419c:	pop	r12
0x40419e:	pop	r13
0x4041a0:	pop	r14
0x4041a2:	pop	r15
0x4041a4:	ret	
F 0x40c5fc
0x403016:	ret	
F 0x40711e
0x403016:	ret	
F 0x403f88
0x403f88:	add	byte ptr [rcx + rcx*4 - 0x20], al
0x403f8c:	pop	r12
0x403f8e:	ret	
F 0x406dba
0x406b0a:	test	byte ptr [rax], al
0x406b0c:	add	byte ptr [rax], al
0x406b0e:	add	byte ptr [rax], al
0x406b10:	ret	
F 0x40a51d
0x4041a1:	pop	rsi
0x4041a2:	pop	r15
0x4041a4:	ret	
F 0x4048eb
0x403016:	ret	
F 0x403e95
0x403016:	ret	
F 0x409961
0x4042a2:	or	byte ptr [rbx + 0x5d], bl
0x4042a5:	ret	
F 0x40b7fb
0x403016:	ret	
F 0x406333
0x406333:	or	byte ptr [rax - 0x7d], cl
0x406337:	ret	
F 0x403e92
0x403e92:	adc	dword ptr [rax], eax
0x403e94:	pop	rbx
0x403e95:	ret	
F 0x4068af
0x403016:	ret	
F 0x406cc4
0x403e25:	add	dword ptr [rax], eax
0x403e27:	ret	
F 0x409e34
0x403726:	add	byte ptr [rax], al
0x403728:	ret	
F 0x408206
0x408206:	mov	dh, 5
0x408208:	mov	ecx, 0x88410001
0x40820e:	add	byte ptr [r8 + 0x63], r9b
0x408212:	ret	0x148
F 0x409105
0x409105:	xor	eax, eax
0x409107:	mov	rax, r8
0x40910a:	pop	rbx
0x40910b:	pop	rbp
0x40910c:	ret	
F 0x409d60
0x409d60:	mov	eax, ecx
0x409d62:	sub	eax, dword ptr [rbx + 8]
0x409d65:	pop	rbx
0x409d66:	pop	rbp
0x409d67:	ret	
F 0x407115
0x407115:	add	byte ptr [rdi + rcx - 0x4a], al
0x407119:	add	al, 0x10
0x40711b:	mov	eax, r8d
0x40711e:	ret	
F 0x4064f2
0x403f81:	ret	0x8948
F 0x406fb2
0x406fb2:	add	eax, 0x1cb39
0x406fb7:	ret	
F 0x408e6e
0x4069ef:	add	byte ptr [rax], al
0x4069f1:	add	rsp, 8
0x4069f5:	pop	rbx
0x4069f6:	pop	rbp
0x4069f7:	ret	
F 0x4090ef
0x4090ef:	mov	byte ptr [rax + rbx], 0
0x4090f3:	mov	r8, rax
0x4090f6:	add	rsp, 8
0x4090fa:	mov	rax, r8
0x4090fd:	pop	rbx
0x4090fe:	pop	rbp
0x4090ff:	ret	
F 0x408fbf
0x40379f:	pop	rbp
0x4037a0:	ret	
F 0x409402
0x409402:	add	rsp, 0x18
0x409406:	ret	
F 0x40a51b
0x40419f:	pop	rbp
0x4041a0:	pop	r14
0x4041a2:	pop	r15
0x4041a4:	ret	
F 0x403723
0x403723:	add	byte ptr [rax], 0
0x403726:	add	byte ptr [rax], al
0x403728:	ret	
F 0x406ff0
0x406ff0:	mov	eax, dword ptr [rip + 0x1a34a]
0x406ff6:	ret	
F 0x4094b6
0x4094b6:	mov	eax, esp
0x4094b8:	pop	rbx
0x4094b9:	pop	r12
0x4094bb:	ret	
F 0x40bf8a
0x404548:	pop	rbx
0x404549:	pop	rbp
0x40454a:	pop	r12
0x40454c:	pop	r13
0x40454e:	ret	
F 0x408b3e
0x408b3e:	scasd	eax, dword ptr [rdi]
0x408b3f:	add	dword ptr [rax], eax
0x408b41:	ret	
F 0x4055f5
0x403633:	pop	rbp
0x403634:	pop	r14
0x403636:	ret	
F 0x40c4ce
0x40c4ce:	add	al, 0x48
0x40c4d0:	mov	eax, dword ptr [rax + 0x20]
0x40c4d3:	add	rsp, 8
0x40c4d7:	ret	
F 0x403ef4
0x403ef4:	add	byte ptr [rax], al
0x403ef6:	cmove	r8, rax
0x403efa:	add	rsp, 8
0x403efe:	pop	rbx
0x403eff:	pop	rbp
0x403f00:	mov	rax, r8
0x403f03:	ret	
F 0x40b78b
0x40b78b:	add	byte ptr [rax], 0
0x40b78e:	add	byte ptr [rax], al
0x40b790:	pop	rbx
0x40b791:	pop	rbp
0x40b792:	pop	r12
0x40b794:	ret	
F 0x4070ab
0x4069ef:	add	byte ptr [rax], al
0x4069f1:	add	rsp, 8
0x4069f5:	pop	rbx
0x4069f6:	pop	rbp
0x4069f7:	ret	
F 0x40a242
0x40a242:	mov	dword ptr [rbx], eax
0x40a244:	mov	rax, qword ptr [rip + 0x19cad]
0x40a24b:	mov	qword ptr [rbx + 8], rax
0x40a24f:	add	rsp, 8
0x40a253:	pop	rbx
0x40a254:	pop	rbp
0x40a255:	ret	
F 0x406b94
0x406b94:	mov	byte ptr [rip + 0x1cfb2], al
0x406b9a:	ret	
F 0x40b5f0
0x40b5f0:	mov	byte ptr [rax + 0x10], 0
0x40b5f4:	add	rsp, 8
0x40b5f8:	mov	rax, r12
0x40b5fb:	pop	rbx
0x40b5fc:	pop	rbp
0x40b5fd:	pop	r12
0x40b5ff:	pop	r13
0x40b601:	ret	
F 0x40bb06
0x40bb06:	nop	word ptr cs:[rax + rax]
0x40bb10:	mov	eax, 1
0x40bb15:	ret	
F 0x403fd2
0x403fd2:	add	byte ptr [rcx + rcx*4 - 0x20], al
0x403fd6:	pop	rbp
0x403fd7:	pop	r12
0x403fd9:	pop	r13
0x403fdb:	ret	
F 0x4090fe
0x40379f:	pop	rbp
0x4037a0:	ret	
F 0x4067d6
0x4041a0:	pop	r14
0x4041a2:	pop	r15
0x4041a4:	ret	
F 0x40b6a4
0x404548:	pop	rbx
0x404549:	pop	rbp
0x40454a:	pop	r12
0x40454c:	pop	r13
0x40454e:	ret	
F 0x4057db
0x4057db:	mov	eax, ebx
0x4057dd:	pop	rbx
0x4057de:	pop	rbp
0x4057df:	sub	eax, r12d
0x4057e2:	pop	r12
0x4057e4:	pop	r13
0x4057e6:	pop	r14
0x4057e8:	ret	
F 0x404c7b
0x404c7b:	add	byte ptr [rax], al
0x404c7d:	add	byte ptr [rax - 0x73], cl
0x404c80:	add	eax, 0xfffff19b
0x404c85:	mov	qword ptr [rip + 0x1cc54], rax
0x404c8c:	ret	
F 0x408ba8
0x404548:	pop	rbx
0x404549:	pop	rbp
0x40454a:	pop	r12
0x40454c:	pop	r13
0x40454e:	ret	
F 0x406f8c
0x406f8c:	add	byte ptr [rax], al
0x406f8e:	add	byte ptr [rax], al
0x406f90:	mov	rax, qword ptr [rip + 0x1cb61]
0x406f97:	ret	
F 0x406f30
0x403910:	pop	rbp
0x403911:	pop	r12
0x403913:	ret	
F 0x406fec
0x406fec:	add	byte ptr [rax], al
0x406fee:	add	byte ptr [rax], al
0x406ff0:	mov	eax, dword ptr [rip + 0x1a34a]
0x406ff6:	ret	
F 0x406fe6
0x406fe6:	add	bl, al
0x406fe8:	nop	dword ptr [rax + rax]
0x406ff0:	mov	eax, dword ptr [rip + 0x1a34a]
0x406ff6:	ret	
F 0x406fb7
0x403016:	ret	
F 0x40454c
0x4037f9:	pop	r13
0x4037fb:	ret	
F 0x409ed2
0x403e94:	pop	rbx
0x403e95:	ret	
F 0x4064e8
0x4041a1:	pop	rsi
0x4041a2:	pop	r15
0x4041a4:	ret	
F 0x4069aa
0x4069aa:	and	byte ptr [rdi], cl
0x4069ac:	adc	dword ptr [rax + 0x30], eax
0x4069af:	add	rsp, 8
0x4069b3:	pop	rbx
0x4069b4:	pop	rbp
0x4069b5:	ret	
F 0x40379d
0x40379d:	add	byte ptr [rcx], al
0x40379f:	pop	rbp
0x4037a0:	ret	
F 0x403724
0x403724:	add	byte ptr [rax], al
0x403726:	add	byte ptr [rax], al
0x403728:	ret	
F 0x407796
0x407796:	xchg	eax, esi
0x407797:	ret	
F 0x404ae4
0x4041a2:	pop	r15
0x4041a4:	ret	
F 0x404ed3
0x403016:	ret	
F 0x4055ef
0x4055ef:	mov	eax, esp
0x4055f1:	pop	rbp
0x4055f2:	pop	r12
0x4055f4:	pop	r13
0x4055f6:	pop	r14
0x4055f8:	ret	
F 0x406fea
0x406fea:	test	byte ptr [rax], al
0x406fec:	add	byte ptr [rax], al
0x406fee:	add	byte ptr [rax], al
0x406ff0:	mov	eax, dword ptr [rip + 0x1a34a]
0x406ff6:	ret	
F 0x409f10
0x409f10:	mov	qword ptr [rip + 0x19f21], rbx
0x409f17:	pop	rbx
0x409f18:	ret	
F 0x40c5f0
0x40c5f0:	ror	dword ptr [rcx + 1], 0xcc
0x40c5f4:	mov	byte ptr [rax], 0
0x40c5f7:	mov	rax, r12
0x40c5fa:	pop	r12
0x40c5fc:	ret	
F 0x40c67d
0x40c67d:	nop	dword ptr [rax]
0x40c680:	ret	
F 0x4040e2
0x4040e2:	ret	0
F 0x403e20
0x403e20:	mov	rax, qword ptr [rip + 0x1fc61]
0x403e27:	ret	
F 0x4069e4
0x4069e4:	add	byte ptr [rax], al
0x4069e6:	mov	qword ptr [rip + 0x1d16f], 0
0x4069f1:	add	rsp, 8
0x4069f5:	pop	rbx
0x4069f6:	pop	rbp
0x4069f7:	ret	
F 0x40b02b
0x40b02b:	or	dh, al
0x40b02d:	add	byte ptr [rax], al
0x40b02f:	pop	rbx
0x40b030:	pop	rbp
0x40b031:	pop	r12
0x40b033:	pop	r13
0x40b035:	pop	r14
0x40b037:	ret	
F 0x406eb6
0x406c46:	dec	dword ptr [rcx + rcx*4 - 0x20]
0x406c4a:	pop	rbx
0x406c4b:	pop	rbp
0x406c4c:	pop	r12
0x406c4e:	ret	
F 0x409bb3
0x403016:	ret	
F 0x403e55
0x403e55:	nop	dword ptr [rax]
0x403e58:	mov	qword ptr [rip + 0x1dacd], 0
0x403e63:	ret	
F 0x406bf1
0x406bf1:	mov	dword ptr [rsi], r8d
0x406bf4:	add	rsp, 8
0x406bf8:	pop	rbx
0x406bf9:	pop	rbp
0x406bfa:	ret	
F 0x40b5fc
0x403fd6:	pop	rbp
0x403fd7:	pop	r12
0x403fd9:	pop	r13
0x403fdb:	ret	
F 0x408b34
0x408b34:	scasd	eax, dword ptr [rdi]
0x408b35:	add	dword ptr [rax], eax
0x408b37:	mov	qword ptr [rdi], rax
0x408b3a:	movsxd	rax, dword ptr [rip + 0x1afc7]
0x408b41:	ret	
F 0x40c5ee
0x40c5ee:	sub	rcx, r8
0x40c5f1:	add	r12, rcx
0x40c5f4:	mov	byte ptr [rax], 0
0x40c5f7:	mov	rax, r12
0x40c5fa:	pop	r12
0x40c5fc:	ret	
F 0x40b646
0x40429f:	add	rsp, 8
0x4042a3:	pop	rbx
0x4042a4:	pop	rbp
0x4042a5:	ret	
F 0x403c9e
0x403c9e:	add	byte ptr [rax], al
0x403ca0:	mov	dword ptr [rip + 0x1dc2a], 0xffffffff
0x403caa:	add	rsp, 8
0x403cae:	ret	
F 0x403f78
0x403f78:	add	eax, 0x1d304
0x403f7d:	add	byte ptr [rax + 0xf], cl
0x403f80:	ret	0x8948
F 0x40b908
0x403016:	ret	
F 0x408bb4
0x408bb4:	xor	r12d, r12d
0x408bb7:	pop	rbx
0x408bb8:	mov	rax, r12
0x408bbb:	pop	rbp
0x408bbc:	pop	r12
0x408bbe:	pop	r13
0x408bc0:	ret	
F 0x405a8f
0x403e25:	add	dword ptr [rax], eax
0x403e27:	ret	
F 0x40b051
0x403724:	add	byte ptr [rax], al
0x403726:	add	byte ptr [rax], al
0x403728:	ret	
F 0x40467e
0x40467e:	or	byte ptr [rbx + 0x5d], bl
0x404681:	pop	r12
0x404683:	pop	r13
0x404685:	ret	
F 0x409170
0x403016:	ret	
F 0x4094b1
0x4094b1:	add	rsp, 0x18
0x4094b5:	mov	eax, r12d
0x4094b8:	pop	rbx
0x4094b9:	pop	r12
0x4094bb:	ret	
F 0x404f06
0x403910:	pop	rbp
0x403911:	pop	r12
0x403913:	ret	
F 0x409bc5
0x403016:	ret	
F 0x4037a4
0x403724:	add	byte ptr [rax], al
0x403726:	add	byte ptr [rax], al
0x403728:	ret	
F 0x404ded
0x403012:	add	rsp, 8
0x403016:	ret	
F 0x409561
0x4041a2:	pop	r15
0x4041a4:	ret	
F 0x40c672
0x40419a:	pop	rbx
0x40419b:	pop	rbp
0x40419c:	pop	r12
0x40419e:	pop	r13
0x4041a0:	pop	r14
0x4041a2:	pop	r15
0x4041a4:	ret	
F 0x409c4e
0x409c4e:	nop	
0x409c50:	mov	rax, qword ptr [rip + 0x176f9]
0x409c57:	mov	qword ptr [rdi], rax
0x409c5a:	movsxd	rax, dword ptr [rip + 0x176e7]
0x409c61:	ret	
F 0x406bf4
0x40429f:	add	rsp, 8
0x4042a3:	pop	rbx
0x4042a4:	pop	rbp
0x4042a5:	ret	
F 0x403e46
0x403e46:	mov	dword ptr [rip + 0x1dae0], 0
0x403e50:	add	rsp, 8
0x403e54:	ret	
F 0x40437b
0x40437b:	ret	0x8348
F 0x406fd6
0x406fd6:	add	bl, al
0x406fd8:	nop	dword ptr [rax + rax]
0x406fe0:	mov	qword ptr [rip + 0x1cb11], rdi
0x406fe7:	ret	
F 0x406065
0x40419e:	pop	r13
0x4041a0:	pop	r14
0x4041a2:	pop	r15
0x4041a4:	ret	
F 0x4092d1
0x4092d1:	add	eax, 0x1a896
0x4092d6:	add	byte ptr [rax], al
0x4092d8:	add	byte ptr [rax], al
0x4092da:	add	rsp, 8
0x4092de:	ret	
F 0x40500e
0x40500e:	add	rsp, 0x28
0x405012:	ret	
F 0x406e46
0x406e46:	add	cl, ch
0x406e48:	add	dword ptr [rax], eax
0x406e4a:	pop	rbx
0x406e4b:	pop	rbp
0x406e4c:	pop	r12
0x406e4e:	ret	
F 0x406f98
0x406f98:	nop	dword ptr [rax + rax]
0x406fa0:	mov	eax, dword ptr [rip + 0x1cb62]
0x406fa6:	ret	
F 0x40b69f
0x40437c:	ret	0x8348
F 0x40b035
0x403634:	pop	r14
0x403636:	ret	
F 0x403f38
0x403f38:	xor	r8d, r8d
0x403f3b:	mov	rax, r8
0x403f3e:	ret	
F 0x409fbe
0x4041a3:	pop	rdi
0x4041a4:	ret	
F 0x403905
0x403905:	mov	edi, 0x10001df
0x40390a:	add	rsp, 8
0x40390e:	xor	eax, eax
0x403910:	pop	rbp
0x403911:	pop	r12
0x403913:	ret	
F 0x40bf2a
0x403016:	ret	
F 0x404c84
0x404c84:	dec	dword ptr [rax - 0x77]
0x404c87:	add	eax, 0x1cc54
0x404c8c:	ret	
F 0x40bf8b
0x403fd6:	pop	rbp
0x403fd7:	pop	r12
0x403fd9:	pop	r13
0x403fdb:	ret	
F 0x40bf25
0x403fd6:	pop	rbp
0x403fd7:	pop	r12
0x403fd9:	pop	r13
0x403fdb:	ret	
F 0x40605f
0x404ada:	mov	eax, esp
0x404adc:	pop	rbx
0x404add:	pop	rbp
0x404ade:	pop	r12
0x404ae0:	pop	r13
0x404ae2:	pop	r14
0x404ae4:	pop	r15
0x404ae6:	ret	
F 0x403e1f
0x403e1f:	add	byte ptr [rax - 0x75], cl
0x403e22:	add	eax, 0x1fc61
0x403e27:	ret	
F 0x406b95
0x406b95:	add	eax, 0x1cfb2
0x406b9a:	ret	
F 0x406220
0x403016:	ret	
F 0x40ba18
0x403016:	ret	
F 0x409d72
0x403f2f:	pop	rbx
0x403f30:	pop	rbp
0x403f31:	ret	
F 0x40a51e
0x4041a2:	pop	r15
0x4041a4:	ret	
F 0x40c544
0x40c544:	sub	eax, 1
0x40c547:	ret	
F 0x405a84
0x405a84:	lea	eax, [rip + 0x1b8a6]
0x405a8a:	mov	qword ptr [rip + 0x1e02f], rax
0x405a91:	ret	
F 0x405916
0x403016:	ret	
F 0x404c7d
0x404c7d:	add	byte ptr [rax - 0x73], cl
0x404c80:	add	eax, 0xfffff19b
0x404c85:	mov	qword ptr [rip + 0x1cc54], rax
0x404c8c:	ret	
F 0x40b4e2
0x40b4e2:	add	ecx, dword ptr [rax + 0x394dfd46]
0x40b4e8:	ret	
F 0x407772
0x407772:	xchg	eax, edx
0x407773:	ret	
F 0x4054e3
0x403016:	ret	
F 0x404753
0x404753:	add	byte ptr [rdx], cl
0x404755:	mov	r12d, 1
0x40475b:	sete	bl
0x40475e:	mov	byte ptr [rip + 0x1d194], bl
0x404764:	jmp	0x4046ed
F 0x404bce
0x403016:	ret	
F 0x40382b
0x403016:	ret	
F 0x4043f4
0x403f81:	ret	0x8948
F 0x40a518
0x40419c:	pop	r12
0x40419e:	pop	r13
0x4041a0:	pop	r14
0x4041a2:	pop	r15
0x4041a4:	ret	
F 0x406f0c
0x403016:	ret	
F 0x40b82d
0x403765:	add	byte ptr [rax], r8b
0x403768:	ret	
F 0x4067c7
0x4067c7:	mov	qword ptr [rip + 0x1d35a], r12
0x4067ce:	pop	rbx
0x4067cf:	mov	eax, edx
0x4067d1:	pop	rbp
0x4067d2:	pop	r12
0x4067d4:	pop	r13
0x4067d6:	pop	r14
0x4067d8:	pop	r15
0x4067da:	ret	
F 0x4066b2
0x4048e8:	add	byte ptr [rax - 0x77], cl
0x4048eb:	ret	
F 0x40b70a
0x40b70a:	and	al, 8
0x40b70c:	mov	byte ptr [rdx + rax], 0
0x40b710:	add	rsp, 8
0x40b714:	mov	rax, r12
0x40b717:	pop	rbx
0x40b718:	pop	rbp
0x40b719:	pop	r12
0x40b71b:	pop	r13
0x40b71d:	ret	
F 0x40b5ea
0x403016:	ret	
F 0x40b52e
0x40b52e:	add	rbx, rax
0x40b531:	sub	r12d, r9d
0x40b534:	mov	byte ptr [rbx], 0
0x40b537:	add	rsp, 8
0x40b53b:	mov	eax, r12d
0x40b53e:	pop	rbx
0x40b53f:	pop	r12
0x40b541:	ret	
F 0x406fe5
0x403e25:	add	dword ptr [rax], eax
0x403e27:	ret	
F 0x404ae6
0x403016:	ret	
F 0x406969
0x4042a2:	or	byte ptr [rbx + 0x5d], bl
0x4042a5:	ret	
F 0x406fe0
0x406fe0:	mov	qword ptr [rip + 0x1cb11], rdi
0x406fe7:	ret	
F 0x4052ad
0x4052ad:	mov	eax, edi
0x4052af:	pop	rbx
0x4052b0:	pop	rbp
0x4052b1:	pop	r12
0x4052b3:	pop	r13
0x4052b5:	pop	r14
0x4052b7:	pop	r15
0x4052b9:	ret	
F 0x40573c
0x40573c:	inc	dword ptr [rbp + 0x5bcf75c0]
0x405742:	pop	rbp
0x405743:	pop	r12
0x405745:	ret	
F 0x407119
0x407119:	add	al, 0x10
0x40711b:	mov	eax, r8d
0x40711e:	ret	
F 0x40494c
0x403016:	ret	
F 0x4057dd
0x4057dd:	pop	rbx
0x4057de:	pop	rbp
0x4057df:	sub	eax, r12d
0x4057e2:	pop	r12
0x4057e4:	pop	r13
0x4057e6:	pop	r14
0x4057e8:	ret	
F 0x407000
0x407000:	mov	dword ptr [rip + 0x1a33a], edi
0x407006:	ret	
F 0x40784f
0x40784f:	and	eax, 0x9358b48
0x407854:	ret	
F 0x406a84
0x406a84:	add	byte ptr [rdi], cl
0x406a86:	mov	dh, 0
0x406a88:	mov	byte ptr [rip + 0x1d0be], al
0x406a8e:	pop	rbx
0x406a8f:	ret	
F 0x409bc9
0x409bc9:	add	byte ptr [rax], al
0x409bcb:	jmp	0x409b0c
F 0x404679
0x404679:	add	byte ptr [rax], al
0x40467b:	add	rsp, 8
0x40467f:	pop	rbx
0x404680:	pop	rbp
0x404681:	pop	r12
0x404683:	pop	r13
0x404685:	ret	
F 0x409f6a
0x409f6a:	ret	0xf48
F 0x40c66e
0x409555:	add	rsp, 8
0x409559:	pop	rbx
0x40955a:	pop	rbp
0x40955b:	pop	r12
0x40955d:	pop	r13
0x40955f:	pop	r14
0x409561:	pop	r15
0x409563:	ret	
F 0x40b594
0x4046f2:	mov	eax, esp
0x4046f4:	pop	rbx
0x4046f5:	pop	rbp
0x4046f6:	pop	r12
0x4046f8:	pop	r13
0x4046fa:	ret	
F 0x406cbb
0x406cbb:	add	dword ptr [rax], eax
0x406cbd:	movzx	eax, byte ptr [rax]
0x406cc0:	mov	byte ptr [rip + 0x1ce86], al
0x406cc6:	ret	
F 0x4041b4
0x4041b4:	sub	dword ptr [rip + 0x1d74e], eax
0x4041ba:	jmp	0x404193
F 0x404fa2
0x404fa2:	mov	eax, r13d
0x404fa5:	pop	rbx
0x404fa6:	pop	rbp
0x404fa7:	pop	r12
0x404fa9:	pop	r13
0x404fab:	pop	r14
0x404fad:	ret	
F 0x40bf26
0x4037f7:	pop	r12
0x4037f9:	pop	r13
0x4037fb:	ret	
F 0x404e86
0x404e86:	add	dword ptr [rax], eax
0x404e88:	add	byte ptr [rax], al
0x404e8a:	add	rsp, 8
0x404e8e:	pop	rbp
0x404e8f:	pop	r12
0x404e91:	ret	
F 0x40c60c
0x403f8a:	mov	eax, esp
0x403f8c:	pop	r12
0x403f8e:	ret	
F 0x407432
0x403016:	ret	
F 0x40715c
0x40715c:	and	eax, 1
0x40715f:	mov	dword ptr [rip + 0x1a1db], eax
0x407165:	add	rsp, 8
0x407169:	ret	
F 0x4097ab
0x40419f:	pop	rbp
0x4041a0:	pop	r14
0x4041a2:	pop	r15
0x4041a4:	ret	
F 0x40b5f2
0x40b58d:	adc	byte ptr [rax], al
0x40b58f:	add	rsp, 8
0x40b593:	mov	rax, r12
0x40b596:	pop	rbx
0x40b597:	pop	rbp
0x40b598:	pop	r12
0x40b59a:	pop	r13
0x40b59c:	ret	
F 0x40c4ef
0x40c4d0:	mov	eax, dword ptr [rax + 0x20]
0x40c4d3:	add	rsp, 8
0x40c4d7:	ret	
F 0x407421
0x407421:	add	rsp, 0x48
0x407425:	mov	eax, r12d
0x407428:	pop	rbx
0x407429:	pop	rbp
0x40742a:	pop	r12
0x40742c:	pop	r13
0x40742e:	pop	r14
0x407430:	pop	r15
0x407432:	ret	
F 0x409130
0x403016:	ret	
F 0x40b794
0x403016:	ret	
F 0x40742d
0x40419f:	pop	rbp
0x4041a0:	pop	r14
0x4041a2:	pop	r15
0x4041a4:	ret	
F 0x404cb3
0x404cb3:	add	byte ptr [rcx], al
0x404cb5:	mov	qword ptr [rip + 0x1cc24], rax
0x404cbc:	ret	
F 0x404549
0x403fd6:	pop	rbp
0x403fd7:	pop	r12
0x403fd9:	pop	r13
0x403fdb:	ret	
F 0x4090f4
0x4090f4:	mov	eax, eax
0x4090f6:	add	rsp, 8
0x4090fa:	mov	rax, r8
0x4090fd:	pop	rbx
0x4090fe:	pop	rbp
0x4090ff:	ret	
F 0x40778d
0x403016:	ret	
F 0x403dfe
0x403016:	ret	
F 0x403d8a
0x403d69:	add	dword ptr [rax], eax
0x403d6b:	add	byte ptr [rax], al
0x403d6d:	add	rsp, 8
0x403d71:	ret	
F 0x40b6a9
0x40379f:	pop	rbp
0x4037a0:	ret	
F 0x406068
0x4041a1:	pop	rsi
0x4041a2:	pop	r15
0x4041a4:	ret	
F 0x403df2
0x403df2:	add	eax, 0x1d48c
0x403df7:	mov	byte ptr [rip + 0x1d485], 0
0x403dfe:	ret	
F 0x407114
0x407114:	add	byte ptr [rax], al
0x407116:	movzx	r8d, byte ptr [rax + rdx]
0x40711b:	mov	eax, r8d
0x40711e:	ret	
F 0x406069
0x4041a2:	pop	r15
0x4041a4:	ret	
F 0x403e50
0x403012:	add	rsp, 8
0x403016:	ret	
F 0x40b592
0x408ba4:	or	byte ptr [rcx + rcx*4 - 0x20], cl
0x408ba8:	pop	rbx
0x408ba9:	pop	rbp
0x408baa:	pop	r12
0x408bac:	pop	r13
0x408bae:	ret	
F 0x403f7f
0x403f7f:	cmove	eax, edx
0x403f82:	mov	qword ptr [rip + 0x1d997], rax
0x403f89:	mov	eax, r12d
0x403f8c:	pop	r12
0x403f8e:	ret	
F 0x40b5f9
0x4046f2:	mov	eax, esp
0x4046f4:	pop	rbx
0x4046f5:	pop	rbp
0x4046f6:	pop	r12
0x4046f8:	pop	r13
0x4046fa:	ret	
F 0x404ccf
0x404ccf:	lea	eax, [rip - 0xeb5]
0x404cd5:	mov	qword ptr [rip + 0x1cc04], rax
0x404cdc:	ret	
F 0x40419b
0x40419b:	pop	rbp
0x40419c:	pop	r12
0x40419e:	pop	r13
0x4041a0:	pop	r14
0x4041a2:	pop	r15
0x4041a4:	ret	
F 0x408d0f
0x403630:	pop	r12
0x403632:	pop	r13
0x403634:	pop	r14
0x403636:	ret	
F 0x406926
0x406926:	add	eax, 0x1d221
0x40692b:	ret	
F 0x406bf2
0x406bf2:	mov	dword ptr [rsi], eax
0x406bf4:	add	rsp, 8
0x406bf8:	pop	rbx
0x406bf9:	pop	rbp
0x406bfa:	ret	
F 0x406fba
0x406fba:	test	byte ptr [rax], al
0x406fbc:	add	byte ptr [rax], al
0x406fbe:	add	byte ptr [rax], al
0x406fc0:	mov	dword ptr [rip + 0x1a37e], edi
0x406fc6:	ret	
F 0x4090f6
0x403f28:	add	rsp, 8
0x403f2c:	mov	rax, r8
0x403f2f:	pop	rbx
0x403f30:	pop	rbp
0x403f31:	ret	
F 0x40916f
0x404dbf:	nop	
0x404dc0:	ret	
F 0x406f77
0x406f77:	nop	word ptr [rax + rax]
0x406f80:	mov	rax, qword ptr [rip + 0x1cb79]
0x406f87:	ret	
F 0x40b2d9
0x40429d:	sbb	byte ptr [rax], al
0x40429f:	add	rsp, 8
0x4042a3:	pop	rbx
0x4042a4:	pop	rbp
0x4042a5:	ret	
F 0x404c8a
0x403e25:	add	dword ptr [rax], eax
0x403e27:	ret	
F 0x404060
0x404060:	push	rbp
0x404061:	or	dh, al
0x404063:	add	al, 2
0x404065:	add	byte ptr [rcx + rcx*4 - 0x20], al
0x404069:	pop	rbp
0x40406a:	pop	r12
0x40406c:	pop	r13
0x40406e:	ret	
F 0x409c3c
0x40429f:	add	rsp, 8
0x4042a3:	pop	rbx
0x4042a4:	pop	rbp
0x4042a5:	ret	
F 0x406dae
0x406dae:	mov	dh, 0
0x406db0:	mov	byte ptr [rip + 0x1cd96], al
0x406db6:	ret	
F 0x40b291
0x403016:	ret	
F 0x405a19
0x403f2f:	pop	rbx
0x403f30:	pop	rbp
0x403f31:	ret	
F 0x403e61
0x403726:	add	byte ptr [rax], al
0x403728:	ret	
F 0x404cc9
0x404cc9:	add	eax, 0x1cc5a
0x404cce:	lea	rax, [rip - 0xeb5]
0x404cd5:	mov	qword ptr [rip + 0x1cc04], rax
0x404cdc:	ret	
F 0x406b91
0x406b91:	movzx	eax, byte ptr [rdx]
0x406b94:	mov	byte ptr [rip + 0x1cfb2], al
0x406b9a:	ret	
F 0x4052af
0x40419a:	pop	rbx
0x40419b:	pop	rbp
0x40419c:	pop	r12
0x40419e:	pop	r13
0x4041a0:	pop	r14
0x4041a2:	pop	r15
0x4041a4:	ret	
F 0x40a513
0x4054d6:	mov	eax, r13d
0x4054d9:	pop	rbx
0x4054da:	pop	rbp
0x4054db:	pop	r12
0x4054dd:	pop	r13
0x4054df:	pop	r14
0x4054e1:	pop	r15
0x4054e3:	ret	
F 0x4092cd
0x4092cd:	add	byte ptr [rax], al
0x4092cf:	mov	qword ptr [rip + 0x1a896], 0
0x4092da:	add	rsp, 8
0x4092de:	ret	
F 0x406fae
0x406fae:	add	byte ptr [rax], al
0x406fb0:	mov	rax, qword ptr [rip + 0x1cb39]
0x406fb7:	ret	
F 0x404efb
0x404efb:	mov	dword ptr [rax + 0x10], 0
0x404f02:	mov	dword ptr [rax + 0x14], ebx
0x404f05:	pop	rbx
0x404f06:	pop	rbp
0x404f07:	pop	r12
0x404f09:	ret	
F 0x404067
0x403fd4:	mov	eax, esp
0x403fd6:	pop	rbp
0x403fd7:	pop	r12
0x403fd9:	pop	r13
0x403fdb:	ret	
F 0x4042a3
0x403f2f:	pop	rbx
0x403f30:	pop	rbp
0x403f31:	ret	
F 0x40c270
0x4040e2:	ret	0
F 0x406a7f
0x406a7f:	mov	dword ptr [rip + 0x1d06b], eax
0x406a85:	movzx	eax, byte ptr [rax]
0x406a88:	mov	byte ptr [rip + 0x1d0be], al
0x406a8e:	pop	rbx
0x406a8f:	ret	
F 0x406963
0x406963:	add	byte ptr [rsi + 0xa], dh
0x406966:	add	rsp, 8
0x40696a:	pop	rbx
0x40696b:	pop	rbp
0x40696c:	ret	
F 0x409163
0x409163:	sbb	byte ptr [rbx + 0x5d], bl
0x409166:	pop	r12
0x409168:	pop	r13
0x40916a:	pop	r14
0x40916c:	pop	r15
0x40916e:	ret	
F 0x404cce
0x404cce:	lea	rax, [rip - 0xeb5]
0x404cd5:	mov	qword ptr [rip + 0x1cc04], rax
0x404cdc:	ret	
F 0x40b042
0x40b042:	add	eax, 0x18e4d
0x40b047:	add	byte ptr [rax], al
0x40b049:	add	byte ptr [rax], al
0x40b04b:	mov	dword ptr [rip + 0x18e33], 0
0x40b055:	ret	
F 0x40afd1
0x40afd1:	add	byte ptr [rax + 0x39], cl
0x40afd4:	sal	dword ptr [rbp - 0x1f], cl
0x40afd7:	pop	rbx
0x40afd8:	pop	rbp
0x40afd9:	pop	r12
0x40afdb:	pop	r13
0x40afdd:	pop	r14
0x40afdf:	ret	
F 0x409bd2
0x409bd2:	add	eax, 0x19fb1
0x409bd7:	mov	byte ptr [rip + 0x19faa], 0
0x409bde:	ret	
F 0x406062
0x40419b:	pop	rbp
0x40419c:	pop	r12
0x40419e:	pop	r13
0x4041a0:	pop	r14
0x4041a2:	pop	r15
0x4041a4:	ret	
F 0x403012
0x403012:	add	rsp, 8
0x403016:	ret	
F 0x403fd1
0x403fd1:	add	byte ptr [rax], al
0x403fd3:	mov	eax, r12d
0x403fd6:	pop	rbp
0x403fd7:	pop	r12
0x403fd9:	pop	r13
0x403fdb:	ret	
F 0x4054da
0x40419b:	pop	rbp
0x40419c:	pop	r12
0x40419e:	pop	r13
0x4041a0:	pop	r14
0x4041a2:	pop	r15
0x4041a4:	ret	
F 0x404196
0x404196:	or	byte ptr [rcx + rcx*4 - 0x10], al
0x40419a:	pop	rbx
0x40419b:	pop	rbp
0x40419c:	pop	r12
0x40419e:	pop	r13
0x4041a0:	pop	r14
0x4041a2:	pop	r15
0x4041a4:	ret	
F 0x407754
0x407754:	cwde	
0x407755:	ret	
F 0x404c8c
0x403016:	ret	
F 0x4067cf
0x4067cf:	mov	eax, edx
0x4067d1:	pop	rbp
0x4067d2:	pop	r12
0x4067d4:	pop	r13
0x4067d6:	pop	r14
0x4067d8:	pop	r15
0x4067da:	ret	
F 0x403d6b
0x403d6b:	add	byte ptr [rax], al
0x403d6d:	add	rsp, 8
0x403d71:	ret	
F 0x40b537
0x40b537:	add	rsp, 8
0x40b53b:	mov	eax, r12d
0x40b53e:	pop	rbx
0x40b53f:	pop	r12
0x40b541:	ret	
F 0x403634
0x403634:	pop	r14
0x403636:	ret	
F 0x407803
0x407803:	dec	dword ptr [rdi]
0x407805:	mov	dh, 5
0x407807:	ret	
F 0x403f39
0x403f39:	xor	eax, eax
0x403f3b:	mov	rax, r8
0x403f3e:	ret	
F 0x40afde
0x403635:	pop	rsi
0x403636:	ret	
F 0x404ae1
0x40419f:	pop	rbp
0x4041a0:	pop	r14
0x4041a2:	pop	r15
0x4041a4:	ret	
F 0x4043f3
0x403f80:	ret	0x8948
F 0x406337
0x403016:	ret	
F 0x40bafd
0x40bafd:	or	al, byte ptr [rax - 0x2289c806]
0x40bb03:	xor	eax, eax
0x40bb05:	ret	
F 0x40a520
0x403016:	ret	
F 0x403f28
0x403f28:	add	rsp, 8
0x403f2c:	mov	rax, r8
0x403f2f:	pop	rbx
0x403f30:	pop	rbp
0x403f31:	ret	
F 0x40c574
0x40c574:	jmp	0x40c540
F 0x40b0be
0x403726:	add	byte ptr [rax], al
0x403728:	ret	
F 0x409c5a
0x409c5a:	movsxd	rax, dword ptr [rip + 0x176e7]
0x409c61:	ret	
F 0x4052b4
0x40419f:	pop	rbp
0x4041a0:	pop	r14
0x4041a2:	pop	r15
0x4041a4:	ret	
F 0x40a253
0x403f2f:	pop	rbx
0x403f30:	pop	rbp
0x403f31:	ret	
F 0x4097a0
0x4097a0:	and	al, 1
0x4097a2:	add	rsp, 8
0x4097a6:	pop	rbx
0x4097a7:	pop	rbp
0x4097a8:	pop	r12
0x4097aa:	pop	r13
0x4097ac:	pop	r14
0x4097ae:	pop	r15
0x4097b0:	ret	
F 0x409a42
0x409a42:	add	byte ptr [rax], al
0x409a44:	add	rsp, 0x18
0x409a48:	mov	eax, r12d
0x409a4b:	pop	rbp
0x409a4c:	pop	r12
0x409a4e:	ret	
F 0x4058a6
0x4058a6:	dec	dword ptr [rax - 0x77]
0x4058a9:	ret	
F 0x403c3a
0x403016:	ret	
F 0x404bd0
0x404bd0:	cmp	word ptr [rdi], 0xa0d
0x404bd5:	sete	al
0x404bd8:	ret	
F 0x404f9d
0x404f9d:	or	dh, al
0x404f9f:	add	al, 2
0x404fa1:	add	byte ptr [rcx + rcx*4 - 0x18], al
0x404fa5:	pop	rbx
0x404fa6:	pop	rbp
0x404fa7:	pop	r12
0x404fa9:	pop	r13
0x404fab:	pop	r14
0x404fad:	ret	
F 0x405a8b
0x405a8b:	mov	dword ptr [rip + 0x1e02f], eax
0x405a91:	ret	
F 0x403e21
0x403e21:	mov	eax, dword ptr [rip + 0x1fc61]
0x403e27:	ret	
F 0x4067d4
0x40419e:	pop	r13
0x4041a0:	pop	r14
0x4041a2:	pop	r15
0x4041a4:	ret	
F 0x405a8a
0x405a8a:	mov	qword ptr [rip + 0x1e02f], rax
0x405a91:	ret	
F 0x404e8e
0x403910:	pop	rbp
0x403911:	pop	r12
0x403913:	ret	
F 0x4064db
0x4064db:	and	al, 0x28
0x4064dd:	add	rsp, 0x58
0x4064e1:	pop	rbx
0x4064e2:	pop	rbp
0x4064e3:	pop	r12
0x4064e5:	pop	r13
0x4064e7:	pop	r14
0x4064e9:	pop	r15
0x4064eb:	ret	
F 0x409ed0
0x406a8c:	add	dword ptr [rax], eax
0x406a8e:	pop	rbx
0x406a8f:	ret	
F 0x404ef9
0x404ef9:	mov	dword ptr [rax], ebp
0x404efb:	mov	dword ptr [rax + 0x10], 0
0x404f02:	mov	dword ptr [rax + 0x14], ebx
0x404f05:	pop	rbx
0x404f06:	pop	rbp
0x404f07:	pop	r12
0x404f09:	ret	
F 0x4067da
0x403016:	ret	
F 0x408bb0
0x408bb0:	add	rsp, 8
0x408bb4:	xor	r12d, r12d
0x408bb7:	pop	rbx
0x408bb8:	mov	rax, r12
0x408bbb:	pop	rbp
0x408bbc:	pop	r12
0x408bbe:	pop	r13
0x408bc0:	ret	
F 0x406e3c
0x406e3c:	add	cl, byte ptr [rax - 0x77]
0x406e3f:	adc	eax, 0x1ccfc
0x406e44:	mov	byte ptr [rip + 0x1cd02], al
0x406e4a:	pop	rbx
0x406e4b:	pop	rbp
0x406e4c:	pop	r12
0x406e4e:	ret	
F 0x4097a6
0x40419a:	pop	rbx
0x40419b:	pop	rbp
0x40419c:	pop	r12
0x40419e:	pop	r13
0x4041a0:	pop	r14
0x4041a2:	pop	r15
0x4041a4:	ret	
F 0x406334
0x406334:	or	byte ptr [rax - 0x7d], cl
0x406337:	ret	
F 0x406a8f
0x403016:	ret	
F 0x403df0
0x403df0:	movzx	eax, byte ptr [rip + 0x1d48c]
0x403df7:	mov	byte ptr [rip + 0x1d485], 0
0x403dfe:	ret	
F 0x409bcf
0x409bcf:	dec	dword ptr [rdi]
0x409bd1:	mov	dh, 5
0x409bd3:	mov	cl, 0x9f
0x409bd5:	add	dword ptr [rax], eax
0x409bd7:	mov	byte ptr [rip + 0x19faa], 0
0x409bde:	ret	
F 0x406b8c
0x406b8c:	add	eax, 0x1cf6f
0x406b91:	movzx	eax, byte ptr [rdx]
0x406b94:	mov	byte ptr [rip + 0x1cfb2], al
0x406b9a:	ret	
F 0x4051ed
0x403016:	ret	
F 0x406929
0x403e25:	add	dword ptr [rax], eax
0x403e27:	ret	
F 0x40912b
0x403f39:	xor	eax, eax
0x403f3b:	mov	rax, r8
0x403f3e:	ret	
F 0x403f32
0x403f32:	nop	word ptr [rax + rax]
0x403f38:	xor	r8d, r8d
0x403f3b:	mov	rax, r8
0x403f3e:	ret	
F 0x40c67a
0x4041a2:	pop	r15
0x4041a4:	ret	
F 0x40362c
0x40362c:	xor	eax, eax
0x40362e:	pop	rbx
0x40362f:	pop	rbp
0x403630:	pop	r12
0x403632:	pop	r13
0x403634:	pop	r14
0x403636:	ret	
F 0x40406e
0x403016:	ret	
F 0x40379e
0x40379e:	add	dword ptr [rbp - 0x3d], ebx
0x4037a1:	nop	dword ptr [rax]
0x4037a8:	ret	
F 0x4067c8
0x4067c8:	mov	dword ptr [rip + 0x1d35a], esp
0x4067ce:	pop	rbx
0x4067cf:	mov	eax, edx
0x4067d1:	pop	rbp
0x4067d2:	pop	r12
0x4067d4:	pop	r13
0x4067d6:	pop	r14
0x4067d8:	pop	r15
0x4067da:	ret	
F 0x40b5ee
0x40b5ee:	add	byte ptr [rax], al
0x40b5f0:	mov	byte ptr [rax + 0x10], 0
0x40b5f4:	add	rsp, 8
0x40b5f8:	mov	rax, r12
0x40b5fb:	pop	rbx
0x40b5fc:	pop	rbp
0x40b5fd:	pop	r12
0x40b5ff:	pop	r13
0x40b601:	ret	
F 0x4050f5
0x403f2f:	pop	rbx
0x403f30:	pop	rbp
0x403f31:	ret	
F 0x40b597
0x403fd6:	pop	rbp
0x403fd7:	pop	r12
0x403fd9:	pop	r13
0x403fdb:	ret	
F 0x40bb0d
0x40bb0d:	add	byte ptr [rax], al
0x40bb0f:	add	byte ptr [rax + 1], bh
0x40bb15:	ret	
F 0x409e48
0x409e48:	mov	eax, dword ptr [rax]
0x409e4a:	ret	
F 0x409bb2
0x403e94:	pop	rbx
0x403e95:	ret	
F 0x406b92
0x406b92:	mov	dh, 2
0x406b94:	mov	byte ptr [rip + 0x1cfb2], al
0x406b9a:	ret	
F 0x40682e
0x40682e:	add	dh, al
0x406830:	add	byte ptr [rax], al
0x406832:	pop	rbx
0x406833:	mov	byte ptr [rip + 0x1d313], cl
0x406839:	mov	dword ptr [rip + 0x1d2c9], edx
0x40683f:	ret	
F 0x40a24c
0x40a24c:	mov	dword ptr [rbx + 8], eax
0x40a24f:	add	rsp, 8
0x40a253:	pop	rbx
0x40a254:	pop	rbp
0x40a255:	ret	
F 0x409104
0x409104:	xor	r8d, r8d
0x409107:	mov	rax, r8
0x40910a:	pop	rbx
0x40910b:	pop	rbp
0x40910c:	ret	
F 0x406fa8
0x406fa8:	nop	dword ptr [rax + rax]
0x406fb0:	mov	rax, qword ptr [rip + 0x1cb39]
0x406fb7:	ret	
F 0x40b133
0x40b133:	add	byte ptr [rax], al
0x40b135:	add	rsp, 8
0x40b139:	pop	rbx
0x40b13a:	pop	r12
0x40b13c:	ret	
F 0x404dbd
0x403016:	ret	
F 0x4055f4
0x403632:	pop	r13
0x403634:	pop	r14
0x403636:	ret	
F 0x4069f7
0x403016:	ret	
F 0x404fa5
0x40362e:	pop	rbx
0x40362f:	pop	rbp
0x403630:	pop	r12
0x403632:	pop	r13
0x403634:	pop	r14
0x403636:	ret	
F 0x404bd8
0x403016:	ret	
F 0x4097ac
0x4041a0:	pop	r14
0x4041a2:	pop	r15
0x4041a4:	ret	
F 0x40bef6
0x40628e:	add	byte ptr [rax - 0x7d], cl
0x406291:	ret	
F 0x406606
0x403016:	ret	
F 0x40682f
0x40682f:	mov	byte ptr [rax], 0
0x406832:	pop	rbx
0x406833:	mov	byte ptr [rip + 0x1d313], cl
0x406839:	mov	dword ptr [rip + 0x1d2c9], edx
0x40683f:	ret	
F 0x404dbf
0x404dbf:	nop	
0x404dc0:	ret	
F 0x406dc0
0x403016:	ret	
F 0x406bef
0x406bef:	add	byte ptr [rax], al
0x406bf1:	mov	dword ptr [rsi], r8d
0x406bf4:	add	rsp, 8
0x406bf8:	pop	rbx
0x406bf9:	pop	rbp
0x406bfa:	ret	
F 0x403d69
0x403d69:	add	dword ptr [rax], eax
0x403d6b:	add	byte ptr [rax], al
0x403d6d:	add	rsp, 8
0x403d71:	ret	
F 0x4054df
0x4041a0:	pop	r14
0x4041a2:	pop	r15
0x4041a4:	ret	
F 0x40a148
0x40a148:	cmp	eax, 0x1775a
0x40a14d:	add	dword ptr [rdi + 0x10], edi
0x40a150:	add	rsp, 8
0x40a154:	pop	rbx
0x40a155:	pop	rbp
0x40a156:	pop	r12
0x40a158:	pop	r13
0x40a15a:	ret	
F 0x409e4a
0x403016:	ret	
F 0x403f01
0x403f01:	mov	eax, eax
0x403f03:	ret	
F 0x409b11
0x409b11:	add	byte ptr [rax], al
0x409b13:	pop	rbx
0x409b14:	ret	
F 0x409c57
0x409c57:	mov	qword ptr [rdi], rax
0x409c5a:	movsxd	rax, dword ptr [rip + 0x176e7]
0x409c61:	ret	
F 0x404069
0x403fd6:	pop	rbp
0x403fd7:	pop	r12
0x403fd9:	pop	r13
0x403fdb:	ret	
F 0x406faf
0x406faf:	add	byte ptr [rax - 0x75], cl
0x406fb2:	add	eax, 0x1cb39
0x406fb7:	ret	
F 0x406f90
0x406f90:	mov	rax, qword ptr [rip + 0x1cb61]
0x406f97:	ret	
F 0x407431
0x4041a3:	pop	rdi
0x4041a4:	ret	
F 0x40630d
0x40630d:	or	ecx, dword ptr [rax - 0x7d]
0x406310:	ret	
F 0x403d6d
0x403012:	add	rsp, 8
0x403016:	ret	
F 0x404cba
0x403e25:	add	dword ptr [rax], eax
0x403e27:	ret	
F 0x40b0b8
0x406b08:	nop	dword ptr [rax + rax]
0x406b10:	ret	
F 0x406f78
0x406f78:	nop	dword ptr [rax + rax]
0x406f80:	mov	rax, qword ptr [rip + 0x1cb79]
0x406f87:	ret	
F 0x4046e9
0x4046e9:	or	edx, edx
0x4046eb:	add	dword ptr [rax], eax
0x4046ed:	add	rsp, 8
0x4046f1:	mov	eax, r12d
0x4046f4:	pop	rbx
0x4046f5:	pop	rbp
0x4046f6:	pop	r12
0x4046f8:	pop	r13
0x4046fa:	ret	
F 0x403d80
0x403d80:	or	al, 0x89
0x403d82:	add	byte ptr [rax], al
0x403d84:	mov	dword ptr [rip + 0x1db46], 1
0x403d8e:	add	rsp, 8
0x403d92:	ret	
F 0x403763
0x403763:	nop	dword ptr [rax + rax]
0x403768:	ret	
F 0x405745
0x403016:	ret	
F 0x404d46
0x404d46:	add	byte ptr [rax], al
0x404d48:	add	byte ptr [rcx + 0x5c], al
0x404d4b:	ret	
F 0x4051e5
0x40419c:	pop	r12
0x40419e:	pop	r13
0x4041a0:	pop	r14
0x4041a2:	pop	r15
0x4041a4:	ret	
F 0x409d6a
0x409d6a:	test	byte ptr [rax], al
0x409d6c:	add	byte ptr [rax], al
0x409d6e:	add	byte ptr [rax], al
0x409d70:	xor	eax, eax
0x409d72:	pop	rbx
0x409d73:	pop	rbp
0x409d74:	ret	
F 0x406ff4
0x403e25:	add	dword ptr [rax], eax
0x403e27:	ret	
F 0x407001
0x407001:	cmp	eax, 0x1a33a
0x407006:	ret	
F 0x40b643
0x40b643:	cmovb	eax, edx
0x40b646:	add	rsp, 8
0x40b64a:	pop	rbx
0x40b64b:	pop	rbp
0x40b64c:	ret	
F 0x409bde
0x403016:	ret	
F 0x406fb6
0x406fb6:	add	bl, al
0x406fb8:	nop	dword ptr [rax + rax]
0x406fc0:	mov	dword ptr [rip + 0x1a37e], edi
0x406fc6:	ret	
F 0x40b02f
0x40362e:	pop	rbx
0x40362f:	pop	rbp
0x403630:	pop	r12
0x403632:	pop	r13
0x403634:	pop	r14
0x403636:	ret	
F 0x40c44c
0x40c44c:	add	byte ptr [rbp + 0x44], dh
0x40c44f:	add	rsp, 0x1e0
0x40c456:	pop	rbx
0x40c457:	pop	rbp
0x40c458:	pop	r12
0x40c45a:	pop	r13
0x40c45c:	pop	r14
0x40c45e:	ret	
F 0x406b87
0x406b87:	mov	rax, qword ptr [rdi]
0x406b8a:	mov	qword ptr [rip + 0x1cf6f], rax
0x406b91:	movzx	eax, byte ptr [rdx]
0x406b94:	mov	byte ptr [rip + 0x1cfb2], al
0x406b9a:	ret	
F 0x404deb
0x403d6b:	add	byte ptr [rax], al
0x403d6d:	add	rsp, 8
0x403d71:	ret	
F 0x4050ee
0x4050ee:	add	dword ptr [r8], eax
0x4050f1:	add	rsp, 8
0x4050f5:	pop	rbx
0x4050f6:	pop	rbp
0x4050f7:	ret	
F 0x4097af
0x4041a3:	pop	rdi
0x4041a4:	ret	
F 0x404f01
0x404f01:	add	byte ptr [rcx + 0x5d5b1458], cl
0x404f07:	pop	r12
0x404f09:	ret	
F 0x40473b
0x40473b:	add	byte ptr [rax], al
0x40473d:	sete	bl
0x404740:	mov	byte ptr [rip + 0x1d1b2], bl
0x404746:	jmp	0x4046ed
F 0x408baf
0x408baf:	nop	
0x408bb0:	add	rsp, 8
0x408bb4:	xor	r12d, r12d
0x408bb7:	pop	rbx
0x408bb8:	mov	rax, r12
0x408bbb:	pop	rbp
0x408bbc:	pop	r12
0x408bbe:	pop	r13
0x408bc0:	ret	
F 0x403d96
0x403726:	add	byte ptr [rax], al
0x403728:	ret	
F 0x404fab
0x403634:	pop	r14
0x403636:	ret	
F 0x40b903
0x403723:	add	byte ptr [rax], 0
0x403726:	add	byte ptr [rax], al
0x403728:	ret	
F 0x409fb5
0x40419a:	pop	rbx
0x40419b:	pop	rbp
0x40419c:	pop	r12
0x40419e:	pop	r13
0x4041a0:	pop	r14
0x4041a2:	pop	r15
0x4041a4:	ret	
F 0x403d9e
0x403726:	add	byte ptr [rax], al
0x403728:	ret	
F 0x409d70
0x409d70:	xor	eax, eax
0x409d72:	pop	rbx
0x409d73:	pop	rbp
0x409d74:	ret	
F 0x40a55c
0x40a55c:	adc	ecx, dword ptr [rax + 1]
0x40a55f:	ret	0x3948
F 0x409bea
0x403e25:	add	dword ptr [rax], eax
0x403e27:	ret	
F 0x40aa31
0x403f81:	ret	0x8948
F 0x40590d
0x40590d:	mov	eax, ebp
0x40590f:	pop	rbp
0x405910:	pop	r12
0x405912:	pop	r13
0x405914:	pop	r14
0x405916:	ret	
F 0x404cb7
0x404cb7:	add	eax, 0x1cc24
0x404cbc:	ret	
F 0x409fae
0x409fae:	mov	dword ptr [rbp + 8], eax
0x409fb1:	add	rsp, 8
0x409fb5:	pop	rbx
0x409fb6:	pop	rbp
0x409fb7:	pop	r12
0x409fb9:	pop	r13
0x409fbb:	pop	r14
0x409fbd:	pop	r15
0x409fbf:	ret	
F 0x408bae
0x403016:	ret	
F 0x40419c
0x40419c:	pop	r12
0x40419e:	pop	r13
0x4041a0:	pop	r14
0x4041a2:	pop	r15
0x4041a4:	ret	
F 0x40bb0f
0x40bb0f:	add	byte ptr [rax + 1], bh
0x40bb15:	ret	
F 0x40bb07
0x40bb07:	nop	dword ptr cs:[rax + rax]
0x40bb10:	mov	eax, 1
0x40bb15:	ret	
F 0x40b697
0x40b697:	sal	bh, 0xd8
0x40b69a:	cmp	r13d, ebx
0x40b69d:	cmova	eax, edx
0x40b6a0:	add	rsp, 8
0x40b6a4:	pop	rbx
0x40b6a5:	pop	rbp
0x40b6a6:	pop	r12
0x40b6a8:	pop	r13
0x40b6aa:	ret	
F 0x40a255
0x403016:	ret	
F 0x40c419
0x403016:	ret	
F 0x4037fb
0x403016:	ret	
F 0x403f76
0x403f76:	inc	esi
0x403f78:	add	eax, 0x1d304
0x403f7d:	add	byte ptr [rax + 0xf], cl
0x403f80:	ret	0x8948
F 0x40b698
0x40b698:	neg	eax
0x40b69a:	cmp	r13d, ebx
0x40b69d:	cmova	eax, edx
0x40b6a0:	add	rsp, 8
0x40b6a4:	pop	rbx
0x40b6a5:	pop	rbp
0x40b6a6:	pop	r12
0x40b6a8:	pop	r13
0x40b6aa:	ret	
F 0x40b713
0x408ba4:	or	byte ptr [rcx + rcx*4 - 0x20], cl
0x408ba8:	pop	rbx
0x408ba9:	pop	rbp
0x408baa:	pop	r12
0x408bac:	pop	r13
0x408bae:	ret	
F 0x404ae0
0x40419e:	pop	r13
0x4041a0:	pop	r14
0x4041a2:	pop	r15
0x4041a4:	ret	
F 0x406f0b
0x406f0b:	push	rcx
0x406f0c:	ret	
F 0x4054e1
0x4041a2:	pop	r15
0x4041a4:	ret	
F 0x407843
0x403016:	ret	
F 0x40b04d
0x40b04d:	xor	ecx, dword ptr [rsi + 1]
0x40b053:	add	byte ptr [rax], al
0x40b055:	ret	
F 0x406b98
0x403e25:	add	dword ptr [rax], eax
0x403e27:	ret	
F 0x40974b
0x40974b:	sal	byte ptr [rdx + rbp*2 + 0x48], 0x83
0x409750:	ret	
F 0x40979e
0x40979e:	mov	byte ptr [rdx + 0x24], 1
0x4097a2:	add	rsp, 8
0x4097a6:	pop	rbx
0x4097a7:	pop	rbp
0x4097a8:	pop	r12
0x4097aa:	pop	r13
0x4097ac:	pop	r14
0x4097ae:	pop	r15
0x4097b0:	ret	
F 0x408fb5
0x408fb5:	add	dword ptr [rax], eax
0x408fb7:	add	dword ptr [rdi + 0xe], edi
0x408fba:	add	rsp, 8
0x408fbe:	pop	rbx
0x408fbf:	pop	rbp
0x408fc0:	ret	
F 0x40b64b
0x40379f:	pop	rbp
0x4037a0:	ret	
F 0x403901
0x403901:	add	byte ptr [rax], al
0x403903:	mov	byte ptr [rip + 0x1dfbf], 1
0x40390a:	add	rsp, 8
0x40390e:	xor	eax, eax
0x403910:	pop	rbp
0x403911:	pop	r12
0x403913:	ret	
F 0x40b055
0x403016:	ret	
F 0x403798
0x403798:	mov	byte ptr [rip + 0x1e049], 1
0x40379f:	pop	rbp
0x4037a0:	ret	
F 0x4051da
0x4051da:	mov	eax, 1
0x4051df:	add	rsp, 0x28
0x4051e3:	pop	rbx
0x4051e4:	pop	rbp
0x4051e5:	pop	r12
0x4051e7:	pop	r13
0x4051e9:	pop	r14
0x4051eb:	pop	r15
0x4051ed:	ret	
F 0x4097a7
0x40419b:	pop	rbp
0x40419c:	pop	r12
0x40419e:	pop	r13
0x4041a0:	pop	r14
0x4041a2:	pop	r15
0x4041a4:	ret	
F 0x40921b
0x40921b:	xchg	eax, esi
0x40921c:	ret	0xd020
F 0x403f8e
0x403016:	ret	
F 0x4048e8
0x4048e8:	add	byte ptr [rax - 0x77], cl
0x4048eb:	ret	
F 0x40c1b5
0x4041a3:	pop	rdi
0x4041a4:	ret	
F 0x406fda
0x406fda:	test	byte ptr [rax], al
0x406fdc:	add	byte ptr [rax], al
0x406fde:	add	byte ptr [rax], al
0x406fe0:	mov	qword ptr [rip + 0x1cb11], rdi
0x406fe7:	ret	
F 0x404065
0x403fd2:	add	byte ptr [rcx + rcx*4 - 0x20], al
0x403fd6:	pop	rbp
0x403fd7:	pop	r12
0x403fd9:	pop	r13
0x403fdb:	ret	
F 0x404cb2
0x404cb2:	add	dword ptr [rax], eax
0x404cb4:	add	dword ptr [rax - 0x77], ecx
0x404cb7:	add	eax, 0x1cc24
0x404cbc:	ret	
F 0x406837
0x406837:	add	dword ptr [rax], eax
0x406839:	mov	dword ptr [rip + 0x1d2c9], edx
0x40683f:	ret	
F 0x403f35
0x403f35:	add	byte ptr [rax], r8b
0x403f38:	xor	r8d, r8d
0x403f3b:	mov	rax, r8
0x403f3e:	ret	
F 0x407006
0x403016:	ret	
F 0x405742
0x403910:	pop	rbp
0x403911:	pop	r12
0x403913:	ret	
F 0x40b7b9
0x4042a2:	or	byte ptr [rbx + 0x5d], bl
0x4042a5:	ret	
F 0x40bd98
0x40bd98:	cmovl	ecx, dword ptr [rcx + 0x5c415be0]
0x40bd9f:	pop	r13
0x40bda1:	ret	
F 0x40a9ef
0x40a9ef:	add	byte ptr [rcx - 0x7c2dce28], cl
0x40a9f5:	ret	
F 0x404681
0x4037f7:	pop	r12
0x4037f9:	pop	r13
0x4037fb:	ret	
F 0x409ad7
0x409ad7:	mov	eax, dword ptr [rax + 0x20]
0x409ada:	ret	
F 0x40b598
0x4037f7:	pop	r12
0x4037f9:	pop	r13
0x4037fb:	ret	
F 0x406a7c
0x406a7c:	add	dword ptr [rax], eax
0x406a7e:	mov	qword ptr [rip + 0x1d06b], rax
0x406a85:	movzx	eax, byte ptr [rax]
0x406a88:	mov	byte ptr [rip + 0x1d0be], al
0x406a8e:	pop	rbx
0x406a8f:	ret	
F 0x406f6c
0x406f6c:	add	byte ptr [rax], al
0x406f6e:	add	byte ptr [rax], al
0x406f70:	mov	eax, dword ptr [rip + 0x1a3ce]
0x406f76:	ret	
F 0x40b791
0x403910:	pop	rbp
0x403911:	pop	r12
0x403913:	ret	
F 0x404cae
0x404cae:	mov	byte ptr [rip + 0x1cc07], 1
0x404cb5:	mov	qword ptr [rip + 0x1cc24], rax
0x404cbc:	ret	
F 0x405057
0x405057:	sub	eax, ebp
0x405059:	mov	dword ptr [rbx], eax
0x40505b:	mov	byte ptr [rdx + rax], 0
0x40505f:	add	rsp, 8
0x405063:	pop	rbx
0x405064:	pop	rbp
0x405065:	ret	
F 0x40b5fd
0x4037f7:	pop	r12
0x4037f9:	pop	r13
0x4037fb:	ret	
F 0x404c86
0x404c86:	mov	dword ptr [rip + 0x1cc54], eax
0x404c8c:	ret	
F 0x407169
0x403016:	ret	
F 0x40afdd
0x403634:	pop	r14
0x403636:	ret	
F 0x40b02d
0x40b02d:	add	byte ptr [rax], al
0x40b02f:	pop	rbx
0x40b030:	pop	rbp
0x40b031:	pop	r12
0x40b033:	pop	r13
0x40b035:	pop	r14
0x40b037:	ret	
F 0x408208
0x408208:	mov	ecx, 0x88410001
0x40820e:	add	byte ptr [r8 + 0x63], r9b
0x408212:	ret	0x148
F 0x407163
0x407163:	add	dword ptr [rax], eax
0x407165:	add	rsp, 8
0x407169:	ret	
F 0x403d71
0x403016:	ret	
F 0x40bb0c
0x40bb0c:	add	byte ptr [rax], al
0x40bb0e:	add	byte ptr [rax], al
0x40bb10:	mov	eax, 1
0x40bb15:	ret	
F 0x403d8e
0x403012:	add	rsp, 8
0x403016:	ret	
F 0x403def
0x403def:	nop	
0x403df0:	movzx	eax, byte ptr [rip + 0x1d48c]
0x403df7:	mov	byte ptr [rip + 0x1d485], 0
0x403dfe:	ret	
F 0x40710f
0x40710f:	lea	rax, [rip + 0x6eaa]
0x407116:	movzx	r8d, byte ptr [rax + rdx]
0x40711b:	mov	eax, r8d
0x40711e:	ret	
F 0x40b71b
0x4037f9:	pop	r13
0x4037fb:	ret	
F 0x4051e7
0x40419e:	pop	r13
0x4041a0:	pop	r14
0x4041a2:	pop	r15
0x4041a4:	ret	
F 0x4055f1
0x40362f:	pop	rbp
0x403630:	pop	r12
0x403632:	pop	r13
0x403634:	pop	r14
0x403636:	ret	
F 0x4051df
0x4051df:	add	rsp, 0x28
0x4051e3:	pop	rbx
0x4051e4:	pop	rbp
0x4051e5:	pop	r12
0x4051e7:	pop	r13
0x4051e9:	pop	r14
0x4051eb:	pop	r15
0x4051ed:	ret	
F 0x403fd0
0x403fd0:	add	byte ptr [rax], al
0x403fd2:	add	byte ptr [rcx + rcx*4 - 0x20], al
0x403fd6:	pop	rbp
0x403fd7:	pop	r12
0x403fd9:	pop	r13
0x403fdb:	ret	
F 0x409e45
0x409e45:	add	dword ptr [rax], eax
0x409e47:	mov	rax, qword ptr [rax]
0x409e4a:	ret	
F 0x403f7b
0x403f7b:	add	dword ptr [rax], eax
0x403f7d:	add	byte ptr [rax + 0xf], cl
0x403f80:	ret	0x8948
F 0x40b69d
0x40b69d:	cmova	eax, edx
0x40b6a0:	add	rsp, 8
0x40b6a4:	pop	rbx
0x40b6a5:	pop	rbp
0x40b6a6:	pop	r12
0x40b6a8:	pop	r13
0x40b6aa:	ret	
F 0x403f84
0x403f84:	add	eax, 0x1d997
0x403f89:	mov	eax, r12d
0x403f8c:	pop	r12
0x403f8e:	ret	
F 0x4090fd
0x403f2f:	pop	rbx
0x403f30:	pop	rbp
0x403f31:	ret	
F 0x404f5a
0x40379f:	pop	rbp
0x4037a0:	ret	
F 0x40711b
0x40711b:	mov	eax, r8d
0x40711e:	ret	
F 0x408bad
0x40379f:	pop	rbp
0x4037a0:	ret	
F 0x409ad2
0x409ad2:	add	eax, 0x1a091
0x409ad7:	mov	eax, dword ptr [rax + 0x20]
0x409ada:	ret	
F 0x4052b9
0x403016:	ret	
F 0x4057e8
0x403016:	ret	
F 0x40bf90
0x403016:	ret	
F 0x403df5
0x403df5:	add	dword ptr [rax], eax
0x403df7:	mov	byte ptr [rip + 0x1d485], 0
0x403dfe:	ret	
F 0x406920
0x406920:	cmp	eax, 0x1d21b
0x406925:	mov	byte ptr [rip + 0x1d221], al
0x40692b:	ret	
F 0x403fd3
0x403fd3:	mov	eax, r12d
0x403fd6:	pop	rbp
0x403fd7:	pop	r12
0x403fd9:	pop	r13
0x403fdb:	ret	
F 0x406f2b
0x406f2b:	add	dword ptr [rax], eax
0x406f2d:	add	byte ptr [rax], al
0x406f2f:	pop	rbx
0x406f30:	pop	rbp
0x406f31:	pop	r12
0x406f33:	ret	
F 0x4046ed
0x4046ed:	add	rsp, 8
0x4046f1:	mov	eax, r12d
0x4046f4:	pop	rbx
0x4046f5:	pop	rbp
0x4046f6:	pop	r12
0x4046f8:	pop	r13
0x4046fa:	ret	
F 0x409bdb
0x409bdb:	add	dword ptr [rax], eax
0x409bdd:	add	bl, al
0x409bdf:	nop	
0x409be0:	mov	dword ptr [rip + 0x19f9a], esi
0x409be6:	mov	dword ptr [rip + 0x19f98], edi
0x409bec:	ret	
F 0x40a14b
0x40a14b:	add	dword ptr [rax], eax
0x40a14d:	add	dword ptr [rdi + 0x10], edi
0x40a150:	add	rsp, 8
0x40a154:	pop	rbx
0x40a155:	pop	rbp
0x40a156:	pop	r12
0x40a158:	pop	r13
0x40a15a:	ret	
F 0x406bfa
0x403016:	ret	
F 0x408b32
0x408b32:	add	eax, 0x1afb9
0x408b37:	mov	qword ptr [rdi], rax
0x408b3a:	movsxd	rax, dword ptr [rip + 0x1afc7]
0x408b41:	ret	
F 0x406471
0x403016:	ret	
F 0x403f33
0x403f33:	nop	dword ptr [rax + rax]
0x403f38:	xor	r8d, r8d
0x403f3b:	mov	rax, r8
0x403f3e:	ret	
F 0x403f2b
0x403f2b:	or	byte ptr [rcx + rcx*4 - 0x40], cl
0x403f2f:	pop	rbx
0x403f30:	pop	rbp
0x403f31:	ret	
F 0x404f58
0x4042a2:	or	byte ptr [rbx + 0x5d], bl
0x4042a5:	ret	
F 0x404755
0x404755:	mov	r12d, 1
0x40475b:	sete	bl
0x40475e:	mov	byte ptr [rip + 0x1d194], bl
0x404764:	jmp	0x4046ed
F 0x40af60
0x403016:	ret	
F 0x403e53
0x403e53:	or	bl, al
0x403e55:	nop	dword ptr [rax]
0x403e58:	mov	qword ptr [rip + 0x1dacd], 0
0x403e63:	ret	
F 0x408fbe
0x403f2f:	pop	rbx
0x403f30:	pop	rbp
0x403f31:	ret	
F 0x405a15
0x40429f:	add	rsp, 8
0x4042a3:	pop	rbx
0x4042a4:	pop	rbp
0x4042a5:	ret	
F 0x406fc7
0x406fc7:	nop	word ptr [rax + rax]
0x406fd0:	mov	qword ptr [rip + 0x1cb29], rdi
0x406fd7:	ret	
F 0x40bf23
0x40467e:	or	byte ptr [rbx + 0x5d], bl
0x404681:	pop	r12
0x404683:	pop	r13
0x404685:	ret	
F 0x4069ab
0x4069ab:	movups	xmmword ptr [rax + 0x30], xmm0
0x4069af:	add	rsp, 8
0x4069b3:	pop	rbx
0x4069b4:	pop	rbp
0x4069b5:	ret	
F 0x406fd8
0x406fd8:	nop	dword ptr [rax + rax]
0x406fe0:	mov	qword ptr [rip + 0x1cb11], rdi
0x406fe7:	ret	
F 0x40bb08
0x40bb08:	nop	dword ptr [rax + rax]
0x40bb10:	mov	eax, 1
0x40bb15:	ret	
F 0x405063
0x403f2f:	pop	rbx
0x403f30:	pop	rbp
0x403f31:	ret	
F 0x408e70
0x40429f:	add	rsp, 8
0x4042a3:	pop	rbx
0x4042a4:	pop	rbp
0x4042a5:	ret	
F 0x403fc8
0x403fc8:	mov	qword ptr [rip + 0x1d945], 0
0x403fd3:	mov	eax, r12d
0x403fd6:	pop	rbp
0x403fd7:	pop	r12
0x403fd9:	pop	r13
0x403fdb:	ret	
F 0x40916d
0x4041a3:	pop	rdi
0x4041a4:	ret	
F 0x408b41
0x403016:	ret	
F 0x40419f
0x40419f:	pop	rbp
0x4041a0:	pop	r14
0x4041a2:	pop	r15
0x4041a4:	ret	
F 0x403827
0x4037f7:	pop	r12
0x4037f9:	pop	r13
0x4037fb:	ret	
F 0x408b3a
0x408b3a:	movsxd	rax, dword ptr [rip + 0x1afc7]
0x408b41:	ret	
F 0x40c667
0x403016:	ret	
F 0x40c571
0x40c571:	add	byte ptr [rbp - 0x14], dh
0x40c574:	jmp	0x40c540
F 0x4050ef
0x4050ef:	add	dword ptr [rax], eax
0x4050f1:	add	rsp, 8
0x4050f5:	pop	rbx
0x4050f6:	pop	rbp
0x4050f7:	ret	
F 0x404b08
0x4047f1:	or	byte ptr [rax - 0x77], cl
0x4047f4:	ret	
F 0x406fb1
0x406fb1:	mov	eax, dword ptr [rip + 0x1cb39]
0x406fb7:	ret	
F 0x404dbe
0x404dbe:	nop	
0x404dc0:	ret	
F 0x406fa4
0x403e25:	add	dword ptr [rax], eax
0x403e27:	ret	
F 0x406921
0x406921:	sbb	edx, edx
0x406923:	add	dword ptr [rax], eax
0x406925:	mov	byte ptr [rip + 0x1d221], al
0x40692b:	ret	
F 0x409ecc
0x409ecc:	mov	dword ptr [rip + 0x19f66], ebx
0x409ed2:	pop	rbx
0x409ed3:	ret	
F 0x409a49
0x409a49:	mov	eax, esp
0x409a4b:	pop	rbp
0x409a4c:	pop	r12
0x409a4e:	ret	
F 0x40bf83
0x40bf83:	add	byte ptr [rbp - 0x26], dh
0x40bf86:	add	rsp, 8
0x40bf8a:	pop	rbx
0x40bf8b:	pop	rbp
0x40bf8c:	pop	r12
0x40bf8e:	pop	r13
0x40bf90:	ret	
F 0x4055ea
0x4055ea:	add	rsp, 8
0x4055ee:	mov	eax, r12d
0x4055f1:	pop	rbp
0x4055f2:	pop	r12
0x4055f4:	pop	r13
0x4055f6:	pop	r14
0x4055f8:	ret	
F 0x40bda0
0x40379f:	pop	rbp
0x4037a0:	ret	
F 0x406eca
0x403016:	ret	
F 0x409acb
0x409acb:	nop	dword ptr [rax + rax]
0x409ad0:	mov	rax, qword ptr [rip + 0x1a091]
0x409ad7:	mov	eax, dword ptr [rax + 0x20]
0x409ada:	ret	
F 0x40bb7c
0x40bb7c:	mov	byte ptr [r8], 0
0x40bb80:	pop	rbx
0x40bb81:	mov	eax, r11d
0x40bb84:	pop	rbp
0x40bb85:	pop	r12
0x40bb87:	pop	r13
0x40bb89:	ret	
F 0x40c456
0x40362e:	pop	rbx
0x40362f:	pop	rbp
0x403630:	pop	r12
0x403632:	pop	r13
0x403634:	pop	r14
0x403636:	ret	
F 0x409ace
0x409ace:	add	byte ptr [rax], al
0x409ad0:	mov	rax, qword ptr [rip + 0x1a091]
0x409ad7:	mov	eax, dword ptr [rax + 0x20]
0x409ada:	ret	
F 0x408d0d
0x40362e:	pop	rbx
0x40362f:	pop	rbp
0x403630:	pop	r12
0x403632:	pop	r13
0x403634:	pop	r14
0x403636:	ret	
F 0x403628
0x403628:	add	rsp, 0x20
0x40362c:	xor	eax, eax
0x40362e:	pop	rbx
0x40362f:	pop	rbp
0x403630:	pop	r12
0x403632:	pop	r13
0x403634:	pop	r14
0x403636:	ret	
F 0x404ada
0x404ada:	mov	eax, esp
0x404adc:	pop	rbx
0x404add:	pop	rbp
0x404ade:	pop	r12
0x404ae0:	pop	r13
0x404ae2:	pop	r14
0x404ae4:	pop	r15
0x404ae6:	ret	
F 0x40b531
0x40b531:	sub	r12d, r9d
0x40b534:	mov	byte ptr [rbx], 0
0x40b537:	add	rsp, 8
0x40b53b:	mov	eax, r12d
0x40b53e:	pop	rbx
0x40b53f:	pop	r12
0x40b541:	ret	
F 0x4070a3
0x4070a3:	mov	dword ptr [rip + 0x1ca4b], 0
0x4070ad:	add	rsp, 8
0x4070b1:	pop	rbx
0x4070b2:	pop	rbp
0x4070b3:	ret	
F 0x409750
0x403016:	ret	
F 0x404f05
0x404f05:	pop	rbx
0x404f06:	pop	rbp
0x404f07:	pop	r12
0x404f09:	ret	
F 0x4052b3
0x40419e:	pop	r13
0x4041a0:	pop	r14
0x4041a2:	pop	r15
0x4041a4:	ret	
F 0x404f5b
0x403016:	ret	
F 0x40bb04
0x40bb04:	rol	bl, 0x66
0x40bb07:	nop	dword ptr cs:[rax + rax]
0x40bb10:	mov	eax, 1
0x40bb15:	ret	
F 0x40646e
0x40628e:	add	byte ptr [rax - 0x7d], cl
0x406291:	ret	
F 0x409bcb
0x409bcb:	jmp	0x409b0c
F 0x4069ef
0x4069ef:	add	byte ptr [rax], al
0x4069f1:	add	rsp, 8
0x4069f5:	pop	rbx
0x4069f6:	pop	rbp
0x4069f7:	ret	
F 0x403fd7
0x4037f7:	pop	r12
0x4037f9:	pop	r13
0x4037fb:	ret	
F 0x40c5f1
0x40c5f1:	add	r12, rcx
0x40c5f4:	mov	byte ptr [rax], 0
0x40c5f7:	mov	rax, r12
0x40c5fa:	pop	r12
0x40c5fc:	ret	
F 0x40820e
0x40820e:	add	byte ptr [r8 + 0x63], r9b
0x408212:	ret	0x148
F 0x403f8c
0x403911:	pop	r12
0x403913:	ret	
F 0x40b790
0x404f05:	pop	rbx
0x404f06:	pop	rbp
0x404f07:	pop	r12
0x404f09:	ret	
F 0x409c3a
0x4069ef:	add	byte ptr [rax], al
0x4069f1:	add	rsp, 8
0x4069f5:	pop	rbx
0x4069f6:	pop	rbp
0x4069f7:	ret	
F 0x40a14d
0x40a14d:	add	dword ptr [rdi + 0x10], edi
0x40a150:	add	rsp, 8
0x40a154:	pop	rbx
0x40a155:	pop	rbp
0x40a156:	pop	r12
0x40a158:	pop	r13
0x40a15a:	ret	
F 0x40afd9
0x403630:	pop	r12
0x403632:	pop	r13
0x403634:	pop	r14
0x403636:	ret	
F 0x404ec1
0x404ec1:	mov	dword ptr [rdi + 8], esi
0x404ec4:	mov	rax, rdi
0x404ec7:	mov	dword ptr [rdi], edx
0x404ec9:	mov	dword ptr [rdi + 0x10], 0
0x404ed0:	mov	dword ptr [rdi + 0x14], ecx
0x404ed3:	ret	
F 0x409107
0x403f2c:	mov	rax, r8
0x403f2f:	pop	rbx
0x403f30:	pop	rbp
0x403f31:	ret	
F 0x40c458
0x403630:	pop	r12
0x403632:	pop	r13
0x403634:	pop	r14
0x403636:	ret	
F 0x409952
0x409952:	adc	byte ptr [rcx + rcx - 0x7d], dh
0x409956:	cmp	eax, 0x17f4c
0x40995b:	add	dword ptr [rdi + 0xa], edi
0x40995e:	add	rsp, 8
0x409962:	pop	rbx
0x409963:	pop	rbp
0x409964:	ret	
F 0x404be6
0x403016:	ret	
F 0x409d66
0x40379f:	pop	rbp
0x4037a0:	ret	
F 0x404193
0x404193:	add	rsp, 8
0x404197:	mov	eax, r14d
0x40419a:	pop	rbx
0x40419b:	pop	rbp
0x40419c:	pop	r12
0x40419e:	pop	r13
0x4041a0:	pop	r14
0x4041a2:	pop	r15
0x4041a4:	ret	
F 0x4090fc
0x4090fc:	rcr	byte ptr [rbx + 0x5d], 0xc3
0x409100:	add	rsp, 8
0x409104:	xor	r8d, r8d
0x409107:	mov	rax, r8
0x40910a:	pop	rbx
0x40910b:	pop	rbp
0x40910c:	ret	
F 0x403d9b
0x403723:	add	byte ptr [rax], 0
0x403726:	add	byte ptr [rax], al
0x403728:	ret	
F 0x404680
0x403fd6:	pop	rbp
0x403fd7:	pop	r12
0x403fd9:	pop	r13
0x403fdb:	ret	
F 0x405915
0x403635:	pop	rsi
0x403636:	ret	
F 0x404c7e
0x404c7e:	lea	rax, [rip - 0xe65]
0x404c85:	mov	qword ptr [rip + 0x1cc54], rax
0x404c8c:	ret	
F 0x40590f
0x40362f:	pop	rbp
0x403630:	pop	r12
0x403632:	pop	r13
0x403634:	pop	r14
0x403636:	ret	
F 0x404198
0x404198:	mov	eax, esi
0x40419a:	pop	rbx
0x40419b:	pop	rbp
0x40419c:	pop	r12
0x40419e:	pop	r13
0x4041a0:	pop	r14
0x4041a2:	pop	r15
0x4041a4:	ret	
F 0x40af5d
0x4048e8:	add	byte ptr [rax - 0x77], cl
0x4048eb:	ret	
F 0x409fac
0x409fac:	and	al, 0x49
0x409fae:	mov	dword ptr [rbp + 8], eax
0x409fb1:	add	rsp, 8
0x409fb5:	pop	rbx
0x409fb6:	pop	rbp
0x409fb7:	pop	r12
0x409fb9:	pop	r13
0x409fbb:	pop	r14
0x409fbd:	pop	r15
0x409fbf:	ret	
F 0x403d98
0x403016:	ret	
F 0x4090f1
0x4090f1:	sbb	byte ptr [rax], al
0x4090f3:	mov	r8, rax
0x4090f6:	add	rsp, 8
0x4090fa:	mov	rax, r8
0x4090fd:	pop	rbx
0x4090fe:	pop	rbp
0x4090ff:	ret	
F 0x4051dd
0x4051dd:	add	byte ptr [rax], al
0x4051df:	add	rsp, 0x28
0x4051e3:	pop	rbx
0x4051e4:	pop	rbp
0x4051e5:	pop	r12
0x4051e7:	pop	r13
0x4051e9:	pop	r14
0x4051eb:	pop	r15
0x4051ed:	ret	
F 0x404ad5
0x404ad5:	mov	eax, 0x44000000
0x404ada:	mov	eax, esp
0x404adc:	pop	rbx
0x404add:	pop	rbp
0x404ade:	pop	r12
0x404ae0:	pop	r13
0x404ae2:	pop	r14
0x404ae4:	pop	r15
0x404ae6:	ret	
F 0x403f94
0x403f8a:	mov	eax, esp
0x403f8c:	pop	r12
0x403f8e:	ret	
F 0x406e4e
0x403016:	ret	
F 0x405009
0x405009:	add	byte ptr [rax], al
0x40500b:	add	byte ptr [rbp + 5], dh
0x40500e:	add	rsp, 0x28
0x405012:	ret	
F 0x4055f7
0x403635:	pop	rsi
0x403636:	ret	
F 0x406f68
0x406f68:	nop	dword ptr [rax + rax]
0x406f70:	mov	eax, dword ptr [rip + 0x1a3ce]
0x406f76:	ret	
F 0x403f3e
0x403016:	ret	
F 0x406cc1
0x406cc1:	add	eax, 0x1ce86
0x406cc6:	ret	
F 0x4051e4
0x40419b:	pop	rbp
0x40419c:	pop	r12
0x40419e:	pop	r13
0x4041a0:	pop	r14
0x4041a2:	pop	r15
0x4041a4:	ret	
F 0x4092d8
0x403d6b:	add	byte ptr [rax], al
0x403d6d:	add	rsp, 8
0x403d71:	ret	
F 0x409160
0x409160:	add	rsp, 0x18
0x409164:	pop	rbx
0x409165:	pop	rbp
0x409166:	pop	r12
0x409168:	pop	r13
0x40916a:	pop	r14
0x40916c:	pop	r15
0x40916e:	ret	
F 0x404cb5
0x404cb5:	mov	qword ptr [rip + 0x1cc24], rax
0x404cbc:	ret	
F 0x40910b
0x40379f:	pop	rbp
0x4037a0:	ret	
F 0x40c1b0
0x40419e:	pop	r13
0x4041a0:	pop	r14
0x4041a2:	pop	r15
0x4041a4:	ret	
F 0x409bd0
0x409bd0:	movzx	eax, byte ptr [rip + 0x19fb1]
0x409bd7:	mov	byte ptr [rip + 0x19faa], 0
0x409bde:	ret	
F 0x406f9a
0x406f9a:	test	byte ptr [rax], al
0x406f9c:	add	byte ptr [rax], al
0x406f9e:	add	byte ptr [rax], al
0x406fa0:	mov	eax, dword ptr [rip + 0x1cb62]
0x406fa6:	ret	
F 0x404caf
0x404caf:	add	eax, 0x1cc07
0x404cb4:	add	dword ptr [rax - 0x77], ecx
0x404cb7:	add	eax, 0x1cc24
0x404cbc:	ret	
F 0x40b70e
0x40b70e:	add	al, byte ptr [rax]
0x40b710:	add	rsp, 8
0x40b714:	mov	rax, r12
0x40b717:	pop	rbx
0x40b718:	pop	rbp
0x40b719:	pop	r12
0x40b71b:	pop	r13
0x40b71d:	ret	
F 0x40afdc
0x403633:	pop	rbp
0x403634:	pop	r14
0x403636:	ret	
F 0x409bc4
0x403e94:	pop	rbx
0x403e95:	ret	
F 0x408b72
0x403016:	ret	
F 0x404ec4
0x404ec4:	mov	rax, rdi
0x404ec7:	mov	dword ptr [rdi], edx
0x404ec9:	mov	dword ptr [rdi + 0x10], 0
0x404ed0:	mov	dword ptr [rdi + 0x14], ecx
0x404ed3:	ret	
F 0x407e3a
0x407e3a:	jmp	0x407421
F 0x40c455
0x40b02e:	add	byte ptr [rbx + 0x5d], bl
0x40b031:	pop	r12
0x40b033:	pop	r13
0x40b035:	pop	r14
0x40b037:	ret	
F 0x40c5f8
0x403f8a:	mov	eax, esp
0x403f8c:	pop	r12
0x403f8e:	ret	
F 0x40b037
0x403016:	ret	
F 0x40a252
0x4042a2:	or	byte ptr [rbx + 0x5d], bl
0x4042a5:	ret	
F 0x40bf1d
0x40bf1d:	add	byte ptr [rbp + 0x30], dh
0x40bf20:	add	rsp, 8
0x40bf24:	pop	rbx
0x40bf25:	pop	rbp
0x40bf26:	pop	r12
0x40bf28:	pop	r13
0x40bf2a:	ret	
F 0x40b59c
0x403016:	ret	
F 0x40bea3
0x403016:	ret	
F 0x406f28
0x406f28:	mov	dword ptr [rax + 0x20], 1
0x406f2f:	pop	rbx
0x406f30:	pop	rbp
0x406f31:	pop	r12
0x406f33:	ret	
F 0x406b08
0x406b08:	nop	dword ptr [rax + rax]
0x406b10:	ret	
F 0x406b8a
0x406b8a:	mov	qword ptr [rip + 0x1cf6f], rax
0x406b91:	movzx	eax, byte ptr [rdx]
0x406b94:	mov	byte ptr [rip + 0x1cfb2], al
0x406b9a:	ret	
F 0x40bb11
0x409e32:	add	dword ptr [rax], eax
0x409e34:	add	byte ptr [rax], al
0x409e36:	ret	
F 0x409b42
0x409b42:	leave	
0x409b43:	pop	rbx
0x409b44:	ret	
F 0x40a155
0x403fd6:	pop	rbp
0x403fd7:	pop	r12
0x403fd9:	pop	r13
0x403fdb:	ret	
F 0x40b2de
0x4042a2:	or	byte ptr [rbx + 0x5d], bl
0x4042a5:	ret	
F 0x406ffa
0x406ffa:	test	byte ptr [rax], al
0x406ffc:	add	byte ptr [rax], al
0x406ffe:	add	byte ptr [rax], al
0x407000:	mov	dword ptr [rip + 0x1a33a], edi
0x407006:	ret	
F 0x4045da
0x403016:	ret	
F 0x406fc6
0x403016:	ret	
F 0x40c45e
0x403016:	ret	
F 0x406f7d
0x406f7d:	add	byte ptr [rax], al
0x406f7f:	add	byte ptr [rax - 0x75], cl
0x406f82:	add	eax, 0x1cb79
0x406f87:	ret	
F 0x40437c
0x40437c:	ret	0x8348
F 0x40691f
0x40691f:	mov	dword ptr [rip + 0x1d21b], edi
0x406925:	mov	byte ptr [rip + 0x1d221], al
0x40692b:	ret	
F 0x4067d1
0x40419b:	pop	rbp
0x40419c:	pop	r12
0x40419e:	pop	r13
0x4041a0:	pop	r14
0x4041a2:	pop	r15
0x4041a4:	ret	
F 0x40577f
0x40362f:	pop	rbp
0x403630:	pop	r12
0x403632:	pop	r13
0x403634:	pop	r14
0x403636:	ret	
F 0x403f8a
0x403f8a:	mov	eax, esp
0x403f8c:	pop	r12
0x403f8e:	ret	
F 0x404db9
0x403012:	add	rsp, 8
0x403016:	ret	
F 0x4077f7
0x4077f7:	add	byte ptr [rbx + rcx*4 + 0x2d], cl
0x4077fb:	ret	
F 0x409558
0x409558:	or	byte ptr [rbx + 0x5d], bl
0x40955b:	pop	r12
0x40955d:	pop	r13
0x40955f:	pop	r14
0x409561:	pop	r15
0x409563:	ret	
F 0x404c7a
0x404c7a:	add	byte ptr [rax], al
0x404c7c:	add	byte ptr [rax], al
0x404c7e:	lea	rax, [rip - 0xe65]
0x404c85:	mov	qword ptr [rip + 0x1cc54], rax
0x404c8c:	ret	
F 0x405913
0x403633:	pop	rbp
0x403634:	pop	r14
0x403636:	ret	
F 0x40550b
0x403016:	ret	
F 0x40b8ab
0x403016:	ret	
F 0x40573e
0x40573e:	sal	byte ptr [rbp - 0x31], 0x5b
0x405742:	pop	rbp
0x405743:	pop	r12
0x405745:	ret	
F 0x40a50d
0x40a50d:	add	byte ptr [rax], al
0x40a50f:	add	rsp, 0x58
0x40a513:	mov	eax, r13d
0x40a516:	pop	rbx
0x40a517:	pop	rbp
0x40a518:	pop	r12
0x40a51a:	pop	r13
0x40a51c:	pop	r14
0x40a51e:	pop	r15
0x40a520:	ret	
F 0x40820f
0x40820f:	add	byte ptr [rax + 0x63], cl
0x408212:	ret	0x148
F 0x40577e
0x40362e:	pop	rbx
0x40362f:	pop	rbp
0x403630:	pop	r12
0x403632:	pop	r13
0x403634:	pop	r14
0x403636:	ret	
F 0x406db4
0x403e25:	add	dword ptr [rax], eax
0x403e27:	ret	
F 0x406ebe
0x403016:	ret	
F 0x4069e6
0x4069e6:	mov	qword ptr [rip + 0x1d16f], 0
0x4069f1:	add	rsp, 8
0x4069f5:	pop	rbx
0x4069f6:	pop	rbp
0x4069f7:	ret	
F 0x404759
0x404759:	add	byte ptr [rax], al
0x40475b:	sete	bl
0x40475e:	mov	byte ptr [rip + 0x1d194], bl
0x404764:	jmp	0x4046ed
F 0x40c043
0x40c043:	or	byte ptr [rcx], ch
0x40c045:	ret	0x8948
F 0x40379c
0x40379c:	add	dword ptr [rax], eax
0x40379e:	add	dword ptr [rbp - 0x3d], ebx
0x4037a1:	nop	dword ptr [rax]
0x4037a8:	ret	
F 0x404ec5
0x404ec5:	mov	eax, edi
0x404ec7:	mov	dword ptr [rdi], edx
0x404ec9:	mov	dword ptr [rdi + 0x10], 0
0x404ed0:	mov	dword ptr [rdi + 0x14], ecx
0x404ed3:	ret	
F 0x403016
0x403016:	ret	
F 0x404546
0x404546:	add	byte ptr [rax], al
0x404548:	pop	rbx
0x404549:	pop	rbp
0x40454a:	pop	r12
0x40454c:	pop	r13
0x40454e:	ret	
F 0x4069a3
0x4069a3:	movups	xmmword ptr [rax + 0x10], xmm0
0x4069a7:	movups	xmmword ptr [rax + 0x20], xmm0
0x4069ab:	movups	xmmword ptr [rax + 0x30], xmm0
0x4069af:	add	rsp, 8
0x4069b3:	pop	rbx
0x4069b4:	pop	rbp
0x4069b5:	ret	
F 0x403fdb
0x403016:	ret	
F 0x40bb7f
0x40bb7f:	add	byte ptr [rbx + 0x44], bl
0x40bb82:	mov	eax, ebx
0x40bb84:	pop	rbp
0x40bb85:	pop	r12
0x40bb87:	pop	r13
0x40bb89:	ret	
F 0x407429
0x40419b:	pop	rbp
0x40419c:	pop	r12
0x40419e:	pop	r13
0x4041a0:	pop	r14
0x4041a2:	pop	r15
0x4041a4:	ret	
F 0x409c50
0x409c50:	mov	rax, qword ptr [rip + 0x176f9]
0x409c57:	mov	qword ptr [rdi], rax
0x409c5a:	movsxd	rax, dword ptr [rip + 0x176e7]
0x409c61:	ret	
F 0x40382a
0x40379f:	pop	rbp
0x4037a0:	ret	
F 0x40b718
0x403fd6:	pop	rbp
0x403fd7:	pop	r12
0x403fd9:	pop	r13
0x403fdb:	ret	
F 0x40b6a0
0x40467b:	add	rsp, 8
0x40467f:	pop	rbx
0x404680:	pop	rbp
0x404681:	pop	r12
0x404683:	pop	r13
0x404685:	ret	
F 0x404dc0
0x403016:	ret	
F 0x406a7d
0x406a7d:	add	byte ptr [rax - 0x77], cl
0x406a80:	add	eax, 0x1d06b
0x406a85:	movzx	eax, byte ptr [rax]
0x406a88:	mov	byte ptr [rip + 0x1d0be], al
0x406a8e:	pop	rbx
0x406a8f:	ret	
F 0x404eff
0x404eff:	add	byte ptr [rax], al
0x404f01:	add	byte ptr [rcx + 0x5d5b1458], cl
0x404f07:	pop	r12
0x404f09:	ret	
F 0x4051e3
0x40419a:	pop	rbx
0x40419b:	pop	rbp
0x40419c:	pop	r12
0x40419e:	pop	r13
0x4041a0:	pop	r14
0x4041a2:	pop	r15
0x4041a4:	ret	
F 0x40c45a
0x403632:	pop	r13
0x403634:	pop	r14
0x403636:	ret	
F 0x40bf28
0x4037f9:	pop	r13
0x4037fb:	ret	
F 0x409d64
0x4042a2:	or	byte ptr [rbx + 0x5d], bl
0x4042a5:	ret	
F 0x409be7
0x409be7:	cmp	eax, 0x19f98
0x409bec:	ret	
F 0x404bcb
0x404bcb:	add	dh, byte ptr [rdx + rax - 0x3d]
0x404bcf:	nop	
0x404bd0:	cmp	word ptr [rdi], 0xa0d
0x404bd5:	sete	al
0x404bd8:	ret	
F 0x406ff8
0x406ff8:	nop	dword ptr [rax + rax]
0x407000:	mov	dword ptr [rip + 0x1a33a], edi
0x407006:	ret	
F 0x4069b4
0x40379f:	pop	rbp
0x4037a0:	ret	
F 0x406b9a
0x403016:	ret	
F 0x409e36
0x403016:	ret	
F 0x403de3
0x403016:	ret	
F 0x409b13
0x403e94:	pop	rbx
0x403e95:	ret	
F 0x404ad9
0x404ad9:	mov	eax, r12d
0x404adc:	pop	rbx
0x404add:	pop	rbp
0x404ade:	pop	r12
0x404ae0:	pop	r13
0x404ae2:	pop	r14
0x404ae4:	pop	r15
0x404ae6:	ret	
F 0x404684
0x40379f:	pop	rbp
0x4037a0:	ret	
F 0x4064e5
0x40419e:	pop	r13
0x4041a0:	pop	r14
0x4041a2:	pop	r15
0x4041a4:	ret	
F 0x4046eb
0x4046eb:	add	dword ptr [rax], eax
0x4046ed:	add	rsp, 8
0x4046f1:	mov	eax, r12d
0x4046f4:	pop	rbx
0x4046f5:	pop	rbp
0x4046f6:	pop	r12
0x4046f8:	pop	r13
0x4046fa:	ret	
F 0x406925
0x406925:	mov	byte ptr [rip + 0x1d221], al
0x40692b:	ret	
F 0x403e27
0x403016:	ret	
F 0x404ccd
0x404ccd:	add	byte ptr [rax - 0x73], cl
0x404cd0:	add	eax, 0xfffff14b
0x404cd5:	mov	qword ptr [rip + 0x1cc04], rax
0x404cdc:	ret	
F 0x40b9e5
0x403016:	ret	
F 0x40af5a
0x40af5a:	and	cl, byte ptr [rdi - 0x76b7ffff]
0x40af60:	ret	
F 0x40a8aa
0x40a8aa:	ret	0xda80
F 0x404be3
0x404bd5:	sete	al
0x404bd8:	ret	
F 0x403e0e
0x403e0e:	mov	byte ptr [rip + 0x1d46e], 0
0x403e15:	test	al, al
0x403e17:	cmove	eax, edx
0x403e1a:	ret	
F 0x403e1a
0x403016:	ret	
F 0x409555
0x409555:	add	rsp, 8
0x409559:	pop	rbx
0x40955a:	pop	rbp
0x40955b:	pop	r12
0x40955d:	pop	r13
0x40955f:	pop	r14
0x409561:	pop	r15
0x409563:	ret	
F 0x40c1a5
0x40c1a5:	add	byte ptr [rbp + 0x64], dh
0x40c1a8:	add	rsp, 0x48
0x40c1ac:	pop	rbx
0x40c1ad:	pop	rbp
0x40c1ae:	pop	r12
0x40c1b0:	pop	r13
0x40c1b2:	pop	r14
0x40c1b4:	pop	r15
0x40c1b6:	ret	
F 0x40b78f
0x406e49:	add	byte ptr [rbx + 0x5d], bl
0x406e4c:	pop	r12
0x406e4e:	ret	
F 0x40bf8c
0x4037f7:	pop	r12
0x4037f9:	pop	r13
0x4037fb:	ret	
F 0x403ef0
0x403ef0:	lea	eax, [rip + 0x74a]
0x403ef6:	cmove	r8, rax
0x403efa:	add	rsp, 8
0x403efe:	pop	rbx
0x403eff:	pop	rbp
0x403f00:	mov	rax, r8
0x403f03:	ret	
F 0x409bec
0x403016:	ret	
F 0x40b567
0x403016:	ret	
F 0x40c400
0x403016:	ret	
F 0x406cc6
0x403016:	ret	
F 0x404197
0x404197:	mov	eax, r14d
0x40419a:	pop	rbx
0x40419b:	pop	rbp
0x40419c:	pop	r12
0x40419e:	pop	r13
0x4041a0:	pop	r14
0x4041a2:	pop	r15
0x4041a4:	ret	
F 0x40429b
0x40429b:	mov	byte ptr [rax + rbx], 0
0x40429f:	add	rsp, 8
0x4042a3:	pop	rbx
0x4042a4:	pop	rbp
0x4042a5:	ret	
F 0x409e3e
0x409e3e:	add	byte ptr [rax], al
0x409e40:	mov	rax, qword ptr [rip + 0x19ff1]
0x409e47:	mov	rax, qword ptr [rax]
0x409e4a:	ret	
F 0x40bb87
0x4037f9:	pop	r13
0x4037fb:	ret	
F 0x409a47
0x409a47:	sbb	byte ptr [rcx + rcx*4 - 0x20], al
0x409a4b:	pop	rbp
0x409a4c:	pop	r12
0x409a4e:	ret	
F 0x409560
0x4041a1:	pop	rsi
0x4041a2:	pop	r15
0x4041a4:	ret	
F 0x406fde
0x406fde:	add	byte ptr [rax], al
0x406fe0:	mov	qword ptr [rip + 0x1cb11], rdi
0x406fe7:	ret	
F 0x40b939
0x404e8a:	add	rsp, 8
0x404e8e:	pop	rbp
0x404e8f:	pop	r12
0x404e91:	ret	
F 0x404757
0x404757:	add	dword ptr [rax], eax
0x404759:	add	byte ptr [rax], al
0x40475b:	sete	bl
0x40475e:	mov	byte ptr [rip + 0x1d194], bl
0x404764:	jmp	0x4046ed
F 0x404f53
0x404f53:	add	dword ptr [rbx], eax
0x404f55:	add	rsp, 8
0x404f59:	pop	rbx
0x404f5a:	pop	rbp
0x404f5b:	ret	
F 0x409563
0x403016:	ret	
F 0x406ff7
0x406ff7:	nop	word ptr [rax + rax]
0x407000:	mov	dword ptr [rip + 0x1a33a], edi
0x407006:	ret	
F 0x40b04b
0x40b04b:	mov	dword ptr [rip + 0x18e33], 0
0x40b055:	ret	
F 0x406b0c
0x403724:	add	byte ptr [rax], al
0x403726:	add	byte ptr [rax], al
0x403728:	ret	
F 0x40a245
0x40a245:	mov	eax, dword ptr [rip + 0x19cad]
0x40a24b:	mov	qword ptr [rbx + 8], rax
0x40a24f:	add	rsp, 8
0x40a253:	pop	rbx
0x40a254:	pop	rbp
0x40a255:	ret	
F 0x403797
0x403797:	inc	esi
0x403799:	add	eax, 0x1e049
0x40379e:	add	dword ptr [rbp - 0x3d], ebx
0x4037a1:	nop	dword ptr [rax]
0x4037a8:	ret	
F 0x403ef9
0x403ef9:	ror	byte ptr [rax - 0x7d], 0xc4
0x403efd:	or	byte ptr [rbx + 0x5d], bl
0x403f00:	mov	rax, r8
0x403f03:	ret	
F 0x40bea0
0x40bea0:	cmp	ecx, dword ptr [rax - 0x7d]
0x40bea3:	ret	
F 0x403768
0x403016:	ret	
F 0x406da6
0x406da6:	mov	qword ptr [rip + 0x1cd43], rax
0x406dad:	movzx	eax, byte ptr [rax]
0x406db0:	mov	byte ptr [rip + 0x1cd96], al
0x406db6:	ret	
F 0x406f76
0x403016:	ret	
F 0x409bb6
0x409bb6:	add	dil, al
0x409bb9:	add	eax, 0x17786
0x409bbe:	add	byte ptr [rax], al
0x409bc0:	add	byte ptr [rax], al
0x409bc2:	xor	eax, eax
0x409bc4:	pop	rbx
0x409bc5:	ret	
F 0x40c4d3
0x403012:	add	rsp, 8
0x403016:	ret	
F 0x409be0
0x409be0:	mov	dword ptr [rip + 0x19f9a], esi
0x409be6:	mov	dword ptr [rip + 0x19f98], edi
0x409bec:	ret	
F 0x40362e
0x40362e:	pop	rbx
0x40362f:	pop	rbp
0x403630:	pop	r12
0x403632:	pop	r13
0x403634:	pop	r14
0x403636:	ret	
F 0x404fa7
0x403630:	pop	r12
0x403632:	pop	r13
0x403634:	pop	r14
0x403636:	ret	
F 0x40c1b4
0x4041a2:	pop	r15
0x4041a4:	ret	
F 0x40500d
0x40500d:	add	eax, 0x28c48348
0x405012:	ret	
F 0x404de4
0x404de4:	add	eax, 0x1cad3
0x404de9:	add	byte ptr [rax], al
0x404deb:	add	byte ptr [rax], al
0x404ded:	add	rsp, 8
0x404df1:	ret	
F 0x4045d4
0x4045d4:	nop	dword ptr [rax]
0x4045d8:	xor	eax, eax
0x4045da:	ret	
F 0x404de3
0x404de3:	mov	dword ptr [rip + 0x1cad3], 0
0x404ded:	add	rsp, 8
0x404df1:	ret	
F 0x4051db
0x4051db:	add	dword ptr [rax], eax
0x4051dd:	add	byte ptr [rax], al
0x4051df:	add	rsp, 0x28
0x4051e3:	pop	rbx
0x4051e4:	pop	rbp
0x4051e5:	pop	r12
0x4051e7:	pop	r13
0x4051e9:	pop	r14
0x4051eb:	pop	r15
0x4051ed:	ret	
F 0x40b1af
0x40b1af:	add	byte ptr [rax], al
0x40b1b1:	add	byte ptr [rax], al
0x40b1b3:	mov	dword ptr [rip + 0x18ccb], 0
0x40b1bd:	jmp	0x40b135
F 0x40c679
0x4041a1:	pop	rsi
0x4041a2:	pop	r15
0x4041a4:	ret	
F 0x409e32
0x409e32:	add	dword ptr [rax], eax
0x409e34:	add	byte ptr [rax], al
0x409e36:	ret	
F 0x406ec6
0x403f8a:	mov	eax, esp
0x403f8c:	pop	r12
0x403f8e:	ret	
F 0x407118
0x407118:	mov	dh, 4
0x40711a:	adc	byte ptr [rcx + rcx*4 - 0x40], al
0x40711e:	ret	
F 0x409c51
0x409c51:	mov	eax, dword ptr [rip + 0x176f9]
0x409c57:	mov	qword ptr [rdi], rax
0x409c5a:	movsxd	rax, dword ptr [rip + 0x176e7]
0x409c61:	ret	
F 0x40b71c
0x40379f:	pop	rbp
0x4037a0:	ret	
F 0x404bcd
0x404bcd:	add	al, bl
0x404bcf:	nop	
0x404bd0:	cmp	word ptr [rdi], 0xa0d
0x404bd5:	sete	al
0x404bd8:	ret	
F 0x406dbe
0x403726:	add	byte ptr [rax], al
0x403728:	ret	
F 0x4041a3
0x4041a3:	pop	rdi
0x4041a4:	ret	
F 0x409401
0x409401:	add	eax, 0x18c48348
0x409406:	ret	
F 0x406966
0x40429f:	add	rsp, 8
0x4042a3:	pop	rbx
0x4042a4:	pop	rbp
0x4042a5:	ret	
F 0x4097a5
0x409558:	or	byte ptr [rbx + 0x5d], bl
0x40955b:	pop	r12
0x40955d:	pop	r13
0x40955f:	pop	r14
0x409561:	pop	r15
0x409563:	ret	
F 0x40742e
0x4041a0:	pop	r14
0x4041a2:	pop	r15
0x4041a4:	ret	
F 0x40bf7a
0x40bf7a:	rol	byte ptr [rcx], 0x89
0x40bf7d:	ret	0x3d48
F 0x406e3e
0x406e3e:	mov	dword ptr [rip + 0x1ccfc], edx
0x406e44:	mov	byte ptr [rip + 0x1cd02], al
0x406e4a:	pop	rbx
0x406e4b:	pop	rbp
0x406e4c:	pop	r12
0x406e4e:	ret	
F 0x4046e7
0x4046e7:	mov	byte ptr [rip + 0x1d20b], bl
0x4046ed:	add	rsp, 8
0x4046f1:	mov	eax, r12d
0x4046f4:	pop	rbx
0x4046f5:	pop	rbp
0x4046f6:	pop	r12
0x4046f8:	pop	r13
0x4046fa:	ret	
F 0x403890
0x4037f7:	pop	r12
0x4037f9:	pop	r13
0x4037fb:	ret	
F 0x40955e
0x40419f:	pop	rbp
0x4041a0:	pop	r14
0x4041a2:	pop	r15
0x4041a4:	ret	
F 0x409fb1
0x409555:	add	rsp, 8
0x409559:	pop	rbx
0x40955a:	pop	rbp
0x40955b:	pop	r12
0x40955d:	pop	r13
0x40955f:	pop	r14
0x409561:	pop	r15
0x409563:	ret	
F 0x40a156
0x4037f7:	pop	r12
0x4037f9:	pop	r13
0x4037fb:	ret	
F 0x406a83
0x406a83:	add	dword ptr [rax], eax
0x406a85:	movzx	eax, byte ptr [rax]
0x406a88:	mov	byte ptr [rip + 0x1d0be], al
0x406a8e:	pop	rbx
0x406a8f:	ret	
F 0x404de2
0x404de2:	mov	qword ptr [rip + 0x1cad3], 0
0x404ded:	add	rsp, 8
0x404df1:	ret	
F 0x403d92
0x403016:	ret	
F 0x40b0bc
0x403724:	add	byte ptr [rax], al
0x403726:	add	byte ptr [rax], al
0x403728:	ret	
F 0x40b5e2
0x4046f2:	mov	eax, esp
0x4046f4:	pop	rbx
0x4046f5:	pop	rbp
0x4046f6:	pop	r12
0x4046f8:	pop	r13
0x4046fa:	ret	
F 0x409be6
0x409be6:	mov	dword ptr [rip + 0x19f98], edi
0x409bec:	ret	
F 0x409d62
0x409d62:	sub	eax, dword ptr [rbx + 8]
0x409d65:	pop	rbx
0x409d66:	pop	rbp
0x409d67:	ret	
F 0x405714
0x403016:	ret	
F 0x40777a
0x403016:	ret	
F 0x406061
0x40419a:	pop	rbx
0x40419b:	pop	rbp
0x40419c:	pop	r12
0x40419e:	pop	r13
0x4041a0:	pop	r14
0x4041a2:	pop	r15
0x4041a4:	ret	
F 0x403f98
0x403016:	ret	
F 0x409c5c
0x409c5c:	add	eax, 0x176e7
0x409c61:	ret	
F 0x406fd7
0x403016:	ret	
F 0x408fb7
0x408fb7:	add	dword ptr [rdi + 0xe], edi
0x408fba:	add	rsp, 8
0x408fbe:	pop	rbx
0x408fbf:	pop	rbp
0x408fc0:	ret	
F 0x40bf86
0x40467b:	add	rsp, 8
0x40467f:	pop	rbx
0x404680:	pop	rbp
0x404681:	pop	r12
0x404683:	pop	r13
0x404685:	ret	
F 0x405914
0x403634:	pop	r14
0x403636:	ret	
F 0x40b7e7
0x40b7e7:	jmp	0x40b7b6
F 0x40c680
0x403016:	ret	
F 0x4046fa
0x403016:	ret	
F 0x406ec0
0x406ec0:	xor	r12d, r12d
0x406ec3:	pop	rbx
0x406ec4:	pop	rbp
0x406ec5:	mov	rax, r12
0x406ec8:	pop	r12
0x406eca:	ret	
F 0x406fbc
0x406fbc:	add	byte ptr [rax], al
0x406fbe:	add	byte ptr [rax], al
0x406fc0:	mov	dword ptr [rip + 0x1a37e], edi
0x406fc6:	ret	
F 0x40912a
0x403f38:	xor	r8d, r8d
0x403f3b:	mov	rax, r8
0x403f3e:	ret	
F 0x409eca
0x409eca:	or	eax, 0x661d8948
0x409ecf:	lahf	
0x409ed0:	add	dword ptr [rax], eax
0x409ed2:	pop	rbx
0x409ed3:	ret	
F 0x40b78d
0x406f2c:	add	byte ptr [rax], al
0x406f2e:	add	byte ptr [rbx + 0x5d], bl
0x406f31:	pop	r12
0x406f33:	ret	
F 0x4068c5
0x403016:	ret	
F 0x406291
0x403016:	ret	
F 0x40742f
0x4041a1:	pop	rsi
0x4041a2:	pop	r15
0x4041a4:	ret	
F 0x40af5b
0x40af5b:	pop	qword ptr [rcx]
0x40af5d:	add	byte ptr [rax - 0x77], cl
0x40af60:	ret	
F 0x409acd
0x409acd:	add	byte ptr [rax], r8b
0x409ad0:	mov	rax, qword ptr [rip + 0x1a091]
0x409ad7:	mov	eax, dword ptr [rax + 0x20]
0x409ada:	ret	
F 0x406833
0x406833:	mov	byte ptr [rip + 0x1d313], cl
0x406839:	mov	dword ptr [rip + 0x1d2c9], edx
0x40683f:	ret	
F 0x40b645
0x40437c:	ret	0x8348
F 0x406bea
0x406bea:	mov	dword ptr [rbx + 0x24], 1
0x406bf1:	mov	dword ptr [rsi], r8d
0x406bf4:	add	rsp, 8
0x406bf8:	pop	rbx
0x406bf9:	pop	rbp
0x406bfa:	ret	
F 0x408b38
0x408b38:	mov	dword ptr [rdi], eax
0x408b3a:	movsxd	rax, dword ptr [rip + 0x1afc7]
0x408b41:	ret	
F 0x406839
0x406839:	mov	dword ptr [rip + 0x1d2c9], edx
0x40683f:	ret	
F 0x404bde
0x404bde:	add	byte ptr [rax], al
0x404be0:	cmp	byte ptr [rdi], 0xa
0x404be3:	sete	al
0x404be6:	ret	
F 0x409fbd
0x4041a2:	pop	r15
0x4041a4:	ret	
F 0x406b96
0x406b96:	mov	dl, 0xcf
0x406b98:	add	dword ptr [rax], eax
0x406b9a:	ret	
F 0x404ec9
0x404ec9:	mov	dword ptr [rdi + 0x10], 0
0x404ed0:	mov	dword ptr [rdi + 0x14], ecx
0x404ed3:	ret	
F 0x4041a2
0x4041a2:	pop	r15
0x4041a4:	ret	
F 0x4055f2
0x403630:	pop	r12
0x403632:	pop	r13
0x403634:	pop	r14
0x403636:	ret	
F 0x403f79
0x403f79:	add	al, 0xd3
0x403f7b:	add	dword ptr [rax], eax
0x403f7d:	add	byte ptr [rax + 0xf], cl
0x403f80:	ret	0x8948
F 0x404548
0x404548:	pop	rbx
0x404549:	pop	rbp
0x40454a:	pop	r12
0x40454c:	pop	r13
0x40454e:	ret	
F 0x408e75
0x40379f:	pop	rbp
0x4037a0:	ret	
F 0x40b027
0x40b027:	add	byte ptr [rax - 0x75], cl
0x40b02a:	or	sil, al
0x40b02d:	add	byte ptr [rax], al
0x40b02f:	pop	rbx
0x40b030:	pop	rbp
0x40b031:	pop	r12
0x40b033:	pop	r13
0x40b035:	pop	r14
0x40b037:	ret	
F 0x409bd3
0x409bd3:	mov	cl, 0x9f
0x409bd5:	add	dword ptr [rax], eax
0x409bd7:	mov	byte ptr [rip + 0x19faa], 0
0x409bde:	ret	
F 0x40475b
0x40475b:	sete	bl
0x40475e:	mov	byte ptr [rip + 0x1d194], bl
0x404764:	jmp	0x4046ed
F 0x406f87
0x403016:	ret	
F 0x40b030
0x40362f:	pop	rbp
0x403630:	pop	r12
0x403632:	pop	r13
0x403634:	pop	r14
0x403636:	ret	
F 0x40b5db
0x40b58d:	adc	byte ptr [rax], al
0x40b58f:	add	rsp, 8
0x40b593:	mov	rax, r12
0x40b596:	pop	rbx
0x40b597:	pop	rbp
0x40b598:	pop	r12
0x40b59a:	pop	r13
0x40b59c:	ret	
F 0x406fcf
0x406fcf:	add	byte ptr [rax - 0x77], cl
0x406fd2:	cmp	eax, 0x1cb29
0x406fd7:	ret	
F 0x4069af
0x40429f:	add	rsp, 8
0x4042a3:	pop	rbx
0x4042a4:	pop	rbp
0x4042a5:	ret	
F 0x403d8c
0x403d6b:	add	byte ptr [rax], al
0x403d6d:	add	rsp, 8
0x403d71:	ret	
F 0x40c540
0x40c540:	sub	rax, r8
0x40c543:	sub	rax, 1
0x40c547:	ret	
F 0x40628e
0x40628e:	add	byte ptr [rax - 0x7d], cl
0x406291:	ret	
F 0x403623
0x403623:	add	byte ptr [rax], al
0x403625:	add	byte ptr [rbp + 0x75], dh
0x403628:	add	rsp, 0x20
0x40362c:	xor	eax, eax
0x40362e:	pop	rbx
0x40362f:	pop	rbp
0x403630:	pop	r12
0x403632:	pop	r13
0x403634:	pop	r14
0x403636:	ret	
F 0x4092da
0x403012:	add	rsp, 8
0x403016:	ret	
F 0x403894
0x403016:	ret	
F 0x404ad6
0x404ad6:	add	byte ptr [rax], al
0x404ad8:	add	byte ptr [rcx + rcx*4 - 0x20], al
0x404adc:	pop	rbx
0x404add:	pop	rbp
0x404ade:	pop	r12
0x404ae0:	pop	r13
0x404ae2:	pop	r14
0x404ae4:	pop	r15
0x404ae6:	ret	
F 0x409fba
0x40419f:	pop	rbp
0x4041a0:	pop	r14
0x4041a2:	pop	r15
0x4041a4:	ret	
F 0x4042a5
0x403016:	ret	
F 0x409bab
0x409bab:	mov	byte ptr [rip + 0x19fd6], 1
0x409bb2:	pop	rbx
0x409bb3:	ret	
F 0x404ec7
0x404ec7:	mov	dword ptr [rdi], edx
0x404ec9:	mov	dword ptr [rdi + 0x10], 0
0x404ed0:	mov	dword ptr [rdi + 0x14], ecx
0x404ed3:	ret	
F 0x40c4ee
0x40c4cf:	mov	rax, qword ptr [rax + 0x20]
0x40c4d3:	add	rsp, 8
0x40c4d7:	ret	
F 0x40569e
0x403016:	ret	
F 0x40b7ba
0x403f2f:	pop	rbx
0x403f30:	pop	rbp
0x403f31:	ret	
F 0x404cd6
0x404cd6:	mov	dword ptr [rip + 0x1cc04], eax
0x404cdc:	ret	
F 0x404cbc
0x403016:	ret	
F 0x4057e5
0x403633:	pop	rbp
0x403634:	pop	r14
0x403636:	ret	
F 0x40742a
0x40419c:	pop	r12
0x40419e:	pop	r13
0x4041a0:	pop	r14
0x4041a2:	pop	r15
0x4041a4:	ret	
F 0x4057e0
0x4057e0:	sub	eax, esp
0x4057e2:	pop	r12
0x4057e4:	pop	r13
0x4057e6:	pop	r14
0x4057e8:	ret	
F 0x403e25
0x403e25:	add	dword ptr [rax], eax
0x403e27:	ret	
F 0x4066b5
0x403016:	ret	
F 0x404be0
0x404be0:	cmp	byte ptr [rdi], 0xa
0x404be3:	sete	al
0x404be6:	ret	
F 0x409c0a
0x409c0a:	add	byte ptr [rax], al
0x409c0c:	add	byte ptr [rax - 0x77], cl
0x409c0f:	ret	
F 0x404add
0x40419b:	pop	rbp
0x40419c:	pop	r12
0x40419e:	pop	r13
0x4041a0:	pop	r14
0x4041a2:	pop	r15
0x4041a4:	ret	
F 0x4037eb
0x4037eb:	add	dword ptr [rax], eax
0x4037ed:	add	bh, byte ptr [rdi + 0x10]
0x4037f0:	add	rsp, 8
0x4037f4:	mov	rax, r12
0x4037f7:	pop	r12
0x4037f9:	pop	r13
0x4037fb:	ret	
F 0x404cd4
0x404cd4:	dec	dword ptr [rax - 0x77]
0x404cd7:	add	eax, 0x1cc04
0x404cdc:	ret	
F 0x405a12
0x405a12:	or	dh, byte ptr [rbp + 0xb]
0x405a15:	add	rsp, 8
0x405a19:	pop	rbx
0x405a1a:	pop	rbp
0x405a1b:	ret	
F 0x4046f9
0x40379f:	pop	rbp
0x4037a0:	ret	
F 0x403e1d
0x403e1d:	add	byte ptr [rax], r8b
0x403e20:	mov	rax, qword ptr [rip + 0x1fc61]
0x403e27:	ret	
F 0x40c4cf
0x40c4cf:	mov	rax, qword ptr [rax + 0x20]
0x40c4d3:	add	rsp, 8
0x40c4d7:	ret	
F 0x4093fd
0x4093fd:	add	byte ptr [rax], al
0x4093ff:	add	byte ptr [rbp + 5], dh
0x409402:	add	rsp, 0x18
0x409406:	ret	
F 0x406fee
0x406fee:	add	byte ptr [rax], al
0x406ff0:	mov	eax, dword ptr [rip + 0x1a34a]
0x406ff6:	ret	
F 0x40419a
0x40419a:	pop	rbx
0x40419b:	pop	rbp
0x40419c:	pop	r12
0x40419e:	pop	r13
0x4041a0:	pop	r14
0x4041a2:	pop	r15
0x4041a4:	ret	
F 0x40b6a5
0x403fd6:	pop	rbp
0x403fd7:	pop	r12
0x403fd9:	pop	r13
0x403fdb:	ret	
F 0x405059
0x405059:	mov	dword ptr [rbx], eax
0x40505b:	mov	byte ptr [rdx + rax], 0
0x40505f:	add	rsp, 8
0x405063:	pop	rbx
0x405064:	pop	rbp
0x405065:	ret	
F 0x404bd5
0x404bd5:	sete	al
0x404bd8:	ret	
F 0x403d99
0x403721:	nop	dword ptr [rax]
0x403728:	ret	
F 0x4064e1
0x40419a:	pop	rbx
0x40419b:	pop	rbp
0x40419c:	pop	r12
0x40419e:	pop	r13
0x4041a0:	pop	r14
0x4041a2:	pop	r15
0x4041a4:	ret	
F 0x4051e8
0x40419f:	pop	rbp
0x4041a0:	pop	r14
0x4041a2:	pop	r15
0x4041a4:	ret	
F 0x4067d5
0x40419f:	pop	rbp
0x4041a0:	pop	r14
0x4041a2:	pop	r15
0x4041a4:	ret	
F 0x4070a0
0x4070a0:	add	byte ptr [rax], al
0x4070a2:	mov	qword ptr [rip + 0x1ca4b], 0
0x4070ad:	add	rsp, 8
0x4070b1:	pop	rbx
0x4070b2:	pop	rbp
0x4070b3:	ret	
F 0x40b901
0x403721:	nop	dword ptr [rax]
0x403728:	ret	
F 0x40a154
0x404548:	pop	rbx
0x404549:	pop	rbp
0x40454a:	pop	r12
0x40454c:	pop	r13
0x40454e:	ret	
F 0x409166
0x40419c:	pop	r12
0x40419e:	pop	r13
0x4041a0:	pop	r14
0x4041a2:	pop	r15
0x4041a4:	ret	
F 0x403e5f
0x403724:	add	byte ptr [rax], al
0x403726:	add	byte ptr [rax], al
0x403728:	ret	
F 0x4069a4
0x4069a4:	adc	dword ptr [rax + 0x10], eax
0x4069a7:	movups	xmmword ptr [rax + 0x20], xmm0
0x4069ab:	movups	xmmword ptr [rax + 0x30], xmm0
0x4069af:	add	rsp, 8
0x4069b3:	pop	rbx
0x4069b4:	pop	rbp
0x4069b5:	ret	
F 0x40b034
0x403633:	pop	rbp
0x403634:	pop	r14
0x403636:	ret	
F 0x4069e8
0x4069e8:	add	eax, 0x1d16f
0x4069ed:	add	byte ptr [rax], al
0x4069ef:	add	byte ptr [rax], al
0x4069f1:	add	rsp, 8
0x4069f5:	pop	rbx
0x4069f6:	pop	rbp
0x4069f7:	ret	
F 0x406dac
0x406dac:	add	byte ptr [rdi], cl
0x406dae:	mov	dh, 0
0x406db0:	mov	byte ptr [rip + 0x1cd96], al
0x406db6:	ret	
F 0x4054dd
0x40419e:	pop	r13
0x4041a0:	pop	r14
0x4041a2:	pop	r15
0x4041a4:	ret	
F 0x409ba9
0x409ba9:	xor	eax, eax
0x409bab:	mov	byte ptr [rip + 0x19fd6], 1
0x409bb2:	pop	rbx
0x409bb3:	ret	
F 0x40921c
0x40921c:	ret	0xd020
F 0x40c4d0
0x40c4d0:	mov	eax, dword ptr [rax + 0x20]
0x40c4d3:	add	rsp, 8
0x40c4d7:	ret	
F 0x409f0f
0x409f0f:	xor	byte ptr [rax - 0x77], cl
0x409f12:	sbb	eax, 0x19f21
0x409f17:	pop	rbx
0x409f18:	ret	
F 0x406ebb
0x403910:	pop	rbp
0x403911:	pop	r12
0x403913:	ret	
F 0x404e83
0x40371f:	jmp	rax
F 0x404f00
0x404f00:	add	byte ptr [rax], al
0x404f02:	mov	dword ptr [rax + 0x14], ebx
0x404f05:	pop	rbx
0x404f06:	pop	rbp
0x404f07:	pop	r12
0x404f09:	ret	
F 0x406f75
0x406f75:	add	bl, al
0x406f77:	nop	word ptr [rax + rax]
0x406f80:	mov	rax, qword ptr [rip + 0x1cb79]
0x406f87:	ret	
F 0x404d48
0x404d48:	add	byte ptr [rcx + 0x5c], al
0x404d4b:	ret	
F 0x4064da
0x4064da:	and	al, 0x28
0x4064dd:	add	rsp, 0x58
0x4064e1:	pop	rbx
0x4064e2:	pop	rbp
0x4064e3:	pop	r12
0x4064e5:	pop	r13
0x4064e7:	pop	r14
0x4064e9:	pop	r15
0x4064eb:	ret	
F 0x403636
0x403016:	ret	
F 0x40711c
0x403f01:	mov	eax, eax
0x403f03:	ret	
F 0x406fa6
0x403016:	ret	
F 0x409d6c
0x409d6c:	add	byte ptr [rax], al
0x409d6e:	add	byte ptr [rax], al
0x409d70:	xor	eax, eax
0x409d72:	pop	rbx
0x409d73:	pop	rbp
0x409d74:	ret	
F 0x409be1
0x409be1:	xor	eax, 0x19f9a
0x409be6:	mov	dword ptr [rip + 0x19f98], edi
0x409bec:	ret	
F 0x406fcc
0x406fcc:	add	byte ptr [rax], al
0x406fce:	add	byte ptr [rax], al
0x406fd0:	mov	qword ptr [rip + 0x1cb29], rdi
0x406fd7:	ret	
F 0x40c5ef
0x40c5ef:	sub	ecx, eax
0x40c5f1:	add	r12, rcx
0x40c5f4:	mov	byte ptr [rax], 0
0x40c5f7:	mov	rax, r12
0x40c5fa:	pop	r12
0x40c5fc:	ret	
F 0x409c3f
0x4042a2:	or	byte ptr [rbx + 0x5d], bl
0x4042a5:	ret	
F 0x403dfc
0x403726:	add	byte ptr [rax], al
0x403728:	ret	
F 0x409bb0
0x409bb0:	add	byte ptr [rcx], al
0x409bb2:	pop	rbx
0x409bb3:	ret	
F 0x409bd1
0x409bd1:	mov	dh, 5
0x409bd3:	mov	cl, 0x9f
0x409bd5:	add	dword ptr [rax], eax
0x409bd7:	mov	byte ptr [rip + 0x19faa], 0
0x409bde:	ret	
F 0x405a88
0x405a88:	add	dword ptr [rax], eax
0x405a8a:	mov	qword ptr [rip + 0x1e02f], rax
0x405a91:	ret	
F 0x404f9c
0x404f9c:	push	rbx
0x404f9d:	or	dh, al
0x404f9f:	add	al, 2
0x404fa1:	add	byte ptr [rcx + rcx*4 - 0x18], al
0x404fa5:	pop	rbx
0x404fa6:	pop	rbp
0x404fa7:	pop	r12
0x404fa9:	pop	r13
0x404fab:	pop	r14
0x404fad:	ret	
F 0x40c5f4
0x40c5f4:	mov	byte ptr [rax], 0
0x40c5f7:	mov	rax, r12
0x40c5fa:	pop	r12
0x40c5fc:	ret	
F 0x403f3c
0x403f01:	mov	eax, eax
0x403f03:	ret	
F 0x40bef4
0x40bef4:	add	byte ptr [rax], al
0x40bef6:	add	byte ptr [rax - 0x7d], cl
0x40bef9:	ret	
F 0x405f55
0x403016:	ret	
F 0x40b6aa
0x403016:	ret	
F 0x4054e0
0x4041a1:	pop	rsi
0x4041a2:	pop	r15
0x4041a4:	ret	
F 0x406cbd
0x406cbd:	movzx	eax, byte ptr [rax]
0x406cc0:	mov	byte ptr [rip + 0x1ce86], al
0x406cc6:	ret	
F 0x409c42
0x403016:	ret	
F 0x404d42
0x404d42:	add	rsp, 0xa0
0x404d49:	pop	r12
0x404d4b:	ret	
F 0x4041a1
0x4041a1:	pop	rsi
0x4041a2:	pop	r15
0x4041a4:	ret	
F 0x406f7e
0x406f7e:	add	byte ptr [rax], al
0x406f80:	mov	rax, qword ptr [rip + 0x1cb79]
0x406f87:	ret	
F 0x403f80
0x403f80:	ret	0x8948
F 0x409a4e
0x403016:	ret	
F 0x40605d
0x40605d:	push	0x5be08944
0x406062:	pop	rbp
0x406063:	pop	r12
0x406065:	pop	r13
0x406067:	pop	r14
0x406069:	pop	r15
0x40606b:	ret	
F 0x4056b2
0x40467e:	or	byte ptr [rbx + 0x5d], bl
0x404681:	pop	r12
0x404683:	pop	r13
0x404685:	ret	
F 0x404ad8
0x404ad8:	add	byte ptr [rcx + rcx*4 - 0x20], al
0x404adc:	pop	rbx
0x404add:	pop	rbp
0x404ade:	pop	r12
0x404ae0:	pop	r13
0x404ae2:	pop	r14
0x404ae4:	pop	r15
0x404ae6:	ret	
F 0x40c676
0x40419e:	pop	r13
0x4041a0:	pop	r14
0x4041a2:	pop	r15
0x4041a4:	ret	
F 0x4092de
0x403016:	ret	
F 0x40b6a8
0x4037f9:	pop	r13
0x4037fb:	ret	
F 0x408b2e
0x408b2e:	nop	
0x408b30:	mov	rax, qword ptr [rip + 0x1afb9]
0x408b37:	mov	qword ptr [rdi], rax
0x408b3a:	movsxd	rax, dword ptr [rip + 0x1afc7]
0x408b41:	ret	
F 0x4054d7
0x4054d7:	mov	eax, ebp
0x4054d9:	pop	rbx
0x4054da:	pop	rbp
0x4054db:	pop	r12
0x4054dd:	pop	r13
0x4054df:	pop	r14
0x4054e1:	pop	r15
0x4054e3:	ret	
F 0x4094b9
0x403911:	pop	r12
0x403913:	ret	
F 0x4094b8
0x4094b8:	pop	rbx
0x4094b9:	pop	r12
0x4094bb:	ret	
F 0x40b6a3
0x40467e:	or	byte ptr [rbx + 0x5d], bl
0x404681:	pop	r12
0x404683:	pop	r13
0x404685:	ret	
F 0x403762
0x403762:	nop	word ptr [rax + rax]
0x403768:	ret	
F 0x40979d
0x40979d:	inc	esi
0x40979f:	and	al, 1
0x4097a2:	add	rsp, 8
0x4097a6:	pop	rbx
0x4097a7:	pop	rbp
0x4097a8:	pop	r12
0x4097aa:	pop	r13
0x4097ac:	pop	r14
0x4097ae:	pop	r15
0x4097b0:	ret	
F 0x406f74
0x403e25:	add	dword ptr [rax], eax
0x403e27:	ret	
F 0x40bb13
0x403726:	add	byte ptr [rax], al
0x403728:	ret	
F 0x406ff1
0x406ff1:	add	eax, 0x1a34a
0x406ff6:	ret	
F 0x406fc1
0x406fc1:	cmp	eax, 0x1a37e
0x406fc6:	ret	
F 0x405a10
0x405a10:	cmp	al, 2
0x405a12:	or	dh, byte ptr [rbp + 0xb]
0x405a15:	add	rsp, 8
0x405a19:	pop	rbx
0x405a1a:	pop	rbp
0x405a1b:	ret	
F 0x4091a9
0x403016:	ret	
F 0x404c85
0x404c85:	mov	qword ptr [rip + 0x1cc54], rax
0x404c8c:	ret	
F 0x4037a3
0x403723:	add	byte ptr [rax], 0
0x403726:	add	byte ptr [rax], al
0x403728:	ret	
F 0x40518a
0x403016:	ret	
F 0x40b02a
0x40b02a:	or	sil, al
0x40b02d:	add	byte ptr [rax], al
0x40b02f:	pop	rbx
0x40b030:	pop	rbp
0x40b031:	pop	r12
0x40b033:	pop	r13
0x40b035:	pop	r14
0x40b037:	ret	
F 0x406815
0x406815:	rol	byte ptr [rcx], cl
0x406817:	add	byte ptr [rax + 0x6348030c], cl
0x40681d:	ret	0x348
F 0x40b69a
0x40b69a:	cmp	r13d, ebx
0x40b69d:	cmova	eax, edx
0x40b6a0:	add	rsp, 8
0x40b6a4:	pop	rbx
0x40b6a5:	pop	rbp
0x40b6a6:	pop	r12
0x40b6a8:	pop	r13
0x40b6aa:	ret	
F 0x406fd0
0x406fd0:	mov	qword ptr [rip + 0x1cb29], rdi
0x406fd7:	ret	
F 0x406cb6
0x406cb6:	mov	qword ptr [rip + 0x1ce43], rdx
0x406cbd:	movzx	eax, byte ptr [rax]
0x406cc0:	mov	byte ptr [rip + 0x1ce86], al
0x406cc6:	ret	
F 0x404f03
0x404f03:	pop	rax
0x404f04:	adc	al, 0x5b
0x404f06:	pop	rbp
0x404f07:	pop	r12
0x404f09:	ret	
F 0x40b135
0x40b135:	add	rsp, 8
0x40b139:	pop	rbx
0x40b13a:	pop	r12
0x40b13c:	ret	
F 0x403f87
0x403f87:	add	dword ptr [rax], eax
0x403f89:	mov	eax, r12d
0x403f8c:	pop	r12
0x403f8e:	ret	
F 0x4045bc
0x4045bc:	cmp	cl, byte ptr [rax - 0x7d]
0x4045bf:	ret	0x4808
F 0x40b02e
0x40b02e:	add	byte ptr [rbx + 0x5d], bl
0x40b031:	pop	r12
0x40b033:	pop	r13
0x40b035:	pop	r14
0x40b037:	ret	
F 0x40b93d
0x403910:	pop	rbp
0x403911:	pop	r12
0x403913:	ret	
F 0x406a80
0x406a80:	add	eax, 0x1d06b
0x406a85:	movzx	eax, byte ptr [rax]
0x406a88:	mov	byte ptr [rip + 0x1d0be], al
0x406a8e:	pop	rbx
0x406a8f:	ret	
F 0x403deb
0x403deb:	add	byte ptr [rax], al
0x403ded:	add	byte ptr [rax], al
0x403def:	nop	
0x403df0:	movzx	eax, byte ptr [rip + 0x1d48c]
0x403df7:	mov	byte ptr [rip + 0x1d485], 0
0x403dfe:	ret	
F 0x403e5a
0x403e5a:	add	eax, 0x1dacd
0x403e5f:	add	byte ptr [rax], al
0x403e61:	add	byte ptr [rax], al
0x403e63:	ret	
F 0x40b900
0x403016:	ret	
F 0x4064e9
0x4041a2:	pop	r15
0x4041a4:	ret	
F 0x404fa9
0x403632:	pop	r13
0x403634:	pop	r14
0x403636:	ret	
F 0x405782
0x403632:	pop	r13
0x403634:	pop	r14
0x403636:	ret	
F 0x403e1e
0x403e1e:	add	byte ptr [rax], al
0x403e20:	mov	rax, qword ptr [rip + 0x1fc61]
0x403e27:	ret	
F 0x403f2c
0x403f2c:	mov	rax, r8
0x403f2f:	pop	rbx
0x403f30:	pop	rbp
0x403f31:	ret	
F 0x406e48
0x406e48:	add	dword ptr [rax], eax
0x406e4a:	pop	rbx
0x406e4b:	pop	rbp
0x406e4c:	pop	r12
0x406e4e:	ret	
F 0x404f9f
0x404f9f:	add	al, 2
0x404fa1:	add	byte ptr [rcx + rcx*4 - 0x18], al
0x404fa5:	pop	rbx
0x404fa6:	pop	rbp
0x404fa7:	pop	r12
0x404fa9:	pop	r13
0x404fab:	pop	r14
0x404fad:	ret	
F 0x407712
0x407712:	bnd ret	
F 0x40388e
0x4037f5:	mov	eax, esp
0x4037f7:	pop	r12
0x4037f9:	pop	r13
0x4037fb:	ret	
F 0x40c677
0x40419f:	pop	rbp
0x4041a0:	pop	r14
0x4041a2:	pop	r15
0x4041a4:	ret	
F 0x4070b1
0x403f2f:	pop	rbx
0x403f30:	pop	rbp
0x403f31:	ret	
F 0x403719
0x403719:	add	byte ptr [rax - 0x7b], cl
0x40371c:	sal	byte ptr [rcx + rcx - 1], 0xe0
0x403721:	nop	dword ptr [rax]
0x403728:	ret	
F 0x406da4
0x406da4:	add	dword ptr [rax], eax
0x406da6:	mov	qword ptr [rip + 0x1cd43], rax
0x406dad:	movzx	eax, byte ptr [rax]
0x406db0:	mov	byte ptr [rip + 0x1cd96], al
0x406db6:	ret	
F 0x406cb4
0x406cb4:	add	dword ptr [rax], eax
0x406cb6:	mov	qword ptr [rip + 0x1ce43], rdx
0x406cbd:	movzx	eax, byte ptr [rax]
0x406cc0:	mov	byte ptr [rip + 0x1ce86], al
0x406cc6:	ret	
F 0x404e91
0x403016:	ret	
F 0x406bec
0x406bec:	and	al, 1
0x406bee:	add	byte ptr [rax], al
0x406bf0:	add	byte ptr [rcx + rcx*4 + 6], al
0x406bf4:	add	rsp, 8
0x406bf8:	pop	rbx
0x406bf9:	pop	rbp
0x406bfa:	ret	
F 0x4041a4
0x403016:	ret	
F 0x404df1
0x403016:	ret	
F 0x406527
0x406527:	or	al, ch
0x406529:	ret	
F 0x4097aa
0x40419e:	pop	r13
0x4041a0:	pop	r14
0x4041a2:	pop	r15
0x4041a4:	ret	
F 0x4064e6
0x40419f:	pop	rbp
0x4041a0:	pop	r14
0x4041a2:	pop	r15
0x4041a4:	ret	
F 0x40bb89
0x403016:	ret	
F 0x408b35
0x408b35:	add	dword ptr [rax], eax
0x408b37:	mov	qword ptr [rdi], rax
0x408b3a:	movsxd	rax, dword ptr [rip + 0x1afc7]
0x408b41:	ret	
F 0x406e44
0x406e44:	mov	byte ptr [rip + 0x1cd02], al
0x406e4a:	pop	rbx
0x406e4b:	pop	rbp
0x406e4c:	pop	r12
0x406e4e:	ret	
F 0x409d73
0x40379f:	pop	rbp
0x4037a0:	ret	
F 0x40b2df
0x403f2f:	pop	rbx
0x403f30:	pop	rbp
0x403f31:	ret	
F 0x40c45c
0x403634:	pop	r14
0x403636:	ret	
F 0x40715f
0x40715f:	mov	dword ptr [rip + 0x1a1db], eax
0x407165:	add	rsp, 8
0x407169:	ret	
F 0x407854
0x403016:	ret	
F 0x406fcd
0x406fcd:	add	byte ptr [rax], al
0x406fcf:	add	byte ptr [rax - 0x77], cl
0x406fd2:	cmp	eax, 0x1cb29
0x406fd7:	ret	
F 0x406fac
0x406fac:	add	byte ptr [rax], al
0x406fae:	add	byte ptr [rax], al
0x406fb0:	mov	rax, qword ptr [rip + 0x1cb39]
0x406fb7:	ret	
F 0x40a51a
0x40419e:	pop	r13
0x4041a0:	pop	r14
0x4041a2:	pop	r15
0x4041a4:	ret	
F 0x409956
0x409956:	cmp	eax, 0x17f4c
0x40995b:	add	dword ptr [rdi + 0xa], edi
0x40995e:	add	rsp, 8
0x409962:	pop	rbx
0x409963:	pop	rbp
0x409964:	ret	
F 0x40b82b
0x403763:	nop	dword ptr [rax + rax]
0x403768:	ret	
F 0x406fbe
0x406fbe:	add	byte ptr [rax], al
0x406fc0:	mov	dword ptr [rip + 0x1a37e], edi
0x406fc6:	ret	
F 0x406fa0
0x406fa0:	mov	eax, dword ptr [rip + 0x1cb62]
0x406fa6:	ret	
F 0x40b803
0x403e94:	pop	rbx
0x403e95:	ret	
F 0x40c45d
0x403635:	pop	rsi
0x403636:	ret	
F 0x403f8f
0x403f8f:	nop	
0x403f90:	xor	r12d, r12d
0x403f93:	mov	eax, r12d
0x403f96:	pop	r12
0x403f98:	ret	
F 0x40a24b
0x40a24b:	mov	qword ptr [rbx + 8], rax
0x40a24f:	add	rsp, 8
0x40a253:	pop	rbx
0x40a254:	pop	rbp
0x40a255:	ret	
F 0x408b33
0x408b33:	mov	ecx, 0x480001af
0x408b38:	mov	dword ptr [rdi], eax
0x408b3a:	movsxd	rax, dword ptr [rip + 0x1afc7]
0x408b41:	ret	
F 0x4046e8
0x4046e8:	sbb	eax, 0x1d20b
0x4046ed:	add	rsp, 8
0x4046f1:	mov	eax, r12d
0x4046f4:	pop	rbx
0x4046f5:	pop	rbp
0x4046f6:	pop	r12
0x4046f8:	pop	r13
0x4046fa:	ret	
F 0x406f8a
0x406f8a:	test	byte ptr [rax], al
0x406f8c:	add	byte ptr [rax], al
0x406f8e:	add	byte ptr [rax], al
0x406f90:	mov	rax, qword ptr [rip + 0x1cb61]
0x406f97:	ret	
F 0x403e13
0x403e13:	add	byte ptr [rax], al
0x403e15:	test	al, al
0x403e17:	cmove	eax, edx
0x403e1a:	ret	
F 0x40781c
0x403016:	ret	
F 0x4092d0
0x4092d0:	mov	dword ptr [rip + 0x1a896], 0
0x4092da:	add	rsp, 8
0x4092de:	ret	
F 0x4057e6
0x403634:	pop	r14
0x403636:	ret	
F 0x409fad
0x409fad:	mov	qword ptr [r13 + 8], rax
0x409fb1:	add	rsp, 8
0x409fb5:	pop	rbx
0x409fb6:	pop	rbp
0x409fb7:	pop	r12
0x409fb9:	pop	r13
0x409fbb:	pop	r14
0x409fbd:	pop	r15
0x409fbf:	ret	
F 0x409c52
0x409c52:	add	eax, 0x176f9
0x409c57:	mov	qword ptr [rdi], rax
0x409c5a:	movsxd	rax, dword ptr [rip + 0x176e7]
0x409c61:	ret	
F 0x409164
0x40419a:	pop	rbx
0x40419b:	pop	rbp
0x40419c:	pop	r12
0x40419e:	pop	r13
0x4041a0:	pop	r14
0x4041a2:	pop	r15
0x4041a4:	ret	
F 0x409e3f
0x409e3f:	add	byte ptr [rax - 0x75], cl
0x409e42:	add	eax, 0x19ff1
0x409e47:	mov	rax, qword ptr [rax]
0x409e4a:	ret	
F 0x40910c
0x403016:	ret	
F 0x40b717
0x404548:	pop	rbx
0x404549:	pop	rbp
0x40454a:	pop	r12
0x40454c:	pop	r13
0x40454e:	ret	
F 0x408bbb
0x403fd6:	pop	rbp
0x403fd7:	pop	r12
0x403fd9:	pop	r13
0x403fdb:	ret	
F 0x409d5e
0x409d5e:	add	byte ptr [rcx + 0x8432bc8], cl
0x409d65:	pop	rbx
0x409d66:	pop	rbp
0x409d67:	ret	
F 0x4094bb
0x403016:	ret	
F 0x404ae2
0x4041a0:	pop	r14
0x4041a2:	pop	r15
0x4041a4:	ret	
F 0x406bf0
0x406bf0:	add	byte ptr [rcx + rcx*4 + 6], al
0x406bf4:	add	rsp, 8
0x406bf8:	pop	rbx
0x406bf9:	pop	rbp
0x406bfa:	ret	
F 0x404685
0x403016:	ret	
F 0x404064
0x404064:	add	al, byte ptr [rax]
0x404066:	mov	eax, r12d
0x404069:	pop	rbp
0x40406a:	pop	r12
0x40406c:	pop	r13
0x40406e:	ret	
F 0x409406
0x403016:	ret	
F 0x408fc0
0x403016:	ret	
F 0x409ec6
0x409ec6:	add	dword ptr [rax], eax
0x409ec8:	add	bh, byte ptr [rdi + 0xd]
0x409ecb:	mov	qword ptr [rip + 0x19f66], rbx
0x409ed2:	pop	rbx
0x409ed3:	ret	
F 0x404061
0x404061:	or	dh, al
0x404063:	add	al, 2
0x404065:	add	byte ptr [rcx + rcx*4 - 0x20], al
0x404069:	pop	rbp
0x40406a:	pop	r12
0x40406c:	pop	r13
0x40406e:	ret	
F 0x408209
0x408209:	mov	ecx, 0x88410001
0x40820e:	add	byte ptr [r8 + 0x63], r9b
0x408212:	ret	0x148
F 0x406db1
0x406db1:	add	eax, 0x1cd96
0x406db6:	ret	
F 0x40453c
0x40453c:	add	byte ptr [rax], al
0x40453e:	add	byte ptr [rbp + 0x4d], dh
0x404541:	add	rsp, 0xa8
0x404548:	pop	rbx
0x404549:	pop	rbp
0x40454a:	pop	r12
0x40454c:	pop	r13
0x40454e:	ret	
F 0x4090fb
0x403f2d:	mov	eax, eax
0x403f2f:	pop	rbx
0x403f30:	pop	rbp
0x403f31:	ret	
F 0x40682c
0x40682c:	rol	dword ptr [rcx], cl
0x40682e:	add	dh, al
0x406830:	add	byte ptr [rax], al
0x406832:	pop	rbx
0x406833:	mov	byte ptr [rip + 0x1d313], cl
0x406839:	mov	dword ptr [rip + 0x1d2c9], edx
0x40683f:	ret	
F 0x406330
0x406330:	add	cl, byte ptr [rax - 0x75]
0x406333:	or	byte ptr [rax - 0x7d], cl
0x406337:	ret	
F 0x404d41
0x404d41:	push	rax
0x404d42:	add	rsp, 0xa0
0x404d49:	pop	r12
0x404d4b:	ret	
F 0x40c671
0x409558:	or	byte ptr [rbx + 0x5d], bl
0x40955b:	pop	r12
0x40955d:	pop	r13
0x40955f:	pop	r14
0x409561:	pop	r15
0x409563:	ret	
F 0x40388d
0x40388d:	mov	eax, r12d
0x403890:	pop	r12
0x403892:	pop	r13
0x403894:	ret	
F 0x409bbe
0x404634:	add	byte ptr [rax], al
0x404636:	add	byte ptr [rax], al
0x404638:	xor	eax, eax
0x40463a:	pop	rbx
0x40463b:	ret	
F 0x404636
0x404636:	add	byte ptr [rax], al
0x404638:	xor	eax, eax
0x40463a:	pop	rbx
0x40463b:	ret	
F 0x403e14
0x403e14:	add	byte ptr [rax + rax*8 - 0x3c3dbbf1], al
0x403e1b:	nop	dword ptr [rax + rax]
0x403e20:	mov	rax, qword ptr [rip + 0x1fc61]
0x403e27:	ret	
F 0x406fd3
0x406fd3:	sub	ebx, ecx
0x406fd5:	add	dword ptr [rax], eax
0x406fd7:	ret	
F 0x404f46
0x404f46:	ret	0x4e8
F 0x4097a8
0x40419c:	pop	r12
0x40419e:	pop	r13
0x4041a0:	pop	r14
0x4041a2:	pop	r15
0x4041a4:	ret	
F 0x406dad
0x406dad:	movzx	eax, byte ptr [rax]
0x406db0:	mov	byte ptr [rip + 0x1cd96], al
0x406db6:	ret	
F 0x409d67
0x403016:	ret	
F 0x40bd9d
0x4037f7:	pop	r12
0x4037f9:	pop	r13
0x4037fb:	ret	
F 0x40b53a
0x40b53a:	or	byte ptr [rcx + rcx*4 - 0x20], al
0x40b53e:	pop	rbx
0x40b53f:	pop	r12
0x40b541:	ret	
F 0x4057e7
0x403635:	pop	rsi
0x403636:	ret	
F 0x406be9
0x406be9:	add	bh, al
0x406beb:	and	al, 1
0x406bee:	add	byte ptr [rax], al
0x406bf0:	add	byte ptr [rcx + rcx*4 + 6], al
0x406bf4:	add	rsp, 8
0x406bf8:	pop	rbx
0x406bf9:	pop	rbp
0x406bfa:	ret	
F 0x4052ab
0x4052ab:	cmp	byte ptr [rcx + rcx*4 - 8], al
0x4052af:	pop	rbx
0x4052b0:	pop	rbp
0x4052b1:	pop	r12
0x4052b3:	pop	r13
0x4052b5:	pop	r14
0x4052b7:	pop	r15
0x4052b9:	ret	
F 0x403e59
0x403e59:	mov	dword ptr [rip + 0x1dacd], 0
0x403e63:	ret	
F 0x4090f5
0x4090f5:	ror	byte ptr [rax - 0x7d], 0xc4
0x4090f9:	or	byte ptr [rcx + rcx*4 - 0x40], cl
0x4090fd:	pop	rbx
0x4090fe:	pop	rbp
0x4090ff:	ret	
F 0x40b12b
0x40b12b:	mov	dword ptr [rip + 0x18d53], 0
0x40b135:	add	rsp, 8
0x40b139:	pop	rbx
0x40b13a:	pop	r12
0x40b13c:	ret	
F 0x406fdc
0x406fdc:	add	byte ptr [rax], al
0x406fde:	add	byte ptr [rax], al
0x406fe0:	mov	qword ptr [rip + 0x1cb11], rdi
0x406fe7:	ret	
F 0x406b0e
0x403726:	add	byte ptr [rax], al
0x403728:	ret	
F 0x40605a
0x40605a:	add	rsp, 0x68
0x40605e:	mov	eax, r12d
0x406061:	pop	rbx
0x406062:	pop	rbp
0x406063:	pop	r12
0x406065:	pop	r13
0x406067:	pop	r14
0x406069:	pop	r15
0x40606b:	ret	
F 0x4054d3
0x4054d3:	add	byte ptr [rax], al
0x4054d5:	add	byte ptr [rcx + rcx*4 - 0x18], al
0x4054d9:	pop	rbx
0x4054da:	pop	rbp
0x4054db:	pop	r12
0x4054dd:	pop	r13
0x4054df:	pop	r14
0x4054e1:	pop	r15
0x4054e3:	ret	
F 0x40bda1
0x403016:	ret	
F 0x40bb82
0x40bb82:	mov	eax, ebx
0x40bb84:	pop	rbp
0x40bb85:	pop	r12
0x40bb87:	pop	r13
0x40bb89:	ret	
F 0x409964
0x403016:	ret	
F 0x40bb84
0x403fd6:	pop	rbp
0x403fd7:	pop	r12
0x403fd9:	pop	r13
0x403fdb:	ret	
F 0x40bb7b
0x40bb7b:	add	al, 0x41
0x40bb7d:	mov	byte ptr [rax], 0
0x40bb80:	pop	rbx
0x40bb81:	mov	eax, r11d
0x40bb84:	pop	rbp
0x40bb85:	pop	r12
0x40bb87:	pop	r13
0x40bb89:	ret	
F 0x409f67
0x409f67:	add	byte ptr [rax - 0x77], cl
0x409f6a:	ret	0xf48
F 0x408b37
0x408b37:	mov	qword ptr [rdi], rax
0x408b3a:	movsxd	rax, dword ptr [rip + 0x1afc7]
0x408b41:	ret	
F 0x40bb7e
0x40bb7e:	add	byte ptr [rax], al
0x40bb80:	pop	rbx
0x40bb81:	mov	eax, r11d
0x40bb84:	pop	rbp
0x40bb85:	pop	r12
0x40bb87:	pop	r13
0x40bb89:	ret	
F 0x406db8
0x406b08:	nop	dword ptr [rax + rax]
0x406b10:	ret	
F 0x40bf77
0x40bf77:	add	byte ptr [rax - 0x7d], cl
0x40bf7a:	rol	byte ptr [rcx], 0x89
0x40bf7d:	ret	0x3d48
F 0x404ade
0x40419c:	pop	r12
0x40419e:	pop	r13
0x4041a0:	pop	r14
0x4041a2:	pop	r15
0x4041a4:	ret	
F 0x4047f1
0x4047f1:	or	byte ptr [rax - 0x77], cl
0x4047f4:	ret	
F 0x408bb9
0x403fd4:	mov	eax, esp
0x403fd6:	pop	rbp
0x403fd7:	pop	r12
0x403fd9:	pop	r13
0x403fdb:	ret	
F 0x40b9e2
0x40b9e2:	add	ecx, dword ptr [rax - 0x7d]
0x40b9e5:	ret	
F 0x40afd7
0x40362e:	pop	rbx
0x40362f:	pop	rbp
0x403630:	pop	r12
0x403632:	pop	r13
0x403634:	pop	r14
0x403636:	ret	
F 0x406927
0x406927:	and	edx, edx
0x406929:	add	dword ptr [rax], eax
0x40692b:	ret	
F 0x40710c
0x40710c:	emms	
0x40710e:	or	al, 0x48
0x407110:	lea	eax, [rip + 0x6eaa]
0x407116:	movzx	r8d, byte ptr [rax + rdx]
0x40711b:	mov	eax, r8d
0x40711e:	ret	
F 0x4054d6
0x4054d6:	mov	eax, r13d
0x4054d9:	pop	rbx
0x4054da:	pop	rbp
0x4054db:	pop	r12
0x4054dd:	pop	r13
0x4054df:	pop	r14
0x4054e1:	pop	r15
0x4054e3:	ret	
F 0x403ef8
0x403ef8:	ror	byte ptr [rax - 0x7d], 0xc4
0x403efd:	or	byte ptr [rbx + 0x5d], bl
0x403f00:	mov	rax, r8
0x403f03:	ret	
F 0x40afdb
0x403632:	pop	r13
0x403634:	pop	r14
0x403636:	ret	
F 0x409106
0x409106:	ror	byte ptr [rcx + rcx*4 - 0x40], 0x5b
0x40910b:	pop	rbp
0x40910c:	ret	
F 0x406919
0x406919:	add	dword ptr [rax], eax
0x40691b:	movzx	eax, byte ptr [rdi]
0x40691e:	mov	qword ptr [rip + 0x1d21b], rdi
0x406925:	mov	byte ptr [rip + 0x1d221], al
0x40692b:	ret	
F 0x409e41
0x409e41:	mov	eax, dword ptr [rip + 0x19ff1]
0x409e47:	mov	rax, qword ptr [rax]
0x409e4a:	ret	
F 0x404c80
0x404c80:	add	eax, 0xfffff19b
0x404c85:	mov	qword ptr [rip + 0x1cc54], rax
0x404c8c:	ret	
F 0x403d82
0x403d82:	add	byte ptr [rax], al
0x403d84:	mov	dword ptr [rip + 0x1db46], 1
0x403d8e:	add	rsp, 8
0x403d92:	ret	
F 0x4050e8
0x4050e8:	inc	dword ptr [rbp - 0x39148a40]
0x4050ee:	add	dword ptr [r8], eax
0x4050f1:	add	rsp, 8
0x4050f5:	pop	rbx
0x4050f6:	pop	rbp
0x4050f7:	ret	
F 0x4056b8
0x40379f:	pop	rbp
0x4037a0:	ret	
F 0x406a8c
0x406a8c:	add	dword ptr [rax], eax
0x406a8e:	pop	rbx
0x406a8f:	ret	
F 0x408bbf
0x40379f:	pop	rbp
0x4037a0:	ret	
F 0x40b1b2
0x40b1b2:	add	bh, al
0x40b1b4:	add	eax, 0x18ccb
0x40b1b9:	add	byte ptr [rax], al
0x40b1bb:	add	byte ptr [rax], al
0x40b1bd:	jmp	0x40b135
F 0x406db6
0x403016:	ret	
F 0x406e4b
0x403910:	pop	rbp
0x403911:	pop	r12
0x403913:	ret	
F 0x404ec0
0x404ec0:	mov	qword ptr [rdi + 8], rsi
0x404ec4:	mov	rax, rdi
0x404ec7:	mov	dword ptr [rdi], edx
0x404ec9:	mov	dword ptr [rdi + 0x10], 0
0x404ed0:	mov	dword ptr [rdi + 0x14], ecx
0x404ed3:	ret	
F 0x406a86
0x406a86:	mov	dh, 0
0x406a88:	mov	byte ptr [rip + 0x1d0be], al
0x406a8e:	pop	rbx
0x406a8f:	ret	
F 0x406b88
0x406b88:	mov	eax, dword ptr [rdi]
0x406b8a:	mov	qword ptr [rip + 0x1cf6f], rax
0x406b91:	movzx	eax, byte ptr [rdx]
0x406b94:	mov	byte ptr [rip + 0x1cfb2], al
0x406b9a:	ret	
F 0x409d63
0x409d63:	or	byte ptr [r11 + 0x5d], bl
0x409d67:	ret	
F 0x40b5f4
0x408ba1:	add	rsp, 8
0x408ba5:	mov	rax, r12
0x408ba8:	pop	rbx
0x408ba9:	pop	rbp
0x408baa:	pop	r12
0x408bac:	pop	r13
0x408bae:	ret	
F 0x405064
0x40379f:	pop	rbp
0x4037a0:	ret	
F 0x4077c2
0x403016:	ret	
F 0x409b44
0x403016:	ret	
F 0x405910
0x403630:	pop	r12
0x403632:	pop	r13
0x403634:	pop	r14
0x403636:	ret	
F 0x404638
0x404638:	xor	eax, eax
0x40463a:	pop	rbx
0x40463b:	ret	
F 0x40b58f
0x408ba1:	add	rsp, 8
0x408ba5:	mov	rax, r12
0x408ba8:	pop	rbx
0x408ba9:	pop	rbp
0x408baa:	pop	r12
0x408bac:	pop	r13
0x408bae:	ret	
F 0x4057de
0x4057de:	pop	rbp
0x4057df:	sub	eax, r12d
0x4057e2:	pop	r12
0x4057e4:	pop	r13
0x4057e6:	pop	r14
0x4057e8:	ret	
F 0x406f80
0x406f80:	mov	rax, qword ptr [rip + 0x1cb79]
0x406f87:	ret	
F 0x4069f1
0x40429f:	add	rsp, 8
0x4042a3:	pop	rbx
0x4042a4:	pop	rbp
0x4042a5:	ret	
F 0x40bf29
0x40379f:	pop	rbp
0x4037a0:	ret	
F 0x40bf24
0x404548:	pop	rbx
0x404549:	pop	rbp
0x40454a:	pop	r12
0x40454c:	pop	r13
0x40454e:	ret	
F 0x40b131
0x40b131:	add	byte ptr [rax], al
0x40b133:	add	byte ptr [rax], al
0x40b135:	add	rsp, 8
0x40b139:	pop	rbx
0x40b13a:	pop	r12
0x40b13c:	ret	
F 0x4090f3
0x4090f3:	mov	r8, rax
0x4090f6:	add	rsp, 8
0x4090fa:	mov	rax, r8
0x4090fd:	pop	rbx
0x4090fe:	pop	rbp
0x4090ff:	ret	
F 0x403caa
0x403012:	add	rsp, 8
0x403016:	ret	
F 0x4043f0
0x4043f0:	dec	dword ptr [rax + 0xf]
0x4043f3:	ret	0x8948
F 0x406058
0x406058:	add	byte ptr [rax], al
0x40605a:	add	rsp, 0x68
0x40605e:	mov	eax, r12d
0x406061:	pop	rbx
0x406062:	pop	rbp
0x406063:	pop	r12
0x406065:	pop	r13
0x406067:	pop	r14
0x406069:	pop	r15
0x40606b:	ret	
F 0x404634
0x404634:	add	byte ptr [rax], al
0x404636:	add	byte ptr [rax], al
0x404638:	xor	eax, eax
0x40463a:	pop	rbx
0x40463b:	ret	
F 0x406da5
0x406da5:	add	byte ptr [rax - 0x77], cl
0x406da8:	add	eax, 0x1cd43
0x406dad:	movzx	eax, byte ptr [rax]
0x406db0:	mov	byte ptr [rip + 0x1cd96], al
0x406db6:	ret	
F 0x407762
0x403016:	ret	
F 0x4069f5
0x403f2f:	pop	rbx
0x403f30:	pop	rbp
0x403f31:	ret	
F 0x403e24
0x403e24:	cld	
0x403e25:	add	dword ptr [rax], eax
0x403e27:	ret	
F 0x4054d4
0x4054d4:	add	byte ptr [rax], al
0x4054d6:	mov	eax, r13d
0x4054d9:	pop	rbx
0x4054da:	pop	rbp
0x4054db:	pop	r12
0x4054dd:	pop	r13
0x4054df:	pop	r14
0x4054e1:	pop	r15
0x4054e3:	ret	
F 0x40a516
0x40419a:	pop	rbx
0x40419b:	pop	rbp
0x40419c:	pop	r12
0x40419e:	pop	r13
0x4041a0:	pop	r14
0x4041a2:	pop	r15
0x4041a4:	ret	
F 0x4037f5
0x4037f5:	mov	eax, esp
0x4037f7:	pop	r12
0x4037f9:	pop	r13
0x4037fb:	ret	
F 0x4067d8
0x4041a2:	pop	r15
0x4041a4:	ret	
F 0x408fae
0x408fae:	adc	byte ptr [rcx + rcx - 0x7d], dh
0x408fb2:	cmp	eax, 0x188f0
0x408fb7:	add	dword ptr [rdi + 0xe], edi
0x408fba:	add	rsp, 8
0x408fbe:	pop	rbx
0x408fbf:	pop	rbp
0x408fc0:	ret	
F 0x404adc
0x40419a:	pop	rbx
0x40419b:	pop	rbp
0x40419c:	pop	r12
0x40419e:	pop	r13
0x4041a0:	pop	r14
0x4041a2:	pop	r15
0x4041a4:	ret	
F 0x4069ed
0x4069ed:	add	byte ptr [rax], al
0x4069ef:	add	byte ptr [rax], al
0x4069f1:	add	rsp, 8
0x4069f5:	pop	rbx
0x4069f6:	pop	rbp
0x4069f7:	ret	
F 0x4077fb
0x4077fb:	ret	
F 0x409ed3
0x403016:	ret	
F 0x404631
0x404631:	nop	dword ptr [rax]
0x404638:	xor	eax, eax
0x40463a:	pop	rbx
0x40463b:	ret	
F 0x403d84
0x403d84:	mov	dword ptr [rip + 0x1db46], 1
0x403d8e:	add	rsp, 8
0x403d92:	ret	
F 0x40955a
0x40419b:	pop	rbp
0x40419c:	pop	r12
0x40419e:	pop	r13
0x4041a0:	pop	r14
0x4041a2:	pop	r15
0x4041a4:	ret	
F 0x403889
0x403889:	add	rsp, 8
0x40388d:	mov	eax, r12d
0x403890:	pop	r12
0x403892:	pop	r13
0x403894:	ret	
F 0x406da8
0x406da8:	add	eax, 0x1cd43
0x406dad:	movzx	eax, byte ptr [rax]
0x406db0:	mov	byte ptr [rip + 0x1cd96], al
0x406db6:	ret	
F 0x40b639
0x40b639:	add	byte ptr [rax], al
0x40b63b:	add	byte ptr [rdi], cl
0x40b63d:	xchg	eax, edi
0x40b63e:	sal	bh, 0xd8
0x40b641:	cmp	ebp, ebx
0x40b643:	cmovb	eax, edx
0x40b646:	add	rsp, 8
0x40b64a:	pop	rbx
0x40b64b:	pop	rbp
0x40b64c:	ret	
F 0x40afc9
0x403016:	ret	
F 0x406923
0x406923:	add	dword ptr [rax], eax
0x406925:	mov	byte ptr [rip + 0x1d221], al
0x40692b:	ret	
F 0x407424
0x407424:	mov	eax, r12d
0x407428:	pop	rbx
0x407429:	pop	rbp
0x40742a:	pop	r12
0x40742c:	pop	r13
0x40742e:	pop	r14
0x407430:	pop	r15
0x407432:	ret	
F 0x40467b
0x40467b:	add	rsp, 8
0x40467f:	pop	rbx
0x404680:	pop	rbp
0x404681:	pop	r12
0x404683:	pop	r13
0x404685:	ret	
F 0x406faa
0x406faa:	test	byte ptr [rax], al
0x406fac:	add	byte ptr [rax], al
0x406fae:	add	byte ptr [rax], al
0x406fb0:	mov	rax, qword ptr [rip + 0x1cb39]
0x406fb7:	ret	
F 0x40a248
0x40a248:	pushfq	
0x40a249:	add	dword ptr [rax], eax
0x40a24b:	mov	qword ptr [rbx + 8], rax
0x40a24f:	add	rsp, 8
0x40a253:	pop	rbx
0x40a254:	pop	rbp
0x40a255:	ret	
F 0x406b0a
0x406b0a:	test	byte ptr [rax], al
0x406b0c:	add	byte ptr [rax], al
0x406b0e:	add	byte ptr [rax], al
0x406b10:	ret	
F 0x409e7b
0x409e7b:	add	ecx, dword ptr [rax - 0x77]
0x409e7e:	ret	0x8948
F 0x40b5f1
0x40b5f1:	adc	byte ptr [rax], al
0x40b5f4:	add	rsp, 8
0x40b5f8:	mov	rax, r12
0x40b5fb:	pop	rbx
0x40b5fc:	pop	rbp
0x40b5fd:	pop	r12
0x40b5ff:	pop	r13
0x40b601:	ret	
F 0x40b1b3
0x40b1b3:	mov	dword ptr [rip + 0x18ccb], 0
0x40b1bd:	jmp	0x40b135
F 0x4064dd
0x4064dd:	add	rsp, 0x58
0x4064e1:	pop	rbx
0x4064e2:	pop	rbp
0x4064e3:	pop	r12
0x4064e5:	pop	r13
0x4064e7:	pop	r14
0x4064e9:	pop	r15
0x4064eb:	ret	
F 0x4048e6
0x4048e6:	rol	byte ptr [rcx], 1
0x4048e8:	add	byte ptr [rax - 0x77], cl
0x4048eb:	ret	
F 0x4069ac
0x4069ac:	adc	dword ptr [rax + 0x30], eax
0x4069af:	add	rsp, 8
0x4069b3:	pop	rbx
0x4069b4:	pop	rbp
0x4069b5:	ret	
F 0x405a91
0x403016:	ret	
F 0x406fb3
0x406fb3:	cmp	ebx, ecx
0x406fb5:	add	dword ptr [rax], eax
0x406fb7:	ret	
F 0x404541
0x404541:	add	rsp, 0xa8
0x404548:	pop	rbx
0x404549:	pop	rbp
0x40454a:	pop	r12
0x40454c:	pop	r13
0x40454e:	ret	
F 0x404d3f
0x404d3f:	add	byte ptr [rbp + 0x50], dh
0x404d42:	add	rsp, 0xa0
0x404d49:	pop	r12
0x404d4b:	ret	
F 0x40a159
0x40379f:	pop	rbp
0x4037a0:	ret	
F 0x406a8e
0x403e94:	pop	rbx
0x403e95:	ret	
F 0x40696a
0x403f2f:	pop	rbx
0x403f30:	pop	rbp
0x403f31:	ret	
F 0x4097b0
0x403016:	ret	
F 0x406fe2
0x406fe2:	cmp	eax, 0x1cb11
0x406fe7:	ret	
F 0x407157
0x407157:	add	dword ptr [rax], eax
0x407159:	shr	eax, 0xb
0x40715c:	and	eax, 1
0x40715f:	mov	dword ptr [rip + 0x1a1db], eax
0x407165:	add	rsp, 8
0x407169:	ret	
F 0x40979f
0x40979f:	and	al, 1
0x4097a2:	add	rsp, 8
0x4097a6:	pop	rbx
0x4097a7:	pop	rbp
0x4097a8:	pop	r12
0x4097aa:	pop	r13
0x4097ac:	pop	r14
0x4097ae:	pop	r15
0x4097b0:	ret	
F 0x40bc6f
0x40bc6f:	ror	byte ptr [rdi], 0x94
0x40bc72:	ret	
F 0x407165
0x403012:	add	rsp, 8
0x403016:	ret	
F 0x409962
0x403f2f:	pop	rbx
0x403f30:	pop	rbp
0x403f31:	ret	
F 0x409d68
0x409d68:	nop	dword ptr [rax + rax]
0x409d70:	xor	eax, eax
0x409d72:	pop	rbx
0x409d73:	pop	rbp
0x409d74:	ret	
F 0x408212
0x408212:	ret	0x148
F 0x40c67c
0x403016:	ret	
F 0x40505d
0x40505d:	add	al, byte ptr [rax]
0x40505f:	add	rsp, 8
0x405063:	pop	rbx
0x405064:	pop	rbp
0x405065:	ret	
F 0x409e6c
0x403016:	ret	
F 0x404fa3
0x404fa3:	mov	eax, ebp
0x404fa5:	pop	rbx
0x404fa6:	pop	rbp
0x404fa7:	pop	r12
0x404fa9:	pop	r13
0x404fab:	pop	r14
0x404fad:	ret	
F 0x4043ed
0x4043ed:	psubd	mm7, mm7
0x4043f0:	dec	dword ptr [rax + 0xf]
0x4043f3:	ret	0x8948
F 0x404f55
0x40429f:	add	rsp, 8
0x4042a3:	pop	rbx
0x4042a4:	pop	rbp
0x4042a5:	ret	
F 0x40b78c
0x40b78c:	add	byte ptr [rax], al
0x40b78e:	add	byte ptr [rax], al
0x40b790:	pop	rbx
0x40b791:	pop	rbp
0x40b792:	pop	r12
0x40b794:	ret	
F 0x4045d8
0x4045d8:	xor	eax, eax
0x4045da:	ret	
F 0x409c61
0x403016:	ret	
F 0x40b534
0x40b534:	mov	byte ptr [rbx], 0
0x40b537:	add	rsp, 8
0x40b53b:	mov	eax, r12d
0x40b53e:	pop	rbx
0x40b53f:	pop	r12
0x40b541:	ret	
F 0x403e22
0x403e22:	add	eax, 0x1fc61
0x403e27:	ret	
F 0x40bf20
0x40467b:	add	rsp, 8
0x40467f:	pop	rbx
0x404680:	pop	rbp
0x404681:	pop	r12
0x404683:	pop	r13
0x404685:	ret	
F 0x4052ae
0x4052ae:	clc	
0x4052af:	pop	rbx
0x4052b0:	pop	rbp
0x4052b1:	pop	r12
0x4052b3:	pop	r13
0x4052b5:	pop	r14
0x4052b7:	pop	r15
0x4052b9:	ret	
F 0x409959
0x409959:	add	dword ptr [rax], eax
0x40995b:	add	dword ptr [rdi + 0xa], edi
0x40995e:	add	rsp, 8
0x409962:	pop	rbx
0x409963:	pop	rbp
0x409964:	ret	
F 0x406f65
0x406f65:	nop	word ptr cs:[rax + rax]
0x406f70:	mov	eax, dword ptr [rip + 0x1a3ce]
0x406f76:	ret	
F 0x4064ea
0x4041a3:	pop	rdi
0x4041a4:	ret	
F 0x40406a
0x4037f7:	pop	r12
0x4037f9:	pop	r13
0x4037fb:	ret	
F 0x406fd2
0x406fd2:	cmp	eax, 0x1cb29
0x406fd7:	ret	
F 0x407426
0x404ada:	mov	eax, esp
0x404adc:	pop	rbx
0x404add:	pop	rbp
0x404ade:	pop	r12
0x404ae0:	pop	r13
0x404ae2:	pop	r14
0x404ae4:	pop	r15
0x404ae6:	ret	
F 0x407755
0x403016:	ret	
F 0x404f04
0x404f04:	adc	al, 0x5b
0x404f06:	pop	rbp
0x404f07:	pop	r12
0x404f09:	ret	
F 0x4050f6
0x40379f:	pop	rbp
0x4037a0:	ret	
F 0x409ecd
0x409ecd:	sbb	eax, 0x19f66
0x409ed2:	pop	rbx
0x409ed3:	ret	
F 0x4037a1
0x403721:	nop	dword ptr [rax]
0x403728:	ret	
F 0x40a254
0x40379f:	pop	rbp
0x4037a0:	ret	
F 0x409e31
0x409e31:	mov	eax, 1
0x409e36:	ret	
F 0x40b53c
0x4094b6:	mov	eax, esp
0x4094b8:	pop	rbx
0x4094b9:	pop	r12
0x4094bb:	ret	
F 0x40c44e
0x40c44e:	add	rsp, 0x1e0
0x40c456:	pop	rbx
0x40c457:	pop	rbp
0x40c458:	pop	r12
0x40c45a:	pop	r13
0x40c45c:	pop	r14
0x40c45e:	ret	
F 0x406a8a
0x406a8a:	mov	esi, 0x5b0001d0
0x406a8f:	ret	
F 0x40b5f7
0x408ba4:	or	byte ptr [rcx + rcx*4 - 0x20], cl
0x408ba8:	pop	rbx
0x408ba9:	pop	rbp
0x408baa:	pop	r12
0x408bac:	pop	r13
0x408bae:	ret	
F 0x404fa6
0x40362f:	pop	rbp
0x403630:	pop	r12
0x403632:	pop	r13
0x403634:	pop	r14
0x403636:	ret	
F 0x406daf
0x406daf:	add	byte ptr [rax + 0x1cd9605], cl
0x406db5:	add	bl, al
0x406db7:	nop	word ptr [rax + rax]
0x406dc0:	ret	
F 0x403e09
0x403e09:	adc	eax, 0x1db3e
0x403e0e:	mov	byte ptr [rip + 0x1d46e], 0
0x403e15:	test	al, al
0x403e17:	cmove	eax, edx
0x403e1a:	ret	
F 0x4042e9
0x403016:	ret	
F 0x40b7bc
0x403016:	ret	
F 0x406a7a
0x406a7a:	ret	0x1d0
F 0x404ae5
0x4041a3:	pop	rdi
0x4041a4:	ret	
F 0x406834
0x406834:	or	eax, 0x1d313
0x406839:	mov	dword ptr [rip + 0x1d2c9], edx
0x40683f:	ret	
F 0x4067c9
0x4067c9:	and	eax, 0x1d35a
0x4067ce:	pop	rbx
0x4067cf:	mov	eax, edx
0x4067d1:	pop	rbp
0x4067d2:	pop	r12
0x4067d4:	pop	r13
0x4067d6:	pop	r14
0x4067d8:	pop	r15
0x4067da:	ret	
F 0x406fce
0x406fce:	add	byte ptr [rax], al
0x406fd0:	mov	qword ptr [rip + 0x1cb29], rdi
0x406fd7:	ret	
F 0x40b13c
0x403016:	ret	
F 0x40820b
0x40820b:	add	byte ptr [rcx - 0x78], al
0x40820e:	add	byte ptr [r8 + 0x63], r9b
0x408212:	ret	0x148
F 0x40454a
0x4037f7:	pop	r12
0x4037f9:	pop	r13
0x4037fb:	ret	
F 0x405a80
0x405a80:	add	byte ptr [rbp + 0xe], dh
0x405a83:	lea	rax, [rip + 0x1b8a6]
0x405a8a:	mov	qword ptr [rip + 0x1e02f], rax
0x405a91:	ret	
F 0x408b3c
0x408b3c:	add	eax, 0x1afc7
0x408b41:	ret	
F 0x409169
0x40419f:	pop	rbp
0x4041a0:	pop	r14
0x4041a2:	pop	r15
0x4041a4:	ret	
F 0x40b68f
0x40b68f:	jmp	0x40b64b
F 0x40b04a
0x40b04a:	add	bh, al
0x40b04c:	add	eax, 0x18e33
0x40b051:	add	byte ptr [rax], al
0x40b053:	add	byte ptr [rax], al
0x40b055:	ret	
F 0x406ffe
0x406ffe:	add	byte ptr [rax], al
0x407000:	mov	dword ptr [rip + 0x1a33a], edi
0x407006:	ret	
F 0x40500b
0x40500b:	add	byte ptr [rbp + 5], dh
0x40500e:	add	rsp, 0x28
0x405012:	ret	
F 0x40b5e0
0x408ba4:	or	byte ptr [rcx + rcx*4 - 0x20], cl
0x408ba8:	pop	rbx
0x408ba9:	pop	rbp
0x408baa:	pop	r12
0x408bac:	pop	r13
0x408bae:	ret	
F 0x40a51c
0x4041a0:	pop	r14
0x4041a2:	pop	r15
0x4041a4:	ret	
F 0x406c48
0x406c48:	mov	eax, esp
0x406c4a:	pop	rbx
0x406c4b:	pop	rbp
0x406c4c:	pop	r12
0x406c4e:	ret	
F 0x40696c
0x403016:	ret	
F 0x40b63e
0x40b63e:	sal	bh, 0xd8
0x40b641:	cmp	ebp, ebx
0x40b643:	cmovb	eax, edx
0x40b646:	add	rsp, 8
0x40b64a:	pop	rbx
0x40b64b:	pop	rbp
0x40b64c:	ret	
F 0x404cd5
0x404cd5:	mov	qword ptr [rip + 0x1cc04], rax
0x404cdc:	ret	
F 0x403f81
0x403f81:	ret	0x8948
F 0x403e94
0x403e94:	pop	rbx
0x403e95:	ret	
F 0x403728
0x403016:	ret	
F 0x4068ac
0x4068ac:	sbb	byte ptr [rax - 0x77], cl
0x4068af:	ret	
F 0x409b43
0x403e94:	pop	rbx
0x403e95:	ret	
F 0x406e3d
0x406e3d:	mov	qword ptr [rip + 0x1ccfc], rdx
0x406e44:	mov	byte ptr [rip + 0x1cd02], al
0x406e4a:	pop	rbx
0x406e4b:	pop	rbp
0x406e4c:	pop	r12
0x406e4e:	ret	
F 0x405062
0x4042a2:	or	byte ptr [rbx + 0x5d], bl
0x4042a5:	ret	
F 0x4070a2
0x4070a2:	mov	qword ptr [rip + 0x1ca4b], 0
0x4070ad:	add	rsp, 8
0x4070b1:	pop	rbx
0x4070b2:	pop	rbp
0x4070b3:	ret	
F 0x403632
0x403632:	pop	r13
0x403634:	pop	r14
0x403636:	ret	
F 0x405f46
0x403016:	ret	
F 0x408e73
0x4042a2:	or	byte ptr [rbx + 0x5d], bl
0x4042a5:	ret	
F 0x40bf1b
0x40bf1b:	sub	byte ptr [rax], cl
0x40bf1d:	add	byte ptr [rbp + 0x30], dh
0x40bf20:	add	rsp, 8
0x40bf24:	pop	rbx
0x40bf25:	pop	rbp
0x40bf26:	pop	r12
0x40bf28:	pop	r13
0x40bf2a:	ret	
F 0x406f2f
0x404f05:	pop	rbx
0x404f06:	pop	rbp
0x404f07:	pop	r12
0x404f09:	ret	
F 0x4067d7
0x4041a1:	pop	rsi
0x4041a2:	pop	r15
0x4041a4:	ret	
F 0x409e3a
0x409e3a:	test	byte ptr [rax], al
0x409e3c:	add	byte ptr [rax], al
0x409e3e:	add	byte ptr [rax], al
0x409e40:	mov	rax, qword ptr [rip + 0x19ff1]
0x409e47:	mov	rax, qword ptr [rax]
0x409e4a:	ret	
F 0x40463b
0x403016:	ret	
F 0x406f81
0x406f81:	mov	eax, dword ptr [rip + 0x1cb79]
0x406f87:	ret	
F 0x406fe1
0x406fe1:	mov	dword ptr [rip + 0x1cb11], edi
0x406fe7:	ret	
F 0x40429d
0x40429d:	sbb	byte ptr [rax], al
0x40429f:	add	rsp, 8
0x4042a3:	pop	rbx
0x4042a4:	pop	rbp
0x4042a5:	ret	
F 0x403ef7
0x403ef7:	cmove	eax, eax
0x403efa:	add	rsp, 8
0x403efe:	pop	rbx
0x403eff:	pop	rbp
0x403f00:	mov	rax, r8
0x403f03:	ret	
F 0x409e67
0x409c0a:	add	byte ptr [rax], al
0x409c0c:	add	byte ptr [rax - 0x77], cl
0x409c0f:	ret	
F 0x407808
0x403016:	ret	
F 0x406bf9
0x40379f:	pop	rbp
0x4037a0:	ret	
F 0x4042a2
0x4042a2:	or	byte ptr [rbx + 0x5d], bl
0x4042a5:	ret	
F 0x403da0
0x403016:	ret	
F 0x403721
0x403721:	nop	dword ptr [rax]
0x403728:	ret	
F 0x4051ea
0x4041a1:	pop	rsi
0x4041a2:	pop	r15
0x4041a4:	ret	
F 0x40955b
0x40419c:	pop	r12
0x40419e:	pop	r13
0x4041a0:	pop	r14
0x4041a2:	pop	r15
0x4041a4:	ret	
F 0x40bb88
0x40379f:	pop	rbp
0x4037a0:	ret	
F 0x403799
0x403799:	add	eax, 0x1e049
0x40379e:	add	dword ptr [rbp - 0x3d], ebx
0x4037a1:	nop	dword ptr [rax]
0x4037a8:	ret	
F 0x40c44f
0x40c44f:	add	rsp, 0x1e0
0x40c456:	pop	rbx
0x40c457:	pop	rbp
0x40c458:	pop	r12
0x40c45a:	pop	r13
0x40c45c:	pop	r14
0x40c45e:	ret	
F 0x406066
0x40419f:	pop	rbp
0x4041a0:	pop	r14
0x4041a2:	pop	r15
0x4041a4:	ret	
F 0x403d85
0x403d85:	add	eax, 0x1db46
0x403d8a:	add	dword ptr [rax], eax
0x403d8c:	add	byte ptr [rax], al
0x403d8e:	add	rsp, 8
0x403d92:	ret	
F 0x40bb03
0x4045d8:	xor	eax, eax
0x4045da:	ret	
F 0x40b031
0x403630:	pop	r12
0x403632:	pop	r13
0x403634:	pop	r14
0x403636:	ret	
F 0x40b535
0x40b535:	add	eax, dword ptr [rax]
0x40b537:	add	rsp, 8
0x40b53b:	mov	eax, r12d
0x40b53e:	pop	rbx
0x40b53f:	pop	r12
0x40b541:	ret	
F 0x406fca
0x406fca:	test	byte ptr [rax], al
0x406fcc:	add	byte ptr [rax], al
0x406fce:	add	byte ptr [rax], al
0x406fd0:	mov	qword ptr [rip + 0x1cb29], rdi
0x406fd7:	ret	
F 0x407e38
0x407e38:	add	byte ptr [rax], al
0x407e3a:	jmp	0x407421
F 0x404c87
0x404c87:	add	eax, 0x1cc54
0x404c8c:	ret	
F 0x4051eb
0x4041a2:	pop	r15
0x4041a4:	ret	
F 0x40912e
0x403f01:	mov	eax, eax
0x403f03:	ret	
F 0x40910a
0x403f2f:	pop	rbx
0x403f30:	pop	rbp
0x403f31:	ret	
F 0x40995e
0x40429f:	add	rsp, 8
0x4042a3:	pop	rbx
0x4042a4:	pop	rbp
0x4042a5:	ret	
F 0x4069f4
0x4042a2:	or	byte ptr [rbx + 0x5d], bl
0x4042a5:	ret	
F 0x40a9ed
0x40a9ed:	add	byte ptr [rax], al
0x40a9ef:	add	byte ptr [rcx - 0x7c2dce28], cl
0x40a9f5:	ret	
F 0x406ebf
0x406ebf:	nop	
0x406ec0:	xor	r12d, r12d
0x406ec3:	pop	rbx
0x406ec4:	pop	rbp
0x406ec5:	mov	rax, r12
0x406ec8:	pop	r12
0x406eca:	ret	
F 0x4057e4
0x403632:	pop	r13
0x403634:	pop	r14
0x403636:	ret	
F 0x40a73a
0x40a73a:	ret	0x8b48
F 0x404bc7
0x404bc7:	ror	byte ptr [rax - 0x7d], 0xfe
0x404bcb:	add	dh, byte ptr [rdx + rax - 0x3d]
0x404bcf:	nop	
0x404bd0:	cmp	word ptr [rdi], 0xa0d
0x404bd5:	sete	al
0x404bd8:	ret	
F 0x403e90
0x403e90:	mov	byte ptr [rcx + rdx], 0
0x403e94:	pop	rbx
0x403e95:	ret	
F 0x404cd8
0x404cd8:	add	al, 0xcc
0x404cda:	add	dword ptr [rax], eax
0x404cdc:	ret	
F 0x4070b3
0x403016:	ret	
F 0x404bd9
0x404bd9:	nop	dword ptr [rax]
0x404be0:	cmp	byte ptr [rdi], 0xa
0x404be3:	sete	al
0x404be6:	ret	
F 0x406ff6
0x403016:	ret	
F 0x404066
0x403fd3:	mov	eax, r12d
0x403fd6:	pop	rbp
0x403fd7:	pop	r12
0x403fd9:	pop	r13
0x403fdb:	ret	
F 0x403e4e
0x403d6b:	add	byte ptr [rax], al
0x403d6d:	add	rsp, 8
0x403d71:	ret	
F 0x40bb79
0x40bb79:	sal	byte ptr [rsp + rax + 0x41], 0xc6
0x40bb7e:	add	byte ptr [rax], al
0x40bb80:	pop	rbx
0x40bb81:	mov	eax, r11d
0x40bb84:	pop	rbp
0x40bb85:	pop	r12
0x40bb87:	pop	r13
0x40bb89:	ret	
F 0x407430
0x4041a2:	pop	r15
0x4041a4:	ret	
F 0x406db5
0x406db5:	add	bl, al
0x406db7:	nop	word ptr [rax + rax]
0x406dc0:	ret	
F 0x403e58
0x403e58:	mov	qword ptr [rip + 0x1dacd], 0
0x403e63:	ret	
F 0x405a79
0x403016:	ret	
F 0x406832
0x406832:	pop	rbx
0x406833:	mov	byte ptr [rip + 0x1d313], cl
0x406839:	mov	dword ptr [rip + 0x1d2c9], edx
0x40683f:	ret	
F 0x40b047
0x40b047:	add	byte ptr [rax], al
0x40b049:	add	byte ptr [rax], al
0x40b04b:	mov	dword ptr [rip + 0x18e33], 0
0x40b055:	ret	
F 0x409fbc
0x4041a1:	pop	rsi
0x4041a2:	pop	r15
0x4041a4:	ret	
F 0x403892
0x4037f9:	pop	r13
0x4037fb:	ret	
F 0x406f9e
0x406f9e:	add	byte ptr [rax], al
0x406fa0:	mov	eax, dword ptr [rip + 0x1cb62]
0x406fa6:	ret	
F 0x404db8
0x404db8:	cmovs	eax, dword ptr [rbx + 0x66c308c4]
0x404dbf:	nop	
0x404dc0:	ret	
F 0x403e07
0x403e07:	movzx	edx, byte ptr [rip + 0x1db3e]
0x403e0e:	mov	byte ptr [rip + 0x1d46e], 0
0x403e15:	test	al, al
0x403e17:	cmove	eax, edx
0x403e1a:	ret	
F 0x40a431
0x403016:	ret	
F 0x40a158
0x4037f9:	pop	r13
0x4037fb:	ret	
F 0x409f11
0x409f11:	mov	dword ptr [rip + 0x19f21], ebx
0x409f17:	pop	rbx
0x409f18:	ret	
F 0x409f0c
0x409f0c:	add	rsp, 0x30
0x409f10:	mov	qword ptr [rip + 0x19f21], rbx
0x409f17:	pop	rbx
0x409f18:	ret	
F 0x40390f
0x40390f:	rcr	byte ptr [rbp + 0x41], 0x5c
0x403913:	ret	
F 0x40a244
0x40a244:	mov	rax, qword ptr [rip + 0x19cad]
0x40a24b:	mov	qword ptr [rbx + 8], rax
0x40a24f:	add	rsp, 8
0x40a253:	pop	rbx
0x40a254:	pop	rbp
0x40a255:	ret	
F 0x409963
0x40379f:	pop	rbp
0x4037a0:	ret	
F 0x405743
0x403911:	pop	r12
0x403913:	ret	
F 0x40bb85
0x4037f7:	pop	r12
0x4037f9:	pop	r13
0x4037fb:	ret	
F 0x40405d
0x40405d:	dec	dword ptr [rax - 0x75]
0x404060:	push	rbp
0x404061:	or	dh, al
0x404063:	add	al, 2
0x404065:	add	byte ptr [rcx + rcx*4 - 0x20], al
0x404069:	pop	rbp
0x40406a:	pop	r12
0x40406c:	pop	r13
0x40406e:	ret	
F 0x40b63f
0x40b63f:	neg	eax
0x40b641:	cmp	ebp, ebx
0x40b643:	cmovb	eax, edx
0x40b646:	add	rsp, 8
0x40b64a:	pop	rbx
0x40b64b:	pop	rbp
0x40b64c:	ret	
F 0x4041ba
0x4041ba:	jmp	0x404193
F 0x40a55f
0x40a55f:	ret	0x3948
F 0x409e42
0x409e42:	add	eax, 0x19ff1
0x409e47:	mov	rax, qword ptr [rax]
0x409e4a:	ret	
F 0x4094b5
0x4094b5:	mov	eax, r12d
0x4094b8:	pop	rbx
0x4094b9:	pop	r12
0x4094bb:	ret	
F 0x40371c
0x40371c:	sal	byte ptr [rcx + rcx - 1], 0xe0
0x403721:	nop	dword ptr [rax]
0x403728:	ret	
F 0x409bdf
0x409bdf:	nop	
0x409be0:	mov	dword ptr [rip + 0x19f9a], esi
0x409be6:	mov	dword ptr [rip + 0x19f98], edi
0x409bec:	ret	
F 0x409ad0
0x409ad0:	mov	rax, qword ptr [rip + 0x1a091]
0x409ad7:	mov	eax, dword ptr [rax + 0x20]
0x409ada:	ret	
F 0x403d97
0x403d97:	add	bl, al
0x403d99:	nop	dword ptr [rax]
0x403da0:	ret	
F 0x4056b4
0x403fd6:	pop	rbp
0x403fd7:	pop	r12
0x403fd9:	pop	r13
0x403fdb:	ret	
F 0x409ec3
0x409ec3:	cmp	eax, 0x179df
0x409ec8:	add	bh, byte ptr [rdi + 0xd]
0x409ecb:	mov	qword ptr [rip + 0x19f66], rbx
0x409ed2:	pop	rbx
0x409ed3:	ret	
F 0x4094ae
0x4094ae:	add	byte ptr [rbp + 0x61], dh
0x4094b1:	add	rsp, 0x18
0x4094b5:	mov	eax, r12d
0x4094b8:	pop	rbx
0x4094b9:	pop	r12
0x4094bb:	ret	
F 0x40b8b3
0x403e94:	pop	rbx
0x403e95:	ret	
F 0x406fd1
0x406fd1:	mov	dword ptr [rip + 0x1cb29], edi
0x406fd7:	ret	
F 0x40c1b3
0x4041a1:	pop	rsi
0x4041a2:	pop	r15
0x4041a4:	ret	
F 0x4057df
0x4057df:	sub	eax, r12d
0x4057e2:	pop	r12
0x4057e4:	pop	r13
0x4057e6:	pop	r14
0x4057e8:	ret	
F 0x406ff5
0x406ff5:	add	bl, al
0x406ff7:	nop	word ptr [rax + rax]
0x407000:	mov	dword ptr [rip + 0x1a33a], edi
0x407006:	ret	
F 0x40454e
0x403016:	ret	
F 0x409b81
0x403016:	ret	
F 0x40b7bb
0x40379f:	pop	rbp
0x4037a0:	ret	
F 0x406529
0x403016:	ret	
F 0x406918
0x406918:	rol	dword ptr [rcx], 1
0x40691a:	add	byte ptr [rdi], cl
0x40691c:	mov	dh, 7
0x40691e:	mov	qword ptr [rip + 0x1d21b], rdi
0x406925:	mov	byte ptr [rip + 0x1d221], al
0x40692b:	ret	
F 0x409fb4
0x409558:	or	byte ptr [rbx + 0x5d], bl
0x40955b:	pop	r12
0x40955d:	pop	r13
0x40955f:	pop	r14
0x409561:	pop	r15
0x409563:	ret	
F 0x406fc5
0x406fc5:	add	bl, al
0x406fc7:	nop	word ptr [rax + rax]
0x406fd0:	mov	qword ptr [rip + 0x1cb29], rdi
0x406fd7:	ret	
F 0x40b5ef
0x40b5ef:	add	dh, al
0x40b5f1:	adc	byte ptr [rax], al
0x40b5f4:	add	rsp, 8
0x40b5f8:	mov	rax, r12
0x40b5fb:	pop	rbx
0x40b5fc:	pop	rbp
0x40b5fd:	pop	r12
0x40b5ff:	pop	r13
0x40b601:	ret	
F 0x4067ba
0x4067ba:	ret	0x8440
F 0x40bb80
0x40bb80:	pop	rbx
0x40bb81:	mov	eax, r11d
0x40bb84:	pop	rbp
0x40bb85:	pop	r12
0x40bb87:	pop	r13
0x40bb89:	ret	
F 0x4094ac
0x4094ac:	add	byte ptr [rax], al
0x4094ae:	add	byte ptr [rbp + 0x61], dh
0x4094b1:	add	rsp, 0x18
0x4094b5:	mov	eax, r12d
0x4094b8:	pop	rbx
0x4094b9:	pop	r12
0x4094bb:	ret	
F 0x409fbb
0x4041a0:	pop	r14
0x4041a2:	pop	r15
0x4041a4:	ret	
F 0x408d15
0x403016:	ret	
F 0x40b4c6
0x40a55f:	ret	0x3948
F 0x408b2f
0x408b2f:	nop	
0x408b30:	mov	rax, qword ptr [rip + 0x1afb9]
0x408b37:	mov	qword ptr [rdi], rax
0x408b3a:	movsxd	rax, dword ptr [rip + 0x1afc7]
0x408b41:	ret	
F 0x404fa0
0x404fa0:	add	al, byte ptr [rax]
0x404fa2:	mov	eax, r13d
0x404fa5:	pop	rbx
0x404fa6:	pop	rbp
0x404fa7:	pop	r12
0x404fa9:	pop	r13
0x404fab:	pop	r14
0x404fad:	ret	
F 0x404cad
0x404cad:	inc	esi
0x404caf:	add	eax, 0x1cc07
0x404cb4:	add	dword ptr [rax - 0x77], ecx
0x404cb7:	add	eax, 0x1cc24
0x404cbc:	ret	
F 0x40c1ae
0x40419c:	pop	r12
0x40419e:	pop	r13
0x4041a0:	pop	r14
0x4041a2:	pop	r15
0x4041a4:	ret	
F 0x40a51f
0x4041a3:	pop	rdi
0x4041a4:	ret	
F 0x40bc72
0x403016:	ret	
F 0x4046f8
0x4037f9:	pop	r13
0x4037fb:	ret	
F 0x403f30
0x40379f:	pop	rbp
0x4037a0:	ret	
F 0x40b63d
0x40b63d:	xchg	eax, edi
0x40b63e:	sal	bh, 0xd8
0x40b641:	cmp	ebp, ebx
0x40b643:	cmovb	eax, edx
0x40b646:	add	rsp, 8
0x40b64a:	pop	rbx
0x40b64b:	pop	rbp
0x40b64c:	ret	
F 0x406310
0x403016:	ret	
F 0x4041a0
0x4041a0:	pop	r14
0x4041a2:	pop	r15
0x4041a4:	ret	
F 0x406f7c
0x406f7c:	add	byte ptr [rax], al
0x406f7e:	add	byte ptr [rax], al
0x406f80:	mov	rax, qword ptr [rip + 0x1cb79]
0x406f87:	ret	
F 0x4069b3
0x403f2f:	pop	rbx
0x403f30:	pop	rbp
0x403f31:	ret	
F 0x408fbd
0x4042a2:	or	byte ptr [rbx + 0x5d], bl
0x4042a5:	ret	
F 0x404108
0x403016:	ret	
F 0x4068ab
0x4068ab:	sbb	byte ptr [r8 - 0x77], cl
0x4068af:	ret	
F 0x40609a
0x403016:	ret	
F 0x406e42
0x406e42:	add	dword ptr [rax], eax
0x406e44:	mov	byte ptr [rip + 0x1cd02], al
0x406e4a:	pop	rbx
0x406e4b:	pop	rbp
0x406e4c:	pop	r12
0x406e4e:	ret	
F 0x40b13a
0x403911:	pop	r12
0x403913:	ret	
F 0x403e45
0x403e45:	mov	qword ptr [rip + 0x1dae0], 0
0x403e50:	add	rsp, 8
0x403e54:	ret	
F 0x40b2db
0x40429f:	add	rsp, 8
0x4042a3:	pop	rbx
0x4042a4:	pop	rbp
0x4042a5:	ret	
F 0x406f91
0x406f91:	mov	eax, dword ptr [rip + 0x1cb61]
0x406f97:	ret	
F 0x406db0
0x406db0:	mov	byte ptr [rip + 0x1cd96], al
0x406db6:	ret	
F 0x406fe7
0x403016:	ret	
F 0x40b69b
0x40b69b:	cmp	ebp, ebx
0x40b69d:	cmova	eax, edx
0x40b6a0:	add	rsp, 8
0x40b6a4:	pop	rbx
0x40b6a5:	pop	rbp
0x40b6a6:	pop	r12
0x40b6a8:	pop	r13
0x40b6aa:	ret	
F 0x406eb8
0x406c48:	mov	eax, esp
0x406c4a:	pop	rbx
0x406c4b:	pop	rbp
0x406c4c:	pop	r12
0x406c4e:	ret	
F 0x4054d5
0x4054d5:	add	byte ptr [rcx + rcx*4 - 0x18], al
0x4054d9:	pop	rbx
0x4054da:	pop	rbp
0x4054db:	pop	r12
0x4054dd:	pop	r13
0x4054df:	pop	r14
0x4054e1:	pop	r15
0x4054e3:	ret	
F 0x40711a
0x40711a:	adc	byte ptr [rcx + rcx*4 - 0x40], al
0x40711e:	ret	
F 0x404e8a
0x404e8a:	add	rsp, 8
0x404e8e:	pop	rbp
0x404e8f:	pop	r12
0x404e91:	ret	
F 0x4042a4
0x40379f:	pop	rbp
0x4037a0:	ret	
F 0x406ffc
0x406ffc:	add	byte ptr [rax], al
0x406ffe:	add	byte ptr [rax], al
0x407000:	mov	dword ptr [rip + 0x1a33a], edi
0x407006:	ret	
F 0x40742c
0x40419e:	pop	r13
0x4041a0:	pop	r14
0x4041a2:	pop	r15
0x4041a4:	ret	
F 0x404ae3
0x4041a1:	pop	rsi
0x4041a2:	pop	r15
0x4041a4:	ret	
F 0x406c46
0x406c46:	dec	dword ptr [rcx + rcx*4 - 0x20]
0x406c4a:	pop	rbx
0x406c4b:	pop	rbp
0x406c4c:	pop	r12
0x406c4e:	ret	
F 0x404f02
0x404f02:	mov	dword ptr [rax + 0x14], ebx
0x404f05:	pop	rbx
0x404f06:	pop	rbp
0x404f07:	pop	r12
0x404f09:	ret	
F 0x40390a
0x40390a:	add	rsp, 8
0x40390e:	xor	eax, eax
0x403910:	pop	rbp
0x403911:	pop	r12
0x403913:	ret	
F 0x40b715
0x4046f2:	mov	eax, esp
0x4046f4:	pop	rbx
0x4046f5:	pop	rbp
0x4046f6:	pop	r12
0x4046f8:	pop	r13
0x4046fa:	ret	
F 0x40b033
0x403632:	pop	r13
0x403634:	pop	r14
0x403636:	ret	
F 0x409e30
0x403016:	ret	
F 0x40b5e4
0x404548:	pop	rbx
0x404549:	pop	rbp
0x40454a:	pop	r12
0x40454c:	pop	r13
0x40454e:	ret	
F 0x40b4e8
0x403016:	ret	
F 0x40c5f6
0x40c5f6:	add	byte ptr [rcx + rcx*4 - 0x20], cl
0x40c5fa:	pop	r12
0x40c5fc:	ret	
F 0x404c7f
0x404c7f:	lea	eax, [rip - 0xe65]
0x404c85:	mov	qword ptr [rip + 0x1cc54], rax
0x404c8c:	ret	
F 0x4094b4
0x4094b4:	sbb	byte ptr [rcx + rcx*4 - 0x20], al
0x4094b8:	pop	rbx
0x4094b9:	pop	r12
0x4094bb:	ret	
F 0x40606a
0x4041a3:	pop	rdi
0x4041a4:	ret	
F 0x406f92
0x406f92:	add	eax, 0x1cb61
0x406f97:	ret	
F 0x406c4e
0x403016:	ret	
F 0x403efd
0x403efd:	or	byte ptr [rbx + 0x5d], bl
0x403f00:	mov	rax, r8
0x403f03:	ret	
F 0x403fda
0x40379f:	pop	rbp
0x4037a0:	ret	
F 0x40683d
0x403e25:	add	dword ptr [rax], eax
0x403e27:	ret	
F 0x40a9f5
0x403016:	ret	
F 0x40300d
0x40300d:	sal	byte ptr [rdx + rax - 1], 0xd0
0x403012:	add	rsp, 8
0x403016:	ret	
F 0x403cae
0x403016:	ret	
F 0x40b530
0x403016:	ret	
F 0x406b10
0x403016:	ret	
F 0x409ada
0x403016:	ret	
F 0x409bdd
0x409bdd:	add	bl, al
0x409bdf:	nop	
0x409be0:	mov	dword ptr [rip + 0x19f9a], esi
0x409be6:	mov	dword ptr [rip + 0x19f98], edi
0x409bec:	ret	
F 0x40b600
0x40379f:	pop	rbp
0x4037a0:	ret	
F 0x406f95
0x403e25:	add	dword ptr [rax], eax
0x403e27:	ret	
F 0x409a4b
0x403910:	pop	rbp
0x403911:	pop	r12
0x403913:	ret	
F 0x409100
0x409100:	add	rsp, 8
0x409104:	xor	r8d, r8d
0x409107:	mov	rax, r8
0x40910a:	pop	rbx
0x40910b:	pop	rbp
0x40910c:	ret	
F 0x404cdc
0x403016:	ret	
F 0x40b5e9
0x40379f:	pop	rbp
0x4037a0:	ret	
F 0x406f71
0x406f71:	add	eax, 0x1a3ce
0x406f76:	ret	
F 0x40c1b6
0x403016:	ret	
F 0x4056b7
0x4037f9:	pop	r13
0x4037fb:	ret	
F 0x40c45b
0x403633:	pop	rbp
0x403634:	pop	r14
0x403636:	ret	
F 0x409f17
0x403e94:	pop	rbx
0x403e95:	ret	
F 0x40916e
0x403016:	ret	
F 0x404f09
0x403016:	ret	
F 0x4046f6
0x4037f7:	pop	r12
0x4037f9:	pop	r13
0x4037fb:	ret	
F 0x40696b
0x40379f:	pop	rbp
0x4037a0:	ret	
F 0x4095af
0x403016:	ret	
F 0x403913
0x403016:	ret	
F 0x40691c
0x40691c:	mov	dh, 7
0x40691e:	mov	qword ptr [rip + 0x1d21b], rdi
0x406925:	mov	byte ptr [rip + 0x1d221], al
0x40692b:	ret	
F 0x406dab
0x406dab:	add	dword ptr [rax], eax
0x406dad:	movzx	eax, byte ptr [rax]
0x406db0:	mov	byte ptr [rip + 0x1cd96], al
0x406db6:	ret	
F 0x405065
0x403016:	ret	
F 0x406fad
0x406fad:	add	byte ptr [rax], al
0x406faf:	add	byte ptr [rax - 0x75], cl
0x406fb2:	add	eax, 0x1cb39
0x406fb7:	ret	
F 0x40692b
0x403016:	ret	
F 0x409c41
0x40379f:	pop	rbp
0x4037a0:	ret	
F 0x40c67b
0x4041a3:	pop	rdi
0x4041a4:	ret	
F 0x4069b2
0x4042a2:	or	byte ptr [rbx + 0x5d], bl
0x4042a5:	ret	
F 0x406fb0
0x406fb0:	mov	rax, qword ptr [rip + 0x1cb39]
0x406fb7:	ret	
F 0x40b70c
0x40b70c:	mov	byte ptr [rdx + rax], 0
0x40b710:	add	rsp, 8
0x40b714:	mov	rax, r12
0x40b717:	pop	rbx
0x40b718:	pop	rbp
0x40b719:	pop	r12
0x40b71b:	pop	r13
0x40b71d:	ret	
F 0x406be8
0x406be8:	add	byte ptr [rax], al
0x406bea:	mov	dword ptr [rbx + 0x24], 1
0x406bf1:	mov	dword ptr [rsi], r8d
0x406bf4:	add	rsp, 8
0x406bf8:	pop	rbx
0x406bf9:	pop	rbp
0x406bfa:	ret	
F 0x40c1ab
0x40c1ab:	pop	rbx
0x40c1ad:	pop	rbp
0x40c1ae:	pop	r12
0x40c1b0:	pop	r13
0x40c1b2:	pop	r14
0x40c1b4:	pop	r15
0x40c1b6:	ret	
F 0x408e74
0x403f2f:	pop	rbx
0x403f30:	pop	rbp
0x403f31:	ret	
F 0x408f39
0x4048e8:	add	byte ptr [rax - 0x77], cl
0x4048eb:	ret	
F 0x404672
0x404672:	add	eax, 0x1d285
0x404677:	add	byte ptr [rax], al
0x404679:	add	byte ptr [rax], al
0x40467b:	add	rsp, 8
0x40467f:	pop	rbx
0x404680:	pop	rbp
0x404681:	pop	r12
0x404683:	pop	r13
0x404685:	ret	
F 0x40b053
0x403726:	add	byte ptr [rax], al
0x403728:	ret	
F 0x40b5d7
0x40b589:	mov	byte ptr [r12 + r13 + 0x10], 0
0x40b58f:	add	rsp, 8
0x40b593:	mov	rax, r12
0x40b596:	pop	rbx
0x40b597:	pop	rbp
0x40b598:	pop	r12
0x40b59a:	pop	r13
0x40b59c:	ret	
F 0x40362f
0x40362f:	pop	rbp
0x403630:	pop	r12
0x403632:	pop	r13
0x403634:	pop	r14
0x403636:	ret	
F 0x403e17
0x403e17:	cmove	eax, edx
0x403e1a:	ret	
F 0x407004
0x403e25:	add	dword ptr [rax], eax
0x403e27:	ret	
F 0x4097ae
0x4041a2:	pop	r15
0x4041a4:	ret	
F 0x40c1a8
0x40c1a8:	add	rsp, 0x48
0x40c1ac:	pop	rbx
0x40c1ad:	pop	rbp
0x40c1ae:	pop	r12
0x40c1b0:	pop	r13
0x40c1b2:	pop	r14
0x40c1b4:	pop	r15
0x40c1b6:	ret	
F 0x4067d2
0x40419c:	pop	r12
0x40419e:	pop	r13
0x4041a0:	pop	r14
0x4041a2:	pop	r15
0x4041a4:	ret	
F 0x40a24f
0x40429f:	add	rsp, 8
0x4042a3:	pop	rbx
0x4042a4:	pop	rbp
0x4042a5:	ret	
F 0x4055e8
0x4055e8:	add	byte ptr [rax], al
0x4055ea:	add	rsp, 8
0x4055ee:	mov	eax, r12d
0x4055f1:	pop	rbp
0x4055f2:	pop	r12
0x4055f4:	pop	r13
0x4055f6:	pop	r14
0x4055f8:	ret	
F 0x40475d
0x403016:	ret	
F 0x404ccc
0x404ccc:	add	dword ptr [rax], eax
0x404cce:	lea	rax, [rip - 0xeb5]
0x404cd5:	mov	qword ptr [rip + 0x1cc04], rax
0x404cdc:	ret	
F 0x409bb4
0x409bb4:	nop	dword ptr [rax]
0x409bb8:	mov	dword ptr [rip + 0x17786], 0
0x409bc2:	xor	eax, eax
0x409bc4:	pop	rbx
0x409bc5:	ret	
F 0x40b649
0x4042a2:	or	byte ptr [rbx + 0x5d], bl
0x4042a5:	ret	
F 0x4064d9
0x4064d9:	mov	eax, dword ptr [rsp + 0x28]
0x4064dd:	add	rsp, 0x58
0x4064e1:	pop	rbx
0x4064e2:	pop	rbp
0x4064e3:	pop	r12
0x4064e5:	pop	r13
0x4064e7:	pop	r14
0x4064e9:	pop	r15
0x4064eb:	ret	
F 0x408b3f
0x403e25:	add	dword ptr [rax], eax
0x403e27:	ret	
F 0x405183
0x403016:	ret	
F 0x403fd4
0x403fd4:	mov	eax, esp
0x403fd6:	pop	rbp
0x403fd7:	pop	r12
0x403fd9:	pop	r13
0x403fdb:	ret	
F 0x406960
0x406960:	cld	
0x406961:	rol	dword ptr [rcx], 1
0x406963:	add	byte ptr [rsi + 0xa], dh
0x406966:	add	rsp, 8
0x40696a:	pop	rbx
0x40696b:	pop	rbp
0x40696c:	ret	
F 0x40a153
0x40467e:	or	byte ptr [rbx + 0x5d], bl
0x404681:	pop	r12
0x404683:	pop	r13
0x404685:	ret	
F 0x406da7
0x406da7:	mov	dword ptr [rip + 0x1cd43], eax
0x406dad:	movzx	eax, byte ptr [rax]
0x406db0:	mov	byte ptr [rip + 0x1cd96], al
0x406db6:	ret	
F 0x403d93
0x403763:	nop	dword ptr [rax + rax]
0x403768:	ret	
F 0x40bc69
0x40bc69:	or	byte ptr [rax - 0x6bf0ddc1], al
0x40bc6f:	ror	byte ptr [rdi], 0x94
0x40bc72:	ret	
F 0x408d0e
0x40362f:	pop	rbp
0x403630:	pop	r12
0x403632:	pop	r13
0x403634:	pop	r14
0x403636:	ret	
F 0x40c4f6
0x403016:	ret	
F 0x4056b3
0x404548:	pop	rbx
0x404549:	pop	rbp
0x40454a:	pop	r12
0x40454c:	pop	r13
0x40454e:	ret	
F 0x40691a
0x40691a:	add	byte ptr [rdi], cl
0x40691c:	mov	dh, 7
0x40691e:	mov	qword ptr [rip + 0x1d21b], rdi
0x406925:	mov	byte ptr [rip + 0x1d221], al
0x40692b:	ret	
F 0x405912
0x403632:	pop	r13
0x403634:	pop	r14
0x403636:	ret	
F 0x403d91
0x403d91:	or	bl, al
0x403d93:	nop	dword ptr [rax + rax]
0x403d98:	ret	
F 0x405c38
0x403016:	ret	
F 0x40628c
0x40628c:	add	dword ptr [rax], eax
0x40628e:	add	byte ptr [rax - 0x7d], cl
0x406291:	ret	
F 0x4052b6
0x4041a1:	pop	rsi
0x4041a2:	pop	r15
0x4041a4:	ret	
F 0x4057bc
0x4057bc:	xor	ecx, dword ptr [rax - 0x7d]
0x4057bf:	ret	
F 0x40379f
0x40379f:	pop	rbp
0x4037a0:	ret	
F 0x40916b
0x4041a1:	pop	rsi
0x4041a2:	pop	r15
0x4041a4:	ret	
F 0x40b710
0x408ba1:	add	rsp, 8
0x408ba5:	mov	rax, r12
0x408ba8:	pop	rbx
0x408ba9:	pop	rbp
0x408baa:	pop	r12
0x408bac:	pop	r13
0x408bae:	ret	
F 0x403ebd
0x403016:	ret	
F 0x404cd0
0x404cd0:	add	eax, 0xfffff14b
0x404cd5:	mov	qword ptr [rip + 0x1cc04], rax
0x404cdc:	ret	
F 0x405741
0x404f05:	pop	rbx
0x404f06:	pop	rbp
0x404f07:	pop	r12
0x404f09:	ret	
F 0x406e4a
0x404f05:	pop	rbx
0x404f06:	pop	rbp
0x404f07:	pop	r12
0x404f09:	ret	
F 0x403d9c
0x403724:	add	byte ptr [rax], al
0x403726:	add	byte ptr [rax], al
0x403728:	ret	
F 0x40c5f5
0x40c5f5:	add	byte ptr [rax], al
0x40c5f7:	mov	rax, r12
0x40c5fa:	pop	r12
0x40c5fc:	ret	
F 0x403c9c
0x403c9c:	add	byte ptr [rax], al
0x403c9e:	add	byte ptr [rax], al
0x403ca0:	mov	dword ptr [rip + 0x1dc2a], 0xffffffff
0x403caa:	add	rsp, 8
0x403cae:	ret	
F 0x407807
0x4077fb:	ret	
F 0x4055f8
0x403016:	ret	
F 0x406810
0x406810:	ret	0x6348
F 0x406f6e
0x406f6e:	add	byte ptr [rax], al
0x406f70:	mov	eax, dword ptr [rip + 0x1a3ce]
0x406f76:	ret	
F 0x406a81
0x406a81:	imul	edx, eax, 1
0x406a84:	add	byte ptr [rdi], cl
0x406a86:	mov	dh, 0
0x406a88:	mov	byte ptr [rip + 0x1d0be], al
0x406a8e:	pop	rbx
0x406a8f:	ret	
F 0x40473f
0x403016:	ret	
F 0x4097a2
0x409555:	add	rsp, 8
0x409559:	pop	rbx
0x40955a:	pop	rbp
0x40955b:	pop	r12
0x40955d:	pop	r13
0x40955f:	pop	r14
0x409561:	pop	r15
0x409563:	ret	
F 0x403726
0x403726:	add	byte ptr [rax], al
0x403728:	ret	
F 0x409aca
0x409aca:	nop	word ptr [rax + rax]
0x409ad0:	mov	rax, qword ptr [rip + 0x1a091]
0x409ad7:	mov	eax, dword ptr [rax + 0x20]
0x409ada:	ret	
F 0x4037f9
0x4037f9:	pop	r13
0x4037fb:	ret	
F 0x40b69e
0x40b69e:	ret	0x8348
F 0x4070ad
0x40429f:	add	rsp, 8
0x4042a3:	pop	rbx
0x4042a4:	pop	rbp
0x4042a5:	ret	
F 0x406a88
0x406a88:	mov	byte ptr [rip + 0x1d0be], al
0x406a8e:	pop	rbx
0x406a8f:	ret	
F 0x404dbc
0x404dbc:	or	bl, al
0x404dbe:	nop	
0x404dc0:	ret	
F 0x4037f7
0x4037f7:	pop	r12
0x4037f9:	pop	r13
0x4037fb:	ret	
F 0x404063
0x404063:	add	al, 2
0x404065:	add	byte ptr [rcx + rcx*4 - 0x20], al
0x404069:	pop	rbp
0x40406a:	pop	r12
0x40406c:	pop	r13
0x40406e:	ret	
F 0x406bee
0x406bee:	add	byte ptr [rax], al
0x406bf0:	add	byte ptr [rcx + rcx*4 + 6], al
0x406bf4:	add	rsp, 8
0x406bf8:	pop	rbx
0x406bf9:	pop	rbp
0x406bfa:	ret	
F 0x409103
0x409103:	or	byte ptr [rbp + 0x31], al
0x409106:	ror	byte ptr [rcx + rcx*4 - 0x40], 0x5b
0x40910b:	pop	rbp
0x40910c:	ret	
F 0x40b804
0x403016:	ret	
F 0x405a1a
0x40379f:	pop	rbp
0x4037a0:	ret	
F 0x409a44
0x409a44:	add	rsp, 0x18
0x409a48:	mov	eax, r12d
0x409a4b:	pop	rbp
0x409a4c:	pop	r12
0x409a4e:	ret	
F 0x403e47
0x403e47:	add	eax, 0x1dae0
0x403e4c:	add	byte ptr [rax], al
0x403e4e:	add	byte ptr [rax], al
0x403e50:	add	rsp, 8
0x403e54:	ret	
F 0x409bc2
0x404638:	xor	eax, eax
0x40463a:	pop	rbx
0x40463b:	ret	
F 0x405a8c
0x405a8c:	add	eax, 0x1e02f
0x405a91:	ret	
F 0x40b58d
0x40b58d:	adc	byte ptr [rax], al
0x40b58f:	add	rsp, 8
0x40b593:	mov	rax, r12
0x40b596:	pop	rbx
0x40b597:	pop	rbp
0x40b598:	pop	r12
0x40b59a:	pop	r13
0x40b59c:	ret	
F 0x40300a
0x40300a:	add	byte ptr [rax - 0x7b], cl
0x40300d:	sal	byte ptr [rdx + rax - 1], 0xd0
0x403012:	add	rsp, 8
0x403016:	ret	
F 0x406bf7
0x4042a2:	or	byte ptr [rbx + 0x5d], bl
0x4042a5:	ret	
F 0x4052b5
0x4041a0:	pop	r14
0x4041a2:	pop	r15
0x4041a4:	ret	
F 0x40406c
0x4037f9:	pop	r13
0x4037fb:	ret	
F 0x4051e2
0x4051e2:	sub	byte ptr [rbx + 0x5d], bl
0x4051e5:	pop	r12
0x4051e7:	pop	r13
0x4051e9:	pop	r14
0x4051eb:	pop	r15
0x4051ed:	ret	
F 0x40bf89
0x40467e:	or	byte ptr [rbx + 0x5d], bl
0x404681:	pop	r12
0x404683:	pop	r13
0x404685:	ret	
F 0x40b82a
0x403762:	nop	word ptr [rax + rax]
0x403768:	ret	
F 0x40b906
0x403726:	add	byte ptr [rax], al
0x403728:	ret	
F 0x406f85
0x403e25:	add	dword ptr [rax], eax
0x403e27:	ret	
F 0x409e47
0x409e47:	mov	rax, qword ptr [rax]
0x409e4a:	ret	
F 0x409bb9
0x409bb9:	add	eax, 0x17786
0x409bbe:	add	byte ptr [rax], al
0x409bc0:	add	byte ptr [rax], al
0x409bc2:	xor	eax, eax
0x409bc4:	pop	rbx
0x409bc5:	ret	
F 0x404c7c
0x404c7c:	add	byte ptr [rax], al
0x404c7e:	lea	rax, [rip - 0xe65]
0x404c85:	mov	qword ptr [rip + 0x1cc54], rax
0x404c8c:	ret	
F 0x409bd5
0x409bd5:	add	dword ptr [rax], eax
0x409bd7:	mov	byte ptr [rip + 0x19faa], 0
0x409bde:	ret	
F 0x408d13
0x403634:	pop	r14
0x403636:	ret	
F 0x40388c
0x40388c:	or	byte ptr [rcx + rcx*4 - 0x20], al
0x403890:	pop	r12
0x403892:	pop	r13
0x403894:	ret	
F 0x406dbc
0x403724:	add	byte ptr [rax], al
0x403726:	add	byte ptr [rax], al
0x403728:	ret	
F 0x40b2e1
0x403016:	ret	
F 0x403f2f
0x403f2f:	pop	rbx
0x403f30:	pop	rbp
0x403f31:	ret	
F 0x4037a8
0x403016:	ret	
F 0x406f31
0x403911:	pop	r12
0x403913:	ret	
F 0x40c454
0x40b02d:	add	byte ptr [rax], al
0x40b02f:	pop	rbx
0x40b030:	pop	rbp
0x40b031:	pop	r12
0x40b033:	pop	r13
0x40b035:	pop	r14
0x40b037:	ret	
F 0x404544
0x404544:	test	al, 0
0x404546:	add	byte ptr [rax], al
0x404548:	pop	rbx
0x404549:	pop	rbp
0x40454a:	pop	r12
0x40454c:	pop	r13
0x40454e:	ret	
F 0x4058a9
0x403016:	ret	
F 0x409168
0x40419e:	pop	r13
0x4041a0:	pop	r14
0x4041a2:	pop	r15
0x4041a4:	ret	
F 0x4046f0
0x4046f0:	or	byte ptr [rcx + rcx*4 - 0x20], al
0x4046f4:	pop	rbx
0x4046f5:	pop	rbp
0x4046f6:	pop	r12
0x4046f8:	pop	r13
0x4046fa:	ret	
F 0x409316
0x403016:	ret	
F 0x40621d
0x4047f1:	or	byte ptr [rax - 0x77], cl
0x4047f4:	ret	
F 0x407713
0x403016:	ret	
F 0x40390e
0x40390e:	xor	eax, eax
0x403910:	pop	rbp
0x403911:	pop	r12
0x403913:	ret	
F 0x40bd95
0x40bd95:	clc	
0x40bd96:	push	qword ptr [rdi + rcx + 0x4c]
0x40bd9a:	mov	eax, esp
0x40bd9c:	pop	rbx
0x40bd9d:	pop	r12
0x40bd9f:	pop	r13
0x40bda1:	ret	
F 0x40bef9
0x403016:	ret	
F 0x403d64
0x403d64:	add	eax, 0x1db67
0x403d69:	add	dword ptr [rax], eax
0x403d6b:	add	byte ptr [rax], al
0x403d6d:	add	rsp, 8
0x403d71:	ret	
F 0x406fc4
0x403e25:	add	dword ptr [rax], eax
0x403e27:	ret	
F 0x40c4d7
0x403016:	ret	
F 0x4069b5
0x403016:	ret	
F 0x408d12
0x403633:	pop	rbp
0x403634:	pop	r14
0x403636:	ret	
F 0x4052b1
0x40419c:	pop	r12
0x40419e:	pop	r13
0x4041a0:	pop	r14
0x4041a2:	pop	r15
0x4041a4:	ret	
F 0x4041b8
0x4041b8:	add	dword ptr [rax], eax
0x4041ba:	jmp	0x404193
F 0x404e85
0x404e85:	mov	eax, 1
0x404e8a:	add	rsp, 8
0x404e8e:	pop	rbp
0x404e8f:	pop	r12
0x404e91:	ret	
F 0x409f18
0x403016:	ret	
F 0x40b59b
0x40379f:	pop	rbp
0x4037a0:	ret	
F 0x403f82
0x403f82:	mov	qword ptr [rip + 0x1d997], rax
0x403f89:	mov	eax, r12d
0x403f8c:	pop	r12
0x403f8e:	ret	
F 0x4055f6
0x403634:	pop	r14
0x403636:	ret	
F 0x406830
0x406830:	add	byte ptr [rax], al
0x406832:	pop	rbx
0x406833:	mov	byte ptr [rip + 0x1d313], cl
0x406839:	mov	dword ptr [rip + 0x1d2c9], edx
0x40683f:	ret	
F 0x403ded
0x403ded:	add	byte ptr [rax], al
0x403def:	nop	
0x403df0:	movzx	eax, byte ptr [rip + 0x1d48c]
0x403df7:	mov	byte ptr [rip + 0x1d485], 0
0x403dfe:	ret	
F 0x408ba6
0x4046f2:	mov	eax, esp
0x4046f4:	pop	rbx
0x4046f5:	pop	rbp
0x4046f6:	pop	r12
0x4046f8:	pop	r13
0x4046fa:	ret	
F 0x40c1b1
0x40419f:	pop	rbp
0x4041a0:	pop	r14
0x4041a2:	pop	r15
0x4041a4:	ret	
F 0x409fb9
0x40419e:	pop	r13
0x4041a0:	pop	r14
0x4041a2:	pop	r15
0x4041a4:	ret	
F 0x4045bf
0x4045bf:	ret	0x4808
F 0x4097ad
0x4041a1:	pop	rsi
0x4041a2:	pop	r15
0x4041a4:	ret	
F 0x406cb7
0x406cb7:	mov	dword ptr [rip + 0x1ce43], edx
0x406cbd:	movzx	eax, byte ptr [rax]
0x406cc0:	mov	byte ptr [rip + 0x1ce86], al
0x406cc6:	ret	
F 0x409ad1
0x409ad1:	mov	eax, dword ptr [rip + 0x1a091]
0x409ad7:	mov	eax, dword ptr [rax + 0x20]
0x409ada:	ret	
F 0x40c1ad
0x40419b:	pop	rbp
0x40419c:	pop	r12
0x40419e:	pop	r13
0x4041a0:	pop	r14
0x4041a2:	pop	r15
0x4041a4:	ret	
F 0x407425
0x404ad9:	mov	eax, r12d
0x404adc:	pop	rbx
0x404add:	pop	rbp
0x404ade:	pop	r12
0x404ae0:	pop	r13
0x404ae2:	pop	r14
0x404ae4:	pop	r15
0x404ae6:	ret	
F 0x407110
0x407110:	lea	eax, [rip + 0x6eaa]
0x407116:	movzx	r8d, byte ptr [rax + rdx]
0x40711b:	mov	eax, r8d
0x40711e:	ret	
F 0x409bb7
0x409bb7:	add	bh, al
0x409bb9:	add	eax, 0x17786
0x409bbe:	add	byte ptr [rax], al
0x409bc0:	add	byte ptr [rax], al
0x409bc2:	xor	eax, eax
0x409bc4:	pop	rbx
0x409bc5:	ret	
F 0x4092cb
0x4092cb:	add	byte ptr [rax], al
0x4092cd:	add	byte ptr [rax], al
0x4092cf:	mov	qword ptr [rip + 0x1a896], 0
0x4092da:	add	rsp, 8
0x4092de:	ret	
F 0x406e3f
0x406e3f:	adc	eax, 0x1ccfc
0x406e44:	mov	byte ptr [rip + 0x1cd02], al
0x406e4a:	pop	rbx
0x406e4b:	pop	rbp
0x406e4c:	pop	r12
0x406e4e:	ret	
F 0x404faa
0x403633:	pop	rbp
0x403634:	pop	r14
0x403636:	ret	
F 0x403f2e
0x403f2e:	rcr	byte ptr [rbx + 0x5d], 0xc3
0x403f32:	nop	word ptr [rax + rax]
0x403f38:	xor	r8d, r8d
0x403f3b:	mov	rax, r8
0x403f3e:	ret	
F 0x4052ac
0x4052ac:	mov	eax, r15d
0x4052af:	pop	rbx
0x4052b0:	pop	rbp
0x4052b1:	pop	r12
0x4052b3:	pop	r13
0x4052b5:	pop	r14
0x4052b7:	pop	r15
0x4052b9:	ret	
F 0x403e63
0x403016:	ret	
F 0x409ad5
0x409ad5:	add	dword ptr [rax], eax
0x409ad7:	mov	eax, dword ptr [rax + 0x20]
0x409ada:	ret	
F 0x4059f2
0x4059f2:	ret	0x1e0
F 0x40473d
0x40473d:	sete	bl
0x404740:	mov	byte ptr [rip + 0x1d1b2], bl
0x404746:	jmp	0x4046ed
F 0x404fa1
0x404fa1:	add	byte ptr [rcx + rcx*4 - 0x18], al
0x404fa5:	pop	rbx
0x404fa6:	pop	rbp
0x404fa7:	pop	r12
0x404fa9:	pop	r13
0x404fab:	pop	r14
0x404fad:	ret	
F 0x4090ff
0x403016:	ret	
F 0x406cc2
0x406cc2:	xchg	dh, cl
0x406cc4:	add	dword ptr [rax], eax
0x406cc6:	ret	
F 0x409fb7
0x40419c:	pop	r12
0x40419e:	pop	r13
0x4041a0:	pop	r14
0x4041a2:	pop	r15
0x4041a4:	ret	
F 0x4054db
0x40419c:	pop	r12
0x40419e:	pop	r13
0x4041a0:	pop	r14
0x4041a2:	pop	r15
0x4041a4:	ret	
F 0x406f2c
0x406f2c:	add	byte ptr [rax], al
0x406f2e:	add	byte ptr [rbx + 0x5d], bl
0x406f31:	pop	r12
0x406f33:	ret	
F 0x40b63c
0x40b63c:	seta	al
0x40b63f:	neg	eax
0x40b641:	cmp	ebp, ebx
0x40b643:	cmovb	eax, edx
0x40b646:	add	rsp, 8
0x40b64a:	pop	rbx
0x40b64b:	pop	rbp
0x40b64c:	ret	
F 0x40bf8e
0x4037f9:	pop	r13
0x4037fb:	ret	
F 0x4046f5
0x403fd6:	pop	rbp
0x403fd7:	pop	r12
0x403fd9:	pop	r13
0x403fdb:	ret	
F 0x404d47
0x404d47:	add	byte ptr [rax], al
0x404d49:	pop	r12
0x404d4b:	ret	
F 0x4052a8
0x4052a8:	add	rsp, 0x38
0x4052ac:	mov	eax, r15d
0x4052af:	pop	rbx
0x4052b0:	pop	rbp
0x4052b1:	pop	r12
0x4052b3:	pop	r13
0x4052b5:	pop	r14
0x4052b7:	pop	r15
0x4052b9:	ret	
F 0x40a243
0x40a243:	add	ecx, dword ptr [rax - 0x75]
0x40a246:	add	eax, 0x19cad
0x40a24b:	mov	qword ptr [rbx + 8], rax
0x40a24f:	add	rsp, 8
0x40a253:	pop	rbx
0x40a254:	pop	rbp
0x40a255:	ret	
F 0x408fb2
0x408fb2:	cmp	eax, 0x188f0
0x408fb7:	add	dword ptr [rdi + 0xe], edi
0x408fba:	add	rsp, 8
0x408fbe:	pop	rbx
0x408fbf:	pop	rbp
0x408fc0:	ret	
F 0x403efa
0x403efa:	add	rsp, 8
0x403efe:	pop	rbx
0x403eff:	pop	rbp
0x403f00:	mov	rax, r8
0x403f03:	ret	
F 0x40916c
0x4041a2:	pop	r15
0x4041a4:	ret	
F 0x40605e
0x404ad9:	mov	eax, r12d
0x404adc:	pop	rbx
0x404add:	pop	rbp
0x404ade:	pop	r12
0x404ae0:	pop	r13
0x404ae2:	pop	r14
0x404ae4:	pop	r15
0x404ae6:	ret	
F 0x4037f3
0x4037f3:	or	byte ptr [rcx + rcx*4 - 0x20], cl
0x4037f7:	pop	r12
0x4037f9:	pop	r13
0x4037fb:	ret	
F 0x404683
0x4037f9:	pop	r13
0x4037fb:	ret	
F 0x40453e
0x40453e:	add	byte ptr [rbp + 0x4d], dh
0x404541:	add	rsp, 0xa8
0x404548:	pop	rbx
0x404549:	pop	rbp
0x40454a:	pop	r12
0x40454c:	pop	r13
0x40454e:	ret	
F 0x4050f4
0x4042a2:	or	byte ptr [rbx + 0x5d], bl
0x4042a5:	ret	
F 0x407111
0x407111:	add	eax, 0x6eaa
0x407116:	movzx	r8d, byte ptr [rax + rdx]
0x40711b:	mov	eax, r8d
0x40711e:	ret	
F 0x40b1b4
0x40b1b4:	add	eax, 0x18ccb
0x40b1b9:	add	byte ptr [rax], al
0x40b1bb:	add	byte ptr [rax], al
0x40b1bd:	jmp	0x40b135
F 0x40b5e5
0x403fd6:	pop	rbp
0x403fd7:	pop	r12
0x403fd9:	pop	r13
0x403fdb:	ret	
F 0x406fa1
0x406fa1:	add	eax, 0x1cb62
0x406fa6:	ret	
F 0x409d65
0x403f2f:	pop	rbx
0x403f30:	pop	rbp
0x403f31:	ret	
F 0x409562
0x4041a3:	pop	rdi
0x4041a4:	ret	
F 0x4064e7
0x4041a0:	pop	r14
0x4041a2:	pop	r15
0x4041a4:	ret	
F 0x409c4f
0x409c4f:	nop	
0x409c50:	mov	rax, qword ptr [rip + 0x176f9]
0x409c57:	mov	qword ptr [rdi], rax
0x409c5a:	movsxd	rax, dword ptr [rip + 0x176e7]
0x409c61:	ret	
F 0x40b2d7
0x40429b:	mov	byte ptr [rax + rbx], 0
0x40429f:	add	rsp, 8
0x4042a3:	pop	rbx
0x4042a4:	pop	rbp
0x4042a5:	ret	
F 0x403f83
0x403f83:	mov	dword ptr [rip + 0x1d997], eax
0x403f89:	mov	eax, r12d
0x403f8c:	pop	r12
0x403f8e:	ret	
F 0x408baa
0x4037f7:	pop	r12
0x4037f9:	pop	r13
0x4037fb:	ret	
F 0x409bb8
0x409bb8:	mov	dword ptr [rip + 0x17786], 0
0x409bc2:	xor	eax, eax
0x409bc4:	pop	rbx
0x409bc5:	ret	
F 0x4052b8
0x4041a3:	pop	rdi
0x4041a4:	ret	
F 0x406f8d
0x406f8d:	add	byte ptr [rax], al
0x406f8f:	add	byte ptr [rax - 0x75], cl
0x406f92:	add	eax, 0x1cb61
0x406f97:	ret	
F 0x40b63b
0x40b63b:	add	byte ptr [rdi], cl
0x40b63d:	xchg	eax, edi
0x40b63e:	sal	bh, 0xd8
0x40b641:	cmp	ebp, ebx
0x40b643:	cmovb	eax, edx
0x40b646:	add	rsp, 8
0x40b64a:	pop	rbx
0x40b64b:	pop	rbp
0x40b64c:	ret	
F 0x404191
0x404191:	add	byte ptr [rax], al
0x404193:	add	rsp, 8
0x404197:	mov	eax, r14d
0x40419a:	pop	rbx
0x40419b:	pop	rbp
0x40419c:	pop	r12
0x40419e:	pop	r13
0x4041a0:	pop	r14
0x4041a2:	pop	r15
0x4041a4:	ret	
F 0x4037e8
0x4037e8:	cmp	eax, 0x1e0ba
0x4037ed:	add	bh, byte ptr [rdi + 0x10]
0x4037f0:	add	rsp, 8
0x4037f4:	mov	rax, r12
0x4037f7:	pop	r12
0x4037f9:	pop	r13
0x4037fb:	ret	
F 0x406c4b
0x403910:	pop	rbp
0x403911:	pop	r12
0x403913:	ret	
F 0x403635
0x403635:	pop	rsi
0x403636:	ret	
F 0x406067
0x4041a0:	pop	r14
0x4041a2:	pop	r15
0x4041a4:	ret	
F 0x406961
0x406961:	rol	dword ptr [rcx], 1
0x406963:	add	byte ptr [rsi + 0xa], dh
0x406966:	add	rsp, 8
0x40696a:	pop	rbx
0x40696b:	pop	rbp
0x40696c:	ret	
F 0x40995b
0x40995b:	add	dword ptr [rdi + 0xa], edi
0x40995e:	add	rsp, 8
0x409962:	pop	rbx
0x409963:	pop	rbp
0x409964:	ret	
F 0x407159
0x407159:	shr	eax, 0xb
0x40715c:	and	eax, 1
0x40715f:	mov	dword ptr [rip + 0x1a1db], eax
0x407165:	add	rsp, 8
0x407169:	ret	
F 0x408bac
0x4037f9:	pop	r13
0x4037fb:	ret	
F 0x40b024
0x40b024:	and	byte ptr [rsi - 0x74b7ffff], cl
0x40b02a:	or	sil, al
0x40b02d:	add	byte ptr [rax], al
0x40b02f:	pop	rbx
0x40b030:	pop	rbp
0x40b031:	pop	r12
0x40b033:	pop	r13
0x40b035:	pop	r14
0x40b037:	ret	
F 0x404cb8
0x404cb8:	and	al, 0xcc
0x404cba:	add	dword ptr [rax], eax
0x404cbc:	ret	
F 0x403ef1
0x403ef1:	add	eax, 0x74a
0x403ef6:	cmove	r8, rax
0x403efa:	add	rsp, 8
0x403efe:	pop	rbx
0x403eff:	pop	rbp
0x403f00:	mov	rax, r8
0x403f03:	ret	
F 0x409c5f
0x403e25:	add	dword ptr [rax], eax
0x403e27:	ret	
F 0x404b0b
0x403016:	ret	
F 0x405a1b
0x403016:	ret	
F 0x409c0c
0x4048e8:	add	byte ptr [rax - 0x77], cl
0x4048eb:	ret	
F 0x404737
0x404737:	mov	r12d, 2
0x40473d:	sete	bl
0x404740:	mov	byte ptr [rip + 0x1d1b2], bl
0x404746:	jmp	0x4046ed
F 0x409d5f
0x409d5f:	add	byte ptr [rcx + 0x8432bc8], cl
0x409d65:	pop	rbx
0x409d66:	pop	rbp
0x409d67:	ret	
F 0x40b64c
0x403016:	ret	
F 0x4046f2
0x4046f2:	mov	eax, esp
0x4046f4:	pop	rbx
0x4046f5:	pop	rbp
0x4046f6:	pop	r12
0x4046f8:	pop	r13
0x4046fa:	ret	
