T 0x41d7db
0x41041c:	pop	rax
0x41041d:	pop	rbx
0x41041e:	ret	
T 0x41041c
0x41041c:	pop	rax
0x41041d:	pop	rbx
0x41041e:	ret	
T 0x41b75b
0x41820b:	pop	rax
0x41820c:	pop	rdx
0x41820d:	pop	rbp
0x41820e:	ret	
T 0x41ac3b
0x41820b:	pop	rax
0x41820c:	pop	rdx
0x41820d:	pop	rbp
0x41820e:	ret	
T 0x41af1b
0x41820b:	pop	rax
0x41820c:	pop	rdx
0x41820d:	pop	rbp
0x41820e:	ret	
T 0x41b49b
0x41820b:	pop	rax
0x41820c:	pop	rdx
0x41820d:	pop	rbp
0x41820e:	ret	
T 0x41b07b
0x41820b:	pop	rax
0x41820c:	pop	rdx
0x41820d:	pop	rbp
0x41820e:	ret	
T 0x41ba1b
0x41820b:	pop	rax
0x41820c:	pop	rdx
0x41820d:	pop	rbp
0x41820e:	ret	
T 0x41b8bb
0x41820b:	pop	rax
0x41820c:	pop	rdx
0x41820d:	pop	rbp
0x41820e:	ret	
T 0x41adab
0x41820b:	pop	rax
0x41820c:	pop	rdx
0x41820d:	pop	rbp
0x41820e:	ret	
T 0x41b5f8
0x41b5f8:	sar	esi, 0xff
0x41b5fb:	pop	rax
0x41b5fc:	pop	rdx
0x41b5fd:	pop	rbp
0x41b5fe:	ret	
T 0x41b5fb
0x41820b:	pop	rax
0x41820c:	pop	rdx
0x41820d:	pop	rbp
0x41820e:	ret	
T 0x41840b
0x41820b:	pop	rax
0x41820c:	pop	rdx
0x41820d:	pop	rbp
0x41820e:	ret	
T 0x41820b
0x41820b:	pop	rax
0x41820c:	pop	rdx
0x41820d:	pop	rbp
0x41820e:	ret	
T 0x41b1db
0x41820b:	pop	rax
0x41820c:	pop	rdx
0x41820d:	pop	rbp
0x41820e:	ret	
T 0x41838b
0x41820b:	pop	rax
0x41820c:	pop	rdx
0x41820d:	pop	rbp
0x41820e:	ret	
T 0x41830b
0x41820b:	pop	rax
0x41820c:	pop	rdx
0x41820d:	pop	rbp
0x41820e:	ret	
T 0x41b33b
0x41820b:	pop	rax
0x41820c:	pop	rdx
0x41820d:	pop	rbp
0x41820e:	ret	
T 0x41828b
0x41820b:	pop	rax
0x41820c:	pop	rdx
0x41820d:	pop	rbp
0x41820e:	ret	
T 0x41b758
0x41b758:	sar	dh, 0xff
0x41b75b:	pop	rax
0x41b75c:	pop	rdx
0x41b75d:	pop	rbp
0x41b75e:	ret	
T 0x41ea27
0x408530:	pop	r12
0x408532:	ret	
T 0x415fc0
0x415fc0:	mov	rax, r12
0x415fc3:	pop	r12
0x415fc5:	ret	
T 0x413a24
0x408530:	pop	r12
0x408532:	ret	
T 0x41c8df
0x415fc0:	mov	rax, r12
0x415fc3:	pop	r12
0x415fc5:	ret	
T 0x41d7da
0x41041b:	pop	r8
0x41041d:	pop	rbx
0x41041e:	ret	
T 0x409727
0x409727:	mov	rax, r8
0x40972a:	ret	
T 0x4141b2
0x408530:	pop	r12
0x408532:	ret	
T 0x41d489
0x41d489:	mov	rax, r12
0x41d48c:	pop	rbx
0x41d48d:	pop	r12
0x41d48f:	ret	
T 0x41041b
0x41041b:	pop	r8
0x41041d:	pop	rbx
0x41041e:	ret	
T 0x409711
0x409711:	mov	rax, r8
0x409714:	add	rsp, 8
0x409718:	ret	
T 0x41aaaa
0x417ccf:	pop	rax
0x417cd0:	pop	rdx
0x417cd1:	pop	rbp
0x417cd2:	pop	r12
0x417cd4:	pop	r13
0x417cd6:	ret	
T 0x417c1e
0x417c1e:	pop	rax
0x417c1f:	pop	rdx
0x417c20:	add	rsp, 8
0x417c24:	pop	rbp
0x417c25:	pop	r12
0x417c27:	ret	
T 0x417ccf
0x417ccf:	pop	rax
0x417cd0:	pop	rdx
0x417cd1:	pop	rbp
0x417cd2:	pop	r12
0x417cd4:	pop	r13
0x417cd6:	ret	
T 0x41a2ed
0x417ccf:	pop	rax
0x417cd0:	pop	rdx
0x417cd1:	pop	rbp
0x417cd2:	pop	r12
0x417cd4:	pop	r13
0x417cd6:	ret	
T 0x41a4fd
0x417ccf:	pop	rax
0x417cd0:	pop	rdx
0x417cd1:	pop	rbp
0x417cd2:	pop	r12
0x417cd4:	pop	r13
0x417cd6:	ret	
T 0x41781a
0x408530:	pop	r12
0x408532:	ret	
T 0x41d3cb
0x41d33f:	mov	rax, r12
0x41d342:	pop	rbp
0x41d343:	pop	r12
0x41d345:	pop	r13
0x41d347:	ret	
T 0x415664
0x408530:	pop	r12
0x408532:	ret	
T 0x41d485
0x41d485:	add	rsp, 8
0x41d489:	mov	rax, r12
0x41d48c:	pop	rbx
0x41d48d:	pop	r12
0x41d48f:	ret	
T 0x408df5
0x408530:	pop	r12
0x408532:	ret	
T 0x41c8db
0x41c8db:	add	rsp, 0x10
0x41c8df:	mov	rax, r12
0x41c8e2:	pop	r12
0x41c8e4:	ret	
T 0x419822
0x408530:	pop	r12
0x408532:	ret	
T 0x41d33f
0x41d33f:	mov	rax, r12
0x41d342:	pop	rbp
0x41d343:	pop	r12
0x41d345:	pop	r13
0x41d347:	ret	
T 0x417c25
0x408530:	pop	r12
0x408532:	ret	
T 0x409db9
0x409db9:	mov	byte ptr [rsp + 8], dh
0x409dbd:	mov	rax, r12
0x409dc0:	pop	rbx
0x409dc1:	pop	rbp
0x409dc2:	pop	r12
0x409dc4:	ret	
T 0x411d4a
0x408530:	pop	r12
0x408532:	ret	
T 0x409dbd
0x409dbd:	mov	rax, r12
0x409dc0:	pop	rbx
0x409dc1:	pop	rbp
0x409dc2:	pop	r12
0x409dc4:	ret	
T 0x41a90f
0x408530:	pop	r12
0x408532:	ret	
T 0x409dbb
0x409dbb:	and	al, 8
0x409dbd:	mov	rax, r12
0x409dc0:	pop	rbx
0x409dc1:	pop	rbp
0x409dc2:	pop	r12
0x409dc4:	ret	
T 0x41be70
0x408a95:	pop	r13
0x408a97:	ret	
T 0x414655
0x414584:	mov	rax, r13
0x414587:	pop	rbp
0x414588:	pop	r12
0x41458a:	pop	r13
0x41458c:	pop	r14
0x41458e:	ret	
T 0x418aa8
0x408530:	pop	r12
0x408532:	ret	
T 0x408a8e
0x408a8e:	mov	rax, r12
0x408a91:	pop	rbx
0x408a92:	pop	rbp
0x408a93:	pop	r12
0x408a95:	pop	r13
0x408a97:	ret	
T 0x40d6ad
0x408a95:	pop	r13
0x408a97:	ret	
T 0x414584
0x414584:	mov	rax, r13
0x414587:	pop	rbp
0x414588:	pop	r12
0x41458a:	pop	r13
0x41458c:	pop	r14
0x41458e:	ret	
T 0x417fad
0x417fad:	pop	rax
0x417fae:	pop	rdx
0x417faf:	pop	rbp
0x417fb0:	pop	r12
0x417fb2:	pop	r13
0x417fb4:	pop	r14
0x417fb6:	pop	r15
0x417fb8:	ret	
T 0x413d4e
0x408530:	pop	r12
0x408532:	ret	
T 0x40e6c1
0x408a8e:	mov	rax, r12
0x408a91:	pop	rbx
0x408a92:	pop	rbp
0x408a93:	pop	r12
0x408a95:	pop	r13
0x408a97:	ret	
T 0x414d00
0x414d00:	add	al, 0x24
0x414d02:	pop	r12
0x414d04:	ret	
T 0x40e64c
0x408a8e:	mov	rax, r12
0x408a91:	pop	rbx
0x408a92:	pop	rbp
0x408a93:	pop	r12
0x408a95:	pop	r13
0x408a97:	ret	
T 0x419e59
0x40a747:	pop	rax
0x40a748:	pop	rdx
0x40a749:	pop	rbx
0x40a74a:	pop	rbp
0x40a74b:	pop	r12
0x40a74d:	pop	r13
0x40a74f:	pop	r14
0x40a751:	ret	
T 0x40a747
0x40a747:	pop	rax
0x40a748:	pop	rdx
0x40a749:	pop	rbx
0x40a74a:	pop	rbp
0x40a74b:	pop	r12
0x40a74d:	pop	r13
0x40a74f:	pop	r14
0x40a751:	ret	
T 0x419c89
0x40a747:	pop	rax
0x40a748:	pop	rdx
0x40a749:	pop	rbx
0x40a74a:	pop	rbp
0x40a74b:	pop	r12
0x40a74d:	pop	r13
0x40a74f:	pop	r14
0x40a751:	ret	
T 0x417a0c
0x40a747:	pop	rax
0x40a748:	pop	rdx
0x40a749:	pop	rbx
0x40a74a:	pop	rbp
0x40a74b:	pop	r12
0x40a74d:	pop	r13
0x40a74f:	pop	r14
0x40a751:	ret	
T 0x409dc2
0x408530:	pop	r12
0x408532:	ret	
T 0x415fbc
0x415fbc:	add	rsp, 0x20
0x415fc0:	mov	rax, r12
0x415fc3:	pop	r12
0x415fc5:	ret	
T 0x41c8e2
0x408530:	pop	r12
0x408532:	ret	
T 0x41e1ba
0x41e1ba:	mov	rax, r12
0x41e1bd:	pop	rbx
0x41e1be:	pop	rbp
0x41e1bf:	pop	r12
0x41e1c1:	pop	r13
0x41e1c3:	pop	r14
0x41e1c5:	pop	r15
0x41e1c7:	ret	
T 0x414c44
0x408530:	pop	r12
0x408532:	ret	
T 0x41e1b6
0x41e1b6:	add	rsp, 0x38
0x41e1ba:	mov	rax, r12
0x41e1bd:	pop	rbx
0x41e1be:	pop	rbp
0x41e1bf:	pop	r12
0x41e1c1:	pop	r13
0x41e1c3:	pop	r14
0x41e1c5:	pop	r15
0x41e1c7:	ret	
T 0x41e751
0x409e93:	pop	r14
0x409e95:	ret	
T 0x40c8e2
0x40c8e2:	mov	rax, r14
0x40c8e5:	pop	rbx
0x40c8e6:	pop	rbp
0x40c8e7:	pop	r12
0x40c8e9:	pop	r13
0x40c8eb:	pop	r14
0x40c8ed:	pop	r15
0x40c8ef:	ret	
T 0x410417
0x410417:	sal	byte ptr [rsi + rax - 0x75], 0x43
0x41041c:	pop	rax
0x41041d:	pop	rbx
0x41041e:	ret	
T 0x40a73e
0x40a73e:	movabs	byte ptr [0xffffcb29e80001ca], al
0x40a747:	pop	rax
0x40a748:	pop	rdx
0x40a749:	pop	rbx
0x40a74a:	pop	rbp
0x40a74b:	pop	r12
0x40a74d:	pop	r13
0x40a74f:	pop	r14
0x40a751:	ret	
F 0x41d447
0x41d447:	nop	dword ptr cs:[rax + rax]
0x41d450:	mov	rax, qword ptr [rdi + 0x38]
0x41d454:	ret	
F 0x41ee56
0x4090d8:	pop	rbx
0x4090d9:	pop	rbp
0x4090da:	ret	
F 0x41a19e
0x407016:	ret	
F 0x4087e6
0x4087e6:	add	byte ptr [rax], al
0x4087e8:	ret	
F 0x413e70
0x408c6e:	pop	rbx
0x408c6f:	ret	
F 0x41db62
0x40ba11:	or	byte ptr [rax + 1], bh
0x40ba17:	pop	rbx
0x40ba18:	pop	rbp
0x40ba19:	ret	
F 0x41153d
0x40a3a0:	pop	rdi
0x40a3a1:	ret	
F 0x40fde2
0x407016:	ret	
F 0x41f729
0x41f729:	add	byte ptr [rbp + 0x7a], dh
0x41f72c:	add	rsp, 0x20
0x41f730:	mov	eax, r12d
0x41f733:	pop	rbx
0x41f734:	pop	r12
0x41f736:	pop	r13
0x41f738:	ret	
F 0x4116e6
0x4116e6:	add	rsp, 0xa0
0x4116ee:	pop	rbp
0x4116ef:	pop	r12
0x4116f1:	pop	r13
0x4116f3:	ret	
F 0x408a95
0x408a95:	pop	r13
0x408a97:	ret	
F 0x40945a
0x409441:	mov	eax, 1
0x409446:	pop	rbx
0x409447:	ret	
F 0x41d454
0x407016:	ret	
F 0x41d87b
0x408a93:	pop	r12
0x408a95:	pop	r13
0x408a97:	ret	
F 0x41828c
0x41820c:	pop	rdx
0x41820d:	pop	rbp
0x41820e:	ret	
F 0x419e5a
0x40a748:	pop	rdx
0x40a749:	pop	rbx
0x40a74a:	pop	rbp
0x40a74b:	pop	r12
0x40a74d:	pop	r13
0x40a74f:	pop	r14
0x40a751:	ret	
F 0x40e960
0x409e94:	pop	rsi
0x409e95:	ret	
F 0x40971b
0x40971b:	add	byte ptr [rax], 0
0x40971e:	add	byte ptr [rax], al
0x409720:	xor	r8d, r8d
0x409723:	add	rsp, 8
0x409727:	mov	rax, r8
0x40972a:	ret	
F 0x4087e4
0x4087e4:	add	byte ptr [rax], al
0x4087e6:	add	byte ptr [rax], al
0x4087e8:	ret	
F 0x41a197
0x409e8e:	pop	rbp
0x409e8f:	pop	r12
0x409e91:	pop	r13
0x409e93:	pop	r14
0x409e95:	ret	
F 0x4197b7
0x407016:	ret	
F 0x4122ac
0x4090d8:	pop	rbx
0x4090d9:	pop	rbp
0x4090da:	ret	
F 0x41ccf3
0x409e8e:	pop	rbp
0x409e8f:	pop	r12
0x409e91:	pop	r13
0x409e93:	pop	r14
0x409e95:	ret	
F 0x411fce
0x407016:	ret	
F 0x4186fb
0x409e8f:	pop	r12
0x409e91:	pop	r13
0x409e93:	pop	r14
0x409e95:	ret	
F 0x412d65
0x408a92:	pop	rbp
0x408a93:	pop	r12
0x408a95:	pop	r13
0x408a97:	ret	
F 0x41041a
0x41041a:	mov	eax, dword ptr [rbx + 0x58]
0x41041d:	pop	rbx
0x41041e:	ret	
F 0x40cc8f
0x407016:	ret	
F 0x40b787
0x40b787:	add	byte ptr [rax], al
0x40b789:	add	byte ptr [rbx + 0x5d], bl
0x40b78c:	pop	r12
0x40b78e:	pop	r13
0x40b790:	ret	
F 0x41b33e
0x407016:	ret	
F 0x40a933
0x40a933:	add	rsp, 8
0x40a937:	pop	rbx
0x40a938:	pop	rbp
0x40a939:	pop	r12
0x40a93b:	pop	r13
0x40a93d:	pop	r14
0x40a93f:	pop	r15
0x40a941:	ret	
F 0x40e6b9
0x407016:	ret	
F 0x41a90a
0x40bbad:	add	rsp, 0x18
0x40bbb1:	pop	rbp
0x40bbb2:	pop	r12
0x40bbb4:	ret	
F 0x416e26
0x409e93:	pop	r14
0x409e95:	ret	
F 0x40885d
0x40885d:	add	byte ptr [rcx], al
0x40885f:	pop	rbp
0x408860:	ret	
F 0x41d3cc
0x41d340:	mov	eax, esp
0x41d342:	pop	rbp
0x41d343:	pop	r12
0x41d345:	pop	r13
0x41d347:	ret	
F 0x40f8a2
0x407016:	ret	
F 0x416b63
0x408823:	nop	dword ptr [rax + rax]
0x408828:	ret	
F 0x409aba
0x408a91:	pop	rbx
0x408a92:	pop	rbp
0x408a93:	pop	r12
0x408a95:	pop	r13
0x408a97:	ret	
F 0x409e8d
0x409e8d:	pop	rbx
0x409e8e:	pop	rbp
0x409e8f:	pop	r12
0x409e91:	pop	r13
0x409e93:	pop	r14
0x409e95:	ret	
F 0x408b6a
0x408b6a:	mov	rax, qword ptr [rip + 0x284ff]
0x408b71:	add	rsp, 0x18
0x408b75:	ret	
F 0x410f75
0x409e8e:	pop	rbp
0x409e8f:	pop	r12
0x409e91:	pop	r13
0x409e93:	pop	r14
0x409e95:	ret	
F 0x4178e3
0x40a39b:	pop	r13
0x40a39d:	pop	r14
0x40a39f:	pop	r15
0x40a3a1:	ret	
F 0x410f76
0x409e8f:	pop	r12
0x409e91:	pop	r13
0x409e93:	pop	r14
0x409e95:	ret	
F 0x418530
0x4088d0:	pop	rcx
0x4088d1:	pop	rbp
0x4088d2:	ret	
F 0x40c8ea
0x40a39c:	pop	rbp
0x40a39d:	pop	r14
0x40a39f:	pop	r15
0x40a3a1:	ret	
F 0x41be6c
0x408a91:	pop	rbx
0x408a92:	pop	rbp
0x408a93:	pop	r12
0x408a95:	pop	r13
0x408a97:	ret	
F 0x410f8a
0x410f8a:	and	ch, byte ptr [rdi + rdi*8 - 1]
0x410f8e:	pop	rbx
0x410f8f:	mov	eax, r12d
0x410f92:	pop	rbp
0x410f93:	pop	r12
0x410f95:	pop	r13
0x410f97:	pop	r14
0x410f99:	ret	
F 0x41d77f
0x4088cf:	pop	rdx
0x4088d0:	pop	rcx
0x4088d1:	pop	rbp
0x4088d2:	ret	
F 0x41178c
0x41178c:	add	byte ptr [rax], al
0x41178e:	xor	eax, eax
0x411790:	pop	rbx
0x411791:	ret	
F 0x41e1c4
0x40a39e:	pop	rsi
0x40a39f:	pop	r15
0x40a3a1:	ret	
F 0x4187f3
0x408530:	pop	r12
0x408532:	ret	
F 0x418aa7
0x40852f:	pop	rbp
0x408530:	pop	r12
0x408532:	ret	
F 0x41ea22
0x40cc88:	add	dword ptr [rax], eax
0x40cc8a:	add	byte ptr [rax], al
0x40cc8c:	pop	rbp
0x40cc8d:	pop	r12
0x40cc8f:	ret	
F 0x4093c4
0x408530:	pop	r12
0x408532:	ret	
F 0x40dd1a
0x409e91:	pop	r13
0x409e93:	pop	r14
0x409e95:	ret	
F 0x40f89e
0x408a93:	pop	r12
0x408a95:	pop	r13
0x408a97:	ret	
F 0x408860
0x407016:	ret	
F 0x415986
0x413e66:	nop	word ptr cs:[rax + rax]
0x413e70:	pop	rbx
0x413e71:	ret	
F 0x417faf
0x40a398:	pop	rbp
0x40a399:	pop	r12
0x40a39b:	pop	r13
0x40a39d:	pop	r14
0x40a39f:	pop	r15
0x40a3a1:	ret	
F 0x41a711
0x407016:	ret	
F 0x415f08
0x415f08:	nop	dword ptr [rax + rax]
0x415f10:	lea	rax, [rip + 0x1559]
0x415f17:	mov	qword ptr [rdi + 0x10], rax
0x415f1b:	ret	
F 0x41820c
0x41820c:	pop	rdx
0x41820d:	pop	rbp
0x41820e:	ret	
F 0x408ec9
0x407016:	ret	
F 0x414104
0x412d5c:	add	byte ptr [rax], al
0x412d5e:	add	byte ptr [rax], al
0x412d60:	add	rsp, 8
0x412d64:	pop	rbx
0x412d65:	pop	rbp
0x412d66:	pop	r12
0x412d68:	pop	r13
0x412d6a:	ret	
F 0x419e5c
0x409e8e:	pop	rbp
0x409e8f:	pop	r12
0x409e91:	pop	r13
0x409e93:	pop	r14
0x409e95:	ret	
F 0x411440
0x411440:	add	byte ptr [rax], al
0x411442:	add	byte ptr [rbp + 0x22], dh
0x411445:	add	rsp, 0x18
0x411449:	pop	rbp
0x41144a:	pop	r12
0x41144c:	ret	
F 0x4117d7
0x4117d7:	sal	byte ptr [rsi + rdx + 0x48], 0x8b
0x4117dc:	add	eax, 0x1f907
0x4117e1:	add	rsp, 0x18
0x4117e5:	ret	
F 0x417aca
0x408530:	pop	r12
0x408532:	ret	
F 0x409446
0x408c6e:	pop	rbx
0x408c6f:	ret	
F 0x41dddc
0x41dddc:	mov	dword ptr [rbx + 0x48], eax
0x41dddf:	add	rsp, 8
0x41dde3:	mov	eax, 1
0x41dde8:	pop	rbx
0x41dde9:	pop	rbp
0x41ddea:	ret	
F 0x41d80f
0x41d1ef:	add	byte ptr [rax], al
0x41d1f1:	mov	qword ptr [rax + 0x88], rdx
0x41d1f8:	pop	rbp
0x41d1f9:	ret	
F 0x41a701
0x41a701:	movabs	dword ptr [0xfffed076e800008c], eax
0x41a70a:	add	rsp, 0x18
0x41a70e:	pop	rbp
0x41a70f:	pop	r12
0x41a711:	ret	
F 0x411055
0x408e71:	and	byte ptr [rbx + 0x5d], bl
0x408e74:	pop	r12
0x408e76:	ret	
F 0x4188ae
0x407016:	ret	
F 0x415ed3
0x4090d7:	or	byte ptr [rbx + 0x5d], bl
0x4090da:	ret	
F 0x408880
0x407016:	ret	
F 0x41ea24
0x40cc8a:	add	byte ptr [rax], al
0x40cc8c:	pop	rbp
0x40cc8d:	pop	r12
0x40cc8f:	ret	
F 0x4117de
0x4117de:	stc	
0x4117df:	add	dword ptr [rax], eax
0x4117e1:	add	rsp, 0x18
0x4117e5:	ret	
F 0x415f12
0x415f12:	add	eax, 0x1559
0x415f17:	mov	qword ptr [rdi + 0x10], rax
0x415f1b:	ret	
F 0x41153e
0x407016:	ret	
F 0x41465e
0x409e94:	pop	rsi
0x409e95:	ret	
F 0x40a1c1
0x409e8f:	pop	r12
0x409e91:	pop	r13
0x409e93:	pop	r14
0x409e95:	ret	
F 0x40a1c5
0x409e93:	pop	r14
0x409e95:	ret	
F 0x4105ad
0x4105ad:	add	al, byte ptr [rax]
0x4105af:	mov	qword ptr [rbx + 0x90], rax
0x4105b6:	pop	rbx
0x4105b7:	ret	
F 0x412bc0
0x4090d4:	add	rsp, 8
0x4090d8:	pop	rbx
0x4090d9:	pop	rbp
0x4090da:	ret	
F 0x41ac3e
0x407016:	ret	
F 0x40d062
0x407016:	ret	
F 0x41978a
0x412bba:	test	byte ptr [rax], al
0x412bbc:	add	byte ptr [rax], al
0x412bbe:	add	byte ptr [rax], al
0x412bc0:	add	rsp, 8
0x412bc4:	pop	rbx
0x412bc5:	pop	rbp
0x412bc6:	ret	
F 0x41d3ce
0x408a92:	pop	rbp
0x408a93:	pop	r12
0x408a95:	pop	r13
0x408a97:	ret	
F 0x41dc03
0x40ba12:	mov	eax, 1
0x40ba17:	pop	rbx
0x40ba18:	pop	rbp
0x40ba19:	ret	
F 0x41d1f6
0x41c566:	add	byte ptr [rax], al
0x41c568:	pop	rbp
0x41c569:	ret	
F 0x408fad
0x407016:	ret	
F 0x40ff76
0x40b4e6:	ror	byte ptr [rdi], 0x85
0x40b4e9:	ret	
F 0x40e95e
0x409e92:	pop	rbp
0x409e93:	pop	r14
0x409e95:	ret	
F 0x40eee5
0x408e72:	pop	rbx
0x408e73:	pop	rbp
0x408e74:	pop	r12
0x408e76:	ret	
F 0x40cf15
0x40a397:	pop	rbx
0x40a398:	pop	rbp
0x40a399:	pop	r12
0x40a39b:	pop	r13
0x40a39d:	pop	r14
0x40a39f:	pop	r15
0x40a3a1:	ret	
F 0x41f738
0x407016:	ret	
F 0x41d7d9
0x41d7d9:	mov	dword ptr [rbx + 0x58], eax
0x41d7dc:	pop	rbx
0x41d7dd:	ret	
F 0x40fdda
0x40fdda:	mov	rax, qword ptr [rbx + 0x98]
0x40fde1:	pop	rbx
0x40fde2:	ret	
F 0x41d346
0x40885f:	pop	rbp
0x408860:	ret	
F 0x4091f9
0x408a95:	pop	r13
0x408a97:	ret	
F 0x419929
0x416ca9:	nop	dword ptr [rax]
0x416cb0:	pop	rbx
0x416cb1:	ret	
F 0x40e840
0x40a399:	pop	r12
0x40a39b:	pop	r13
0x40a39d:	pop	r14
0x40a39f:	pop	r15
0x40a3a1:	ret	
F 0x41404a
0x413e6a:	test	byte ptr [rax], al
0x413e6c:	add	byte ptr [rax], al
0x413e6e:	add	byte ptr [rax], al
0x413e70:	pop	rbx
0x413e71:	ret	
F 0x413b29
0x40885f:	pop	rbp
0x408860:	ret	
F 0x419c26
0x407016:	ret	
F 0x41458e
0x407016:	ret	
F 0x411887
0x40a39e:	pop	rsi
0x40a39f:	pop	r15
0x40a3a1:	ret	
F 0x415fc3
0x408530:	pop	r12
0x408532:	ret	
F 0x408ed3
0x408530:	pop	r12
0x408532:	ret	
F 0x41104d
0x41104d:	add	byte ptr [rax], al
0x41104f:	add	byte ptr [rbp + 0x40], dh
0x411052:	add	rsp, 0x20
0x411056:	pop	rbx
0x411057:	pop	rbp
0x411058:	pop	r12
0x41105a:	ret	
F 0x40e6c5
0x408a92:	pop	rbp
0x408a93:	pop	r12
0x408a95:	pop	r13
0x408a97:	ret	
F 0x413b22
0x413b22:	add	dh, dh
0x413b24:	or	byte ptr [rbp + 0x37], r14b
0x413b29:	pop	rbp
0x413b2a:	ret	
F 0x40b44b
0x40b44b:	mov	eax, dword ptr [rip + 0x25c47]
0x40b451:	add	rsp, 0x18
0x40b455:	ret	
F 0x4087df
0x4087df:	jmp	rax
F 0x410f95
0x409e91:	pop	r13
0x409e93:	pop	r14
0x409e95:	ret	
F 0x4091ec
0x4091ec:	add	byte ptr [rax], al
0x4091ee:	add	rsp, 0x28
0x4091f2:	mov	eax, r12d
0x4091f5:	pop	rbx
0x4091f6:	pop	rbp
0x4091f7:	pop	r12
0x4091f9:	pop	r13
0x4091fb:	ret	
F 0x4196b4
0x4196b4:	or	byte ptr [rax - 0x7b], cl
0x4196b7:	sal	byte ptr [rsi + rdx + 0x48], 0x8b
0x4196bc:	add	eax, 0x17b5f
0x4196c1:	add	rsp, 0x18
0x4196c5:	ret	
F 0x40d061
0x40a3a0:	pop	rdi
0x40a3a1:	ret	
F 0x4141a9
0x40eb41:	add	byte ptr [rax], al
0x40eb43:	nop	dword ptr [rax + rax]
0x40eb48:	pop	rbx
0x40eb49:	pop	rbp
0x40eb4a:	pop	r12
0x40eb4c:	ret	
F 0x411d41
0x411d41:	nop	dword ptr [rax]
0x411d48:	pop	rbx
0x411d49:	pop	rbp
0x411d4a:	pop	r12
0x411d4c:	ret	
F 0x419a0e
0x409444:	add	byte ptr [rax], al
0x409446:	pop	rbx
0x409447:	ret	
F 0x41bc7a
0x40a0d3:	add	rsp, 0x18
0x40a0d7:	pop	rbx
0x40a0d8:	pop	rbp
0x40a0d9:	pop	r12
0x40a0db:	pop	r13
0x40a0dd:	ret	
F 0x40e2eb
0x40ba12:	mov	eax, 1
0x40ba17:	pop	rbx
0x40ba18:	pop	rbp
0x40ba19:	ret	
F 0x416e1f
0x409e8c:	and	byte ptr [rbx + 0x5d], bl
0x409e8f:	pop	r12
0x409e91:	pop	r13
0x409e93:	pop	r14
0x409e95:	ret	
F 0x40eab6
0x40eab6:	add	eax, 0x2260d
0x40eabb:	add	rsp, 0x18
0x40eabf:	ret	
F 0x4196f4
0x4196f4:	mov	rax, qword ptr [rip + 0x17b25]
0x4196fb:	add	rsp, 0x18
0x4196ff:	ret	
F 0x40e2ed
0x40ba14:	add	byte ptr [rax], al
0x40ba16:	add	byte ptr [rbx + 0x5d], bl
0x40ba19:	ret	
F 0x415987
0x413e67:	nop	dword ptr cs:[rax + rax]
0x413e70:	pop	rbx
0x413e71:	ret	
F 0x40cf1e
0x40a3a0:	pop	rdi
0x40a3a1:	ret	
F 0x40b2df
0x408a92:	pop	rbp
0x408a93:	pop	r12
0x408a95:	pop	r13
0x408a97:	ret	
F 0x418757
0x418757:	sal	byte ptr [rsi + rax + 0x48], 0x8b
0x41875c:	pop	rbx
0x41875f:	ret	
F 0x41978c
0x411e54:	add	byte ptr [rax], al
0x411e56:	add	byte ptr [rax], al
0x411e58:	add	rsp, 8
0x411e5c:	pop	rbx
0x411e5d:	pop	rbp
0x411e5e:	ret	
F 0x4148af
0x408a93:	pop	r12
0x408a95:	pop	r13
0x408a97:	ret	
F 0x41e2bb
0x407016:	ret	
F 0x409555
0x409555:	inc	dword ptr [rbp - 0x74e98b40]
0x40955b:	push	rbx
0x40955c:	xor	eax, r8d
0x40955f:	pop	rbx
0x409560:	test	edx, edx
0x409562:	setne	al
0x409565:	ret	
F 0x415273
0x40a936:	or	byte ptr [rbx + 0x5d], bl
0x40a939:	pop	r12
0x40a93b:	pop	r13
0x40a93d:	pop	r14
0x40a93f:	pop	r15
0x40a941:	ret	
F 0x414326
0x408a93:	pop	r12
0x408a95:	pop	r13
0x408a97:	ret	
F 0x414b05
0x414b05:	inc	dword ptr [rbp - 0x74f98b40]
0x414b0b:	pop	rbx
0x414b0e:	ret	
F 0x409e95
0x407016:	ret	
F 0x4112c6
0x40885f:	pop	rbp
0x408860:	ret	
F 0x416c41
0x408e72:	pop	rbx
0x408e73:	pop	rbp
0x408e74:	pop	r12
0x408e76:	ret	
F 0x40a32f
0x40a32f:	sal	byte ptr [rdi + 0x48], 0x89
0x40a334:	ret	
F 0x41c83a
0x40e83d:	sbb	byte ptr [rbx + 0x5d], bl
0x40e840:	pop	r12
0x40e842:	pop	r13
0x40e844:	pop	r14
0x40e846:	pop	r15
0x40e848:	ret	
F 0x40a2f2
0x408a5b:	sal	byte ptr [rsp + 0x48], 0x89
0x408a60:	ret	
F 0x41c521
0x40885f:	pop	rbp
0x408860:	ret	
F 0x417649
0x407016:	ret	
F 0x41c2ce
0x40e83a:	add	rsp, 0x18
0x40e83e:	pop	rbx
0x40e83f:	pop	rbp
0x40e840:	pop	r12
0x40e842:	pop	r13
0x40e844:	pop	r14
0x40e846:	pop	r15
0x40e848:	ret	
F 0x40ce95
0x407016:	ret	
F 0x40d956
0x40885f:	pop	rbp
0x408860:	ret	
F 0x41dff1
0x41dfc1:	mov	dh, 0x43
0x41dfc3:	add	dword ptr [rax - 0x7d], ecx
0x41dfc6:	ret	
F 0x40fcac
0x408df0:	add	rsp, 8
0x408df4:	pop	rbp
0x408df5:	pop	r12
0x408df7:	ret	
F 0x416fa9
0x407016:	ret	
F 0x40d43f
0x40d43f:	nop	
0x40d440:	add	byte ptr [rax], al
0x40d442:	add	byte ptr [rbx + 0x5d], bl
0x40d445:	pop	r12
0x40d447:	ret	
F 0x41458b
0x409e92:	pop	rbp
0x409e93:	pop	r14
0x409e95:	ret	
F 0x417817
0x40cdd8:	add	byte ptr [rbx + 0x5d], bl
0x40cddb:	pop	r12
0x40cddd:	ret	
F 0x40ad3c
0x40a39f:	pop	r15
0x40a3a1:	ret	
F 0x4184a0
0x4088d0:	pop	rcx
0x4088d1:	pop	rbp
0x4088d2:	ret	
F 0x4116ee
0x408a92:	pop	rbp
0x408a93:	pop	r12
0x408a95:	pop	r13
0x408a97:	ret	
F 0x40c399
0x40a39c:	pop	rbp
0x40a39d:	pop	r14
0x40a39f:	pop	r15
0x40a3a1:	ret	
F 0x4122ab
0x4090d7:	or	byte ptr [rbx + 0x5d], bl
0x4090da:	ret	
F 0x41861f
0x4184ff:	sal	byte ptr [rbp + 6], 0x5d
0x418503:	ret	
F 0x418ffb
0x407016:	ret	
F 0x414ab0
0x41178e:	xor	eax, eax
0x411790:	pop	rbx
0x411791:	ret	
F 0x415a4e
0x415a4e:	xor	ecx, dword ptr [rax - 0x7d]
0x415a51:	ret	
F 0x40970e
0x40970e:	xor	byte ptr [rbp - 0x11], dh
0x409711:	mov	rax, r8
0x409714:	add	rsp, 8
0x409718:	ret	
F 0x40a93b
0x40a39b:	pop	r13
0x40a39d:	pop	r14
0x40a39f:	pop	r15
0x40a3a1:	ret	
F 0x41383e
0x411e56:	add	byte ptr [rax], al
0x411e58:	add	rsp, 8
0x411e5c:	pop	rbx
0x411e5d:	pop	rbp
0x411e5e:	ret	
F 0x4178de
0x40e83d:	sbb	byte ptr [rbx + 0x5d], bl
0x40e840:	pop	r12
0x40e842:	pop	r13
0x40e844:	pop	r14
0x40e846:	pop	r15
0x40e848:	ret	
F 0x40cc8c
0x40852f:	pop	rbp
0x408530:	pop	r12
0x408532:	ret	
F 0x414588
0x409e8f:	pop	r12
0x409e91:	pop	r13
0x409e93:	pop	r14
0x409e95:	ret	
F 0x409720
0x409720:	xor	r8d, r8d
0x409723:	add	rsp, 8
0x409727:	mov	rax, r8
0x40972a:	ret	
F 0x40b444
0x40b444:	or	byte ptr [rax - 0x7b], cl
0x40b447:	sal	byte ptr [rsi + rdx + 0x48], 0x8b
0x40b44c:	add	eax, 0x25c47
0x40b451:	add	rsp, 0x18
0x40b455:	ret	
F 0x41dac5
0x41dac5:	mov	eax, 1
0x41daca:	mov	dword ptr [rdi + 0x2c], esi
0x41dacd:	add	rsp, 8
0x41dad1:	ret	
F 0x41c8d6
0x41c8d6:	add	byte ptr [rax], al
0x41c8d8:	add	byte ptr [rbp + 0xa], dh
0x41c8db:	add	rsp, 0x10
0x41c8df:	mov	rax, r12
0x41c8e2:	pop	r12
0x41c8e4:	ret	
F 0x41c49d
0x409e91:	pop	r13
0x409e93:	pop	r14
0x409e95:	ret	
F 0x41dea8
0x41dea8:	mov	eax, 1
0x41dead:	pop	rbx
0x41deae:	pop	rbp
0x41deaf:	pop	r12
0x41deb1:	pop	r13
0x41deb3:	ret	
F 0x41ece9
0x409e94:	pop	rsi
0x409e95:	ret	
F 0x41da6a
0x41da6a:	mov	rax, qword ptr [rip + 0x1387f]
0x41da71:	add	rsp, 0x18
0x41da75:	ret	
F 0x40e847
0x40a3a0:	pop	rdi
0x40a3a1:	ret	
F 0x41dde3
0x40ba12:	mov	eax, 1
0x40ba17:	pop	rbx
0x40ba18:	pop	rbp
0x40ba19:	ret	
F 0x40d05c
0x40a39b:	pop	r13
0x40a39d:	pop	r14
0x40a39f:	pop	r15
0x40a3a1:	ret	
F 0x4087d9
0x4087d9:	add	byte ptr [rax - 0x7b], cl
0x4087dc:	sal	byte ptr [rcx + rcx - 1], 0xe0
0x4087e1:	nop	dword ptr [rax]
0x4087e8:	ret	
F 0x41674c
0x41674c:	adc	bh, bh
0x41674e:	dec	dword ptr [rax - 0x77]
0x416751:	push	0x8c48348
0x416757:	pop	rbx
0x416758:	pop	rbp
0x416759:	ret	
F 0x40897a
0x40897a:	add	byte ptr [rax - 0x77], cl
0x40897d:	ret	0x7de8
F 0x419b7b
0x419b7b:	mov	dword ptr [rax + 0x30], ebx
0x419b7e:	add	rsp, 8
0x419b82:	pop	rbx
0x419b83:	pop	rbp
0x419b84:	pop	r12
0x419b86:	pop	r13
0x419b88:	ret	
F 0x409560
0x409560:	test	edx, edx
0x409562:	setne	al
0x409565:	ret	
F 0x4117db
0x4117db:	mov	eax, dword ptr [rip + 0x1f907]
0x4117e1:	add	rsp, 0x18
0x4117e5:	ret	
F 0x41d4f7
0x41d4f7:	setne	al
0x41d4fa:	add	rsp, 8
0x41d4fe:	movzx	eax, al
0x41d501:	ret	
F 0x41eb82
0x41eb82:	or	byte ptr [rcx], al
0x41eb85:	pop	rbp
0x41eb86:	pop	r12
0x41eb88:	pop	r13
0x41eb8a:	ret	
F 0x40897d
0x40897d:	ret	0x7de8
F 0x40ad3b
0x40a39e:	pop	rsi
0x40a39f:	pop	r15
0x40a3a1:	ret	
F 0x40bd61
0x40a3a0:	pop	rdi
0x40a3a1:	ret	
F 0x419061
0x419061:	inc	dword ptr [rbp - 0x7ce38b40]
0x419067:	ret	
F 0x414659
0x409e8f:	pop	r12
0x409e91:	pop	r13
0x409e93:	pop	r14
0x409e95:	ret	
F 0x40ba12
0x40ba12:	mov	eax, 1
0x40ba17:	pop	rbx
0x40ba18:	pop	rbp
0x40ba19:	ret	
F 0x41deab
0x40b788:	add	byte ptr [rax], al
0x40b78a:	pop	rbx
0x40b78b:	pop	rbp
0x40b78c:	pop	r12
0x40b78e:	pop	r13
0x40b790:	ret	
F 0x41495c
0x41495c:	add	byte ptr [rax], al
0x41495e:	add	byte ptr [rbp + 0x1b], dh
0x414961:	add	rsp, 0x10
0x414965:	pop	rbp
0x414966:	ret	
F 0x41ddd7
0x41ddd7:	adc	eax, 0x48fffe95
0x41dddc:	mov	dword ptr [rbx + 0x48], eax
0x41dddf:	add	rsp, 8
0x41dde3:	mov	eax, 1
0x41dde8:	pop	rbx
0x41dde9:	pop	rbp
0x41ddea:	ret	
F 0x41c4a1
0x407016:	ret	
F 0x41820d
0x40885f:	pop	rbp
0x408860:	ret	
F 0x40bbaa
0x40bbaa:	add	byte ptr [rbp + 0x68], dh
0x40bbad:	add	rsp, 0x18
0x40bbb1:	pop	rbp
0x40bbb2:	pop	r12
0x40bbb4:	ret	
F 0x41db67
0x40ba16:	add	byte ptr [rbx + 0x5d], bl
0x40ba19:	ret	
F 0x412136
0x411e56:	add	byte ptr [rax], al
0x411e58:	add	rsp, 8
0x411e5c:	pop	rbx
0x411e5d:	pop	rbp
0x411e5e:	ret	
F 0x40dbe6
0x40dbe6:	add	byte ptr [rax], al
0x40dbe8:	add	byte ptr [rbp + 6], dh
0x40dbeb:	add	rsp, 0x10
0x40dbef:	pop	rbp
0x40dbf0:	ret	
F 0x413f11
0x407016:	ret	
F 0x4149c5
0x4149c5:	add	byte ptr [rbp + 0x35], dh
0x4149c8:	add	rsp, 0x18
0x4149cc:	ret	
F 0x410f97
0x409e93:	pop	r14
0x409e95:	ret	
F 0x40afcc
0x40afcc:	and	al, 0x31
0x40afce:	ror	byte ptr [rbx + 0x260df35], cl
0x40afd4:	add	byte ptr [rax - 0x77], cl
0x40afd7:	ret	
F 0x414587
0x409e8e:	pop	rbp
0x409e8f:	pop	r12
0x409e91:	pop	r13
0x409e93:	pop	r14
0x409e95:	ret	
F 0x41c4ca
0x41c4ca:	adc	dh, byte ptr [rcx - 0x6f990002]
0x41c4d0:	ret	
F 0x40ab9e
0x40ab9e:	sar	bh, 1
0x40aba0:	dec	dword ptr [rax - 0x77]
0x40aba3:	ret	
F 0x41b5fe
0x407016:	ret	
F 0x41ae89
0x4090d7:	or	byte ptr [rbx + 0x5d], bl
0x4090da:	ret	
F 0x41e705
0x409e8e:	pop	rbp
0x409e8f:	pop	r12
0x409e91:	pop	r13
0x409e93:	pop	r14
0x409e95:	ret	
F 0x41dea4
0x41dea4:	add	rsp, 8
0x41dea8:	mov	eax, 1
0x41dead:	pop	rbx
0x41deae:	pop	rbp
0x41deaf:	pop	r12
0x41deb1:	pop	r13
0x41deb3:	ret	
F 0x41c635
0x41c635:	mov	eax, dword ptr [rip + 0x14c3d]
0x41c63b:	add	rsp, 0x18
0x41c63f:	ret	
F 0x415739
0x415739:	or	byte ptr [rbp + 0x44], dh
0x41573c:	pop	rbp
0x41573d:	ret	
F 0x41d812
0x41d1f2:	mov	dword ptr [rax + 0x88], edx
0x41d1f8:	pop	rbp
0x41d1f9:	ret	
F 0x4116e7
0x4116e7:	add	rsp, 0xa0
0x4116ee:	pop	rbp
0x4116ef:	pop	r12
0x4116f1:	pop	r13
0x4116f3:	ret	
F 0x412922
0x4090d7:	or	byte ptr [rbx + 0x5d], bl
0x4090da:	ret	
F 0x41caaa
0x408a93:	pop	r12
0x408a95:	pop	r13
0x408a97:	ret	
F 0x419a79
0x416ca9:	nop	dword ptr [rax]
0x416cb0:	pop	rbx
0x416cb1:	ret	
F 0x411d43
0x411d43:	add	byte ptr [rax], 0
0x411d46:	add	byte ptr [rax], al
0x411d48:	pop	rbx
0x411d49:	pop	rbp
0x411d4a:	pop	r12
0x411d4c:	ret	
F 0x416887
0x40d382:	xor	eax, eax
0x40d384:	pop	rbp
0x40d385:	ret	
F 0x41e709
0x409e92:	pop	rbp
0x409e93:	pop	r14
0x409e95:	ret	
F 0x41ea26
0x40852f:	pop	rbp
0x408530:	pop	r12
0x408532:	ret	
F 0x417a15
0x409e94:	pop	rsi
0x409e95:	ret	
F 0x409dc0
0x408e72:	pop	rbx
0x408e73:	pop	rbp
0x408e74:	pop	r12
0x408e76:	ret	
F 0x41c0ea
0x408f0b:	mov	eax, dword ptr [rbx + 0x30]
0x408f0e:	pop	rbx
0x408f0f:	ret	
F 0x414329
0x40885f:	pop	rbp
0x408860:	ret	
F 0x410005
0x407016:	ret	
F 0x41286e
0x407016:	ret	
F 0x40ce5f
0x4088cf:	pop	rdx
0x4088d0:	pop	rcx
0x4088d1:	pop	rbp
0x4088d2:	ret	
F 0x411538
0x40a39b:	pop	r13
0x40a39d:	pop	r14
0x40a39f:	pop	r15
0x40a3a1:	ret	
F 0x40b2da
0x40a0d3:	add	rsp, 0x18
0x40a0d7:	pop	rbx
0x40a0d8:	pop	rbp
0x40a0d9:	pop	r12
0x40a0db:	pop	r13
0x40a0dd:	ret	
F 0x41caa6
0x41caa6:	mov	eax, r13d
0x41caa9:	pop	rbp
0x41caaa:	pop	r12
0x41caac:	pop	r13
0x41caae:	ret	
F 0x40ea54
0x408a95:	pop	r13
0x408a97:	ret	
F 0x41d14d
0x41d14d:	add	byte ptr [rax], al
0x41d14f:	add	bl, al
0x41d151:	nop	word ptr cs:[rax + rax]
0x41d15b:	nop	dword ptr [rax + rax]
0x41d160:	ret	
F 0x40d86a
0x40d86a:	movabs	al, byte ptr [0x415c415d5b000000]
0x40d873:	pop	rbp
0x40d874:	pop	r14
0x40d876:	ret	
F 0x413f07
0x413e67:	nop	dword ptr cs:[rax + rax]
0x413e70:	pop	rbx
0x413e71:	ret	
F 0x41565b
0x41565b:	mov	dword ptr [rbp + 0x38], 0
0x415662:	pop	rbx
0x415663:	pop	rbp
0x415664:	pop	r12
0x415666:	ret	
F 0x40eb4a
0x408530:	pop	r12
0x408532:	ret	
F 0x41431c
0x412d5c:	add	byte ptr [rax], al
0x412d5e:	add	byte ptr [rax], al
0x412d60:	add	rsp, 8
0x412d64:	pop	rbx
0x412d65:	pop	rbp
0x412d66:	pop	r12
0x412d68:	pop	r13
0x412d6a:	ret	
F 0x4198b0
0x40ec88:	add	rsp, 8
0x40ec8c:	pop	rbx
0x40ec8d:	pop	rbp
0x40ec8e:	pop	r12
0x40ec90:	pop	r13
0x40ec92:	ret	
F 0x40b852
0x40b852:	mov	bh, byte ptr [rbp + 0x15e8ffff]
0x40b858:	ret	
F 0x408a96
0x40885f:	pop	rbp
0x408860:	ret	
F 0x4112c1
0x411167:	add	rsp, 0x28
0x41116b:	pop	rbx
0x41116c:	pop	rbp
0x41116d:	ret	
F 0x41992e
0x409444:	add	byte ptr [rax], al
0x409446:	pop	rbx
0x409447:	ret	
F 0x408e6e
0x408e6e:	add	rsp, 0x20
0x408e72:	pop	rbx
0x408e73:	pop	rbp
0x408e74:	pop	r12
0x408e76:	ret	
F 0x40e95b
0x409e8f:	pop	r12
0x409e91:	pop	r13
0x409e93:	pop	r14
0x409e95:	ret	
F 0x41e750
0x409e92:	pop	rbp
0x409e93:	pop	r14
0x409e95:	ret	
F 0x41d4f5
0x41d4f5:	test	eax, eax
0x41d4f7:	setne	al
0x41d4fa:	add	rsp, 8
0x41d4fe:	movzx	eax, al
0x41d501:	ret	
F 0x418466
0x418466:	inc	dword ptr [rbp - 0x74c28b40]
0x41846c:	sub	byte ptr [r13 + 0x5d0674c0], r8b
0x418473:	ret	
F 0x41da64
0x41da64:	or	byte ptr [rax - 0x7b], cl
0x41da67:	sal	byte ptr [rsi + rdx + 0x48], 0x8b
0x41da6c:	add	eax, 0x1387f
0x41da71:	add	rsp, 0x18
0x41da75:	ret	
F 0x418845
0x418845:	inc	dword ptr [rbp + 0x480674c0]
0x41884b:	mov	eax, dword ptr [rbx + 0x68]
0x41884e:	pop	rbx
0x41884f:	ret	
F 0x41e328
0x41e328:	or	byte ptr [rax - 0x7d], cl
0x41e32b:	ret	
F 0x414cff
0x414cff:	mov	dword ptr [rsp], eax
0x414d02:	pop	r12
0x414d04:	ret	
F 0x415d0e
0x407016:	ret	
F 0x40885c
0x40885c:	add	al, byte ptr [rax]
0x40885e:	add	dword ptr [rbp - 0x3d], ebx
0x408861:	nop	dword ptr [rax]
0x408868:	ret	
F 0x417463
0x417463:	dec	dword ptr [rax - 0x75]
0x417466:	add	eax, 0x19d15
0x41746b:	add	rsp, 0x18
0x41746f:	ret	
F 0x41c2d4
0x40a399:	pop	r12
0x40a39b:	pop	r13
0x40a39d:	pop	r14
0x40a39f:	pop	r15
0x40a3a1:	ret	
F 0x408ba6
0x408ba6:	add	eax, 0x284c5
0x408bab:	add	rsp, 0x18
0x408baf:	ret	
F 0x41be65
0x41be65:	add	byte ptr [rbp + 0x36], dh
0x41be68:	add	rsp, 0x18
0x41be6c:	pop	rbx
0x41be6d:	pop	rbp
0x41be6e:	pop	r12
0x41be70:	pop	r13
0x41be72:	ret	
F 0x41be1b
0x415a4b:	or	byte ptr [rax - 0x75], cl
0x415a4e:	xor	ecx, dword ptr [rax - 0x7d]
0x415a51:	ret	
F 0x40ad34
0x40a397:	pop	rbx
0x40a398:	pop	rbp
0x40a399:	pop	r12
0x40a39b:	pop	r13
0x40a39d:	pop	r14
0x40a39f:	pop	r15
0x40a3a1:	ret	
F 0x418ffa
0x40885f:	pop	rbp
0x408860:	ret	
F 0x41c4c8
0x41c4c8:	add	al, ch
0x41c4ca:	adc	dh, byte ptr [rcx - 0x6f990002]
0x41c4d0:	ret	
F 0x41bc80
0x408a93:	pop	r12
0x408a95:	pop	r13
0x408a97:	ret	
F 0x40a74e
0x409e92:	pop	rbp
0x409e93:	pop	r14
0x409e95:	ret	
F 0x41c3ee
0x40852f:	pop	rbp
0x408530:	pop	r12
0x408532:	ret	
F 0x41527a
0x40a39d:	pop	r14
0x40a39f:	pop	r15
0x40a3a1:	ret	
F 0x412ec4
0x409e91:	pop	r13
0x409e93:	pop	r14
0x409e95:	ret	
F 0x407c57
0x407c57:	ret	0
F 0x40f7fd
0x407016:	ret	
F 0x40ad35
0x40a398:	pop	rbp
0x40a399:	pop	r12
0x40a39b:	pop	r13
0x40a39d:	pop	r14
0x40a39f:	pop	r15
0x40a3a1:	ret	
F 0x419bca
0x407016:	ret	
F 0x40b783
0x40b783:	add	rsp, 0xa8
0x40b78a:	pop	rbx
0x40b78b:	pop	rbp
0x40b78c:	pop	r12
0x40b78e:	pop	r13
0x40b790:	ret	
F 0x415f18
0x415f18:	mov	dword ptr [rdi + 0x10], eax
0x415f1b:	ret	
F 0x40fde1
0x408c6e:	pop	rbx
0x408c6f:	ret	
F 0x412ffc
0x40885f:	pop	rbp
0x408860:	ret	
F 0x417818
0x408e72:	pop	rbx
0x408e73:	pop	rbp
0x408e74:	pop	r12
0x408e76:	ret	
F 0x414a35
0x414a35:	inc	dword ptr [rbp + 0x480674c0]
0x414a3b:	mov	eax, dword ptr [rbx + 0x38]
0x414a3e:	pop	rbx
0x414a3f:	ret	
F 0x412d58
0x412d58:	nop	dword ptr [rax + rax]
0x412d60:	add	rsp, 8
0x412d64:	pop	rbx
0x412d65:	pop	rbp
0x412d66:	pop	r12
0x412d68:	pop	r13
0x412d6a:	ret	
F 0x413845
0x40885f:	pop	rbp
0x408860:	ret	
F 0x40e593
0x407016:	ret	
F 0x4116ec
0x4116ec:	add	byte ptr [rax], al
0x4116ee:	pop	rbp
0x4116ef:	pop	r12
0x4116f1:	pop	r13
0x4116f3:	ret	
F 0x4178e0
0x40a398:	pop	rbp
0x40a399:	pop	r12
0x40a39b:	pop	r13
0x40a39d:	pop	r14
0x40a39f:	pop	r15
0x40a3a1:	ret	
F 0x41deb3
0x407016:	ret	
F 0x41540f
0x41540f:	or	al, ch
0x415411:	stosd	dword ptr [rdi], eax
0x415412:	ret	
F 0x419230
0x419230:	add	byte ptr [rax], al
0x419232:	add	rsp, 0x28
0x419236:	pop	rbx
0x419237:	pop	rbp
0x419238:	pop	r12
0x41923a:	pop	r13
0x41923c:	pop	r14
0x41923e:	pop	r15
0x419240:	ret	
F 0x415f10
0x415f10:	lea	rax, [rip + 0x1559]
0x415f17:	mov	qword ptr [rdi + 0x10], rax
0x415f1b:	ret	
F 0x4090ce
0x4090ce:	sal	byte ptr [rdi + rcx - 0x77], 0x6b
0x4090d3:	add	rsp, 8
0x4090d8:	pop	rbx
0x4090d9:	pop	rbp
0x4090da:	ret	
F 0x40ec86
0x40ec86:	add	byte ptr [rax], al
0x40ec88:	add	rsp, 8
0x40ec8c:	pop	rbx
0x40ec8d:	pop	rbp
0x40ec8e:	pop	r12
0x40ec90:	pop	r13
0x40ec92:	ret	
F 0x41d1b0
0x4088d0:	pop	rcx
0x4088d1:	pop	rbp
0x4088d2:	ret	
F 0x40a8c4
0x409e91:	pop	r13
0x409e93:	pop	r14
0x409e95:	ret	
F 0x41c8e0
0x415fc1:	mov	eax, esp
0x415fc3:	pop	r12
0x415fc5:	ret	
F 0x41d7dc
0x408c6e:	pop	rbx
0x408c6f:	ret	
F 0x41c49f
0x409e93:	pop	r14
0x409e95:	ret	
F 0x41f736
0x408a95:	pop	r13
0x408a97:	ret	
F 0x411fc4
0x411e54:	add	byte ptr [rax], al
0x411e56:	add	byte ptr [rax], al
0x411e58:	add	rsp, 8
0x411e5c:	pop	rbx
0x411e5d:	pop	rbp
0x411e5e:	ret	
F 0x416b66
0x4087e6:	add	byte ptr [rax], al
0x4087e8:	ret	
F 0x4174cc
0x4174cc:	xor	eax, eax
0x4174ce:	pop	r12
0x4174d0:	pop	r13
0x4174d2:	ret	
F 0x41786b
0x407016:	ret	
F 0x40a393
0x40a393:	cwde	
0x40a394:	add	byte ptr [rax], al
0x40a396:	add	byte ptr [rbx + 0x5d], bl
0x40a399:	pop	r12
0x40a39b:	pop	r13
0x40a39d:	pop	r14
0x40a39f:	pop	r15
0x40a3a1:	ret	
F 0x41c9bb
0x41c9bb:	add	byte ptr [rax], al
0x41c9bd:	add	byte ptr [rbp + 0x31], dh
0x41c9c0:	add	rsp, 0x18
0x41c9c4:	pop	rbp
0x41c9c5:	pop	r12
0x41c9c7:	ret	
F 0x41eb88
0x408a95:	pop	r13
0x408a97:	ret	
F 0x4141af
0x40cdd8:	add	byte ptr [rbx + 0x5d], bl
0x40cddb:	pop	r12
0x40cddd:	ret	
F 0x414cf3
0x414cf3:	mov	dword ptr [rbp], eax
0x414cf6:	mov	eax, dword ptr [rbx + 0xb4]
0x414cfc:	pop	rbx
0x414cfd:	pop	rbp
0x414cfe:	mov	dword ptr [r12], eax
0x414d02:	pop	r12
0x414d04:	ret	
F 0x41be71
0x40885f:	pop	rbp
0x408860:	ret	
F 0x41dea1
0x41dea1:	mov	dword ptr [rbp], eax
0x41dea4:	add	rsp, 8
0x41dea8:	mov	eax, 1
0x41dead:	pop	rbx
0x41deae:	pop	rbp
0x41deaf:	pop	r12
0x41deb1:	pop	r13
0x41deb3:	ret	
F 0x41cf9c
0x41cf9c:	pop	r15
0x41cf9e:	pop	rbp
0x41cf9f:	ret	
F 0x4154bd
0x40885f:	pop	rbp
0x408860:	ret	
F 0x41d14e
0x4087e6:	add	byte ptr [rax], al
0x4087e8:	ret	
F 0x414cfa
0x414cfa:	add	byte ptr [rax], al
0x414cfc:	pop	rbx
0x414cfd:	pop	rbp
0x414cfe:	mov	dword ptr [r12], eax
0x414d02:	pop	r12
0x414d04:	ret	
F 0x417b66
0x40bbad:	add	rsp, 0x18
0x40bbb1:	pop	rbp
0x40bbb2:	pop	r12
0x40bbb4:	ret	
F 0x408ba3
0x408ba3:	dec	dword ptr [rax - 0x75]
0x408ba6:	add	eax, 0x284c5
0x408bab:	add	rsp, 0x18
0x408baf:	ret	
F 0x41f02b
0x41f02b:	dec	dword ptr [rax - 0x77]
0x41f02e:	ret	0x8548
F 0x41911c
0x407c57:	ret	0
F 0x409721
0x409721:	xor	eax, eax
0x409723:	add	rsp, 8
0x409727:	mov	rax, r8
0x40972a:	ret	
F 0x41565c
0x41565c:	cmp	byte ptr [r8], r8b
0x41565f:	add	byte ptr [rax], al
0x415661:	add	byte ptr [rbx + 0x5d], bl
0x415664:	pop	r12
0x415666:	ret	
F 0x41eb81
0x41eb81:	add	dword ptr [rdx + 8], 1
0x41eb85:	pop	rbp
0x41eb86:	pop	r12
0x41eb88:	pop	r13
0x41eb8a:	ret	
F 0x41a196
0x409e8d:	pop	rbx
0x409e8e:	pop	rbp
0x409e8f:	pop	r12
0x409e91:	pop	r13
0x409e93:	pop	r14
0x409e95:	ret	
F 0x408978
0x408978:	add	byte ptr [rax], al
0x40897a:	add	byte ptr [rax - 0x77], cl
0x40897d:	ret	0x7de8
F 0x414c46
0x407016:	ret	
F 0x415274
0x40a397:	pop	rbx
0x40a398:	pop	rbp
0x40a399:	pop	r12
0x40a39b:	pop	r13
0x40a39d:	pop	r14
0x40a39f:	pop	r15
0x40a3a1:	ret	
F 0x41d4cd
0x41d4cd:	add	dword ptr [rax], eax
0x41d4cf:	add	byte ptr [rax], al
0x41d4d1:	add	rsp, 8
0x41d4d5:	pop	rbx
0x41d4d6:	pop	rbp
0x41d4d7:	ret	
F 0x413d4c
0x408e72:	pop	rbx
0x408e73:	pop	rbp
0x408e74:	pop	r12
0x408e76:	ret	
F 0x41d44e
0x41d44e:	add	byte ptr [rax], al
0x41d450:	mov	rax, qword ptr [rdi + 0x38]
0x41d454:	ret	
F 0x41ba15
0x41ba15:	add	al, ch
0x41ba17:	mov	ebp, 0x5a58fffe
0x41ba1d:	pop	rbp
0x41ba1e:	ret	
F 0x412ec5
0x409e92:	pop	rbp
0x409e93:	pop	r14
0x409e95:	ret	
F 0x41c4a0
0x409e94:	pop	rsi
0x409e95:	ret	
F 0x419bc9
0x40885f:	pop	rbp
0x408860:	ret	
F 0x416ca7
0x416ca7:	add	byte ptr [rax], al
0x416ca9:	nop	dword ptr [rax]
0x416cb0:	pop	rbx
0x416cb1:	ret	
F 0x412ff9
0x408a93:	pop	r12
0x408a95:	pop	r13
0x408a97:	ret	
F 0x411814
0x411814:	mov	rax, qword ptr [rip + 0x1f8cd]
0x41181b:	add	rsp, 0x18
0x41181f:	ret	
F 0x411057
0x40852f:	pop	rbp
0x408530:	pop	r12
0x408532:	ret	
F 0x419a7e
0x409444:	add	byte ptr [rax], al
0x409446:	pop	rbx
0x409447:	ret	
F 0x41181f
0x407016:	ret	
F 0x413b1d
0x413b1d:	cmp	al, ch
0x413b1f:	or	eax, 0xf6000045
0x413b24:	or	byte ptr [rbp + 0x37], r14b
0x413b29:	pop	rbp
0x413b2a:	ret	
F 0x41db66
0x40ba15:	add	byte ptr [rax], al
0x40ba17:	pop	rbx
0x40ba18:	pop	rbp
0x40ba19:	ret	
F 0x40a0ce
0x40a0ce:	add	byte ptr [rax], al
0x40a0d0:	add	byte ptr [rbp + 0x33], dh
0x40a0d3:	add	rsp, 0x18
0x40a0d7:	pop	rbx
0x40a0d8:	pop	rbp
0x40a0d9:	pop	r12
0x40a0db:	pop	r13
0x40a0dd:	ret	
F 0x412868
0x4090d4:	add	rsp, 8
0x4090d8:	pop	rbx
0x4090d9:	pop	rbp
0x4090da:	ret	
F 0x41923e
0x40a39f:	pop	r15
0x40a3a1:	ret	
F 0x40c390
0x40a933:	add	rsp, 8
0x40a937:	pop	rbx
0x40a938:	pop	rbp
0x40a939:	pop	r12
0x40a93b:	pop	r13
0x40a93d:	pop	r14
0x40a93f:	pop	r15
0x40a941:	ret	
F 0x414c3c
0x414c3c:	add	byte ptr [rbp + 8], dh
0x414c3f:	add	rsp, 0x18
0x414c43:	pop	rbp
0x414c44:	pop	r12
0x414c46:	ret	
F 0x41ac3d
0x40885f:	pop	rbp
0x408860:	ret	
F 0x412415
0x40ed45:	nop	dword ptr [rax]
0x40ed48:	add	rsp, 8
0x40ed4c:	pop	rbx
0x40ed4d:	pop	rbp
0x40ed4e:	ret	
F 0x4198ae
0x40ec86:	add	byte ptr [rax], al
0x40ec88:	add	rsp, 8
0x40ec8c:	pop	rbx
0x40ec8d:	pop	rbp
0x40ec8e:	pop	r12
0x40ec90:	pop	r13
0x40ec92:	ret	
F 0x414e9e
0x40cdd7:	add	byte ptr [rax], al
0x40cdd9:	pop	rbx
0x40cdda:	pop	rbp
0x40cddb:	pop	r12
0x40cddd:	ret	
F 0x410000
0x40a39c:	pop	rbp
0x40a39d:	pop	r14
0x40a39f:	pop	r15
0x40a3a1:	ret	
F 0x411e51
0x411e51:	nop	dword ptr [rax]
0x411e58:	add	rsp, 8
0x411e5c:	pop	rbx
0x411e5d:	pop	rbp
0x411e5e:	ret	
F 0x416e1c
0x409e89:	add	rsp, 0x20
0x409e8d:	pop	rbx
0x409e8e:	pop	rbp
0x409e8f:	pop	r12
0x409e91:	pop	r13
0x409e93:	pop	r14
0x409e95:	ret	
F 0x41258b
0x4090d7:	or	byte ptr [rbx + 0x5d], bl
0x4090da:	ret	
F 0x411449
0x40852f:	pop	rbp
0x408530:	pop	r12
0x408532:	ret	
F 0x40e835
0x40e835:	add	byte ptr [rax], al
0x40e837:	add	byte ptr [rbp + 0x49], dh
0x40e83a:	add	rsp, 0x18
0x40e83e:	pop	rbx
0x40e83f:	pop	rbp
0x40e840:	pop	r12
0x40e842:	pop	r13
0x40e844:	pop	r14
0x40e846:	pop	r15
0x40e848:	ret	
F 0x41d255
0x407016:	ret	
F 0x41d4fd
0x41ca6b:	or	byte ptr [rdi], cl
0x41ca6d:	mov	dh, 0xc0
0x41ca6f:	ret	
F 0x40bd56
0x40bd56:	mov	eax, r14d
0x40bd59:	pop	rbp
0x40bd5a:	pop	r12
0x40bd5c:	pop	r13
0x40bd5e:	pop	r14
0x40bd60:	pop	r15
0x40bd62:	ret	
F 0x417b6b
0x408530:	pop	r12
0x408532:	ret	
F 0x411bc5
0x407016:	ret	
F 0x41e1bb
0x41e1bb:	mov	eax, esp
0x41e1bd:	pop	rbx
0x41e1be:	pop	rbp
0x41e1bf:	pop	r12
0x41e1c1:	pop	r13
0x41e1c3:	pop	r14
0x41e1c5:	pop	r15
0x41e1c7:	ret	
F 0x417469
0x4117df:	add	dword ptr [rax], eax
0x4117e1:	add	rsp, 0x18
0x4117e5:	ret	
F 0x41c4ce
0x41c4ce:	nop	
0x41c4d0:	ret	
F 0x41ee8e
0x41ee8e:	add	byte ptr [rax], al
0x41ee90:	add	rsp, 8
0x41ee94:	xor	edi, edi
0x41ee96:	mov	rax, rdi
0x41ee99:	pop	rbx
0x41ee9a:	pop	rbp
0x41ee9b:	ret	
F 0x408269
0x407016:	ret	
F 0x4186fa
0x409e8e:	pop	rbp
0x409e8f:	pop	r12
0x409e91:	pop	r13
0x409e93:	pop	r14
0x409e95:	ret	
F 0x419240
0x407016:	ret	
F 0x416e22
0x409e8f:	pop	r12
0x409e91:	pop	r13
0x409e93:	pop	r14
0x409e95:	ret	
F 0x41c26b
0x407016:	ret	
F 0x40b78e
0x408a95:	pop	r13
0x408a97:	ret	
F 0x41674e
0x41674e:	dec	dword ptr [rax - 0x77]
0x416751:	push	0x8c48348
0x416757:	pop	rbx
0x416758:	pop	rbp
0x416759:	ret	
F 0x40fffa
0x40e83d:	sbb	byte ptr [rbx + 0x5d], bl
0x40e840:	pop	r12
0x40e842:	pop	r13
0x40e844:	pop	r14
0x40e846:	pop	r15
0x40e848:	ret	
F 0x413d44
0x407016:	ret	
F 0x40cc86
0x40cc86:	pop	rbx
0x40cc87:	mov	eax, 1
0x40cc8c:	pop	rbp
0x40cc8d:	pop	r12
0x40cc8f:	ret	
F 0x40dab8
0x409e92:	pop	rbp
0x409e93:	pop	r14
0x409e95:	ret	
F 0x416c42
0x40852f:	pop	rbp
0x408530:	pop	r12
0x408532:	ret	
F 0x41b075
0x41b075:	add	al, ch
0x41b077:	add	eax, 0x58fffec7
0x41b07c:	pop	rdx
0x41b07d:	pop	rbp
0x41b07e:	ret	
F 0x41688a
0x407016:	ret	
F 0x41e928
0x408530:	pop	r12
0x408532:	ret	
F 0x41b757
0x41b757:	and	eax, 0x58fffec0
0x41b75c:	pop	rdx
0x41b75d:	pop	rbp
0x41b75e:	ret	
F 0x41c840
0x40a39c:	pop	rbp
0x40a39d:	pop	r14
0x40a39f:	pop	r15
0x40a3a1:	ret	
F 0x41d2e9
0x407016:	ret	
F 0x4148b2
0x40885f:	pop	rbp
0x408860:	ret	
F 0x41c5f7
0x41c5f7:	sal	byte ptr [rsi + rdx + 0x48], 0x8b
0x41c5fc:	add	eax, 0x14c77
0x41c601:	add	rsp, 0x18
0x41c605:	ret	
F 0x40700a
0x40700a:	add	byte ptr [rax - 0x7b], cl
0x40700d:	sal	byte ptr [rdx + rax - 1], 0xd0
0x407012:	add	rsp, 8
0x407016:	ret	
F 0x417427
0x417427:	sal	byte ptr [rsi + rdx + 0x48], 0x8b
0x41742c:	add	eax, 0x19d4f
0x417431:	add	rsp, 0x18
0x417435:	ret	
F 0x41c1b9
0x408530:	pop	r12
0x408532:	ret	
F 0x41db64
0x40ba13:	add	dword ptr [rax], eax
0x40ba15:	add	byte ptr [rax], al
0x40ba17:	pop	rbx
0x40ba18:	pop	rbp
0x40ba19:	ret	
F 0x40bda7
0x40bda7:	ret	
F 0x410f79
0x409e92:	pop	rbp
0x409e93:	pop	r14
0x409e95:	ret	
F 0x40ce62
0x407016:	ret	
F 0x41661d
0x407016:	ret	
F 0x41573b
0x41573b:	pop	rbp
0x41573d:	ret	
F 0x40bd52
0x40bd52:	add	rsp, 0x10
0x40bd56:	mov	eax, r14d
0x40bd59:	pop	rbp
0x40bd5a:	pop	r12
0x40bd5c:	pop	r13
0x40bd5e:	pop	r14
0x40bd60:	pop	r15
0x40bd62:	ret	
F 0x41286c
0x4090d8:	pop	rbx
0x4090d9:	pop	rbp
0x4090da:	ret	
F 0x40fffc
0x40a398:	pop	rbp
0x40a399:	pop	r12
0x40a39b:	pop	r13
0x40a39d:	pop	r14
0x40a39f:	pop	r15
0x40a3a1:	ret	
F 0x40b77f
0x40b77f:	rol	dword ptr [rax], cl
0x40b781:	add	byte ptr [rax], al
0x40b783:	add	rsp, 0xa8
0x40b78a:	pop	rbx
0x40b78b:	pop	rbp
0x40b78c:	pop	r12
0x40b78e:	pop	r13
0x40b790:	ret	
F 0x41e70c
0x407016:	ret	
F 0x4091e9
0x4091e9:	test	dword ptr [rbx + 1], ecx
0x4091ec:	add	byte ptr [rax], al
0x4091ee:	add	rsp, 0x28
0x4091f2:	mov	eax, r12d
0x4091f5:	pop	rbx
0x4091f6:	pop	rbp
0x4091f7:	pop	r12
0x4091f9:	pop	r13
0x4091fb:	ret	
F 0x408529
0x408529:	add	rsp, 0x28
0x40852d:	xor	eax, eax
0x40852f:	pop	rbp
0x408530:	pop	r12
0x408532:	ret	
F 0x419a7b
0x416cab:	add	byte ptr [rax], 0
0x416cae:	add	byte ptr [rax], al
0x416cb0:	pop	rbx
0x416cb1:	ret	
F 0x411888
0x40a39f:	pop	r15
0x40a3a1:	ret	
F 0x40bd57
0x40bd57:	mov	eax, esi
0x40bd59:	pop	rbp
0x40bd5a:	pop	r12
0x40bd5c:	pop	r13
0x40bd5e:	pop	r14
0x40bd60:	pop	r15
0x40bd62:	ret	
F 0x409ac0
0x407016:	ret	
F 0x41ccf6
0x409e91:	pop	r13
0x409e93:	pop	r14
0x409e95:	ret	
F 0x41d1f4
0x41d1f4:	mov	byte ptr [rax], al
0x41d1f6:	add	byte ptr [rax], al
0x41d1f8:	pop	rbp
0x41d1f9:	ret	
F 0x40aba3
0x407016:	ret	
F 0x40a1bf
0x409e8d:	pop	rbx
0x409e8e:	pop	rbp
0x409e8f:	pop	r12
0x409e91:	pop	r13
0x409e93:	pop	r14
0x409e95:	ret	
F 0x40c394
0x40a397:	pop	rbx
0x40a398:	pop	rbp
0x40a399:	pop	r12
0x40a39b:	pop	r13
0x40a39d:	pop	r14
0x40a39f:	pop	r15
0x40a3a1:	ret	
F 0x41ece6
0x409e91:	pop	r13
0x409e93:	pop	r14
0x409e95:	ret	
F 0x415ed0
0x4090d4:	add	rsp, 8
0x4090d8:	pop	rbx
0x4090d9:	pop	rbp
0x4090da:	ret	
F 0x40ebf5
0x40ebf5:	nop	dword ptr [rax]
0x40ebf8:	pop	rbx
0x40ebf9:	pop	rbp
0x40ebfa:	pop	r12
0x40ebfc:	ret	
F 0x414046
0x413e66:	nop	word ptr cs:[rax + rax]
0x413e70:	pop	rbx
0x413e71:	ret	
F 0x41f802
0x40a397:	pop	rbx
0x40a398:	pop	rbp
0x40a399:	pop	r12
0x40a39b:	pop	r13
0x40a39d:	pop	r14
0x40a39f:	pop	r15
0x40a3a1:	ret	
F 0x414c7f
0x407016:	ret	
F 0x40bd5c
0x40a39b:	pop	r13
0x40a39d:	pop	r14
0x40a39f:	pop	r15
0x40a3a1:	ret	
F 0x41cf98
0x41cf98:	pop	r13
0x41cf9a:	pop	r14
0x41cf9c:	pop	r15
0x41cf9e:	pop	rbp
0x41cf9f:	ret	
F 0x409460
0x407016:	ret	
F 0x40dbf0
0x407016:	ret	
F 0x40a8be
0x40a85f:	mov	eax, r13d
0x40a862:	pop	rbp
0x40a863:	pop	r12
0x40a865:	pop	r13
0x40a867:	pop	r14
0x40a869:	ret	
F 0x419237
0x40a398:	pop	rbp
0x40a399:	pop	r12
0x40a39b:	pop	r13
0x40a39d:	pop	r14
0x40a39f:	pop	r15
0x40a3a1:	ret	
F 0x411535
0x40a398:	pop	rbp
0x40a399:	pop	r12
0x40a39b:	pop	r13
0x40a39d:	pop	r14
0x40a39f:	pop	r15
0x40a3a1:	ret	
F 0x412ec2
0x409e8f:	pop	r12
0x409e91:	pop	r13
0x409e93:	pop	r14
0x409e95:	ret	
F 0x40d74a
0x408a92:	pop	rbp
0x408a93:	pop	r12
0x408a95:	pop	r13
0x408a97:	ret	
F 0x40a941
0x407016:	ret	
F 0x417647
0x409e93:	pop	r14
0x409e95:	ret	
F 0x4198ab
0x40ec83:	nop	dword ptr [rax + rax]
0x40ec88:	add	rsp, 8
0x40ec8c:	pop	rbx
0x40ec8d:	pop	rbp
0x40ec8e:	pop	r12
0x40ec90:	pop	r13
0x40ec92:	ret	
F 0x4178e5
0x40a39d:	pop	r14
0x40a39f:	pop	r15
0x40a3a1:	ret	
F 0x41dad1
0x407016:	ret	
F 0x41c2d9
0x40a39e:	pop	rsi
0x40a39f:	pop	r15
0x40a3a1:	ret	
F 0x41a18f
0x41a18f:	add	byte ptr [rbx + 0x7401307d], al
0x41a195:	or	bl, byte ptr [rbx + 0x5d]
0x41a198:	pop	r12
0x41a19a:	pop	r13
0x41a19c:	pop	r14
0x41a19e:	ret	
F 0x40d05a
0x40a399:	pop	r12
0x40a39b:	pop	r13
0x40a39d:	pop	r14
0x40a39f:	pop	r15
0x40a3a1:	ret	
F 0x40c8e7
0x40a399:	pop	r12
0x40a39b:	pop	r13
0x40a39d:	pop	r14
0x40a39f:	pop	r15
0x40a3a1:	ret	
F 0x40b22c
0x40b22c:	add	al, ch
0x40b22e:	scasb	al, byte ptr [rdi]
0x40b22f:	ret	
F 0x411167
0x411167:	add	rsp, 0x28
0x41116b:	pop	rbx
0x41116c:	pop	rbp
0x41116d:	ret	
F 0x41d7d4
0x41d7d4:	mov	eax, 0x48fffe9b
0x41d7d9:	mov	dword ptr [rbx + 0x58], eax
0x41d7dc:	pop	rbx
0x41d7dd:	ret	
F 0x4105b0
0x4105b0:	mov	dword ptr [rbx + 0x90], eax
0x4105b6:	pop	rbx
0x4105b7:	ret	
F 0x414323
0x40ec8b:	or	byte ptr [rbx + 0x5d], bl
0x40ec8e:	pop	r12
0x40ec90:	pop	r13
0x40ec92:	ret	
F 0x41f7fe
0x40a933:	add	rsp, 8
0x40a937:	pop	rbx
0x40a938:	pop	rbp
0x40a939:	pop	r12
0x40a93b:	pop	r13
0x40a93d:	pop	r14
0x40a93f:	pop	r15
0x40a941:	ret	
F 0x41be6d
0x408a92:	pop	rbp
0x408a93:	pop	r12
0x408a95:	pop	r13
0x408a97:	ret	
F 0x40eee6
0x40852f:	pop	rbp
0x408530:	pop	r12
0x408532:	ret	
F 0x40e843
0x40a39c:	pop	rbp
0x40a39d:	pop	r14
0x40a39f:	pop	r15
0x40a3a1:	ret	
F 0x40e587
0x40e587:	add	byte ptr [rax], al
0x40e589:	add	byte ptr [rbp + 0x56], dh
0x40e58c:	add	rsp, 0x18
0x40e590:	pop	rbp
0x40e591:	pop	r12
0x40e593:	ret	
F 0x40b48f
0x407016:	ret	
F 0x41d3d1
0x408a95:	pop	r13
0x408a97:	ret	
F 0x40c396
0x40a399:	pop	r12
0x40a39b:	pop	r13
0x40a39d:	pop	r14
0x40a39f:	pop	r15
0x40a3a1:	ret	
F 0x413e6e
0x409444:	add	byte ptr [rax], al
0x409446:	pop	rbx
0x409447:	ret	
F 0x40dabb
0x407016:	ret	
F 0x40eb43
0x40eb43:	nop	dword ptr [rax + rax]
0x40eb48:	pop	rbx
0x40eb49:	pop	rbp
0x40eb4a:	pop	r12
0x40eb4c:	ret	
F 0x40e2ec
0x40ba13:	add	dword ptr [rax], eax
0x40ba15:	add	byte ptr [rax], al
0x40ba17:	pop	rbx
0x40ba18:	pop	rbp
0x40ba19:	ret	
F 0x41746b
0x408b71:	add	rsp, 0x18
0x408b75:	ret	
F 0x41d4c9
0x41d4c9:	mov	dword ptr [rbx + 0x38], eax
0x41d4cc:	mov	eax, 1
0x41d4d1:	add	rsp, 8
0x41d4d5:	pop	rbx
0x41d4d6:	pop	rbp
0x41d4d7:	ret	
F 0x413f0a
0x413e6a:	test	byte ptr [rax], al
0x413e6c:	add	byte ptr [rax], al
0x413e6e:	add	byte ptr [rax], al
0x413e70:	pop	rbx
0x413e71:	ret	
F 0x409e89
0x409e89:	add	rsp, 0x20
0x409e8d:	pop	rbx
0x409e8e:	pop	rbp
0x409e8f:	pop	r12
0x409e91:	pop	r13
0x409e93:	pop	r14
0x409e95:	ret	
F 0x408fa8
0x408e71:	and	byte ptr [rbx + 0x5d], bl
0x408e74:	pop	r12
0x408e76:	ret	
F 0x41c6d9
0x407016:	ret	
F 0x40e58b
0x40e58b:	push	rsi
0x40e58c:	add	rsp, 0x18
0x40e590:	pop	rbp
0x40e591:	pop	r12
0x40e593:	ret	
F 0x41aab1
0x407016:	ret	
F 0x4132a8
0x408df0:	add	rsp, 8
0x408df4:	pop	rbp
0x408df5:	pop	r12
0x408df7:	ret	
F 0x40cdd6
0x40cdd6:	add	byte ptr [rax], al
0x40cdd8:	add	byte ptr [rbx + 0x5d], bl
0x40cddb:	pop	r12
0x40cddd:	ret	
F 0x40e2f0
0x4090d8:	pop	rbx
0x4090d9:	pop	rbp
0x4090da:	ret	
F 0x409712
0x409712:	mov	eax, eax
0x409714:	add	rsp, 8
0x409718:	ret	
F 0x419787
0x419787:	nop	dword ptr cs:[rax + rax]
0x419790:	add	rsp, 8
0x419794:	pop	rbx
0x419795:	pop	rbp
0x419796:	ret	
F 0x41d289
0x4117df:	add	dword ptr [rax], eax
0x4117e1:	add	rsp, 0x18
0x4117e5:	ret	
F 0x40b2e3
0x40885f:	pop	rbp
0x408860:	ret	
F 0x41d48f
0x407016:	ret	
F 0x41c6d8
0x40885f:	pop	rbp
0x408860:	ret	
F 0x40e6c2
0x408a8f:	mov	eax, esp
0x408a91:	pop	rbx
0x408a92:	pop	rbp
0x408a93:	pop	r12
0x408a95:	pop	r13
0x408a97:	ret	
F 0x412d69
0x40885f:	pop	rbp
0x408860:	ret	
F 0x413840
0x4090d4:	add	rsp, 8
0x4090d8:	pop	rbx
0x4090d9:	pop	rbp
0x4090da:	ret	
F 0x40fcb1
0x408530:	pop	r12
0x408532:	ret	
F 0x40a85e
0x40a85e:	pop	rbx
0x40a85f:	mov	eax, r13d
0x40a862:	pop	rbp
0x40a863:	pop	r12
0x40a865:	pop	r13
0x40a867:	pop	r14
0x40a869:	ret	
F 0x413f02
0x413f02:	mov	edx, 0x66000043
0x413f07:	nop	dword ptr cs:[rax + rax]
0x413f10:	pop	rbx
0x413f11:	ret	
F 0x40d870
0x409e8f:	pop	r12
0x409e91:	pop	r13
0x409e93:	pop	r14
0x409e95:	ret	
F 0x41dca4
0x40ba13:	add	dword ptr [rax], eax
0x40ba15:	add	byte ptr [rax], al
0x40ba17:	pop	rbx
0x40ba18:	pop	rbp
0x40ba19:	ret	
F 0x40881a
0x40881a:	add	byte ptr [rax - 0x7b], cl
0x40881d:	sal	byte ptr [rax + rcx - 1], 0xe0
0x408822:	nop	word ptr [rax + rax]
0x408828:	ret	
F 0x41849f
0x4088cf:	pop	rdx
0x4088d0:	pop	rcx
0x4088d1:	pop	rbp
0x4088d2:	ret	
F 0x40fbcd
0x4090d7:	or	byte ptr [rbx + 0x5d], bl
0x4090da:	ret	
F 0x418b0e
0x4087e6:	add	byte ptr [rax], al
0x4087e8:	ret	
F 0x413947
0x413947:	sal	byte ptr [rsi + rax - 0x75], 0x43
0x41394c:	pop	rbx
0x41394e:	ret	
F 0x41e92a
0x407016:	ret	
F 0x41caa2
0x41caa2:	mov	dil, 0xfe
0x41caa5:	inc	dword ptr [rcx + rcx*4 - 0x18]
0x41caa9:	pop	rbp
0x41caaa:	pop	r12
0x41caac:	pop	r13
0x41caae:	ret	
F 0x4187f5
0x407016:	ret	
F 0x40a40c
0x407016:	ret	
F 0x41258c
0x4090d8:	pop	rbx
0x4090d9:	pop	rbp
0x4090da:	ret	
F 0x40a1b6
0x40a1b6:	add	byte ptr [rax], al
0x40a1b8:	add	byte ptr [rbp + 0x7e], dh
0x40a1bb:	add	rsp, 0x10
0x40a1bf:	pop	rbx
0x40a1c0:	pop	rbp
0x40a1c1:	pop	r12
0x40a1c3:	pop	r13
0x40a1c5:	pop	r14
0x40a1c7:	ret	
F 0x41a70a
0x40bbad:	add	rsp, 0x18
0x40bbb1:	pop	rbp
0x40bbb2:	pop	r12
0x40bbb4:	ret	
F 0x415ed5
0x40885f:	pop	rbp
0x408860:	ret	
F 0x40bf1f
0x409e93:	pop	r14
0x409e95:	ret	
F 0x409147
0x4090d7:	or	byte ptr [rbx + 0x5d], bl
0x4090da:	ret	
F 0x41187d
0x41187d:	mov	eax, r14d
0x411880:	pop	rbx
0x411881:	pop	rbp
0x411882:	pop	r12
0x411884:	pop	r13
0x411886:	pop	r14
0x411888:	pop	r15
0x41188a:	ret	
F 0x41981f
0x40cdd8:	add	byte ptr [rbx + 0x5d], bl
0x40cddb:	pop	r12
0x40cddd:	ret	
F 0x41213e
0x407016:	ret	
F 0x414ea1
0x40852f:	pop	rbp
0x408530:	pop	r12
0x408532:	ret	
F 0x41d4fa
0x41ca68:	add	rsp, 8
0x41ca6c:	movzx	eax, al
0x41ca6f:	ret	
F 0x40d443
0x408e72:	pop	rbx
0x408e73:	pop	rbp
0x408e74:	pop	r12
0x408e76:	ret	
F 0x41923c
0x40a39d:	pop	r14
0x40a39f:	pop	r15
0x40a3a1:	ret	
F 0x40a1c7
0x407016:	ret	
F 0x4112c4
0x41116a:	sub	byte ptr [rbx + 0x5d], bl
0x41116d:	ret	
F 0x419e62
0x409e94:	pop	rsi
0x409e95:	ret	
F 0x41d33e
0x41d33e:	dec	dword ptr [rcx + rcx*4 - 0x20]
0x41d342:	pop	rbp
0x41d343:	pop	r12
0x41d345:	pop	r13
0x41d347:	ret	
F 0x4184fd
0x4184fd:	sub	byte ptr [rbp + 0x5d0675c0], al
0x418503:	ret	
F 0x40ea85
0x407016:	ret	
F 0x414b94
0x4090d4:	add	rsp, 8
0x4090d8:	pop	rbx
0x4090d9:	pop	rbp
0x4090da:	ret	
F 0x41861d
0x41861d:	sub	al, 0x85
0x41861f:	sal	byte ptr [rbp + 6], 0x5d
0x418623:	ret	
F 0x41d873
0x41d873:	sete	r13b
0x41d877:	mov	eax, r13d
0x41d87a:	pop	rbp
0x41d87b:	pop	r12
0x41d87d:	pop	r13
0x41d87f:	ret	
F 0x419067
0x407016:	ret	
F 0x41d4cc
0x41d4cc:	mov	eax, 1
0x41d4d1:	add	rsp, 8
0x41d4d5:	pop	rbx
0x41d4d6:	pop	rbp
0x41d4d7:	ret	
F 0x418468
0x418468:	sal	byte ptr [rbp + rdi - 0x75], 0x45
0x41846d:	sub	byte ptr [rbp + 0x5d0674c0], al
0x418473:	ret	
F 0x40dd18
0x409e8f:	pop	r12
0x409e91:	pop	r13
0x409e93:	pop	r14
0x409e95:	ret	
F 0x409beb
0x40885f:	pop	rbp
0x408860:	ret	
F 0x408e74
0x408530:	pop	r12
0x408532:	ret	
F 0x41a19c
0x409e93:	pop	r14
0x409e95:	ret	
F 0x4126fe
0x407016:	ret	
F 0x40a1c3
0x409e91:	pop	r13
0x409e93:	pop	r14
0x409e95:	ret	
F 0x41e1b4
0x41e1b4:	add	byte ptr [rax], al
0x41e1b6:	add	rsp, 0x38
0x41e1ba:	mov	rax, r12
0x41e1bd:	pop	rbx
0x41e1be:	pop	rbp
0x41e1bf:	pop	r12
0x41e1c1:	pop	r13
0x41e1c3:	pop	r14
0x41e1c5:	pop	r15
0x41e1c7:	ret	
F 0x41d3e9
0x41d3e9:	add	byte ptr [rcx + 0x66aaebc6], cl
0x41d3ef:	nop	
0x41d3f0:	mov	rax, qword ptr [rdi + 0x30]
0x41d3f4:	ret	
F 0x417cd0
0x417cd0:	pop	rdx
0x417cd1:	pop	rbp
0x417cd2:	pop	r12
0x417cd4:	pop	r13
0x417cd6:	ret	
F 0x41d251
0x408b71:	add	rsp, 0x18
0x408b75:	ret	
F 0x41116b
0x4090d8:	pop	rbx
0x4090d9:	pop	rbp
0x4090da:	ret	
F 0x40babb
0x4090d7:	or	byte ptr [rbx + 0x5d], bl
0x4090da:	ret	
F 0x40ec8e
0x408a93:	pop	r12
0x408a95:	pop	r13
0x408a97:	ret	
F 0x40ba15
0x40ba15:	add	byte ptr [rax], al
0x40ba17:	pop	rbx
0x40ba18:	pop	rbp
0x40ba19:	ret	
F 0x41daa6
0x41daa6:	add	eax, 0x13845
0x41daab:	add	rsp, 0x18
0x41daaf:	ret	
F 0x41dac3
0x41dac3:	sub	byte ptr [rcx], al
0x41dac5:	mov	eax, 1
0x41daca:	mov	dword ptr [rdi + 0x2c], esi
0x41dacd:	add	rsp, 8
0x41dad1:	ret	
F 0x41105a
0x407016:	ret	
F 0x40bcf9
0x40bcf9:	add	byte ptr [rax - 0x75], cl
0x40bcfc:	or	byte ptr [rcx], sil
0x40bcff:	shr	al, 0xbb
0x40bd02:	ret	
F 0x419c8f
0x409e91:	pop	r13
0x409e93:	pop	r14
0x409e95:	ret	
F 0x41dc0a
0x407016:	ret	
F 0x41c2dc
0x407016:	ret	
F 0x40eabf
0x407016:	ret	
F 0x40d874
0x409e93:	pop	r14
0x409e95:	ret	
F 0x41b65f
0x407016:	ret	
F 0x4196bf
0x4117df:	add	dword ptr [rax], eax
0x4117e1:	add	rsp, 0x18
0x4117e5:	ret	
F 0x4186ff
0x409e93:	pop	r14
0x409e95:	ret	
F 0x41f734
0x408a93:	pop	r12
0x408a95:	pop	r13
0x408a97:	ret	
F 0x40945f
0x408c6e:	pop	rbx
0x408c6f:	ret	
F 0x414a3f
0x407016:	ret	
F 0x41ca63
0x41ca63:	test	eax, eax
0x41ca65:	sete	al
0x41ca68:	add	rsp, 8
0x41ca6c:	movzx	eax, al
0x41ca6f:	ret	
F 0x409565
0x407016:	ret	
F 0x40a74b
0x409e8f:	pop	r12
0x409e91:	pop	r13
0x409e93:	pop	r14
0x409e95:	ret	
F 0x40a865
0x409e91:	pop	r13
0x409e93:	pop	r14
0x409e95:	ret	
F 0x41dea7
0x41dea7:	or	byte ptr [rax + 1], bh
0x41dead:	pop	rbx
0x41deae:	pop	rbp
0x41deaf:	pop	r12
0x41deb1:	pop	r13
0x41deb3:	ret	
F 0x408ed1
0x408e72:	pop	rbx
0x408e73:	pop	rbp
0x408e74:	pop	r12
0x408e76:	ret	
F 0x418755
0x418755:	inc	dword ptr [rbp + 0x480674c0]
0x41875b:	mov	eax, dword ptr [rbx + 0x48]
0x41875e:	pop	rbx
0x41875f:	ret	
F 0x41deaf
0x408a93:	pop	r12
0x408a95:	pop	r13
0x408a97:	ret	
F 0x41cf9a
0x41cf9a:	pop	r14
0x41cf9c:	pop	r15
0x41cf9e:	pop	rbp
0x41cf9f:	ret	
F 0x40ea81
0x408b71:	add	rsp, 0x18
0x408b75:	ret	
F 0x408859
0x408859:	add	eax, 0x28801
0x40885e:	add	dword ptr [rbp - 0x3d], ebx
0x408861:	nop	dword ptr [rax]
0x408868:	ret	
F 0x413fac
0x413e6c:	add	byte ptr [rax], al
0x413e6e:	add	byte ptr [rax], al
0x413e70:	pop	rbx
0x413e71:	ret	
F 0x40ebf2
0x40ebf2:	push	rbp
0x40ebf3:	add	byte ptr [rax], al
0x40ebf5:	nop	dword ptr [rax]
0x40ebf8:	pop	rbx
0x40ebf9:	pop	rbp
0x40ebfa:	pop	r12
0x40ebfc:	ret	
F 0x41f810
0x407016:	ret	
F 0x40c767
0x408ec7:	add	al, ch
0x408ec9:	ret	
F 0x40e6b7
0x408ec7:	add	al, ch
0x408ec9:	ret	
F 0x41f731
0x41f731:	mov	eax, esp
0x41f733:	pop	rbx
0x41f734:	pop	r12
0x41f736:	pop	r13
0x41f738:	ret	
F 0x41526c
0x41526c:	add	byte ptr [rax], al
0x41526e:	add	byte ptr [rax], al
0x415270:	add	rsp, 8
0x415274:	pop	rbx
0x415275:	pop	rbp
0x415276:	pop	r12
0x415278:	pop	r13
0x41527a:	pop	r14
0x41527c:	pop	r15
0x41527e:	ret	
F 0x414050
0x408c6e:	pop	rbx
0x408c6f:	ret	
F 0x414e94
0x414e94:	sar	dil, 0xff
0x414e98:	nop	dword ptr [rax + rax]
0x414ea0:	pop	rbx
0x414ea1:	pop	rbp
0x414ea2:	pop	r12
0x414ea4:	ret	
F 0x41e6ff
0x41e6ff:	pop	rbx
0x41e700:	mov	eax, 1
0x41e705:	pop	rbp
0x41e706:	pop	r12
0x41e708:	pop	r13
0x41e70a:	pop	r14
0x41e70c:	ret	
F 0x41d3d2
0x40885f:	pop	rbp
0x408860:	ret	
F 0x41c954
0x407016:	ret	
F 0x41d5d2
0x408a92:	pop	rbp
0x408a93:	pop	r12
0x408a95:	pop	r13
0x408a97:	ret	
F 0x40b22e
0x40b22e:	scasb	al, byte ptr [rdi]
0x40b22f:	ret	
F 0x408a93
0x408a93:	pop	r12
0x408a95:	pop	r13
0x408a97:	ret	
F 0x412d68
0x408a95:	pop	r13
0x408a97:	ret	
F 0x4090d3
0x4090d3:	add	rsp, 8
0x4090d8:	pop	rbx
0x4090d9:	pop	rbp
0x4090da:	ret	
F 0x41ee98
0x41ee55:	clc	
0x41ee56:	pop	rbx
0x41ee57:	pop	rbp
0x41ee58:	ret	
F 0x41eb89
0x40885f:	pop	rbp
0x408860:	ret	
F 0x41d345
0x408a95:	pop	r13
0x408a97:	ret	
F 0x41c4c5
0x41c4c5:	pop	rsi
0x41c4c6:	cmp	eax, dword ptr [rax]
0x41c4c8:	add	al, ch
0x41c4ca:	adc	dh, byte ptr [rcx - 0x6f990002]
0x41c4d0:	ret	
F 0x417fb3
0x40a39c:	pop	rbp
0x40a39d:	pop	r14
0x40a39f:	pop	r15
0x40a3a1:	ret	
F 0x414585
0x40a860:	mov	eax, ebp
0x40a862:	pop	rbp
0x40a863:	pop	r12
0x40a865:	pop	r13
0x40a867:	pop	r14
0x40a869:	ret	
F 0x4104d2
0x4104d2:	or	dh, byte ptr [rbp - 1]
0x4104d5:	inc	dword ptr [rbp + 0x480674c0]
0x4104db:	mov	eax, dword ptr [rbx + 0x78]
0x4104de:	pop	rbx
0x4104df:	ret	
F 0x413e71
0x407016:	ret	
F 0x41432a
0x407016:	ret	
F 0x408b75
0x407016:	ret	
F 0x415629
0x407016:	ret	
F 0x41138f
0x4090d4:	add	rsp, 8
0x4090d8:	pop	rbx
0x4090d9:	pop	rbp
0x4090da:	ret	
F 0x40e654
0x40885f:	pop	rbp
0x408860:	ret	
F 0x416b65
0x408825:	add	byte ptr [rax], r8b
0x408828:	ret	
F 0x417648
0x409e94:	pop	rsi
0x409e95:	ret	
F 0x413d73
0x413d73:	or	ecx, dword ptr [rax + 0x39]
0x413d76:	ret	
F 0x41d5c7
0x41d5c7:	movabs	al, byte ptr [0xc48348404389fffe]
0x41d5d0:	or	byte ptr [rbx + 0x5d], bl
0x41d5d3:	pop	r12
0x41d5d5:	pop	r13
0x41d5d7:	ret	
F 0x4154b1
0x4154b1:	mov	dword ptr [rbp + 0x68], eax
0x4154b4:	add	rsp, 8
0x4154b8:	pop	rbx
0x4154b9:	pop	rbp
0x4154ba:	pop	r12
0x4154bc:	pop	r13
0x4154be:	ret	
F 0x411530
0x40ad30:	add	rsp, 0x38
0x40ad34:	pop	rbx
0x40ad35:	pop	rbp
0x40ad36:	pop	r12
0x40ad38:	pop	r13
0x40ad3a:	pop	r14
0x40ad3c:	pop	r15
0x40ad3e:	ret	
F 0x416753
0x4090d4:	add	rsp, 8
0x4090d8:	pop	rbx
0x4090d9:	pop	rbp
0x4090da:	ret	
F 0x408f0f
0x407016:	ret	
F 0x41dff6
0x407016:	ret	
F 0x412134
0x411e54:	add	byte ptr [rax], al
0x411e56:	add	byte ptr [rax], al
0x411e58:	add	rsp, 8
0x411e5c:	pop	rbx
0x411e5d:	pop	rbp
0x411e5e:	ret	
F 0x413fae
0x409444:	add	byte ptr [rax], al
0x409446:	pop	rbx
0x409447:	ret	
F 0x4188ad
0x408c6e:	pop	rbx
0x408c6f:	ret	
F 0x408de7
0x408de7:	nop	dword ptr cs:[rax + rax]
0x408df0:	add	rsp, 8
0x408df4:	pop	rbp
0x408df5:	pop	r12
0x408df7:	ret	
F 0x4154b7
0x40ec8b:	or	byte ptr [rbx + 0x5d], bl
0x40ec8e:	pop	r12
0x40ec90:	pop	r13
0x40ec92:	ret	
F 0x414101
0x414101:	nop	dword ptr [rax]
0x414108:	add	rsp, 8
0x41410c:	pop	rbx
0x41410d:	pop	rbp
0x41410e:	pop	r12
0x414110:	pop	r13
0x414112:	ret	
F 0x40e1da
0x40d382:	xor	eax, eax
0x40d384:	pop	rbp
0x40d385:	ret	
F 0x41ecea
0x407016:	ret	
F 0x413b24
0x413b24:	or	byte ptr [rbp + 0x37], r14b
0x413b29:	pop	rbp
0x413b2a:	ret	
F 0x418aaa
0x407016:	ret	
F 0x40d056
0x40cf13:	xor	eax, eax
0x40cf15:	pop	rbx
0x40cf16:	pop	rbp
0x40cf17:	pop	r12
0x40cf19:	pop	r13
0x40cf1b:	pop	r14
0x40cf1d:	pop	r15
0x40cf1f:	ret	
F 0x418473
0x407016:	ret	
F 0x40daba
0x409e94:	pop	rsi
0x409e95:	ret	
F 0x417056
0x407016:	ret	
F 0x40914a
0x407016:	ret	
F 0x4147a6
0x4147a6:	add	byte ptr [rax], al
0x4147a8:	add	byte ptr [rbp + 0x33], dh
0x4147ab:	add	rsp, 0x10
0x4147af:	pop	rbx
0x4147b0:	ret	
F 0x40ff79
0x407016:	ret	
F 0x41ad1c
0x407016:	ret	
F 0x419a80
0x408c6e:	pop	rbx
0x408c6f:	ret	
F 0x408c65
0x408c65:	inc	dword ptr [rbp + 0x480674c0]
0x408c6b:	mov	eax, dword ptr [rbx + 0x28]
0x408c6e:	pop	rbx
0x408c6f:	ret	
F 0x41daaf
0x407016:	ret	
F 0x414317
0x414317:	nop	word ptr [rax + rax]
0x414320:	add	rsp, 8
0x414324:	pop	rbx
0x414325:	pop	rbp
0x414326:	pop	r12
0x414328:	pop	r13
0x41432a:	ret	
F 0x41c2d2
0x40a397:	pop	rbx
0x40a398:	pop	rbp
0x40a399:	pop	r12
0x40a39b:	pop	r13
0x40a39d:	pop	r14
0x40a39f:	pop	r15
0x40a3a1:	ret	
F 0x40b2d3
0x40b2d3:	add	byte ptr [rdi], cl
0x40b2d5:	test	dword ptr [rbx + 1], ecx
0x40b2d8:	add	byte ptr [rax], al
0x40b2da:	add	rsp, 0x18
0x40b2de:	pop	rbx
0x40b2df:	pop	rbp
0x40b2e0:	pop	r12
0x40b2e2:	pop	r13
0x40b2e4:	ret	
F 0x40a74a
0x409e8e:	pop	rbp
0x409e8f:	pop	r12
0x409e91:	pop	r13
0x409e93:	pop	r14
0x409e95:	ret	
F 0x41caa3
0x41caa3:	mov	bh, 0xfe
0x41caa5:	inc	dword ptr [rcx + rcx*4 - 0x18]
0x41caa9:	pop	rbp
0x41caaa:	pop	r12
0x41caac:	pop	r13
0x41caae:	ret	
F 0x417fb0
0x40a399:	pop	r12
0x40a39b:	pop	r13
0x40a39d:	pop	r14
0x40a39f:	pop	r15
0x40a3a1:	ret	
F 0x41d14a
0x40e43a:	test	byte ptr [rax], al
0x40e43c:	add	byte ptr [rax], al
0x40e43e:	add	byte ptr [rax], al
0x40e440:	ret	
F 0x411058
0x408530:	pop	r12
0x408532:	ret	
F 0x40d953
0x408a93:	pop	r12
0x408a95:	pop	r13
0x408a97:	ret	
F 0x40c167
0x40a399:	pop	r12
0x40a39b:	pop	r13
0x40a39d:	pop	r14
0x40a39f:	pop	r15
0x40a3a1:	ret	
F 0x4112c0
0x4112c0:	pop	rsi
0x4112c1:	add	rsp, 0x28
0x4112c5:	pop	rbx
0x4112c6:	pop	rbp
0x4112c7:	ret	
F 0x40bf20
0x409e94:	pop	rsi
0x409e95:	ret	
F 0x418b07
0x418b07:	nop	dword ptr cs:[rax + rax]
0x418b10:	ret	
F 0x41c3ef
0x408530:	pop	r12
0x408532:	ret	
F 0x40fbc9
0x40fbc9:	add	rsp, 8
0x40fbce:	pop	rbx
0x40fbcf:	pop	rbp
0x40fbd0:	ret	
F 0x40b88d
0x40b88d:	shr	al, 0x7d
0x40b890:	mov	ebp, 0x8948ffff
0x40b895:	add	eax, 0x257f6
0x40b89a:	add	rsp, 8
0x40b89e:	ret	
F 0x419bc8
0x408a95:	pop	r13
0x408a97:	ret	
F 0x4196f9
0x4117df:	add	dword ptr [rax], eax
0x4117e1:	add	rsp, 0x18
0x4117e5:	ret	
F 0x407012
0x407012:	add	rsp, 8
0x407016:	ret	
F 0x41116c
0x40885f:	pop	rbp
0x408860:	ret	
F 0x40f17f
0x40885f:	pop	rbp
0x408860:	ret	
F 0x414e95
0x414e95:	sar	bh, 0xff
0x414e98:	nop	dword ptr [rax + rax]
0x414ea0:	pop	rbx
0x414ea1:	pop	rbp
0x414ea2:	pop	r12
0x414ea4:	ret	
F 0x41c2d1
0x40e83d:	sbb	byte ptr [rbx + 0x5d], bl
0x40e840:	pop	r12
0x40e842:	pop	r13
0x40e844:	pop	r14
0x40e846:	pop	r15
0x40e848:	ret	
F 0x412418
0x4090d4:	add	rsp, 8
0x4090d8:	pop	rbx
0x4090d9:	pop	rbp
0x4090da:	ret	
F 0x413d48
0x408e6e:	add	rsp, 0x20
0x408e72:	pop	rbx
0x408e73:	pop	rbp
0x408e74:	pop	r12
0x408e76:	ret	
F 0x418b10
0x407016:	ret	
F 0x41bc0a
0x415626:	or	ecx, dword ptr [rax - 0x7d]
0x415629:	ret	
F 0x4198ad
0x40ec85:	add	byte ptr [rax], r8b
0x40ec88:	add	rsp, 8
0x40ec8c:	pop	rbx
0x40ec8d:	pop	rbp
0x40ec8e:	pop	r12
0x40ec90:	pop	r13
0x40ec92:	ret	
F 0x419821
0x40852f:	pop	rbp
0x408530:	pop	r12
0x408532:	ret	
F 0x41ee9b
0x407016:	ret	
F 0x41dd42
0x40ba11:	or	byte ptr [rax + 1], bh
0x40ba17:	pop	rbx
0x40ba18:	pop	rbp
0x40ba19:	ret	
F 0x40955d
0x40955d:	xor	eax, eax
0x40955f:	pop	rbx
0x409560:	test	edx, edx
0x409562:	setne	al
0x409565:	ret	
F 0x40e95f
0x409e93:	pop	r14
0x409e95:	ret	
F 0x414047
0x413e67:	nop	dword ptr cs:[rax + rax]
0x413e70:	pop	rbx
0x413e71:	ret	
F 0x4088d0
0x4088d0:	pop	rcx
0x4088d1:	pop	rbp
0x4088d2:	ret	
F 0x41ca67
0x41ca67:	ror	byte ptr [rax - 0x7d], 0xc4
0x41ca6b:	or	byte ptr [rdi], cl
0x41ca6d:	mov	dh, 0xc0
0x41ca6f:	ret	
F 0x409dbc
0x409dbc:	or	byte ptr [rcx + rcx*4 - 0x20], cl
0x409dc0:	pop	rbx
0x409dc1:	pop	rbp
0x409dc2:	pop	r12
0x409dc4:	ret	
F 0x41b077
0x41b077:	add	eax, 0x58fffec7
0x41b07c:	pop	rdx
0x41b07d:	pop	rbp
0x41b07e:	ret	
F 0x40f89c
0x408a91:	pop	rbx
0x408a92:	pop	rbp
0x408a93:	pop	r12
0x408a95:	pop	r13
0x408a97:	ret	
F 0x412ebf
0x412ebf:	nop	
0x412ec0:	pop	rbx
0x412ec1:	pop	rbp
0x412ec2:	pop	r12
0x412ec4:	pop	r13
0x412ec6:	pop	r14
0x412ec8:	ret	
F 0x41c842
0x40a39e:	pop	rsi
0x40a39f:	pop	r15
0x40a3a1:	ret	
F 0x41e926
0x40852e:	rcr	byte ptr [rbp + 0x41], 0x5c
0x408532:	ret	
F 0x41884e
0x408c6e:	pop	rbx
0x408c6f:	ret	
F 0x41ad1a
0x4090d8:	pop	rbx
0x4090d9:	pop	rbp
0x4090da:	ret	
F 0x409509
0x407016:	ret	
F 0x40eee7
0x408530:	pop	r12
0x408532:	ret	
F 0x412865
0x40ed45:	nop	dword ptr [rax]
0x40ed48:	add	rsp, 8
0x40ed4c:	pop	rbx
0x40ed4d:	pop	rbp
0x40ed4e:	ret	
F 0x4198b8
0x408a95:	pop	r13
0x408a97:	ret	
F 0x40d445
0x408530:	pop	r12
0x408532:	ret	
F 0x408ecf
0x408ecf:	sub	byte ptr [r11 + 0x5d], r11b
0x408ed3:	pop	r12
0x408ed5:	ret	
F 0x414b99
0x40885f:	pop	rbp
0x408860:	ret	
F 0x40c8e3
0x40c8e3:	mov	eax, esi
0x40c8e5:	pop	rbx
0x40c8e6:	pop	rbp
0x40c8e7:	pop	r12
0x40c8e9:	pop	r13
0x40c8eb:	pop	r14
0x40c8ed:	pop	r15
0x40c8ef:	ret	
F 0x418feb
0x418feb:	mov	dword ptr [rip + 0x18283], eax
0x418ff1:	add	rsp, 0x38
0x418ff5:	pop	rbx
0x418ff6:	pop	rbp
0x418ff7:	pop	r12
0x418ff9:	pop	r13
0x418ffb:	ret	
F 0x41aaad
0x408a93:	pop	r12
0x408a95:	pop	r13
0x408a97:	ret	
F 0x411c09
0x407016:	ret	
F 0x40ccf3
0x40ccf3:	test	al, ch
0x40ccf5:	add	byte ptr [rax], al
0x40ccf7:	add	al, ch
0x40ccf9:	ret	
F 0x40ad3e
0x407016:	ret	
F 0x41884a
0x41884a:	mov	rax, qword ptr [rbx + 0x68]
0x41884e:	pop	rbx
0x41884f:	ret	
F 0x40d86d
0x40d86d:	add	byte ptr [rbx + 0x5d], bl
0x40d870:	pop	r12
0x40d872:	pop	r13
0x40d874:	pop	r14
0x40d876:	ret	
F 0x4135c8
0x407016:	ret	
F 0x40ea7e
0x40ea7e:	add	al, byte ptr es:[rax]
0x40ea81:	add	rsp, 0x18
0x40ea85:	ret	
F 0x41047a
0x41047a:	mov	eax, dword ptr [rbx + 0x5c]
0x41047d:	pop	rbx
0x41047e:	ret	
F 0x41dd4a
0x407016:	ret	
F 0x414b0a
0x414b0a:	mov	eax, dword ptr [rbx + 0x4c]
0x414b0d:	pop	rbx
0x414b0e:	ret	
F 0x41f72f
0x41f72f:	and	byte ptr [rcx + rcx*4 - 0x20], al
0x41f733:	pop	rbx
0x41f734:	pop	r12
0x41f736:	pop	r13
0x41f738:	ret	
F 0x411e53
0x411e53:	add	byte ptr [rax], 0
0x411e56:	add	byte ptr [rax], al
0x411e58:	add	rsp, 8
0x411e5c:	pop	rbx
0x411e5d:	pop	rbp
0x411e5e:	ret	
F 0x409be9
0x409be9:	sbb	byte ptr [rbx + 0x5d], bl
0x409bec:	ret	
F 0x410daf
0x40a399:	pop	r12
0x40a39b:	pop	r13
0x40a39d:	pop	r14
0x40a39f:	pop	r15
0x40a3a1:	ret	
F 0x41c522
0x407016:	ret	
F 0x41c639
0x4117df:	add	dword ptr [rax], eax
0x4117e1:	add	rsp, 0x18
0x4117e5:	ret	
F 0x415d07
0x40bbad:	add	rsp, 0x18
0x40bbb1:	pop	rbp
0x40bbb2:	pop	r12
0x40bbb4:	ret	
F 0x413839
0x413839:	add	byte ptr [rax], al
0x41383b:	nop	dword ptr [rax + rax]
0x413840:	add	rsp, 8
0x413844:	pop	rbx
0x413845:	pop	rbp
0x413846:	ret	
F 0x41c841
0x40a39d:	pop	r14
0x40a39f:	pop	r15
0x40a3a1:	ret	
F 0x414318
0x412d58:	nop	dword ptr [rax + rax]
0x412d60:	add	rsp, 8
0x412d64:	pop	rbx
0x412d65:	pop	rbp
0x412d66:	pop	r12
0x412d68:	pop	r13
0x412d6a:	ret	
F 0x41458a
0x409e91:	pop	r13
0x409e93:	pop	r14
0x409e95:	ret	
F 0x41ad1b
0x40885f:	pop	rbp
0x408860:	ret	
F 0x41e927
0x40852f:	pop	rbp
0x408530:	pop	r12
0x408532:	ret	
F 0x4116f2
0x40885f:	pop	rbp
0x408860:	ret	
F 0x417814
0x417814:	nop	dword ptr [rax]
0x417818:	pop	rbx
0x417819:	pop	rbp
0x41781a:	pop	r12
0x41781c:	ret	
F 0x418592
0x40885f:	pop	rbp
0x408860:	ret	
F 0x41ccfa
0x407016:	ret	
F 0x4091f7
0x408a93:	pop	r12
0x408a95:	pop	r13
0x408a97:	ret	
F 0x40fe60
0x40bab6:	mov	eax, dword ptr [rax]
0x40bab8:	add	rsp, 8
0x40babc:	pop	rbx
0x40babd:	pop	rbp
0x40babe:	ret	
F 0x419236
0x40a397:	pop	rbx
0x40a398:	pop	rbp
0x40a399:	pop	r12
0x40a39b:	pop	r13
0x40a39d:	pop	r14
0x40a39f:	pop	r15
0x40a3a1:	ret	
F 0x418ff7
0x408a93:	pop	r12
0x408a95:	pop	r13
0x408a97:	ret	
F 0x408826
0x4087e6:	add	byte ptr [rax], al
0x4087e8:	ret	
F 0x413945
0x413945:	inc	dword ptr [rbp - 0x74f98b40]
0x41394b:	pop	rbx
0x41394e:	ret	
F 0x40b455
0x407016:	ret	
F 0x4087e8
0x407016:	ret	
F 0x415e2a
0x40852f:	pop	rbp
0x408530:	pop	r12
0x408532:	ret	
F 0x41b755
0x41b755:	add	al, ch
0x41b757:	and	eax, 0x58fffec0
0x41b75c:	pop	rdx
0x41b75d:	pop	rbp
0x41b75e:	ret	
F 0x41383b
0x41383b:	nop	dword ptr [rax + rax]
0x413840:	add	rsp, 8
0x413844:	pop	rbx
0x413845:	pop	rbp
0x413846:	ret	
F 0x409ab9
0x409ab9:	cmp	byte ptr [rbx + 0x5d], bl
0x409abc:	pop	r12
0x409abe:	pop	r13
0x409ac0:	ret	
F 0x4105a8
0x4105a8:	mov	rax, qword ptr [rip + 0x20b59]
0x4105af:	mov	qword ptr [rbx + 0x90], rax
0x4105b6:	pop	rbx
0x4105b7:	ret	
F 0x419bc5
0x408a92:	pop	rbp
0x408a93:	pop	r12
0x408a95:	pop	r13
0x408a97:	ret	
F 0x41144c
0x407016:	ret	
F 0x41999e
0x409444:	add	byte ptr [rax], al
0x409446:	pop	rbx
0x409447:	ret	
F 0x40fff2
0x40fff2:	test	dword ptr [rcx + 1], ecx
0x40fff5:	add	byte ptr [rax], al
0x40fff7:	add	rsp, 0x18
0x40fffb:	pop	rbx
0x40fffc:	pop	rbp
0x40fffd:	pop	r12
0x40ffff:	pop	r13
0x410001:	pop	r14
0x410003:	pop	r15
0x410005:	ret	
F 0x41923b
0x40a39c:	pop	rbp
0x40a39d:	pop	r14
0x40a39f:	pop	r15
0x40a3a1:	ret	
F 0x41dd3c
0x41dd3c:	mov	dword ptr [rbx + 0x50], eax
0x41dd3f:	add	rsp, 8
0x41dd43:	mov	eax, 1
0x41dd48:	pop	rbx
0x41dd49:	pop	rbp
0x41dd4a:	ret	
F 0x40e83d
0x40e83d:	sbb	byte ptr [rbx + 0x5d], bl
0x40e840:	pop	r12
0x40e842:	pop	r13
0x40e844:	pop	r14
0x40e846:	pop	r15
0x40e848:	ret	
F 0x4178e8
0x40a3a0:	pop	rdi
0x40a3a1:	ret	
F 0x40eab3
0x40eab3:	dec	dword ptr [rax - 0x75]
0x40eab6:	add	eax, 0x2260d
0x40eabb:	add	rsp, 0x18
0x40eabf:	ret	
F 0x412131
0x411e51:	nop	dword ptr [rax]
0x411e58:	add	rsp, 8
0x411e5c:	pop	rbx
0x411e5d:	pop	rbp
0x411e5e:	ret	
F 0x41e32b
0x407016:	ret	
F 0x40a1bb
0x40a1bb:	add	rsp, 0x10
0x40a1bf:	pop	rbx
0x40a1c0:	pop	rbp
0x40a1c1:	pop	r12
0x40a1c3:	pop	r13
0x40a1c5:	pop	r14
0x40a1c7:	ret	
F 0x40cc8d
0x408530:	pop	r12
0x408532:	ret	
F 0x40cc04
0x408e72:	pop	rbx
0x408e73:	pop	rbp
0x408e74:	pop	r12
0x408e76:	ret	
F 0x419824
0x407016:	ret	
F 0x414c7a
0x414c7a:	mov	rax, qword ptr [rbx + 0x40]
0x414c7e:	pop	rbx
0x414c7f:	ret	
F 0x414ab2
0x408c6e:	pop	rbx
0x408c6f:	ret	
F 0x40bf90
0x40bf90:	ret	0x8d48
F 0x419c8c
0x409e8e:	pop	rbp
0x409e8f:	pop	r12
0x409e91:	pop	r13
0x409e93:	pop	r14
0x409e95:	ret	
F 0x41aaab
0x417cd0:	pop	rdx
0x417cd1:	pop	rbp
0x417cd2:	pop	r12
0x417cd4:	pop	r13
0x417cd6:	ret	
F 0x4091f3
0x408a8f:	mov	eax, esp
0x408a91:	pop	rbx
0x408a92:	pop	rbp
0x408a93:	pop	r12
0x408a95:	pop	r13
0x408a97:	ret	
F 0x40a937
0x40a397:	pop	rbx
0x40a398:	pop	rbp
0x40a399:	pop	r12
0x40a39b:	pop	r13
0x40a39d:	pop	r14
0x40a39f:	pop	r15
0x40a3a1:	ret	
F 0x419105
0x407c57:	ret	0
F 0x40bbb2
0x408530:	pop	r12
0x408532:	ret	
F 0x41e20f
0x41e1f6:	add	byte ptr [rax - 0x7d], cl
0x41e1f9:	ret	
F 0x40b2d8
0x40b2d8:	add	byte ptr [rax], al
0x40b2da:	add	rsp, 0x18
0x40b2de:	pop	rbx
0x40b2df:	pop	rbp
0x40b2e0:	pop	r12
0x40b2e2:	pop	r13
0x40b2e4:	ret	
F 0x41c9c5
0x408530:	pop	r12
0x408532:	ret	
F 0x4132af
0x407016:	ret	
F 0x4189c3
0x40852f:	pop	rbp
0x408530:	pop	r12
0x408532:	ret	
F 0x41d4fe
0x41ca6c:	movzx	eax, al
0x41ca6f:	ret	
F 0x40d872
0x409e91:	pop	r13
0x409e93:	pop	r14
0x409e95:	ret	
F 0x409671
0x40885f:	pop	rbp
0x408860:	ret	
F 0x40f180
0x407016:	ret	
F 0x40c39a
0x40a39d:	pop	r14
0x40a39f:	pop	r15
0x40a3a1:	ret	
F 0x409db4
0x409db4:	or	esi, ebx
0x409db6:	or	esi, eax
0x409db8:	mov	byte ptr [r12 + 8], sil
0x409dbd:	mov	rax, r12
0x409dc0:	pop	rbx
0x409dc1:	pop	rbp
0x409dc2:	pop	r12
0x409dc4:	ret	
F 0x40b89a
0x407012:	add	rsp, 8
0x407016:	ret	
F 0x41c5ff
0x4117df:	add	dword ptr [rax], eax
0x4117e1:	add	rsp, 0x18
0x4117e5:	ret	
F 0x415ec9
0x411e51:	nop	dword ptr [rax]
0x411e58:	add	rsp, 8
0x411e5c:	pop	rbx
0x411e5d:	pop	rbp
0x411e5e:	ret	
F 0x4174d1
0x40885f:	pop	rbp
0x408860:	ret	
F 0x411f19
0x407016:	ret	
F 0x41c83d
0x40a399:	pop	r12
0x40a39b:	pop	r13
0x40a39d:	pop	r14
0x40a39f:	pop	r15
0x40a3a1:	ret	
F 0x408875
0x408875:	nop	word ptr cs:[rax + rax]
0x40887f:	nop	
0x408880:	ret	
F 0x41742a
0x41742a:	mov	rax, qword ptr [rip + 0x19d4f]
0x417431:	add	rsp, 0x18
0x417435:	ret	
F 0x41dddb
0x41dddb:	mov	qword ptr [rbx + 0x48], rax
0x41dddf:	add	rsp, 8
0x41dde3:	mov	eax, 1
0x41dde8:	pop	rbx
0x41dde9:	pop	rbp
0x41ddea:	ret	
F 0x40d74b
0x408a93:	pop	r12
0x408a95:	pop	r13
0x408a97:	ret	
F 0x41d818
0x40885f:	pop	rbp
0x408860:	ret	
F 0x410f72
0x410f72:	mov	eax, r12d
0x410f75:	pop	rbp
0x410f76:	pop	r12
0x410f78:	pop	r13
0x410f7a:	pop	r14
0x410f7c:	ret	
F 0x409726
0x409726:	or	byte ptr [rcx + rcx*4 - 0x40], cl
0x40972a:	ret	
F 0x40d502
0x40b789:	add	byte ptr [rbx + 0x5d], bl
0x40b78c:	pop	r12
0x40b78e:	pop	r13
0x40b790:	ret	
F 0x4122a4
0x411e54:	add	byte ptr [rax], al
0x411e56:	add	byte ptr [rax], al
0x411e58:	add	rsp, 8
0x411e5c:	pop	rbx
0x411e5d:	pop	rbp
0x411e5e:	ret	
F 0x40f174
0x40b2d8:	add	byte ptr [rax], al
0x40b2da:	add	rsp, 0x18
0x40b2de:	pop	rbx
0x40b2df:	pop	rbp
0x40b2e0:	pop	r12
0x40b2e2:	pop	r13
0x40b2e4:	ret	
F 0x41d440
0x41d440:	mov	qword ptr [rbx + 0x30], rax
0x41d444:	pop	rbx
0x41d445:	ret	
F 0x41d284
0x41d284:	mov	rax, qword ptr [rip + 0x1404d]
0x41d28b:	add	rsp, 0x18
0x41d28f:	ret	
F 0x40d43c
0x40d43c:	add	rsp, 0x90
0x40d443:	pop	rbx
0x40d444:	pop	rbp
0x40d445:	pop	r12
0x40d447:	ret	
F 0x40a1c4
0x409e92:	pop	rbp
0x409e93:	pop	r14
0x409e95:	ret	
F 0x41041e
0x407016:	ret	
F 0x41a093
0x407016:	ret	
F 0x41d1f8
0x40885f:	pop	rbp
0x408860:	ret	
F 0x4141a7
0x4141a7:	mov	ch, 0x3a
0x4141a9:	add	byte ptr [rax], al
0x4141ab:	nop	dword ptr [rax + rax]
0x4141b0:	pop	rbx
0x4141b1:	pop	rbp
0x4141b2:	pop	r12
0x4141b4:	ret	
F 0x40ec8b
0x40ec8b:	or	byte ptr [rbx + 0x5d], bl
0x40ec8e:	pop	r12
0x40ec90:	pop	r13
0x40ec92:	ret	
F 0x414ea4
0x407016:	ret	
F 0x41dca2
0x40ba11:	or	byte ptr [rax + 1], bh
0x40ba17:	pop	rbx
0x40ba18:	pop	rbp
0x40ba19:	ret	
F 0x41b33c
0x41820c:	pop	rdx
0x41820d:	pop	rbp
0x41820e:	ret	
F 0x41d535
0x408c65:	inc	dword ptr [rbp + 0x480674c0]
0x408c6b:	mov	eax, dword ptr [rbx + 0x28]
0x408c6e:	pop	rbx
0x408c6f:	ret	
F 0x41d4f9
0x41ca67:	ror	byte ptr [rax - 0x7d], 0xc4
0x41ca6b:	or	byte ptr [rdi], cl
0x41ca6d:	mov	dh, 0xc0
0x41ca6f:	ret	
F 0x4198b3
0x40ec8b:	or	byte ptr [rbx + 0x5d], bl
0x40ec8e:	pop	r12
0x40ec90:	pop	r13
0x40ec92:	ret	
F 0x417a14
0x409e93:	pop	r14
0x409e95:	ret	
F 0x41ccef
0x40dab0:	add	rsp, 0x18
0x40dab4:	pop	rbp
0x40dab5:	pop	r12
0x40dab7:	pop	r13
0x40dab9:	pop	r14
0x40dabb:	ret	
F 0x416e1a
0x409e87:	add	byte ptr [rax], al
0x409e89:	add	rsp, 0x20
0x409e8d:	pop	rbx
0x409e8e:	pop	rbp
0x409e8f:	pop	r12
0x409e91:	pop	r13
0x409e93:	pop	r14
0x409e95:	ret	
F 0x41cf96
0x41cf96:	pop	r12
0x41cf98:	pop	r13
0x41cf9a:	pop	r14
0x41cf9c:	pop	r15
0x41cf9e:	pop	rbp
0x41cf9f:	ret	
F 0x410f7c
0x407016:	ret	
F 0x41527b
0x40a39e:	pop	rsi
0x40a39f:	pop	r15
0x40a3a1:	ret	
F 0x414c7b
0x414c7b:	mov	eax, dword ptr [rbx + 0x40]
0x414c7e:	pop	rbx
0x414c7f:	ret	
F 0x40c169
0x40a39b:	pop	r13
0x40a39d:	pop	r14
0x40a39f:	pop	r15
0x40a3a1:	ret	
F 0x414a3b
0x414a3b:	mov	eax, dword ptr [rbx + 0x38]
0x414a3e:	pop	rbx
0x414a3f:	ret	
F 0x417fb8
0x407016:	ret	
F 0x41c8e4
0x407016:	ret	
F 0x4187ed
0x408e6e:	add	rsp, 0x20
0x408e72:	pop	rbx
0x408e73:	pop	rbp
0x408e74:	pop	r12
0x408e76:	ret	
F 0x419796
0x407016:	ret	
F 0x40a399
0x40a399:	pop	r12
0x40a39b:	pop	r13
0x40a39d:	pop	r14
0x40a39f:	pop	r15
0x40a3a1:	ret	
F 0x40e959
0x409e8d:	pop	rbx
0x409e8e:	pop	rbp
0x409e8f:	pop	r12
0x409e91:	pop	r13
0x409e93:	pop	r14
0x409e95:	ret	
F 0x41b33d
0x40885f:	pop	rbp
0x408860:	ret	
F 0x408f05
0x408f05:	inc	dword ptr [rbp + 0x480674c0]
0x408f0b:	mov	eax, dword ptr [rbx + 0x30]
0x408f0e:	pop	rbx
0x408f0f:	ret	
F 0x4178e9
0x407016:	ret	
F 0x417640
0x40a1be:	adc	byte ptr [rbx + 0x5d], bl
0x40a1c1:	pop	r12
0x40a1c3:	pop	r13
0x40a1c5:	pop	r14
0x40a1c7:	ret	
F 0x41d1b1
0x40885f:	pop	rbp
0x408860:	ret	
F 0x41ece8
0x409e93:	pop	r14
0x409e95:	ret	
F 0x413846
0x407016:	ret	
F 0x40e83a
0x40e83a:	add	rsp, 0x18
0x40e83e:	pop	rbx
0x40e83f:	pop	rbp
0x40e840:	pop	r12
0x40e842:	pop	r13
0x40e844:	pop	r14
0x40e846:	pop	r15
0x40e848:	ret	
F 0x41bc7f
0x408a92:	pop	rbp
0x408a93:	pop	r12
0x408a95:	pop	r13
0x408a97:	ret	
F 0x41cec4
0x41cec4:	add	dword ptr [r8], eax
0x41cec7:	ret	
F 0x41dca7
0x40ba16:	add	byte ptr [rbx + 0x5d], bl
0x40ba19:	ret	
F 0x41d30d
0x407016:	ret	
F 0x40a860
0x40a860:	mov	eax, ebp
0x40a862:	pop	rbp
0x40a863:	pop	r12
0x40a865:	pop	r13
0x40a867:	pop	r14
0x40a869:	ret	
F 0x41dbff
0x40ba0e:	add	rsp, 8
0x40ba12:	mov	eax, 1
0x40ba17:	pop	rbx
0x40ba18:	pop	rbp
0x40ba19:	ret	
F 0x419fd1
0x407016:	ret	
F 0x41ca26
0x41ca26:	or	dword ptr [rax + 1], edi
0x41ca2c:	pop	rbp
0x41ca2d:	ret	
F 0x41d1af
0x4088cf:	pop	rdx
0x4088d0:	pop	rcx
0x4088d1:	pop	rbp
0x4088d2:	ret	
F 0x41c63f
0x407016:	ret	
F 0x41d53f
0x407016:	ret	
F 0x41ae8c
0x407016:	ret	
F 0x40d6a6
0x40d6a6:	add	rsp, 0x10
0x40d6aa:	pop	rbp
0x40d6ab:	pop	r12
0x40d6ad:	pop	r13
0x40d6af:	ret	
F 0x40dd12
0x40a1bb:	add	rsp, 0x10
0x40a1bf:	pop	rbx
0x40a1c0:	pop	rbp
0x40a1c1:	pop	r12
0x40a1c3:	pop	r13
0x40a1c5:	pop	r14
0x40a1c7:	ret	
F 0x413fb0
0x408c6e:	pop	rbx
0x408c6f:	ret	
F 0x41ee58
0x407016:	ret	
F 0x41742b
0x41742b:	mov	eax, dword ptr [rip + 0x19d4f]
0x417431:	add	rsp, 0x18
0x417435:	ret	
F 0x409d1a
0x409d1a:	add	rsp, 0x28
0x409d1e:	xor	eax, eax
0x409d20:	pop	rbx
0x409d21:	pop	rbp
0x409d22:	ret	
F 0x41ca2d
0x407016:	ret	
F 0x40a3a0
0x40a3a0:	pop	rdi
0x40a3a1:	ret	
F 0x40881d
0x40881d:	sal	byte ptr [rax + rcx - 1], 0xe0
0x408822:	nop	word ptr [rax + rax]
0x408828:	ret	
F 0x4141b1
0x40852f:	pop	rbp
0x408530:	pop	r12
0x408532:	ret	
F 0x40ec81
0x40ec81:	add	byte ptr [rax], al
0x40ec83:	nop	dword ptr [rax + rax]
0x40ec88:	add	rsp, 8
0x40ec8c:	pop	rbx
0x40ec8d:	pop	rbp
0x40ec8e:	pop	r12
0x40ec90:	pop	r13
0x40ec92:	ret	
F 0x41a2ef
0x408a92:	pop	rbp
0x408a93:	pop	r12
0x408a95:	pop	r13
0x408a97:	ret	
F 0x41ee52
0x41ee52:	or	byte ptr [rax - 0x77], cl
0x41ee55:	clc	
0x41ee56:	pop	rbx
0x41ee57:	pop	rbp
0x41ee58:	ret	
F 0x410dac
0x410dac:	sub	byte ptr [rbx + 0x5d], bl
0x410daf:	pop	r12
0x410db1:	pop	r13
0x410db3:	pop	r14
0x410db5:	pop	r15
0x410db7:	ret	
F 0x4135c5
0x40aba0:	dec	dword ptr [rax - 0x77]
0x40aba3:	ret	
F 0x40e0d2
0x407016:	ret	
F 0x4154b9
0x408a92:	pop	rbp
0x408a93:	pop	r12
0x408a95:	pop	r13
0x408a97:	ret	
F 0x40ffff
0x40a39b:	pop	r13
0x40a39d:	pop	r14
0x40a39f:	pop	r15
0x40a3a1:	ret	
F 0x41d450
0x41d450:	mov	rax, qword ptr [rdi + 0x38]
0x41d454:	ret	
F 0x40ec88
0x40ec88:	add	rsp, 8
0x40ec8c:	pop	rbx
0x40ec8d:	pop	rbp
0x40ec8e:	pop	r12
0x40ec90:	pop	r13
0x40ec92:	ret	
F 0x40852f
0x40852f:	pop	rbp
0x408530:	pop	r12
0x408532:	ret	
F 0x41d4f4
0x41d4f4:	test	rax, rax
0x41d4f7:	setne	al
0x41d4fa:	add	rsp, 8
0x41d4fe:	movzx	eax, al
0x41d501:	ret	
F 0x409717
0x409717:	or	bl, al
0x409719:	nop	dword ptr [rax]
0x409720:	xor	r8d, r8d
0x409723:	add	rsp, 8
0x409727:	mov	rax, r8
0x40972a:	ret	
F 0x41db5e
0x41db5e:	add	rsp, 8
0x41db63:	mov	eax, 1
0x41db68:	pop	rbx
0x41db69:	pop	rbp
0x41db6a:	ret	
F 0x40e434
0x4090d7:	or	byte ptr [rbx + 0x5d], bl
0x4090da:	ret	
F 0x41d1f9
0x407016:	ret	
F 0x40955b
0x40955b:	push	rbx
0x40955c:	xor	eax, r8d
0x40955f:	pop	rbx
0x409560:	test	edx, edx
0x409562:	setne	al
0x409565:	ret	
F 0x41d148
0x40e438:	nop	dword ptr [rax + rax]
0x40e440:	ret	
F 0x40e6b5
0x40e6b5:	sbb	dword ptr [rcx], eax
0x40e6b7:	add	al, ch
0x40e6b9:	ret	
F 0x41d4d7
0x407016:	ret	
F 0x413b26
0x413b26:	or	byte ptr [rbp + 0x37], dh
0x413b29:	pop	rbp
0x413b2a:	ret	
F 0x40e844
0x40a39d:	pop	r14
0x40a39f:	pop	r15
0x40a3a1:	ret	
F 0x41840c
0x41820c:	pop	rdx
0x41820d:	pop	rbp
0x41820e:	ret	
F 0x41bc0d
0x407016:	ret	
F 0x418700
0x409e94:	pop	rsi
0x409e95:	ret	
F 0x41d877
0x41caa6:	mov	eax, r13d
0x41caa9:	pop	rbp
0x41caaa:	pop	r12
0x41caac:	pop	r13
0x41caae:	ret	
F 0x416cae
0x409444:	add	byte ptr [rax], al
0x409446:	pop	rbx
0x409447:	ret	
F 0x4111e7
0x4111e7:	add	byte ptr [rax], al
0x4111e9:	add	byte ptr [rbp + 0x17], dh
0x4111ec:	add	rsp, 0x18
0x4111f0:	pop	rbx
0x4111f1:	pop	rbp
0x4111f2:	ret	
F 0x41c63b
0x408b71:	add	rsp, 0x18
0x408b75:	ret	
F 0x41981b
0x40eb43:	nop	dword ptr [rax + rax]
0x40eb48:	pop	rbx
0x40eb49:	pop	rbp
0x40eb4a:	pop	r12
0x40eb4c:	ret	
F 0x411e58
0x4090d4:	add	rsp, 8
0x4090d8:	pop	rbx
0x4090d9:	pop	rbp
0x4090da:	ret	
F 0x41b07e
0x407016:	ret	
F 0x4116e4
0x4116e4:	add	byte ptr [rbp + 0x4d], dh
0x4116e7:	add	rsp, 0xa0
0x4116ee:	pop	rbp
0x4116ef:	pop	r12
0x4116f1:	pop	r13
0x4116f3:	ret	
F 0x41eb8a
0x407016:	ret	
F 0x417465
0x417465:	mov	eax, dword ptr [rip + 0x19d15]
0x41746b:	add	rsp, 0x18
0x41746f:	ret	
F 0x40a869
0x407016:	ret	
F 0x40885e
0x40885e:	add	dword ptr [rbp - 0x3d], ebx
0x408861:	nop	dword ptr [rax]
0x408868:	ret	
F 0x41be72
0x407016:	ret	
F 0x4087dc
0x4087dc:	sal	byte ptr [rcx + rcx - 1], 0xe0
0x4087e1:	nop	dword ptr [rax]
0x4087e8:	ret	
F 0x417645
0x409e91:	pop	r13
0x409e93:	pop	r14
0x409e95:	ret	
F 0x41d30c
0x40885f:	pop	rbp
0x408860:	ret	
F 0x41ecdf
0x40bf16:	add	rsp, 8
0x40bf1a:	pop	rbp
0x40bf1b:	pop	r12
0x40bf1d:	pop	r13
0x40bf1f:	pop	r14
0x40bf21:	ret	
F 0x40dab4
0x409e8e:	pop	rbp
0x409e8f:	pop	r12
0x409e91:	pop	r13
0x409e93:	pop	r14
0x409e95:	ret	
F 0x41178a
0x41178a:	add	byte ptr [rax], al
0x41178c:	add	byte ptr [rax], al
0x41178e:	xor	eax, eax
0x411790:	pop	rbx
0x411791:	ret	
F 0x411e5d
0x40885f:	pop	rbp
0x408860:	ret	
F 0x417a16
0x407016:	ret	
F 0x40e43c
0x4087e4:	add	byte ptr [rax], al
0x4087e6:	add	byte ptr [rax], al
0x4087e8:	ret	
F 0x412ec7
0x409e94:	pop	rsi
0x409e95:	ret	
F 0x413f06
0x413e66:	nop	word ptr cs:[rax + rax]
0x413e70:	pop	rbx
0x413e71:	ret	
F 0x415f1b
0x407016:	ret	
F 0x41e747
0x41e747:	add	byte ptr [rax], al
0x41e749:	xor	eax, eax
0x41e74b:	pop	rbx
0x41e74c:	pop	rbp
0x41e74d:	pop	r12
0x41e74f:	pop	r13
0x41e751:	pop	r14
0x41e753:	ret	
F 0x419df6
0x407016:	ret	
F 0x40b781
0x40b781:	add	byte ptr [rax], al
0x40b783:	add	rsp, 0xa8
0x40b78a:	pop	rbx
0x40b78b:	pop	rbp
0x40b78c:	pop	r12
0x40b78e:	pop	r13
0x40b790:	ret	
F 0x41188a
0x407016:	ret	
F 0x40ad36
0x40a399:	pop	r12
0x40a39b:	pop	r13
0x40a39d:	pop	r14
0x40a39f:	pop	r15
0x40a3a1:	ret	
F 0x417424
0x417424:	or	byte ptr [rax - 0x7b], cl
0x417427:	sal	byte ptr [rsi + rdx + 0x48], 0x8b
0x41742c:	add	eax, 0x19d4f
0x417431:	add	rsp, 0x18
0x417435:	ret	
F 0x40f176
0x40a0d3:	add	rsp, 0x18
0x40a0d7:	pop	rbx
0x40a0d8:	pop	rbp
0x40a0d9:	pop	r12
0x40a0db:	pop	r13
0x40a0dd:	ret	
F 0x41a193
0x41a193:	add	dword ptr [rdx + rcx + 0x5b], esi
0x41a197:	pop	rbp
0x41a198:	pop	r12
0x41a19a:	pop	r13
0x41a19c:	pop	r14
0x41a19e:	ret	
F 0x41c561
0x41c561:	mov	qword ptr [rax + 0x198], rdx
0x41c568:	pop	rbp
0x41c569:	ret	
F 0x4105b4
0x409444:	add	byte ptr [rax], al
0x409446:	pop	rbx
0x409447:	ret	
F 0x408e72
0x408e72:	pop	rbx
0x408e73:	pop	rbp
0x408e74:	pop	r12
0x408e76:	ret	
F 0x41ba1e
0x407016:	ret	
F 0x419a09
0x416ca9:	nop	dword ptr [rax]
0x416cb0:	pop	rbx
0x416cb1:	ret	
F 0x40c15c
0x40c15c:	add	byte ptr [rax], al
0x40c15e:	add	byte ptr [rbp + 0x65], dh
0x40c161:	add	rsp, 0x38
0x40c165:	pop	rbx
0x40c166:	pop	rbp
0x40c167:	pop	r12
0x40c169:	pop	r13
0x40c16b:	pop	r14
0x40c16d:	pop	r15
0x40c16f:	ret	
F 0x415270
0x40a933:	add	rsp, 8
0x40a937:	pop	rbx
0x40a938:	pop	rbp
0x40a939:	pop	r12
0x40a93b:	pop	r13
0x40a93d:	pop	r14
0x40a93f:	pop	r15
0x40a941:	ret	
F 0x41742c
0x41742c:	add	eax, 0x19d4f
0x417431:	add	rsp, 0x18
0x417435:	ret	
F 0x41d4d1
0x4090d4:	add	rsp, 8
0x4090d8:	pop	rbx
0x4090d9:	pop	rbp
0x4090da:	ret	
F 0x41e5c8
0x41e328:	or	byte ptr [rax - 0x7d], cl
0x41e32b:	ret	
F 0x41394c
0x41394c:	pop	rbx
0x41394e:	ret	
F 0x4111f1
0x40885f:	pop	rbp
0x408860:	ret	
F 0x41bc84
0x407016:	ret	
F 0x40d440
0x40cdd6:	add	byte ptr [rax], al
0x40cdd8:	add	byte ptr [rbx + 0x5d], bl
0x40cddb:	pop	r12
0x40cddd:	ret	
F 0x41a2ee
0x417cd0:	pop	rdx
0x417cd1:	pop	rbp
0x417cd2:	pop	r12
0x417cd4:	pop	r13
0x417cd6:	ret	
F 0x40ba18
0x40885f:	pop	rbp
0x408860:	ret	
F 0x40c933
0x40c933:	mov	dl, 0xff
0x40c935:	dec	dword ptr [rax - 0x77]
0x40c938:	ret	
F 0x40e43e
0x4087e6:	add	byte ptr [rax], al
0x4087e8:	ret	
F 0x408c6e
0x408c6e:	pop	rbx
0x408c6f:	ret	
F 0x411815
0x411815:	mov	eax, dword ptr [rip + 0x1f8cd]
0x41181b:	add	rsp, 0x18
0x41181f:	ret	
F 0x40b858
0x407016:	ret	
F 0x40e438
0x40e438:	nop	dword ptr [rax + rax]
0x40e440:	ret	
F 0x4104df
0x407016:	ret	
F 0x416c45
0x407016:	ret	
F 0x408a8f
0x408a8f:	mov	eax, esp
0x408a91:	pop	rbx
0x408a92:	pop	rbp
0x408a93:	pop	r12
0x408a95:	pop	r13
0x408a97:	ret	
F 0x40add0
0x407016:	ret	
F 0x41af1d
0x40885f:	pop	rbp
0x408860:	ret	
F 0x40d441
0x40cdd7:	add	byte ptr [rax], al
0x40cdd9:	pop	rbx
0x40cdda:	pop	rbp
0x40cddb:	pop	r12
0x40cddd:	ret	
F 0x417bd7
0x417bd7:	xor	byte ptr [rbp + 0xe], dh
0x417bda:	add	rsp, 8
0x417bde:	pop	rbp
0x417bdf:	pop	r12
0x417be1:	ret	
F 0x414ea2
0x408530:	pop	r12
0x408532:	ret	
F 0x416c39
0x416c39:	adc	dword ptr [rdi + rdi*8], -1
0x416c3d:	add	rsp, 0x20
0x416c41:	pop	rbx
0x416c42:	pop	rbp
0x416c43:	pop	r12
0x416c45:	ret	
F 0x410f93
0x409e8f:	pop	r12
0x409e91:	pop	r13
0x409e93:	pop	r14
0x409e95:	ret	
F 0x417643
0x409e8f:	pop	r12
0x409e91:	pop	r13
0x409e93:	pop	r14
0x409e95:	ret	
F 0x40ccf7
0x408ec7:	add	al, ch
0x408ec9:	ret	
F 0x41a19b
0x409e92:	pop	rbp
0x409e93:	pop	r14
0x409e95:	ret	
F 0x41ea21
0x40cc87:	mov	eax, 1
0x40cc8c:	pop	rbp
0x40cc8d:	pop	r12
0x40cc8f:	ret	
F 0x418650
0x4088d0:	pop	rcx
0x4088d1:	pop	rbp
0x4088d2:	ret	
F 0x40ad33
0x40ad33:	cmp	byte ptr [rbx + 0x5d], bl
0x40ad36:	pop	r12
0x40ad38:	pop	r13
0x40ad3a:	pop	r14
0x40ad3c:	pop	r15
0x40ad3e:	ret	
F 0x408828
0x407016:	ret	
F 0x41e5bf
0x41e5bf:	add	al, ch
0x41e5c1:	sbb	ebx, dword ptr [rsi + rdi*8 + 0x7b8b48ff]
0x41e5c8:	or	byte ptr [rax - 0x7d], cl
0x41e5cb:	ret	
F 0x40c16a
0x40a39c:	pop	rbp
0x40a39d:	pop	r14
0x40a39f:	pop	r15
0x40a3a1:	ret	
F 0x40a936
0x40a936:	or	byte ptr [rbx + 0x5d], bl
0x40a939:	pop	r12
0x40a93b:	pop	r13
0x40a93d:	pop	r14
0x40a93f:	pop	r15
0x40a941:	ret	
F 0x41f80c
0x407016:	ret	
F 0x41a502
0x408a95:	pop	r13
0x408a97:	ret	
F 0x41ca60
0x41ca60:	mov	bh, 0xfe
0x41ca62:	inc	dword ptr [rbp - 0x3f6bf040]
0x41ca68:	add	rsp, 8
0x41ca6c:	movzx	eax, al
0x41ca6f:	ret	
F 0x4122a1
0x411e51:	nop	dword ptr [rax]
0x411e58:	add	rsp, 8
0x411e5c:	pop	rbx
0x411e5d:	pop	rbp
0x411e5e:	ret	
F 0x4091fb
0x407016:	ret	
F 0x41ccf9
0x409e94:	pop	rsi
0x409e95:	ret	
F 0x414cfb
0x414cfb:	add	byte ptr [rbx + 0x5d], bl
0x414cfe:	mov	dword ptr [r12], eax
0x414d02:	pop	r12
0x414d04:	ret	
F 0x412bb8
0x412bb8:	nop	dword ptr [rax + rax]
0x412bc0:	add	rsp, 8
0x412bc4:	pop	rbx
0x412bc5:	pop	rbp
0x412bc6:	ret	
F 0x41da6b
0x41da6b:	mov	eax, dword ptr [rip + 0x1387f]
0x41da71:	add	rsp, 0x18
0x41da75:	ret	
F 0x415e2b
0x408530:	pop	r12
0x408532:	ret	
F 0x41c5fa
0x41c5fa:	mov	rax, qword ptr [rip + 0x14c77]
0x41c601:	add	rsp, 0x18
0x41c605:	ret	
F 0x418fed
0x418fed:	add	dword ptr [rdx - 0x7cb7ffff], -0x3c
0x418ff4:	cmp	byte ptr [rbx + 0x5d], bl
0x418ff7:	pop	r12
0x418ff9:	pop	r13
0x418ffb:	ret	
F 0x411fcd
0x40885f:	pop	rbp
0x408860:	ret	
F 0x41875d
0x41394c:	pop	rbx
0x41394e:	ret	
F 0x408b37
0x40885f:	pop	rbp
0x408860:	ret	
F 0x40dab9
0x409e93:	pop	r14
0x409e95:	ret	
F 0x412925
0x407016:	ret	
F 0x41ca41
0x41ca28:	add	dword ptr [rax], eax
0x41ca2a:	add	byte ptr [rax], al
0x41ca2c:	pop	rbp
0x41ca2d:	ret	
F 0x412924
0x40885f:	pop	rbp
0x408860:	ret	
F 0x415738
0x415738:	or	byte ptr [rbp + 0x44], r14b
0x41573c:	pop	rbp
0x41573d:	ret	
F 0x41884f
0x407016:	ret	
F 0x40b893
0x40b893:	mov	qword ptr [rip + 0x257f6], rax
0x40b89a:	add	rsp, 8
0x40b89e:	ret	
F 0x416bdc
0x408e72:	pop	rbx
0x408e73:	pop	rbp
0x408e74:	pop	r12
0x408e76:	ret	
F 0x41d5ca
0x41d5ca:	mov	dword ptr [rbx + 0x40], eax
0x41d5cd:	add	rsp, 8
0x41d5d1:	pop	rbx
0x41d5d2:	pop	rbp
0x41d5d3:	pop	r12
0x41d5d5:	pop	r13
0x41d5d7:	ret	
F 0x41138a
0x41138a:	or	byte ptr [rbp + 0x11], r14b
0x41138f:	add	rsp, 8
0x411393:	pop	rbx
0x411394:	pop	rbp
0x411395:	ret	
F 0x40f17a
0x408a91:	pop	rbx
0x408a92:	pop	rbp
0x408a93:	pop	r12
0x408a95:	pop	r13
0x408a97:	ret	
F 0x41404e
0x409444:	add	byte ptr [rax], al
0x409446:	pop	rbx
0x409447:	ret	
F 0x41c94e
0x41c94e:	add	rsp, 0x38
0x41c952:	pop	rbx
0x41c953:	pop	rbp
0x41c954:	ret	
F 0x408866
0x4087e6:	add	byte ptr [rax], al
0x4087e8:	ret	
F 0x41c3f1
0x407016:	ret	
F 0x41d28b
0x408b71:	add	rsp, 0x18
0x408b75:	ret	
F 0x40c769
0x407016:	ret	
F 0x4126fc
0x4090d8:	pop	rbx
0x4090d9:	pop	rbp
0x4090da:	ret	
F 0x41ee93
0x41ee93:	or	byte ptr [rcx], dh
0x41ee95:	dec	dword ptr [rax - 0x77]
0x41ee98:	clc	
0x41ee99:	pop	rbx
0x41ee9a:	pop	rbp
0x41ee9b:	ret	
F 0x41c634
0x41c634:	mov	rax, qword ptr [rip + 0x14c3d]
0x41c63b:	add	rsp, 0x18
0x41c63f:	ret	
F 0x41f733
0x41f733:	pop	rbx
0x41f734:	pop	r12
0x41f736:	pop	r13
0x41f738:	ret	
F 0x41b49e
0x407016:	ret	
F 0x40d94b
0x40d94b:	add	byte ptr [rbp + 0x42], dh
0x40d94e:	add	rsp, 0x10
0x40d952:	pop	rbp
0x40d953:	pop	r12
0x40d955:	pop	r13
0x40d957:	ret	
F 0x41d286
0x41d286:	add	eax, 0x1404d
0x41d28b:	add	rsp, 0x18
0x41d28f:	ret	
F 0x41d87a
0x408a92:	pop	rbp
0x408a93:	pop	r12
0x408a95:	pop	r13
0x408a97:	ret	
F 0x411d49
0x40852f:	pop	rbp
0x408530:	pop	r12
0x408532:	ret	
F 0x40dd16
0x409e8d:	pop	rbx
0x409e8e:	pop	rbp
0x409e8f:	pop	r12
0x409e91:	pop	r13
0x409e93:	pop	r14
0x409e95:	ret	
F 0x414c3f
0x40bbad:	add	rsp, 0x18
0x40bbb1:	pop	rbp
0x40bbb2:	pop	r12
0x40bbb4:	ret	
F 0x40d6a1
0x40d6a1:	add	byte ptr [rax], al
0x40d6a3:	add	byte ptr [rbp + 0xa], dh
0x40d6a6:	add	rsp, 0x10
0x40d6aa:	pop	rbp
0x40d6ab:	pop	r12
0x40d6ad:	pop	r13
0x40d6af:	ret	
F 0x408823
0x408823:	nop	dword ptr [rax + rax]
0x408828:	ret	
F 0x40e0cd
0x408a92:	pop	rbp
0x408a93:	pop	r12
0x408a95:	pop	r13
0x408a97:	ret	
F 0x41dde7
0x40ba16:	add	byte ptr [rbx + 0x5d], bl
0x40ba19:	ret	
F 0x40fd0c
0x407016:	ret	
F 0x408a97
0x407016:	ret	
F 0x40e58c
0x40bbad:	add	rsp, 0x18
0x40bbb1:	pop	rbp
0x40bbb2:	pop	r12
0x40bbb4:	ret	
F 0x40cdd4
0x40cdd4:	mov	eax, 1
0x40cdd9:	pop	rbx
0x40cdda:	pop	rbp
0x40cddb:	pop	r12
0x40cddd:	ret	
F 0x414aa9
0x414aa9:	nop	dword ptr [rax]
0x414ab0:	xor	eax, eax
0x414ab2:	pop	rbx
0x414ab3:	ret	
F 0x40c395
0x40a398:	pop	rbp
0x40a399:	pop	r12
0x40a39b:	pop	r13
0x40a39d:	pop	r14
0x40a39f:	pop	r15
0x40a3a1:	ret	
F 0x41c55b
0x41c55b:	lea	edx, [rip + 0x2f]
0x41c561:	mov	qword ptr [rax + 0x198], rdx
0x41c568:	pop	rbp
0x41c569:	ret	
F 0x40e0ce
0x408a93:	pop	r12
0x408a95:	pop	r13
0x408a97:	ret	
F 0x41ca46
0x407016:	ret	
F 0x40a39c
0x40a39c:	pop	rbp
0x40a39d:	pop	r14
0x40a39f:	pop	r15
0x40a3a1:	ret	
F 0x408c6b
0x408c6b:	mov	eax, dword ptr [rbx + 0x28]
0x408c6e:	pop	rbx
0x408c6f:	ret	
F 0x415f17
0x415f17:	mov	qword ptr [rdi + 0x10], rax
0x415f1b:	ret	
F 0x408ec6
0x408ec6:	add	al, bpl
0x408ec9:	ret	
F 0x41c844
0x40a3a0:	pop	rdi
0x40a3a1:	ret	
F 0x415d0b
0x40852f:	pop	rbp
0x408530:	pop	r12
0x408532:	ret	
F 0x41f803
0x40a398:	pop	rbp
0x40a399:	pop	r12
0x40a39b:	pop	r13
0x40a39d:	pop	r14
0x40a39f:	pop	r15
0x40a3a1:	ret	
F 0x41d28f
0x407016:	ret	
F 0x41a08f
0x409e91:	pop	r13
0x409e93:	pop	r14
0x409e95:	ret	
F 0x41dbfc
0x41dbfc:	mov	dword ptr [rbx + 0x30], eax
0x41dbff:	add	rsp, 8
0x41dc03:	mov	eax, 1
0x41dc08:	pop	rbx
0x41dc09:	pop	rbp
0x41dc0a:	ret	
F 0x413e63
0x413e63:	add	byte ptr [r8], al
0x413e66:	nop	word ptr cs:[rax + rax]
0x413e70:	pop	rbx
0x413e71:	ret	
F 0x412ec8
0x407016:	ret	
F 0x416bdb
0x416bdb:	pop	rbx
0x416bdd:	pop	rbp
0x416bde:	pop	r12
0x416be0:	ret	
F 0x417461
0x417461:	or	edi, edi
0x417463:	dec	dword ptr [rax - 0x75]
0x417466:	add	eax, 0x19d15
0x41746b:	add	rsp, 0x18
0x41746f:	ret	
F 0x416ca6
0x416ca6:	pop	rdx
0x416ca7:	add	byte ptr [rax], al
0x416ca9:	nop	dword ptr [rax]
0x416cb0:	pop	rbx
0x416cb1:	ret	
F 0x416757
0x4090d8:	pop	rbx
0x4090d9:	pop	rbp
0x4090da:	ret	
F 0x411445
0x40bbad:	add	rsp, 0x18
0x40bbb1:	pop	rbp
0x40bbb2:	pop	r12
0x40bbb4:	ret	
F 0x4148b3
0x407016:	ret	
F 0x41dfc2
0x41dfc2:	add	dword ptr [r8 - 0x7d], ecx
0x41dfc6:	ret	
F 0x41dcaa
0x407016:	ret	
F 0x419786
0x419786:	nop	word ptr cs:[rax + rax]
0x419790:	add	rsp, 8
0x419794:	pop	rbx
0x419795:	pop	rbp
0x419796:	ret	
F 0x413e64
0x413e64:	add	byte ptr [rax], al
0x413e66:	nop	word ptr cs:[rax + rax]
0x413e70:	pop	rbx
0x413e71:	ret	
F 0x419776
0x419776:	xchg	eax, esi
0x419777:	ret	
F 0x41286d
0x40885f:	pop	rbp
0x408860:	ret	
F 0x40ad30
0x40ad30:	add	rsp, 0x38
0x40ad34:	pop	rbx
0x40ad35:	pop	rbp
0x40ad36:	pop	r12
0x40ad38:	pop	r13
0x40ad3a:	pop	r14
0x40ad3c:	pop	r15
0x40ad3e:	ret	
F 0x419820
0x408e72:	pop	rbx
0x408e73:	pop	rbp
0x408e74:	pop	r12
0x408e76:	ret	
F 0x41f72c
0x41f72c:	add	rsp, 0x20
0x41f730:	mov	eax, r12d
0x41f733:	pop	rbx
0x41f734:	pop	r12
0x41f736:	pop	r13
0x41f738:	ret	
F 0x41458d
0x409e94:	pop	rsi
0x409e95:	ret	
F 0x41410d
0x408a92:	pop	rbp
0x408a93:	pop	r12
0x408a95:	pop	r13
0x408a97:	ret	
F 0x4188a7
0x4188a7:	sal	byte ptr [rsi + rax - 0x75], 0x43
0x4188ac:	sub	al, 0x5b
0x4188ae:	ret	
F 0x40971c
0x40971c:	add	byte ptr [rax], al
0x40971e:	add	byte ptr [rax], al
0x409720:	xor	r8d, r8d
0x409723:	add	rsp, 8
0x409727:	mov	rax, r8
0x40972a:	ret	
F 0x40a868
0x409e94:	pop	rsi
0x409e95:	ret	
F 0x411790
0x408c6e:	pop	rbx
0x408c6f:	ret	
F 0x414966
0x407016:	ret	
F 0x41c1b8
0x40852f:	pop	rbp
0x408530:	pop	r12
0x408532:	ret	
F 0x4196fb
0x408b71:	add	rsp, 0x18
0x408b75:	ret	
F 0x410003
0x40a39f:	pop	r15
0x40a3a1:	ret	
F 0x41eb85
0x408a92:	pop	rbp
0x408a93:	pop	r12
0x408a95:	pop	r13
0x408a97:	ret	
F 0x411881
0x40a398:	pop	rbp
0x40a399:	pop	r12
0x40a39b:	pop	r13
0x40a39d:	pop	r14
0x40a39f:	pop	r15
0x40a3a1:	ret	
F 0x41c6d6
0x41c6d6:	pop	rbx
0x41c6d8:	pop	rbp
0x41c6d9:	ret	
F 0x40b485
0x40b485:	mov	eax, dword ptr [rip + 0x25c0d]
0x40b48b:	add	rsp, 0x18
0x40b48f:	ret	
F 0x41dea9
0x41dea9:	add	dword ptr [rax], eax
0x41deab:	add	byte ptr [rax], al
0x41dead:	pop	rbx
0x41deae:	pop	rbp
0x41deaf:	pop	r12
0x41deb1:	pop	r13
0x41deb3:	ret	
F 0x4196f3
0x4196f3:	dec	dword ptr [rax - 0x75]
0x4196f6:	add	eax, 0x17b25
0x4196fb:	add	rsp, 0x18
0x4196ff:	ret	
F 0x41dddd
0x41dddd:	add	rsp, 8
0x41dde3:	mov	eax, 1
0x41dde8:	pop	rbx
0x41dde9:	pop	rbp
0x41ddea:	ret	
F 0x411d4c
0x407016:	ret	
F 0x411393
0x4090d8:	pop	rbx
0x4090d9:	pop	rbp
0x4090da:	ret	
F 0x41d780
0x4088d0:	pop	rcx
0x4088d1:	pop	rbp
0x4088d2:	ret	
F 0x41daa5
0x41daa5:	mov	eax, dword ptr [rip + 0x13845]
0x41daab:	add	rsp, 0x18
0x41daaf:	ret	
F 0x40887b
0x40887b:	add	byte ptr [rax], al
0x40887d:	add	byte ptr [rax], al
0x40887f:	nop	
0x408880:	ret	
F 0x408b67
0x408b67:	sal	byte ptr [rsi + rdx + 0x48], 0x8b
0x408b6c:	add	eax, 0x284ff
0x408b71:	add	rsp, 0x18
0x408b75:	ret	
F 0x41d4c8
0x41d4c8:	mov	qword ptr [rbx + 0x38], rax
0x41d4cc:	mov	eax, 1
0x41d4d1:	add	rsp, 8
0x41d4d5:	pop	rbx
0x41d4d6:	pop	rbp
0x41d4d7:	ret	
F 0x40e0cc
0x408a91:	pop	rbx
0x408a92:	pop	rbp
0x408a93:	pop	r12
0x408a95:	pop	r13
0x408a97:	ret	
F 0x41cf95
0x41cf95:	pop	rbx
0x41cf96:	pop	r12
0x41cf98:	pop	r13
0x41cf9a:	pop	r14
0x41cf9c:	pop	r15
0x41cf9e:	pop	rbp
0x41cf9f:	ret	
F 0x4148a8
0x4148a8:	test	r12d, r12d
0x4148ab:	pop	rbp
0x4148ac:	sete	al
0x4148af:	pop	r12
0x4148b1:	pop	r13
0x4148b3:	ret	
F 0x4090d9
0x40885f:	pop	rbp
0x408860:	ret	
F 0x40eee4
0x40eee4:	mov	eax, 0x5c415d5b
0x40eee9:	ret	
F 0x40bab8
0x4090d4:	add	rsp, 8
0x4090d8:	pop	rbx
0x4090d9:	pop	rbp
0x4090da:	ret	
F 0x40fe5f
0x40bab5:	mov	rax, qword ptr [rax]
0x40bab8:	add	rsp, 8
0x40babc:	pop	rbx
0x40babd:	pop	rbp
0x40babe:	ret	
F 0x41923a
0x40a39b:	pop	r13
0x40a39d:	pop	r14
0x40a39f:	pop	r15
0x40a3a1:	ret	
F 0x41b1dc
0x41820c:	pop	rdx
0x41820d:	pop	rbp
0x41820e:	ret	
F 0x41ee53
0x41ee53:	mov	rax, rdi
0x41ee56:	pop	rbx
0x41ee57:	pop	rbp
0x41ee58:	ret	
F 0x412d6a
0x407016:	ret	
F 0x414b0c
0x414b0c:	pop	rbx
0x414b0e:	ret	
F 0x411816
0x411816:	add	eax, 0x1f8cd
0x41181b:	add	rsp, 0x18
0x41181f:	ret	
F 0x41d340
0x41d340:	mov	eax, esp
0x41d342:	pop	rbp
0x41d343:	pop	r12
0x41d345:	pop	r13
0x41d347:	ret	
F 0x412ec0
0x409e8d:	pop	rbx
0x409e8e:	pop	rbp
0x409e8f:	pop	r12
0x409e91:	pop	r13
0x409e93:	pop	r14
0x409e95:	ret	
F 0x41e74c
0x409e8e:	pop	rbp
0x409e8f:	pop	r12
0x409e91:	pop	r13
0x409e93:	pop	r14
0x409e95:	ret	
F 0x40d875
0x409e94:	pop	rsi
0x409e95:	ret	
F 0x40ce60
0x4088d0:	pop	rcx
0x4088d1:	pop	rbp
0x4088d2:	ret	
F 0x40c935
0x40aba0:	dec	dword ptr [rax - 0x77]
0x40aba3:	ret	
F 0x41dc07
0x40ba16:	add	byte ptr [rbx + 0x5d], bl
0x40ba19:	ret	
F 0x40d4f9
0x40d4f9:	add	byte ptr [rbp + 0xe], dh
0x40d4fc:	add	rsp, 0x98
0x40d503:	pop	rbx
0x40d504:	pop	rbp
0x40d505:	pop	r12
0x40d507:	pop	r13
0x40d509:	ret	
F 0x41d481
0x41d481:	mov	qword ptr [rbx + 0x38], rax
0x41d485:	add	rsp, 8
0x41d489:	mov	rax, r12
0x41d48c:	pop	rbx
0x41d48d:	pop	r12
0x41d48f:	ret	
F 0x40ccf5
0x40ccf5:	add	byte ptr [rax], al
0x40ccf7:	add	al, ch
0x40ccf9:	ret	
F 0x40bd5e
0x40a39d:	pop	r14
0x40a39f:	pop	r15
0x40a3a1:	ret	
F 0x41ac3c
0x41820c:	pop	rdx
0x41820d:	pop	rbp
0x41820e:	ret	
F 0x41ee97
0x41ee54:	mov	eax, edi
0x41ee56:	pop	rbx
0x41ee57:	pop	rbp
0x41ee58:	ret	
F 0x409d20
0x4090d8:	pop	rbx
0x4090d9:	pop	rbp
0x4090da:	ret	
F 0x409722
0x409722:	ror	byte ptr [rax - 0x7d], 0xc4
0x409726:	or	byte ptr [rcx + rcx*4 - 0x40], cl
0x40972a:	ret	
F 0x41e27e
0x41e27e:	add	byte ptr [rax], al
0x41e280:	add	byte ptr [rax - 0x77], cl
0x41e283:	ret	
F 0x416e25
0x409e92:	pop	rbp
0x409e93:	pop	r14
0x409e95:	ret	
F 0x41527d
0x40a3a0:	pop	rdi
0x40a3a1:	ret	
F 0x41dc02
0x40ba11:	or	byte ptr [rax + 1], bh
0x40ba17:	pop	rbx
0x40ba18:	pop	rbp
0x40ba19:	ret	
F 0x41e6fd
0x41e6fd:	add	byte ptr [rax], al
0x41e6ff:	pop	rbx
0x41e700:	mov	eax, 1
0x41e705:	pop	rbp
0x41e706:	pop	r12
0x41e708:	pop	r13
0x41e70a:	pop	r14
0x41e70c:	ret	
F 0x40d4fc
0x40d4fc:	add	rsp, 0x98
0x40d503:	pop	rbx
0x40d504:	pop	rbp
0x40d505:	pop	r12
0x40d507:	pop	r13
0x40d509:	ret	
F 0x40a74f
0x409e93:	pop	r14
0x409e95:	ret	
F 0x4185bf
0x4088cf:	pop	rdx
0x4088d0:	pop	rcx
0x4088d1:	pop	rbp
0x4088d2:	ret	
F 0x4111f0
0x4090d8:	pop	rbx
0x4090d9:	pop	rbp
0x4090da:	ret	
F 0x408825
0x408825:	add	byte ptr [rax], r8b
0x408828:	ret	
F 0x41d129
0x407016:	ret	
F 0x41d3ed
0x41d3ed:	stosb	byte ptr [rdi], al
0x41d3ee:	nop	
0x41d3f0:	mov	rax, qword ptr [rdi + 0x30]
0x41d3f4:	ret	
F 0x41caac
0x408a95:	pop	r13
0x408a97:	ret	
F 0x40955c
0x40955c:	xor	eax, r8d
0x40955f:	pop	rbx
0x409560:	test	edx, edx
0x409562:	setne	al
0x409565:	ret	
F 0x416857
0x40d382:	xor	eax, eax
0x40d384:	pop	rbp
0x40d385:	ret	
F 0x411534
0x40a397:	pop	rbx
0x40a398:	pop	rbp
0x40a399:	pop	r12
0x40a39b:	pop	r13
0x40a39d:	pop	r14
0x40a39f:	pop	r15
0x40a3a1:	ret	
F 0x41c1bb
0x407016:	ret	
F 0x409148
0x4090d8:	pop	rbx
0x4090d9:	pop	rbp
0x4090da:	ret	
F 0x417e80
0x408530:	pop	r12
0x408532:	ret	
F 0x41f02e
0x40b727:	ret	0x8548
F 0x408b34
0x408b34:	sal	byte ptr [rbp + 9], 0x5d
0x408b38:	ret	
F 0x41e246
0x41e246:	ror	byte ptr [rcx + rcx*4 + 0x4c], 0x24
0x41e24b:	sbb	byte ptr [rax + 1], cl
0x41e24e:	ret	
F 0x41c83b
0x40a397:	pop	rbx
0x40a398:	pop	rbp
0x40a399:	pop	r12
0x40a39b:	pop	r13
0x40a39d:	pop	r14
0x40a39f:	pop	r15
0x40a3a1:	ret	
F 0x4112c7
0x407016:	ret	
F 0x4154be
0x407016:	ret	
F 0x40a8c5
0x409e92:	pop	rbp
0x409e93:	pop	r14
0x409e95:	ret	
F 0x41e70a
0x409e93:	pop	r14
0x409e95:	ret	
F 0x419793
0x4090d7:	or	byte ptr [rbx + 0x5d], bl
0x4090da:	ret	
F 0x4148a7
0x4148a7:	rol	byte ptr [rbp - 0x7b], 0xe4
0x4148ab:	pop	rbp
0x4148ac:	sete	al
0x4148af:	pop	r12
0x4148b1:	pop	r13
0x4148b3:	ret	
F 0x41db6a
0x407016:	ret	
F 0x4088cf
0x4088cf:	pop	rdx
0x4088d0:	pop	rcx
0x4088d1:	pop	rbp
0x4088d2:	ret	
F 0x40babd
0x40885f:	pop	rbp
0x408860:	ret	
F 0x41d3ee
0x41d3ee:	nop	
0x41d3f0:	mov	rax, qword ptr [rdi + 0x30]
0x41d3f4:	ret	
F 0x411fc8
0x4090d4:	add	rsp, 8
0x4090d8:	pop	rbx
0x4090d9:	pop	rbp
0x4090da:	ret	
F 0x4186fe
0x409e92:	pop	rbp
0x409e93:	pop	r14
0x409e95:	ret	
F 0x40b209
0x407016:	ret	
F 0x41dca6
0x40ba15:	add	byte ptr [rax], al
0x40ba17:	pop	rbx
0x40ba18:	pop	rbp
0x40ba19:	ret	
F 0x408a8d
0x408a8d:	or	byte ptr [rcx + rcx*4 - 0x20], cl
0x408a91:	pop	rbx
0x408a92:	pop	rbp
0x408a93:	pop	r12
0x408a95:	pop	r13
0x408a97:	ret	
F 0x40b447
0x40b447:	sal	byte ptr [rsi + rdx + 0x48], 0x8b
0x40b44c:	add	eax, 0x25c47
0x40b451:	add	rsp, 0x18
0x40b455:	ret	
F 0x40cf1d
0x40a39f:	pop	r15
0x40a3a1:	ret	
F 0x40a7f7
0x40a7f7:	cmp	dword ptr [rax - 0x77], ecx
0x40a7fa:	ret	
F 0x41d782
0x407016:	ret	
F 0x41a2f2
0x408a95:	pop	r13
0x408a97:	ret	
F 0x41d4d4
0x4090d7:	or	byte ptr [rbx + 0x5d], bl
0x4090da:	ret	
F 0x40b44d
0x40b44d:	pop	r12
0x40b44f:	add	al, byte ptr [rax]
0x40b451:	add	rsp, 0x18
0x40b455:	ret	
F 0x413843
0x4090d7:	or	byte ptr [rbx + 0x5d], bl
0x4090da:	ret	
F 0x408df4
0x40852f:	pop	rbp
0x408530:	pop	r12
0x408532:	ret	
F 0x409abe
0x408a95:	pop	r13
0x408a97:	ret	
F 0x41dd43
0x40ba12:	mov	eax, 1
0x40ba17:	pop	rbx
0x40ba18:	pop	rbp
0x40ba19:	ret	
F 0x4117e1
0x408b71:	add	rsp, 0x18
0x408b75:	ret	
F 0x414cfd
0x414cfd:	pop	rbp
0x414cfe:	mov	dword ptr [r12], eax
0x414d02:	pop	r12
0x414d04:	ret	
F 0x418651
0x40885f:	pop	rbp
0x408860:	ret	
F 0x413a26
0x407016:	ret	
F 0x41cebf
0x41cebf:	nop	
0x41cec0:	mov	rax, qword ptr [rip + 0x143e1]
0x41cec7:	ret	
F 0x41f809
0x40a39e:	pop	rsi
0x40a39f:	pop	r15
0x40a3a1:	ret	
F 0x40ed42
0x40ed42:	pushfq	
0x40ed43:	add	byte ptr [rax], al
0x40ed45:	nop	dword ptr [rax]
0x40ed48:	add	rsp, 8
0x40ed4c:	pop	rbx
0x40ed4d:	pop	rbp
0x40ed4e:	ret	
F 0x408ecc
0x408ecc:	dec	dword ptr [rax - 0x77]
0x408ecf:	sub	byte ptr [r11 + 0x5d], r11b
0x408ed3:	pop	r12
0x408ed5:	ret	
F 0x40eb4c
0x407016:	ret	
F 0x41e24b
0x41e24b:	sbb	byte ptr [rax + 1], cl
0x41e24e:	ret	
F 0x40b2dd
0x40a0d6:	sbb	byte ptr [rbx + 0x5d], bl
0x40a0d9:	pop	r12
0x40a0db:	pop	r13
0x40a0dd:	ret	
F 0x40ea56
0x407016:	ret	
F 0x41dc08
0x4090d8:	pop	rbx
0x4090d9:	pop	rbp
0x4090da:	ret	
F 0x40b6a6
0x407016:	ret	
F 0x40bf1a
0x409e8e:	pop	rbp
0x409e8f:	pop	r12
0x409e91:	pop	r13
0x409e93:	pop	r14
0x409e95:	ret	
F 0x41e283
0x407016:	ret	
F 0x40cdd9
0x408e72:	pop	rbx
0x408e73:	pop	rbp
0x408e74:	pop	r12
0x408e76:	ret	
F 0x41ca40
0x41ca27:	mov	eax, 1
0x41ca2c:	pop	rbp
0x41ca2d:	ret	
F 0x41be1e
0x415a4e:	xor	ecx, dword ptr [rax - 0x7d]
0x415a51:	ret	
F 0x41047e
0x407016:	ret	
F 0x40cf1f
0x407016:	ret	
F 0x40ebf3
0x40ebf3:	add	byte ptr [rax], al
0x40ebf5:	nop	dword ptr [rax]
0x40ebf8:	pop	rbx
0x40ebf9:	pop	rbp
0x40ebfa:	pop	r12
0x40ebfc:	ret	
F 0x41ba18
0x41ba18:	mov	ebp, 0x5a58fffe
0x41ba1d:	pop	rbp
0x41ba1e:	ret	
F 0x41674f
0x41674f:	mov	qword ptr [rbx + 0x68], rax
0x416753:	add	rsp, 8
0x416757:	pop	rbx
0x416758:	pop	rbp
0x416759:	ret	
F 0x4090d1
0x4090d1:	mov	dword ptr [rbx + 0x40], ebp
0x4090d4:	add	rsp, 8
0x4090d8:	pop	rbx
0x4090d9:	pop	rbp
0x4090da:	ret	
F 0x41527e
0x407016:	ret	
F 0x41d448
0x41d448:	nop	dword ptr [rax + rax]
0x41d450:	mov	rax, qword ptr [rdi + 0x38]
0x41d454:	ret	
F 0x41d287
0x41d287:	add	dword ptr [rax], eax
0x41d28b:	add	rsp, 0x18
0x41d28f:	ret	
F 0x40e436
0x40885f:	pop	rbp
0x408860:	ret	
F 0x40a8bd
0x40a85e:	pop	rbx
0x40a85f:	mov	eax, r13d
0x40a862:	pop	rbp
0x40a863:	pop	r12
0x40a865:	pop	r13
0x40a867:	pop	r14
0x40a869:	ret	
F 0x41ba17
0x41ba17:	mov	ebp, 0x5a58fffe
0x41ba1d:	pop	rbp
0x41ba1e:	ret	
F 0x41c496
0x40dab0:	add	rsp, 0x18
0x40dab4:	pop	rbp
0x40dab5:	pop	r12
0x40dab7:	pop	r13
0x40dab9:	pop	r14
0x40dabb:	ret	
F 0x4188ab
0x4188ab:	sub	al, 0x5b
0x4188ae:	ret	
F 0x4186fd
0x409e91:	pop	r13
0x409e93:	pop	r14
0x409e95:	ret	
F 0x4198b9
0x40885f:	pop	rbp
0x408860:	ret	
F 0x409d22
0x407016:	ret	
F 0x41138c
0x41138c:	or	byte ptr [rbp + 0x11], dh
0x41138f:	add	rsp, 8
0x411393:	pop	rbx
0x411394:	pop	rbp
0x411395:	ret	
F 0x41d7d7
0x41d7d7:	dec	dword ptr [rax - 0x77]
0x41d7da:	pop	r8
0x41d7dc:	pop	rbx
0x41d7dd:	ret	
F 0x408e73
0x40852f:	pop	rbp
0x408530:	pop	r12
0x408532:	ret	
F 0x41bc83
0x40885f:	pop	rbp
0x408860:	ret	
F 0x41d442
0x41d442:	xor	byte ptr [r11 - 0x3d], bl
0x41d446:	nop	word ptr cs:[rax + rax]
0x41d450:	mov	rax, qword ptr [rdi + 0x38]
0x41d454:	ret	
F 0x413eff
0x413eff:	adc	byte ptr [rbx - 0x17], bl
0x413f02:	mov	edx, 0x66000043
0x413f07:	nop	dword ptr cs:[rax + rax]
0x413f10:	pop	rbx
0x413f11:	ret	
F 0x41181b
0x408b71:	add	rsp, 0x18
0x408b75:	ret	
F 0x4154b2
0x4154b2:	push	0x8c48348
0x4154b8:	pop	rbx
0x4154b9:	pop	rbp
0x4154ba:	pop	r12
0x4154bc:	pop	r13
0x4154be:	ret	
F 0x412138
0x4090d4:	add	rsp, 8
0x4090d8:	pop	rbx
0x4090d9:	pop	rbp
0x4090da:	ret	
F 0x40ad39
0x40a39c:	pop	rbp
0x40a39d:	pop	r14
0x40a39f:	pop	r15
0x40a3a1:	ret	
F 0x41875c
0x41394b:	pop	rbx
0x41394e:	ret	
F 0x408dea
0x408dea:	test	byte ptr [rax], al
0x408dec:	add	byte ptr [rax], al
0x408dee:	add	byte ptr [rax], al
0x408df0:	add	rsp, 8
0x408df4:	pop	rbp
0x408df5:	pop	r12
0x408df7:	ret	
F 0x409dbe
0x409dbe:	mov	eax, esp
0x409dc0:	pop	rbx
0x409dc1:	pop	rbp
0x409dc2:	pop	r12
0x409dc4:	ret	
F 0x417531
0x417531:	or	byte ptr [rax - 0x77], cl
0x417534:	ret	
F 0x41e1c7
0x407016:	ret	
F 0x41ea1d
0x41ea1d:	nop	dword ptr [rax]
0x41ea20:	pop	rbx
0x41ea21:	mov	eax, 1
0x41ea26:	pop	rbp
0x41ea27:	pop	r12
0x41ea29:	ret	
F 0x40cf13
0x40cf13:	xor	eax, eax
0x40cf15:	pop	rbx
0x40cf16:	pop	rbp
0x40cf17:	pop	r12
0x40cf19:	pop	r13
0x40cf1b:	pop	r14
0x40cf1d:	pop	r15
0x40cf1f:	ret	
F 0x41f804
0x40a399:	pop	r12
0x40a39b:	pop	r13
0x40a39d:	pop	r14
0x40a39f:	pop	r15
0x40a3a1:	ret	
F 0x41ad3a
0x41ad3a:	ret	0xb0
F 0x41c55f
0x41c55f:	add	byte ptr [rax], al
0x41c561:	mov	qword ptr [rax + 0x198], rdx
0x41c568:	pop	rbp
0x41c569:	ret	
F 0x41ca2c
0x40885f:	pop	rbp
0x408860:	ret	
F 0x41deaa
0x40b787:	add	byte ptr [rax], al
0x40b789:	add	byte ptr [rbx + 0x5d], bl
0x40b78c:	pop	r12
0x40b78e:	pop	r13
0x40b790:	ret	
F 0x40a0dd
0x407016:	ret	
F 0x41703e
0x40bd3a:	push	rdx
0x40bd3b:	ret	
F 0x41152d
0x41152d:	add	byte ptr [rbp + 0x4a], dh
0x411530:	add	rsp, 0x38
0x411534:	pop	rbx
0x411535:	pop	rbp
0x411536:	pop	r12
0x411538:	pop	r13
0x41153a:	pop	r14
0x41153c:	pop	r15
0x41153e:	ret	
F 0x414045
0x413e65:	add	byte ptr [rsi + 0x2e], ah
0x413e68:	nop	dword ptr [rax + rax]
0x413e70:	pop	rbx
0x413e71:	ret	
F 0x4189c6
0x407016:	ret	
F 0x412ff2
0x412ff2:	nop	word ptr [rax + rax]
0x412ff8:	pop	rbp
0x412ff9:	pop	r12
0x412ffb:	pop	r13
0x412ffd:	ret	
F 0x41dff3
0x41dfc3:	add	dword ptr [rax - 0x7d], ecx
0x41dfc6:	ret	
F 0x418b0a
0x40e43a:	test	byte ptr [rax], al
0x40e43c:	add	byte ptr [rax], al
0x40e43e:	add	byte ptr [rax], al
0x40e440:	ret	
F 0x40e955
0x40a1bb:	add	rsp, 0x10
0x40a1bf:	pop	rbx
0x40a1c0:	pop	rbp
0x40a1c1:	pop	r12
0x40a1c3:	pop	r13
0x40a1c5:	pop	r14
0x40a1c7:	ret	
F 0x41153b
0x40a39e:	pop	rsi
0x40a39f:	pop	r15
0x40a3a1:	ret	
F 0x40cc05
0x40852f:	pop	rbp
0x408530:	pop	r12
0x408532:	ret	
F 0x41830c
0x41820c:	pop	rdx
0x41820d:	pop	rbp
0x41820e:	ret	
F 0x4087e1
0x4087e1:	nop	dword ptr [rax]
0x4087e8:	ret	
F 0x410db7
0x407016:	ret	
F 0x41992b
0x416cab:	add	byte ptr [rax], 0
0x416cae:	add	byte ptr [rax], al
0x416cb0:	pop	rbx
0x416cb1:	ret	
F 0x4140ff
0x4140ff:	add	byte ptr [rax], al
0x414101:	nop	dword ptr [rax]
0x414108:	add	rsp, 8
0x41410c:	pop	rbx
0x41410d:	pop	rbp
0x41410e:	pop	r12
0x414110:	pop	r13
0x414112:	ret	
F 0x416e28
0x407016:	ret	
F 0x40e83f
0x40a398:	pop	rbp
0x40a399:	pop	r12
0x40a39b:	pop	r13
0x40a39d:	pop	r14
0x40a39f:	pop	r15
0x40a3a1:	ret	
F 0x414b92
0x414b92:	imul	ecx, dword ptr [rax + rcx*2 - 0x7d], -0x3c
0x414b97:	or	byte ptr [rbx + 0x5d], bl
0x414b9a:	ret	
F 0x41dea0
0x41dea0:	mov	qword ptr [r13], rax
0x41dea4:	add	rsp, 8
0x41dea8:	mov	eax, 1
0x41dead:	pop	rbx
0x41deae:	pop	rbp
0x41deaf:	pop	r12
0x41deb1:	pop	r13
0x41deb3:	ret	
F 0x41ca65
0x41ca65:	sete	al
0x41ca68:	add	rsp, 8
0x41ca6c:	movzx	eax, al
0x41ca6f:	ret	
F 0x41ca5d
0x41ca5d:	add	al, ch
0x41ca5f:	lea	esi, [rdi - 0x3f7a0002]
0x41ca65:	sete	al
0x41ca68:	add	rsp, 8
0x41ca6c:	movzx	eax, al
0x41ca6f:	ret	
F 0x41383d
0x41383d:	add	byte ptr [rax], r8b
0x413840:	add	rsp, 8
0x413844:	pop	rbx
0x413845:	pop	rbp
0x413846:	ret	
F 0x40a39d
0x40a39d:	pop	r14
0x40a39f:	pop	r15
0x40a3a1:	ret	
F 0x40fddf
0x409444:	add	byte ptr [rax], al
0x409446:	pop	rbx
0x409447:	ret	
F 0x4198d6
0x4198d6:	ret	0
F 0x41deb1
0x408a95:	pop	r13
0x408a97:	ret	
F 0x415663
0x40852f:	pop	rbp
0x408530:	pop	r12
0x408532:	ret	
F 0x41af1e
0x407016:	ret	
F 0x41c837
0x40e83a:	add	rsp, 0x18
0x40e83e:	pop	rbx
0x40e83f:	pop	rbp
0x40e840:	pop	r12
0x40e842:	pop	r13
0x40e844:	pop	r14
0x40e846:	pop	r15
0x40e848:	ret	
F 0x40ed4e
0x407016:	ret	
F 0x41da75
0x407016:	ret	
F 0x41e0f6
0x407016:	ret	
F 0x4117dc
0x4117dc:	add	eax, 0x1f907
0x4117e1:	add	rsp, 0x18
0x4117e5:	ret	
F 0x415626
0x415626:	or	ecx, dword ptr [rax - 0x7d]
0x415629:	ret	
F 0x40bd60
0x40a39f:	pop	r15
0x40a3a1:	ret	
F 0x40d86c
0x40d86c:	add	byte ptr [rax], al
0x40d86e:	pop	rbx
0x40d86f:	pop	rbp
0x40d870:	pop	r12
0x40d872:	pop	r13
0x40d874:	pop	r14
0x40d876:	ret	
F 0x4101c2
0x407016:	ret	
F 0x40b1e3
0x407016:	ret	
F 0x40d385
0x407016:	ret	
F 0x414b07
0x414b07:	sal	byte ptr [rsi + rax - 0x75], 0x43
0x414b0c:	pop	rbx
0x414b0e:	ret	
F 0x4112c5
0x4090d8:	pop	rbx
0x4090d9:	pop	rbp
0x4090da:	ret	
F 0x41241c
0x4090d8:	pop	rbx
0x4090d9:	pop	rbp
0x4090da:	ret	
F 0x41c5fb
0x41c5fb:	mov	eax, dword ptr [rip + 0x14c77]
0x41c601:	add	rsp, 0x18
0x41c605:	ret	
F 0x41c83c
0x40a398:	pop	rbp
0x40a399:	pop	r12
0x40a39b:	pop	r13
0x40a39d:	pop	r14
0x40a39f:	pop	r15
0x40a3a1:	ret	
F 0x41153a
0x40a39d:	pop	r14
0x40a39f:	pop	r15
0x40a3a1:	ret	
F 0x419c8d
0x409e8f:	pop	r12
0x409e91:	pop	r13
0x409e93:	pop	r14
0x409e95:	ret	
F 0x4148a5
0x4148a5:	push	qword ptr [rcx]
0x4148a7:	rol	byte ptr [rbp - 0x7b], 0xe4
0x4148ab:	pop	rbp
0x4148ac:	sete	al
0x4148af:	pop	r12
0x4148b1:	pop	r13
0x4148b3:	ret	
F 0x40b789
0x40b789:	add	byte ptr [rbx + 0x5d], bl
0x40b78c:	pop	r12
0x40b78e:	pop	r13
0x40b790:	ret	
F 0x414c43
0x40852f:	pop	rbp
0x408530:	pop	r12
0x408532:	ret	
F 0x40c161
0x40ad30:	add	rsp, 0x38
0x40ad34:	pop	rbx
0x40ad35:	pop	rbp
0x40ad36:	pop	r12
0x40ad38:	pop	r13
0x40ad3a:	pop	r14
0x40ad3c:	pop	r15
0x40ad3e:	ret	
F 0x41db5d
0x41db5d:	add	rsp, 8
0x41db63:	mov	eax, 1
0x41db68:	pop	rbx
0x41db69:	pop	rbp
0x41db6a:	ret	
F 0x410004
0x40a3a0:	pop	rdi
0x40a3a1:	ret	
F 0x40ec8c
0x408a91:	pop	rbx
0x408a92:	pop	rbp
0x408a93:	pop	r12
0x408a95:	pop	r13
0x408a97:	ret	
F 0x41cec5
0x41cec5:	add	dword ptr [rax], eax
0x41cec7:	ret	
F 0x41cced
0x40daae:	add	byte ptr [rax], al
0x40dab0:	add	rsp, 0x18
0x40dab4:	pop	rbp
0x40dab5:	pop	r12
0x40dab7:	pop	r13
0x40dab9:	pop	r14
0x40dabb:	ret	
F 0x41981e
0x40cdd7:	add	byte ptr [rax], al
0x40cdd9:	pop	rbx
0x40cdda:	pop	rbp
0x40cddb:	pop	r12
0x40cddd:	ret	
F 0x41457c
0x41457c:	movabs	al, byte ptr [0x4c08c48348000000]
0x414585:	mov	eax, ebp
0x414587:	pop	rbp
0x414588:	pop	r12
0x41458a:	pop	r13
0x41458c:	pop	r14
0x41458e:	ret	
F 0x4174c9
0x4174c9:	mov	dword ptr [rsp], eax
0x4174cc:	xor	eax, eax
0x4174ce:	pop	r12
0x4174d0:	pop	r13
0x4174d2:	ret	
F 0x408ed0
0x408ed0:	sub	byte ptr [rbx + 0x5d], bl
0x408ed3:	pop	r12
0x408ed5:	ret	
F 0x417fb2
0x40a39b:	pop	r13
0x40a39d:	pop	r14
0x40a39f:	pop	r15
0x40a3a1:	ret	
F 0x417b6d
0x407016:	ret	
F 0x40d952
0x408a92:	pop	rbp
0x408a93:	pop	r12
0x408a95:	pop	r13
0x408a97:	ret	
F 0x40dcaa
0x407016:	ret	
F 0x41d441
0x41d441:	mov	dword ptr [rbx + 0x30], eax
0x41d444:	pop	rbx
0x41d445:	ret	
F 0x410415
0x410415:	inc	dword ptr [rbp - 0x74f98b40]
0x41041b:	pop	r8
0x41041d:	pop	rbx
0x41041e:	ret	
F 0x4184a2
0x407016:	ret	
F 0x410f7b
0x409e94:	pop	rsi
0x409e95:	ret	
F 0x40d86e
0x409e8d:	pop	rbx
0x409e8e:	pop	rbp
0x409e8f:	pop	r12
0x409e91:	pop	r13
0x409e93:	pop	r14
0x409e95:	ret	
F 0x40d509
0x407016:	ret	
F 0x418ff4
0x409ab9:	cmp	byte ptr [rbx + 0x5d], bl
0x409abc:	pop	r12
0x409abe:	pop	r13
0x409ac0:	ret	
F 0x40e431
0x4090d4:	add	rsp, 8
0x4090d8:	pop	rbx
0x4090d9:	pop	rbp
0x4090da:	ret	
F 0x41da71
0x408b71:	add	rsp, 0x18
0x408b75:	ret	
F 0x41ddea
0x407016:	ret	
F 0x40d6ae
0x40885f:	pop	rbp
0x408860:	ret	
F 0x41830e
0x407016:	ret	
F 0x409abb
0x408a92:	pop	rbp
0x408a93:	pop	r12
0x408a95:	pop	r13
0x408a97:	ret	
F 0x41d501
0x407016:	ret	
F 0x413a23
0x40852f:	pop	rbp
0x408530:	pop	r12
0x408532:	ret	
F 0x41b5fd
0x40885f:	pop	rbp
0x408860:	ret	
F 0x40d4f7
0x40d4f7:	add	byte ptr [rax], al
0x40d4f9:	add	byte ptr [rbp + 0xe], dh
0x40d4fc:	add	rsp, 0x98
0x40d503:	pop	rbx
0x40d504:	pop	rbp
0x40d505:	pop	r12
0x40d507:	pop	r13
0x40d509:	ret	
F 0x40d741
0x40d6a1:	add	byte ptr [rax], al
0x40d6a3:	add	byte ptr [rbp + 0xa], dh
0x40d6a6:	add	rsp, 0x10
0x40d6aa:	pop	rbp
0x40d6ab:	pop	r12
0x40d6ad:	pop	r13
0x40d6af:	ret	
F 0x40ad38
0x40a39b:	pop	r13
0x40a39d:	pop	r14
0x40a39f:	pop	r15
0x40a3a1:	ret	
F 0x4187f2
0x40852f:	pop	rbp
0x408530:	pop	r12
0x408532:	ret	
F 0x41e4ed
0x41e4ed:	ror	byte ptr [rdi], 0x84
0x41e4f0:	ret	
F 0x41c8d8
0x41c8d8:	add	byte ptr [rbp + 0xa], dh
0x41c8db:	add	rsp, 0x10
0x41c8df:	mov	rax, r12
0x41c8e2:	pop	r12
0x41c8e4:	ret	
F 0x408de6
0x408de6:	nop	word ptr cs:[rax + rax]
0x408df0:	add	rsp, 8
0x408df4:	pop	rbp
0x408df5:	pop	r12
0x408df7:	ret	
F 0x40ea55
0x40885f:	pop	rbp
0x408860:	ret	
F 0x40f8a1
0x40885f:	pop	rbp
0x408860:	ret	
F 0x40e589
0x40e589:	add	byte ptr [rbp + 0x56], dh
0x40e58c:	add	rsp, 0x18
0x40e590:	pop	rbp
0x40e591:	pop	r12
0x40e593:	ret	
F 0x40e953
0x40e953:	add	byte ptr [rax], al
0x40e955:	add	rsp, 0x10
0x40e959:	pop	rbx
0x40e95a:	pop	rbp
0x40e95b:	pop	r12
0x40e95d:	pop	r13
0x40e95f:	pop	r14
0x40e961:	ret	
F 0x416ffe
0x407016:	ret	
F 0x41dc06
0x40ba15:	add	byte ptr [rax], al
0x40ba17:	pop	rbx
0x40ba18:	pop	rbp
0x40ba19:	ret	
F 0x41be63
0x41be63:	add	byte ptr [rax], al
0x41be65:	add	byte ptr [rbp + 0x36], dh
0x41be68:	add	rsp, 0x18
0x41be6c:	pop	rbx
0x41be6d:	pop	rbp
0x41be6e:	pop	r12
0x41be70:	pop	r13
0x41be72:	ret	
F 0x41b686
0x407016:	ret	
F 0x410f96
0x409e92:	pop	rbp
0x409e93:	pop	r14
0x409e95:	ret	
F 0x418532
0x407016:	ret	
F 0x411fc6
0x411e56:	add	byte ptr [rax], al
0x411e58:	add	rsp, 8
0x411e5c:	pop	rbx
0x411e5d:	pop	rbp
0x411e5e:	ret	
F 0x41c631
0x41c631:	mov	ecx, 0x8b48fffe
0x41c636:	add	eax, 0x14c3d
0x41c63b:	add	rsp, 0x18
0x41c63f:	ret	
F 0x411fcb
0x4090d7:	or	byte ptr [rbx + 0x5d], bl
0x4090da:	ret	
F 0x41ca43
0x41c566:	add	byte ptr [rax], al
0x41c568:	pop	rbp
0x41c569:	ret	
F 0x41d14f
0x41d14f:	add	bl, al
0x41d151:	nop	word ptr cs:[rax + rax]
0x41d15b:	nop	dword ptr [rax + rax]
0x41d160:	ret	
F 0x416889
0x40885f:	pop	rbp
0x408860:	ret	
F 0x4198b6
0x408a93:	pop	r12
0x408a95:	pop	r13
0x408a97:	ret	
F 0x41d159
0x41d159:	add	byte ptr [rax], al
0x41d15b:	nop	dword ptr [rax + rax]
0x41d160:	ret	
F 0x41ece3
0x409e8e:	pop	rbp
0x409e8f:	pop	r12
0x409e91:	pop	r13
0x409e93:	pop	r14
0x409e95:	ret	
F 0x41a090
0x409e92:	pop	rbp
0x409e93:	pop	r14
0x409e95:	ret	
F 0x41b1de
0x407016:	ret	
F 0x40d864
0x40d864:	add	byte ptr [rbp + 0x3f], dh
0x40d867:	add	rsp, 0xa0
0x40d86e:	pop	rbx
0x40d86f:	pop	rbp
0x40d870:	pop	r12
0x40d872:	pop	r13
0x40d874:	pop	r14
0x40d876:	ret	
F 0x40ea7d
0x40ea7d:	add	al, byte ptr es:[rax]
0x40ea81:	add	rsp, 0x18
0x40ea85:	ret	
F 0x41d5d0
0x40ec8b:	or	byte ptr [rbx + 0x5d], bl
0x40ec8e:	pop	r12
0x40ec90:	pop	r13
0x40ec92:	ret	
F 0x4174ce
0x408a93:	pop	r12
0x408a95:	pop	r13
0x408a97:	ret	
F 0x41aab0
0x40885f:	pop	rbp
0x408860:	ret	
F 0x415661
0x40cdd8:	add	byte ptr [rbx + 0x5d], bl
0x40cddb:	pop	r12
0x40cddd:	ret	
F 0x412bc5
0x40885f:	pop	rbp
0x408860:	ret	
F 0x40c8e6
0x40a398:	pop	rbp
0x40a399:	pop	r12
0x40a39b:	pop	r13
0x40a39d:	pop	r14
0x40a39f:	pop	r15
0x40a3a1:	ret	
F 0x409723
0x409723:	add	rsp, 8
0x409727:	mov	rax, r8
0x40972a:	ret	
F 0x41d1eb
0x41d1eb:	lea	edx, [rip + 0x42f]
0x41d1f1:	mov	qword ptr [rax + 0x88], rdx
0x41d1f8:	pop	rbp
0x41d1f9:	ret	
F 0x41598a
0x413e6a:	test	byte ptr [rax], al
0x413e6c:	add	byte ptr [rax], al
0x413e6e:	add	byte ptr [rax], al
0x413e70:	pop	rbx
0x413e71:	ret	
F 0x411d46
0x40cdd7:	add	byte ptr [rax], al
0x40cdd9:	pop	rbx
0x40cdda:	pop	rbp
0x40cddb:	pop	r12
0x40cddd:	ret	
F 0x41daa4
0x41daa4:	mov	rax, qword ptr [rip + 0x13845]
0x41daab:	add	rsp, 0x18
0x41daaf:	ret	
F 0x41e1f4
0x41e1f4:	mov	dword ptr [rax], eax
0x41e1f6:	add	byte ptr [rax - 0x7d], cl
0x41e1f9:	ret	
F 0x41e1c6
0x40a3a0:	pop	rdi
0x40a3a1:	ret	
F 0x40bd5f
0x40a39e:	pop	rsi
0x40a39f:	pop	r15
0x40a3a1:	ret	
F 0x40c8de
0x40c8de:	add	rsp, 8
0x40c8e2:	mov	rax, r14
0x40c8e5:	pop	rbx
0x40c8e6:	pop	rbp
0x40c8e7:	pop	r12
0x40c8e9:	pop	r13
0x40c8eb:	pop	r14
0x40c8ed:	pop	r15
0x40c8ef:	ret	
F 0x41f80a
0x40a39f:	pop	r15
0x40a3a1:	ret	
F 0x419c8a
0x40a748:	pop	rdx
0x40a749:	pop	rbx
0x40a74a:	pop	rbp
0x40a74b:	pop	r12
0x40a74d:	pop	r13
0x40a74f:	pop	r14
0x40a751:	ret	
F 0x40b489
0x408b6f:	add	al, byte ptr [rax]
0x408b71:	add	rsp, 0x18
0x408b75:	ret	
F 0x41d127
0x408ec7:	add	al, ch
0x408ec9:	ret	
F 0x40a3a1
0x407016:	ret	
F 0x419790
0x4090d4:	add	rsp, 8
0x4090d8:	pop	rbx
0x4090d9:	pop	rbp
0x4090da:	ret	
F 0x4185c0
0x4088d0:	pop	rcx
0x4088d1:	pop	rbp
0x4088d2:	ret	
F 0x415fc1
0x415fc1:	mov	eax, esp
0x415fc3:	pop	r12
0x415fc5:	ret	
F 0x413a1c
0x413a1c:	add	byte ptr [rbp + 0x5d], dh
0x413a1f:	add	rsp, 0x28
0x413a23:	pop	rbp
0x413a24:	pop	r12
0x413a26:	ret	
F 0x409be2
0x409be2:	test	byte ptr [rax], al
0x409be4:	add	byte ptr [rax], al
0x409be6:	add	rsp, 0x18
0x409bea:	pop	rbx
0x409beb:	pop	rbp
0x409bec:	ret	
F 0x419777
0x407016:	ret	
F 0x415b1e
0x415b1e:	nop	
0x415b20:	pop	rbx
0x415b21:	pop	rbp
0x415b22:	pop	r12
0x415b24:	ret	
F 0x409670
0x4088d0:	pop	rcx
0x4088d1:	pop	rbp
0x4088d2:	ret	
F 0x40a940
0x40a3a0:	pop	rdi
0x40a3a1:	ret	
F 0x41458c
0x409e93:	pop	r14
0x409e95:	ret	
F 0x409db7
0x409db7:	mov	byte ptr [rcx - 0x78], 0x74
0x409dbb:	and	al, 8
0x409dbd:	mov	rax, r12
0x409dc0:	pop	rbx
0x409dc1:	pop	rbp
0x409dc2:	pop	r12
0x409dc4:	ret	
F 0x4141ab
0x40eb43:	nop	dword ptr [rax + rax]
0x40eb48:	pop	rbx
0x40eb49:	pop	rbp
0x40eb4a:	pop	r12
0x40eb4c:	ret	
F 0x41ca6f
0x407016:	ret	
F 0x40c16c
0x40a39e:	pop	rsi
0x40a39f:	pop	r15
0x40a3a1:	ret	
F 0x414658
0x409e8e:	pop	rbp
0x409e8f:	pop	r12
0x409e91:	pop	r13
0x409e93:	pop	r14
0x409e95:	ret	
F 0x41828e
0x407016:	ret	
F 0x414b98
0x4090d8:	pop	rbx
0x4090d9:	pop	rbp
0x4090da:	ret	
F 0x41598c
0x413e6c:	add	byte ptr [rax], al
0x413e6e:	add	byte ptr [rax], al
0x413e70:	pop	rbx
0x413e71:	ret	
F 0x417fae
0x417fae:	pop	rdx
0x417faf:	pop	rbp
0x417fb0:	pop	r12
0x417fb2:	pop	r13
0x417fb4:	pop	r14
0x417fb6:	pop	r15
0x417fb8:	ret	
F 0x419e5d
0x409e8f:	pop	r12
0x409e91:	pop	r13
0x409e93:	pop	r14
0x409e95:	ret	
F 0x410f92
0x409e8e:	pop	rbp
0x409e8f:	pop	r12
0x409e91:	pop	r13
0x409e93:	pop	r14
0x409e95:	ret	
F 0x40ed48
0x4090d4:	add	rsp, 8
0x4090d8:	pop	rbx
0x4090d9:	pop	rbp
0x4090da:	ret	
F 0x41d24e
0x41d24e:	add	dword ptr [rax], eax
0x41d251:	add	rsp, 0x18
0x41d255:	ret	
F 0x41e921
0x41e921:	sub	byte ptr [rsp + rcx + 0x5b], dh
0x41e925:	xor	eax, eax
0x41e927:	pop	rbp
0x41e928:	pop	r12
0x41e92a:	ret	
F 0x40cf17
0x40a399:	pop	r12
0x40a39b:	pop	r13
0x40a39d:	pop	r14
0x40a39f:	pop	r15
0x40a3a1:	ret	
F 0x417fb6
0x40a39f:	pop	r15
0x40a3a1:	ret	
F 0x40ec92
0x407016:	ret	
F 0x40d442
0x40cdd8:	add	byte ptr [rbx + 0x5d], bl
0x40cddb:	pop	r12
0x40cddd:	ret	
F 0x41710c
0x407016:	ret	
F 0x41d5cd
0x40ec88:	add	rsp, 8
0x40ec8c:	pop	rbx
0x40ec8d:	pop	rbp
0x40ec8e:	pop	r12
0x40ec90:	pop	r13
0x40ec92:	ret	
F 0x414044
0x413e64:	add	byte ptr [rax], al
0x413e66:	nop	word ptr cs:[rax + rax]
0x413e70:	pop	rbx
0x413e71:	ret	
F 0x41b07d
0x40885f:	pop	rbp
0x408860:	ret	
F 0x413f10
0x408c6e:	pop	rbx
0x408c6f:	ret	
F 0x419795
0x40885f:	pop	rbp
0x408860:	ret	
F 0x41deac
0x40b789:	add	byte ptr [rbx + 0x5d], bl
0x40b78c:	pop	r12
0x40b78e:	pop	r13
0x40b790:	ret	
F 0x409e8e
0x409e8e:	pop	rbp
0x409e8f:	pop	r12
0x409e91:	pop	r13
0x409e93:	pop	r14
0x409e95:	ret	
F 0x4190d7
0x407c57:	ret	0
F 0x408dee
0x408dee:	add	byte ptr [rax], al
0x408df0:	add	rsp, 8
0x408df4:	pop	rbp
0x408df5:	pop	r12
0x408df7:	ret	
F 0x41dfe7
0x41dfe7:	push	rax
0x41dfe8:	test	dword ptr [rax + 0x127701fa], 0xb60f9066
0x41dff2:	add	dword ptr [r8 - 0x7d], ecx
0x41dff6:	ret	
F 0x415ecb
0x411e53:	add	byte ptr [rax], 0
0x411e56:	add	byte ptr [rax], al
0x411e58:	add	rsp, 8
0x411e5c:	pop	rbx
0x411e5d:	pop	rbp
0x411e5e:	ret	
F 0x40943e
0x40943e:	push	qword ptr [rbp + 0xf]
0x409441:	mov	eax, 1
0x409446:	pop	rbx
0x409447:	ret	
F 0x41ccf7
0x409e92:	pop	rbp
0x409e93:	pop	r14
0x409e95:	ret	
F 0x40ebfa
0x408530:	pop	r12
0x408532:	ret	
F 0x410551
0x40885f:	pop	rbp
0x408860:	ret	
F 0x414111
0x40885f:	pop	rbp
0x408860:	ret	
F 0x4090d4
0x4090d4:	add	rsp, 8
0x4090d8:	pop	rbx
0x4090d9:	pop	rbp
0x4090da:	ret	
F 0x4105b7
0x407016:	ret	
F 0x40ec85
0x40ec85:	add	byte ptr [rax], r8b
0x40ec88:	add	rsp, 8
0x40ec8c:	pop	rbx
0x40ec8d:	pop	rbp
0x40ec8e:	pop	r12
0x40ec90:	pop	r13
0x40ec92:	ret	
F 0x41431a
0x412d5a:	test	byte ptr [rax], al
0x412d5c:	add	byte ptr [rax], al
0x412d5e:	add	byte ptr [rax], al
0x412d60:	add	rsp, 8
0x412d64:	pop	rbx
0x412d65:	pop	rbp
0x412d66:	pop	r12
0x412d68:	pop	r13
0x412d6a:	ret	
F 0x40d4a7
0x40d4a7:	sal	byte ptr [rdi + rbp + 0x48], 0x89
0x40d4ac:	ret	
F 0x41b563
0x407016:	ret	
F 0x410552
0x407016:	ret	
F 0x409e8f
0x409e8f:	pop	r12
0x409e91:	pop	r13
0x409e93:	pop	r14
0x409e95:	ret	
F 0x4148a6
0x4148a6:	xor	eax, eax
0x4148a8:	test	r12d, r12d
0x4148ab:	pop	rbp
0x4148ac:	sete	al
0x4148af:	pop	r12
0x4148b1:	pop	r13
0x4148b3:	ret	
F 0x41b8b8
0x41b8b8:	mov	esi, 0x5a58fffe
0x41b8bd:	pop	rbp
0x41b8be:	ret	
F 0x4148a9
0x4148a9:	test	esp, esp
0x4148ab:	pop	rbp
0x4148ac:	sete	al
0x4148af:	pop	r12
0x4148b1:	pop	r13
0x4148b3:	ret	
F 0x413e67
0x413e67:	nop	dword ptr cs:[rax + rax]
0x413e70:	pop	rbx
0x413e71:	ret	
F 0x409d15
0x409d15:	add	byte ptr [rax], al
0x409d17:	add	byte ptr [rbp + 0x2a], dh
0x409d1a:	add	rsp, 0x28
0x409d1e:	xor	eax, eax
0x409d20:	pop	rbx
0x409d21:	pop	rbp
0x409d22:	ret	
F 0x40c39e
0x407016:	ret	
F 0x41caa5
0x41caa5:	inc	dword ptr [rcx + rcx*4 - 0x18]
0x41caa9:	pop	rbp
0x41caaa:	pop	r12
0x41caac:	pop	r13
0x41caae:	ret	
F 0x40ad3d
0x40a3a0:	pop	rdi
0x40a3a1:	ret	
F 0x41ee99
0x4090d8:	pop	rbx
0x4090d9:	pop	rbp
0x4090da:	ret	
F 0x40f17b
0x408a92:	pop	rbp
0x408a93:	pop	r12
0x408a95:	pop	r13
0x408a97:	ret	
F 0x415d0c
0x408530:	pop	r12
0x408532:	ret	
F 0x416bda
0x416bda:	pop	rbx
0x416bdd:	pop	rbp
0x416bde:	pop	r12
0x416be0:	ret	
F 0x40bd3a
0x40bd3a:	push	rdx
0x40bd3b:	ret	
F 0x417641
0x409e8d:	pop	rbx
0x409e8e:	pop	rbp
0x409e8f:	pop	r12
0x409e91:	pop	r13
0x409e93:	pop	r14
0x409e95:	ret	
F 0x41b685
0x41b685:	push	rdi
0x41b686:	ret	
F 0x40955e
0x40955e:	rcr	byte ptr [rbx - 0x7b], 0xd2
0x409562:	setne	al
0x409565:	ret	
F 0x41db5b
0x41db5b:	mov	qword ptr [rbx + 0x40], rax
0x41db5f:	add	rsp, 8
0x41db63:	mov	eax, 1
0x41db68:	pop	rbx
0x41db69:	pop	rbp
0x41db6a:	ret	
F 0x40fe62
0x4090d4:	add	rsp, 8
0x4090d8:	pop	rbx
0x4090d9:	pop	rbp
0x4090da:	ret	
F 0x409719
0x409719:	nop	dword ptr [rax]
0x409720:	xor	r8d, r8d
0x409723:	add	rsp, 8
0x409727:	mov	rax, r8
0x40972a:	ret	
F 0x40afd7
0x407016:	ret	
F 0x417c24
0x40852f:	pop	rbp
0x408530:	pop	r12
0x408532:	ret	
F 0x40b853
0x40b853:	mov	ebp, 0x15e8ffff
0x40b858:	ret	
F 0x412ffd
0x407016:	ret	
F 0x41d160
0x407016:	ret	
F 0x4174d0
0x408a95:	pop	r13
0x408a97:	ret	
F 0x40cddb
0x408530:	pop	r12
0x408532:	ret	
F 0x40966f
0x4088cf:	pop	rdx
0x4088d0:	pop	rcx
0x4088d1:	pop	rbp
0x4088d2:	ret	
F 0x411813
0x411813:	dec	dword ptr [rax - 0x75]
0x411816:	add	eax, 0x1f8cd
0x41181b:	add	rsp, 0x18
0x41181f:	ret	
F 0x40e64d
0x408a8f:	mov	eax, esp
0x408a91:	pop	rbx
0x408a92:	pop	rbp
0x408a93:	pop	r12
0x408a95:	pop	r13
0x408a97:	ret	
F 0x415ff4
0x408c6e:	pop	rbx
0x408c6f:	ret	
F 0x41c601
0x408b71:	add	rsp, 0x18
0x408b75:	ret	
F 0x40ab89
0x407016:	ret	
F 0x41922d
0x41922d:	test	dword ptr [rdx + 4], eax
0x419230:	add	byte ptr [rax], al
0x419232:	add	rsp, 0x28
0x419236:	pop	rbx
0x419237:	pop	rbp
0x419238:	pop	r12
0x41923a:	pop	r13
0x41923c:	pop	r14
0x41923e:	pop	r15
0x419240:	ret	
F 0x41674b
0x41674b:	adc	dword ptr [rdx], 0x8948ffff
0x416751:	push	0x8c48348
0x416757:	pop	rbx
0x416758:	pop	rbp
0x416759:	ret	
F 0x408f0e
0x408c6e:	pop	rbx
0x408c6f:	ret	
F 0x4126f8
0x4090d4:	add	rsp, 8
0x4090d8:	pop	rbx
0x4090d9:	pop	rbp
0x4090da:	ret	
F 0x41d4ff
0x41ca6d:	mov	dh, 0xc0
0x41ca6f:	ret	
F 0x41840e
0x407016:	ret	
F 0x414e98
0x414e98:	nop	dword ptr [rax + rax]
0x414ea0:	pop	rbx
0x414ea1:	pop	rbp
0x414ea2:	pop	r12
0x414ea4:	ret	
F 0x40a1c6
0x409e94:	pop	rsi
0x409e95:	ret	
F 0x41838e
0x407016:	ret	
F 0x40ea7a
0x40ea7a:	mov	rax, qword ptr [rip + 0x22647]
0x40ea81:	add	rsp, 0x18
0x40ea85:	ret	
F 0x408ed5
0x407016:	ret	
F 0x409d21
0x40885f:	pop	rbp
0x408860:	ret	
F 0x41a911
0x407016:	ret	
F 0x41b1dd
0x40885f:	pop	rbp
0x408860:	ret	
F 0x41d874
0x41d874:	sete	ch
0x41d877:	mov	eax, r13d
0x41d87a:	pop	rbp
0x41d87b:	pop	r12
0x41d87d:	pop	r13
0x41d87f:	ret	
F 0x40dd1e
0x407016:	ret	
F 0x41bddb
0x41bddb:	ret	
F 0x41404c
0x413e6c:	add	byte ptr [rax], al
0x413e6e:	add	byte ptr [rax], al
0x413e70:	pop	rbx
0x413e71:	ret	
F 0x4154ba
0x408a93:	pop	r12
0x408a95:	pop	r13
0x408a97:	ret	
F 0x409be6
0x409be6:	add	rsp, 0x18
0x409bea:	pop	rbx
0x409beb:	pop	rbp
0x409bec:	ret	
F 0x40fd2f
0x40fd2f:	fnstsw	dword ptr [rax - 1]
0x40fd32:	dec	dword ptr [rax - 0x77]
0x40fd35:	add	eax, 0x21386
0x40fd3a:	add	rsp, 8
0x40fd3e:	ret	
F 0x416e27
0x409e94:	pop	rsi
0x409e95:	ret	
F 0x4188a5
0x4188a5:	inc	dword ptr [rbp - 0x74f98b40]
0x4188ab:	sub	al, 0x5b
0x4188ae:	ret	
F 0x41e280
0x40afd4:	add	byte ptr [rax - 0x77], cl
0x40afd7:	ret	
F 0x415733
0x415733:	add	byte ptr [rax], al
0x415735:	add	dh, dh
0x415737:	or	byte ptr [rbp + 0x44], r14b
0x41573c:	pop	rbp
0x41573d:	ret	
F 0x409444
0x409444:	add	byte ptr [rax], al
0x409446:	pop	rbx
0x409447:	ret	
F 0x414e9f
0x40cdd8:	add	byte ptr [rbx + 0x5d], bl
0x40cddb:	pop	r12
0x40cddd:	ret	
F 0x414b0b
0x414b0b:	pop	rbx
0x414b0e:	ret	
F 0x40852e
0x40852e:	rcr	byte ptr [rbp + 0x41], 0x5c
0x408532:	ret	
F 0x417083
0x407016:	ret	
F 0x411818
0x411818:	clc	
0x411819:	add	dword ptr [rax], eax
0x41181b:	add	rsp, 0x18
0x41181f:	ret	
F 0x408df7
0x407016:	ret	
F 0x408b6c
0x408b6c:	add	eax, 0x284ff
0x408b71:	add	rsp, 0x18
0x408b75:	ret	
F 0x40ec83
0x40ec83:	nop	dword ptr [rax + rax]
0x40ec88:	add	rsp, 8
0x40ec8c:	pop	rbx
0x40ec8d:	pop	rbp
0x40ec8e:	pop	r12
0x40ec90:	pop	r13
0x40ec92:	ret	
F 0x41983f
0x407c57:	ret	0
F 0x40c16b
0x40a39d:	pop	r14
0x40a39f:	pop	r15
0x40a3a1:	ret	
F 0x408530
0x408530:	pop	r12
0x408532:	ret	
F 0x41adae
0x407016:	ret	
F 0x408fa5
0x408e6e:	add	rsp, 0x20
0x408e72:	pop	rbx
0x408e73:	pop	rbp
0x408e74:	pop	r12
0x408e76:	ret	
F 0x41daca
0x41daca:	mov	dword ptr [rdi + 0x2c], esi
0x41dacd:	add	rsp, 8
0x41dad1:	ret	
F 0x4184a1
0x40885f:	pop	rbp
0x408860:	ret	
F 0x41e703
0x41e703:	add	byte ptr [rax], al
0x41e705:	pop	rbp
0x41e706:	pop	r12
0x41e708:	pop	r13
0x41e70a:	pop	r14
0x41e70c:	ret	
F 0x4198ba
0x407016:	ret	
F 0x417986
0x407016:	ret	
F 0x410db1
0x40a39b:	pop	r13
0x40a39d:	pop	r14
0x40a39f:	pop	r15
0x40a3a1:	ret	
F 0x40b9a3
0x40b9a3:	ret	0xc7e8
F 0x415b21
0x40852f:	pop	rbp
0x408530:	pop	r12
0x408532:	ret	
F 0x417acc
0x407016:	ret	
F 0x419bbe
0x419bbe:	add	rsp, 8
0x419bc2:	xor	eax, eax
0x419bc4:	pop	rbx
0x419bc5:	pop	rbp
0x419bc6:	pop	r12
0x419bc8:	pop	r13
0x419bca:	ret	
F 0x408820
0x4087df:	jmp	rax
F 0x4178e7
0x40a39f:	pop	r15
0x40a3a1:	ret	
F 0x40cf1b
0x40a39d:	pop	r14
0x40a39f:	pop	r15
0x40a3a1:	ret	
F 0x411885
0x40a39c:	pop	rbp
0x40a39d:	pop	r14
0x40a39f:	pop	r15
0x40a3a1:	ret	
F 0x40fff7
0x40e83a:	add	rsp, 0x18
0x40e83e:	pop	rbx
0x40e83f:	pop	rbp
0x40e840:	pop	r12
0x40e842:	pop	r13
0x40e844:	pop	r14
0x40e846:	pop	r15
0x40e848:	ret	
F 0x41d4c7
0x41d4c7:	dec	dword ptr [rax - 0x77]
0x41d4ca:	cmp	byte ptr [r8 + 1], dil
0x41d4d1:	add	rsp, 8
0x41d4d5:	pop	rbx
0x41d4d6:	pop	rbp
0x41d4d7:	ret	
F 0x417140
0x417140:	ret	0
F 0x40d867
0x40d867:	add	rsp, 0xa0
0x40d86e:	pop	rbx
0x40d86f:	pop	rbp
0x40d870:	pop	r12
0x40d872:	pop	r13
0x40d874:	pop	r14
0x40d876:	ret	
F 0x40ed4b
0x4090d7:	or	byte ptr [rbx + 0x5d], bl
0x4090da:	ret	
F 0x40bd59
0x40a398:	pop	rbp
0x40a399:	pop	r12
0x40a39b:	pop	r13
0x40a39d:	pop	r14
0x40a39f:	pop	r15
0x40a3a1:	ret	
F 0x419e61
0x409e93:	pop	r14
0x409e95:	ret	
F 0x415b22
0x408530:	pop	r12
0x408532:	ret	
F 0x40e0d0
0x408a95:	pop	r13
0x408a97:	ret	
F 0x415984
0x413e64:	add	byte ptr [rax], al
0x413e66:	nop	word ptr cs:[rax + rax]
0x413e70:	pop	rbx
0x413e71:	ret	
F 0x41c4d0
0x407016:	ret	
F 0x41e839
0x407016:	ret	
F 0x407c67
0x407016:	ret	
F 0x40eab8
0x40ea7e:	add	al, byte ptr es:[rax]
0x40ea81:	add	rsp, 0x18
0x40ea85:	ret	
F 0x41978e
0x411e56:	add	byte ptr [rax], al
0x411e58:	add	rsp, 8
0x411e5c:	pop	rbx
0x411e5d:	pop	rbp
0x411e5e:	ret	
F 0x414aae
0x41178c:	add	byte ptr [rax], al
0x41178e:	xor	eax, eax
0x411790:	pop	rbx
0x411791:	ret	
F 0x417a0f
0x409e8e:	pop	rbp
0x409e8f:	pop	r12
0x409e91:	pop	r13
0x409e93:	pop	r14
0x409e95:	ret	
F 0x40a8c6
0x409e93:	pop	r14
0x409e95:	ret	
F 0x417a12
0x409e91:	pop	r13
0x409e93:	pop	r14
0x409e95:	ret	
F 0x40e64f
0x408a91:	pop	rbx
0x408a92:	pop	rbp
0x408a93:	pop	r12
0x408a95:	pop	r13
0x408a97:	ret	
F 0x409e8c
0x409e8c:	and	byte ptr [rbx + 0x5d], bl
0x409e8f:	pop	r12
0x409e91:	pop	r13
0x409e93:	pop	r14
0x409e95:	ret	
F 0x40d873
0x409e92:	pop	rbp
0x409e93:	pop	r14
0x409e95:	ret	
F 0x41e5cb
0x407016:	ret	
F 0x413d6e
0x413d6e:	dec	dword ptr [rax - 0x7b]
0x413d71:	sal	byte ptr [rbx + rcx + 0x48], 0x39
0x413d76:	ret	
F 0x411533
0x40ad33:	cmp	byte ptr [rbx + 0x5d], bl
0x40ad36:	pop	r12
0x40ad38:	pop	r13
0x40ad3a:	pop	r14
0x40ad3c:	pop	r15
0x40ad3e:	ret	
F 0x40e43a
0x40e43a:	test	byte ptr [rax], al
0x40e43c:	add	byte ptr [rax], al
0x40e43e:	add	byte ptr [rax], al
0x40e440:	ret	
F 0x419b86
0x408a95:	pop	r13
0x408a97:	ret	
F 0x4196f5
0x4196f5:	mov	eax, dword ptr [rip + 0x17b25]
0x4196fb:	add	rsp, 0x18
0x4196ff:	ret	
F 0x415fb9
0x415fb9:	add	byte ptr [rbp + 0xa], dh
0x415fbc:	add	rsp, 0x20
0x415fc0:	mov	rax, r12
0x415fc3:	pop	r12
0x415fc5:	ret	
F 0x414b0d
0x408c6e:	pop	rbx
0x408c6f:	ret	
F 0x40ebfc
0x407016:	ret	
F 0x41e749
0x41e749:	xor	eax, eax
0x41e74b:	pop	rbx
0x41e74c:	pop	rbp
0x41e74d:	pop	r12
0x41e74f:	pop	r13
0x41e751:	pop	r14
0x41e753:	ret	
F 0x414325
0x408a92:	pop	rbp
0x408a93:	pop	r12
0x408a95:	pop	r13
0x408a97:	ret	
F 0x41c9c4
0x40852f:	pop	rbp
0x408530:	pop	r12
0x408532:	ret	
F 0x415737
0x415737:	or	byte ptr [rbp + 0x44], r14b
0x41573c:	pop	rbp
0x41573d:	ret	
F 0x40a39b
0x40a39b:	pop	r13
0x40a39d:	pop	r14
0x40a39f:	pop	r15
0x40a3a1:	ret	
F 0x40f17c
0x408a93:	pop	r12
0x408a95:	pop	r13
0x408a97:	ret	
F 0x41d4f8
0x41d4f8:	xchg	eax, ebp
0x41d4f9:	ror	byte ptr [rax - 0x7d], 0xc4
0x41d4fd:	or	byte ptr [rdi], cl
0x41d4ff:	mov	dh, 0xc0
0x41d501:	ret	
F 0x41e1c5
0x40a39f:	pop	r15
0x40a3a1:	ret	
F 0x40bf1e
0x409e92:	pop	rbp
0x409e93:	pop	r14
0x409e95:	ret	
F 0x40cf1c
0x40a39e:	pop	rsi
0x40a39f:	pop	r15
0x40a3a1:	ret	
F 0x416bd8
0x416bd8:	mov	qword ptr [rbp + 0x48], rax
0x416bdc:	pop	rbx
0x416bdd:	pop	rbp
0x416bde:	pop	r12
0x416be0:	ret	
F 0x41999c
0x413e6c:	add	byte ptr [rax], al
0x413e6e:	add	byte ptr [rax], al
0x413e70:	pop	rbx
0x413e71:	ret	
F 0x41742e
0x41742e:	popfq	
0x41742f:	add	dword ptr [rax], eax
0x417431:	add	rsp, 0x18
0x417435:	ret	
F 0x41d87e
0x40885f:	pop	rbp
0x408860:	ret	
F 0x41e74b
0x409e8d:	pop	rbx
0x409e8e:	pop	rbp
0x409e8f:	pop	r12
0x409e91:	pop	r13
0x409e93:	pop	r14
0x409e95:	ret	
F 0x40a930
0x40a930:	mov	dword ptr [rbx + 8], eax
0x40a933:	add	rsp, 8
0x40a937:	pop	rbx
0x40a938:	pop	rbp
0x40a939:	pop	r12
0x40a93b:	pop	r13
0x40a93d:	pop	r14
0x40a93f:	pop	r15
0x40a941:	ret	
F 0x41dff2
0x41dfc2:	add	dword ptr [r8 - 0x7d], ecx
0x41dfc6:	ret	
F 0x40e590
0x40852f:	pop	rbp
0x408530:	pop	r12
0x408532:	ret	
F 0x40ba01
0x40ba01:	stosd	dword ptr [rdi], eax
0x40ba02:	ret	
F 0x40afce
0x40afce:	ror	byte ptr [rbx + 0x260df35], cl
0x40afd4:	add	byte ptr [rax - 0x77], cl
0x40afd7:	ret	
F 0x419930
0x408c6e:	pop	rbx
0x408c6f:	ret	
F 0x408a91
0x408a91:	pop	rbx
0x408a92:	pop	rbp
0x408a93:	pop	r12
0x408a95:	pop	r13
0x408a97:	ret	
F 0x41d147
0x41d147:	nop	word ptr [rax + rax]
0x41d150:	ret	
F 0x418ff6
0x408a92:	pop	rbp
0x408a93:	pop	r12
0x408a95:	pop	r13
0x408a97:	ret	
F 0x41286b
0x4090d7:	or	byte ptr [rbx + 0x5d], bl
0x4090da:	ret	
F 0x40887d
0x40887d:	add	byte ptr [rax], al
0x40887f:	nop	
0x408880:	ret	
F 0x414043
0x413e63:	add	byte ptr [r8], al
0x413e66:	nop	word ptr cs:[rax + rax]
0x413e70:	pop	rbx
0x413e71:	ret	
F 0x40c164
0x40ad33:	cmp	byte ptr [rbx + 0x5d], bl
0x40ad36:	pop	r12
0x40ad38:	pop	r13
0x40ad3a:	pop	r14
0x40ad3c:	pop	r15
0x40ad3e:	ret	
F 0x40d507
0x408a95:	pop	r13
0x408a97:	ret	
F 0x40c938
0x407016:	ret	
F 0x41b8be
0x407016:	ret	
F 0x41828d
0x40885f:	pop	rbp
0x408860:	ret	
F 0x411fc3
0x411e53:	add	byte ptr [rax], 0
0x411e56:	add	byte ptr [rax], al
0x411e58:	add	rsp, 8
0x411e5c:	pop	rbx
0x411e5d:	pop	rbp
0x411e5e:	ret	
F 0x41394d
0x408c6e:	pop	rbx
0x408c6f:	ret	
F 0x41e74f
0x409e91:	pop	r13
0x409e93:	pop	r14
0x409e95:	ret	
F 0x41c636
0x41c636:	add	eax, 0x14c3d
0x41c63b:	add	rsp, 0x18
0x41c63f:	ret	
F 0x40ec90
0x408a95:	pop	r13
0x408a97:	ret	
F 0x40e6c9
0x40885f:	pop	rbp
0x408860:	ret	
F 0x417816
0x417816:	add	byte ptr [rbx + 0x5d], bl
0x41781a:	pop	r12
0x41781c:	ret	
F 0x40dbe8
0x40dbe8:	add	byte ptr [rbp + 6], dh
0x40dbeb:	add	rsp, 0x10
0x40dbef:	pop	rbp
0x40dbf0:	ret	
F 0x41d87f
0x407016:	ret	
F 0x40a939
0x40a399:	pop	r12
0x40a39b:	pop	r13
0x40a39d:	pop	r14
0x40a39f:	pop	r15
0x40a3a1:	ret	
F 0x415f0f
0x415f0f:	add	byte ptr [rax - 0x73], cl
0x415f12:	add	eax, 0x1559
0x415f17:	mov	qword ptr [rdi + 0x10], rax
0x415f1b:	ret	
F 0x41bc7e
0x408a91:	pop	rbx
0x408a92:	pop	rbp
0x408a93:	pop	r12
0x408a95:	pop	r13
0x408a97:	ret	
F 0x4184f8
0x4184f8:	sal	byte ptr [rbp + rdi - 0x75], 0x45
0x4184fd:	sub	byte ptr [rbp + 0x5d0675c0], al
0x418503:	ret	
F 0x40a334
0x407016:	ret	
F 0x41d445
0x407016:	ret	
F 0x41db69
0x40885f:	pop	rbp
0x408860:	ret	
F 0x409441
0x409441:	mov	eax, 1
0x409446:	pop	rbx
0x409447:	ret	
F 0x41e924
0x41e924:	pop	rbx
0x41e925:	xor	eax, eax
0x41e927:	pop	rbp
0x41e928:	pop	r12
0x41e92a:	ret	
F 0x413fa6
0x413e66:	nop	word ptr cs:[rax + rax]
0x413e70:	pop	rbx
0x413e71:	ret	
F 0x41846d
0x41846d:	sub	byte ptr [rbp + 0x5d0674c0], al
0x418473:	ret	
F 0x41e1bf
0x40a399:	pop	r12
0x40a39b:	pop	r13
0x40a39d:	pop	r14
0x40a39f:	pop	r15
0x40a3a1:	ret	
F 0x41d813
0x41d1f3:	nop	
0x41d1f4:	mov	byte ptr [rax], al
0x41d1f6:	add	byte ptr [rax], al
0x41d1f8:	pop	rbp
0x41d1f9:	ret	
F 0x416b68
0x407016:	ret	
F 0x408faa
0x40852f:	pop	rbp
0x408530:	pop	r12
0x408532:	ret	
F 0x411442
0x411442:	add	byte ptr [rbp + 0x22], dh
0x411445:	add	rsp, 0x18
0x411449:	pop	rbp
0x41144a:	pop	r12
0x41144c:	ret	
F 0x40bf1b
0x409e8f:	pop	r12
0x409e91:	pop	r13
0x409e93:	pop	r14
0x409e95:	ret	
F 0x4199a1
0x407016:	ret	
F 0x413a1f
0x413a1f:	add	rsp, 0x28
0x413a23:	pop	rbp
0x413a24:	pop	r12
0x413a26:	ret	
F 0x40f4e9
0x407016:	ret	
F 0x40d82e
0x40d82e:	sbb	byte ptr [rax - 0x7d], cl
0x40d831:	ret	
F 0x41dead
0x408a91:	pop	rbx
0x408a92:	pop	rbp
0x408a93:	pop	r12
0x408a95:	pop	r13
0x408a97:	ret	
F 0x408858
0x408858:	mov	byte ptr [rip + 0x28801], 1
0x40885f:	pop	rbp
0x408860:	ret	
F 0x413d4d
0x40852f:	pop	rbp
0x408530:	pop	r12
0x408532:	ret	
F 0x40b451
0x408b71:	add	rsp, 0x18
0x408b75:	ret	
F 0x40d955
0x408a95:	pop	r13
0x408a97:	ret	
F 0x41178e
0x41178e:	xor	eax, eax
0x411790:	pop	rbx
0x411791:	ret	
F 0x418ff5
0x408a91:	pop	rbx
0x408a92:	pop	rbp
0x408a93:	pop	r12
0x408a95:	pop	r13
0x408a97:	ret	
F 0x412ff3
0x412ff3:	nop	dword ptr [rax + rax]
0x412ff8:	pop	rbp
0x412ff9:	pop	r12
0x412ffb:	pop	r13
0x412ffd:	ret	
F 0x40bab6
0x40bab6:	mov	eax, dword ptr [rax]
0x40bab8:	add	rsp, 8
0x40babc:	pop	rbx
0x40babd:	pop	rbp
0x40babe:	ret	
F 0x40cdd7
0x40cdd7:	add	byte ptr [rax], al
0x40cdd9:	pop	rbx
0x40cdda:	pop	rbp
0x40cddb:	pop	r12
0x40cddd:	ret	
F 0x40ca1a
0x407c57:	ret	0
F 0x40a390
0x40a390:	add	rsp, 0x98
0x40a397:	pop	rbx
0x40a398:	pop	rbp
0x40a399:	pop	r12
0x40a39b:	pop	r13
0x40a39d:	pop	r14
0x40a39f:	pop	r15
0x40a3a1:	ret	
F 0x41af1c
0x41820c:	pop	rdx
0x41820d:	pop	rbp
0x41820e:	ret	
F 0x4196c5
0x407016:	ret	
F 0x40d746
0x40d6a6:	add	rsp, 0x10
0x40d6aa:	pop	rbp
0x40d6ab:	pop	r12
0x40d6ad:	pop	r13
0x40d6af:	ret	
F 0x41e417
0x41e417:	test	byte ptr [rdi - 0x7cb80000], al
0x41e41d:	ret	
F 0x41f730
0x41f730:	mov	eax, r12d
0x41f733:	pop	rbx
0x41f734:	pop	r12
0x41f736:	pop	r13
0x41f738:	ret	
F 0x41e5c1
0x41e5c1:	sbb	ebx, dword ptr [rsi + rdi*8 + 0x7b8b48ff]
0x41e5c8:	or	byte ptr [rax - 0x7d], cl
0x41e5cb:	ret	
F 0x40eabb
0x408b71:	add	rsp, 0x18
0x408b75:	ret	
F 0x41c90e
0x407016:	ret	
F 0x41c2d3
0x40a398:	pop	rbp
0x40a399:	pop	r12
0x40a39b:	pop	r13
0x40a39d:	pop	r14
0x40a39f:	pop	r15
0x40a3a1:	ret	
F 0x41caa7
0x41caa7:	mov	eax, ebp
0x41caa9:	pop	rbp
0x41caaa:	pop	r12
0x41caac:	pop	r13
0x41caae:	ret	
F 0x411879
0x411879:	add	rsp, 0x28
0x41187d:	mov	eax, r14d
0x411880:	pop	rbx
0x411881:	pop	rbp
0x411882:	pop	r12
0x411884:	pop	r13
0x411886:	pop	r14
0x411888:	pop	r15
0x41188a:	ret	
F 0x40ce61
0x40885f:	pop	rbp
0x408860:	ret	
F 0x4178e4
0x40a39c:	pop	rbp
0x40a39d:	pop	r14
0x40a39f:	pop	r15
0x40a3a1:	ret	
F 0x41763d
0x40a1bb:	add	rsp, 0x10
0x40a1bf:	pop	rbx
0x40a1c0:	pop	rbp
0x40a1c1:	pop	r12
0x40a1c3:	pop	r13
0x40a1c5:	pop	r14
0x40a1c7:	ret	
F 0x4185c2
0x407016:	ret	
F 0x40cf19
0x40a39b:	pop	r13
0x40a39d:	pop	r14
0x40a39f:	pop	r15
0x40a3a1:	ret	
F 0x40a1c0
0x409e8e:	pop	rbp
0x409e8f:	pop	r12
0x409e91:	pop	r13
0x409e93:	pop	r14
0x409e95:	ret	
F 0x411880
0x40a397:	pop	rbx
0x40a398:	pop	rbp
0x40a399:	pop	r12
0x40a39b:	pop	r13
0x40a39d:	pop	r14
0x40a39f:	pop	r15
0x40a3a1:	ret	
F 0x4141b0
0x408e72:	pop	rbx
0x408e73:	pop	rbp
0x408e74:	pop	r12
0x408e76:	ret	
F 0x414651
0x414580:	add	rsp, 8
0x414584:	mov	rax, r13
0x414587:	pop	rbp
0x414588:	pop	r12
0x41458a:	pop	r13
0x41458c:	pop	r14
0x41458e:	ret	
F 0x419b82
0x408a91:	pop	rbx
0x408a92:	pop	rbp
0x408a93:	pop	r12
0x408a95:	pop	r13
0x408a97:	ret	
F 0x419a0b
0x416cab:	add	byte ptr [rax], 0
0x416cae:	add	byte ptr [rax], al
0x416cb0:	pop	rbx
0x416cb1:	ret	
F 0x41565f
0x40cdd6:	add	byte ptr [rax], al
0x40cdd8:	add	byte ptr [rbx + 0x5d], bl
0x40cddb:	pop	r12
0x40cddd:	ret	
F 0x41c843
0x40a39f:	pop	r15
0x40a3a1:	ret	
F 0x414a3e
0x408c6e:	pop	rbx
0x408c6f:	ret	
F 0x4148ae
0x4148ae:	rol	byte ptr [rcx + 0x5c], 0x41
0x4148b2:	pop	rbp
0x4148b3:	ret	
F 0x41c51f
0x4088cf:	pop	rdx
0x4088d0:	pop	rcx
0x4088d1:	pop	rbp
0x4088d2:	ret	
F 0x409562
0x409562:	setne	al
0x409565:	ret	
F 0x40cc06
0x408530:	pop	r12
0x408532:	ret	
F 0x41ee4f
0x41ee4f:	add	rsp, 8
0x41ee53:	mov	rax, rdi
0x41ee56:	pop	rbx
0x41ee57:	pop	rbp
0x41ee58:	ret	
F 0x40ea77
0x40ea77:	sal	byte ptr [rsi + rdx + 0x48], 0x8b
0x40ea7c:	add	eax, 0x22647
0x40ea81:	add	rsp, 0x18
0x40ea85:	ret	
F 0x41992c
0x413e6c:	add	byte ptr [rax], al
0x413e6e:	add	byte ptr [rax], al
0x413e70:	pop	rbx
0x413e71:	ret	
F 0x41dbfb
0x41dbfb:	mov	qword ptr [rbx + 0x30], rax
0x41dbff:	add	rsp, 8
0x41dc03:	mov	eax, 1
0x41dc08:	pop	rbx
0x41dc09:	pop	rbp
0x41dc0a:	ret	
F 0x40dd15
0x40a1be:	adc	byte ptr [rbx + 0x5d], bl
0x40a1c1:	pop	r12
0x40a1c3:	pop	r13
0x40a1c5:	pop	r14
0x40a1c7:	ret	
F 0x41be67
0x41be67:	add	rsp, 0x18
0x41be6c:	pop	rbx
0x41be6d:	pop	rbp
0x41be6e:	pop	r12
0x41be70:	pop	r13
0x41be72:	ret	
F 0x415f11
0x415f11:	lea	eax, [rip + 0x1559]
0x415f17:	mov	qword ptr [rdi + 0x10], rax
0x415f1b:	ret	
F 0x41d30a
0x40d382:	xor	eax, eax
0x40d384:	pop	rbp
0x40d385:	ret	
F 0x40ba16
0x40ba16:	add	byte ptr [rbx + 0x5d], bl
0x40ba19:	ret	
F 0x417464
0x417464:	mov	rax, qword ptr [rip + 0x19d15]
0x41746b:	add	rsp, 0x18
0x41746f:	ret	
F 0x41d24f
0x4117df:	add	dword ptr [rax], eax
0x4117e1:	add	rsp, 0x18
0x4117e5:	ret	
F 0x4174cb
0x4174cb:	and	al, 0x31
0x4174cd:	rol	byte ptr [rcx + 0x5c], 0x41
0x4174d1:	pop	rbp
0x4174d2:	ret	
F 0x417468
0x41742e:	popfq	
0x41742f:	add	dword ptr [rax], eax
0x417431:	add	rsp, 0x18
0x417435:	ret	
F 0x41ca28
0x41ca28:	add	dword ptr [rax], eax
0x41ca2a:	add	byte ptr [rax], al
0x41ca2c:	pop	rbp
0x41ca2d:	ret	
F 0x40955a
0x40955a:	mov	edx, dword ptr [rbx + 0x44]
0x40955d:	xor	eax, eax
0x40955f:	pop	rbx
0x409560:	test	edx, edx
0x409562:	setne	al
0x409565:	ret	
F 0x40dd1b
0x409e92:	pop	rbp
0x409e93:	pop	r14
0x409e95:	ret	
F 0x418622
0x40885f:	pop	rbp
0x408860:	ret	
F 0x40e914
0x40afd4:	add	byte ptr [rax - 0x77], cl
0x40afd7:	ret	
F 0x40b9da
0x407016:	ret	
F 0x417a0e
0x409e8d:	pop	rbx
0x409e8e:	pop	rbp
0x409e8f:	pop	r12
0x409e91:	pop	r13
0x409e93:	pop	r14
0x409e95:	ret	
F 0x416cac
0x413e6c:	add	byte ptr [rax], al
0x413e6e:	add	byte ptr [rax], al
0x413e70:	pop	rbx
0x413e71:	ret	
F 0x41dca9
0x40885f:	pop	rbp
0x408860:	ret	
F 0x40bf1d
0x409e91:	pop	r13
0x409e93:	pop	r14
0x409e95:	ret	
F 0x40aba0
0x40aba0:	dec	dword ptr [rax - 0x77]
0x40aba3:	ret	
F 0x40fffb
0x40a397:	pop	rbx
0x40a398:	pop	rbp
0x40a399:	pop	r12
0x40a39b:	pop	r13
0x40a39d:	pop	r14
0x40a39f:	pop	r15
0x40a3a1:	ret	
F 0x40e2ea
0x40ba11:	or	byte ptr [rax + 1], bh
0x40ba17:	pop	rbx
0x40ba18:	pop	rbp
0x40ba19:	ret	
F 0x41d247
0x41d247:	sal	byte ptr [rsi + rdx + 0x48], 0x8b
0x41d24c:	add	eax, 0x14087
0x41d251:	add	rsp, 0x18
0x41d255:	ret	
F 0x407016
0x407016:	ret	
F 0x415ff1
0x415ff1:	mov	dword ptr [rbx + 0x68], eax
0x415ff4:	pop	rbx
0x415ff5:	ret	
F 0x40a6fe
0x407016:	ret	
F 0x4105a4
0x4105a4:	sub	byte ptr [rdi + rdi*8 - 1], dh
0x4105a8:	mov	rax, qword ptr [rip + 0x20b59]
0x4105af:	mov	qword ptr [rbx + 0x90], rax
0x4105b6:	pop	rbx
0x4105b7:	ret	
F 0x417b6a
0x40852f:	pop	rbp
0x408530:	pop	r12
0x408532:	ret	
F 0x413d4b
0x408e71:	and	byte ptr [rbx + 0x5d], bl
0x408e74:	pop	r12
0x408e76:	ret	
F 0x411164
0x411164:	add	byte ptr [rbp + 7], dh
0x411167:	add	rsp, 0x28
0x41116b:	pop	rbx
0x41116c:	pop	rbp
0x41116d:	ret	
F 0x410002
0x40a39e:	pop	rsi
0x40a39f:	pop	r15
0x40a3a1:	ret	
F 0x4091f1
0x4091f1:	sub	byte ptr [rcx + rcx*4 - 0x20], al
0x4091f5:	pop	rbx
0x4091f6:	pop	rbp
0x4091f7:	pop	r12
0x4091f9:	pop	r13
0x4091fb:	ret	
F 0x410f7a
0x409e93:	pop	r14
0x409e95:	ret	
F 0x408a60
0x407016:	ret	
F 0x41410c
0x408a91:	pop	rbx
0x408a92:	pop	rbp
0x408a93:	pop	r12
0x408a95:	pop	r13
0x408a97:	ret	
F 0x417fb5
0x40a39e:	pop	rsi
0x40a39f:	pop	r15
0x40a3a1:	ret	
F 0x41465d
0x409e93:	pop	r14
0x409e95:	ret	
F 0x41cf9e
0x40885f:	pop	rbp
0x408860:	ret	
F 0x40d6ab
0x408a93:	pop	r12
0x408a95:	pop	r13
0x408a97:	ret	
F 0x408532
0x407016:	ret	
F 0x412ff6
0x4116ec:	add	byte ptr [rax], al
0x4116ee:	pop	rbp
0x4116ef:	pop	r12
0x4116f1:	pop	r13
0x4116f3:	ret	
F 0x4090da
0x407016:	ret	
F 0x41258e
0x407016:	ret	
F 0x41d3cf
0x408a93:	pop	r12
0x408a95:	pop	r13
0x408a97:	ret	
F 0x40d743
0x40d6a3:	add	byte ptr [rbp + 0xa], dh
0x40d6a6:	add	rsp, 0x10
0x40d6aa:	pop	rbp
0x40d6ab:	pop	r12
0x40d6ad:	pop	r13
0x40d6af:	ret	
F 0x414103
0x414103:	add	byte ptr [rax], 0
0x414106:	add	byte ptr [rax], al
0x414108:	add	rsp, 8
0x41410c:	pop	rbx
0x41410d:	pop	rbp
0x41410e:	pop	r12
0x414110:	pop	r13
0x414112:	ret	
F 0x41ae8b
0x40885f:	pop	rbp
0x408860:	ret	
F 0x416759
0x407016:	ret	
F 0x40ea7c
0x40ea7c:	add	eax, 0x22647
0x40ea81:	add	rsp, 0x18
0x40ea85:	ret	
F 0x415a4a
0x415a4a:	push	rbx
0x415a4b:	or	byte ptr [rax - 0x75], cl
0x415a4e:	xor	ecx, dword ptr [rax - 0x7d]
0x415a51:	ret	
F 0x41b49d
0x40885f:	pop	rbp
0x408860:	ret	
F 0x41838c
0x41820c:	pop	rdx
0x41820d:	pop	rbp
0x41820e:	ret	
F 0x40bd38
0x40bd38:	add	al, ch
0x40bd3a:	push	rdx
0x40bd3b:	ret	
F 0x40d05d
0x40a39c:	pop	rbp
0x40a39d:	pop	r14
0x40a39f:	pop	r15
0x40a3a1:	ret	
F 0x414a3a
0x414a3a:	mov	rax, qword ptr [rbx + 0x38]
0x414a3e:	pop	rbx
0x414a3f:	ret	
F 0x40a748
0x40a748:	pop	rdx
0x40a749:	pop	rbx
0x40a74a:	pop	rbp
0x40a74b:	pop	r12
0x40a74d:	pop	r13
0x40a74f:	pop	r14
0x40a751:	ret	
F 0x41d14c
0x4087e4:	add	byte ptr [rax], al
0x4087e6:	add	byte ptr [rax], al
0x4087e8:	ret	
F 0x41d4cb
0x41d4cb:	cmp	byte ptr [rax + 1], bh
0x41d4d1:	add	rsp, 8
0x41d4d5:	pop	rbx
0x41d4d6:	pop	rbp
0x41d4d7:	ret	
F 0x40d384
0x40885f:	pop	rbp
0x408860:	ret	
F 0x4122ad
0x40885f:	pop	rbp
0x408860:	ret	
F 0x416758
0x40885f:	pop	rbp
0x408860:	ret	
F 0x41831f
0x407016:	ret	
F 0x40fd3a
0x407012:	add	rsp, 8
0x407016:	ret	
F 0x41c2d7
0x40a39c:	pop	rbp
0x40a39d:	pop	r14
0x40a39f:	pop	r15
0x40a3a1:	ret	
F 0x41864f
0x4088cf:	pop	rdx
0x4088d0:	pop	rcx
0x4088d1:	pop	rbp
0x4088d2:	ret	
F 0x41d482
0x41d482:	mov	dword ptr [rbx + 0x38], eax
0x41d485:	add	rsp, 8
0x41d489:	mov	rax, r12
0x41d48c:	pop	rbx
0x41d48d:	pop	r12
0x41d48f:	ret	
F 0x411068
0x407016:	ret	
F 0x40885b
0x40885b:	mov	byte ptr [rdx], al
0x40885d:	add	byte ptr [rcx], al
0x40885f:	pop	rbp
0x408860:	ret	
F 0x40a0d3
0x40a0d3:	add	rsp, 0x18
0x40a0d7:	pop	rbx
0x40a0d8:	pop	rbp
0x40a0d9:	pop	r12
0x40a0db:	pop	r13
0x40a0dd:	ret	
F 0x40c39b
0x40a39e:	pop	rsi
0x40a39f:	pop	r15
0x40a3a1:	ret	
F 0x413e6c
0x413e6c:	add	byte ptr [rax], al
0x413e6e:	add	byte ptr [rax], al
0x413e70:	pop	rbx
0x413e71:	ret	
F 0x4105b6
0x408c6e:	pop	rbx
0x408c6f:	ret	
F 0x409557
0x409557:	sal	byte ptr [rsi + rdx - 0x75], 0x53
0x40955c:	xor	eax, r8d
0x40955f:	pop	rbx
0x409560:	test	edx, edx
0x409562:	setne	al
0x409565:	ret	
F 0x41213b
0x4090d7:	or	byte ptr [rbx + 0x5d], bl
0x4090da:	ret	
F 0x40e651
0x408a93:	pop	r12
0x408a95:	pop	r13
0x408a97:	ret	
F 0x41241d
0x40885f:	pop	rbp
0x408860:	ret	
F 0x41d2e7
0x41d2e7:	add	cl, ch
0x41d2e9:	ret	
F 0x4189c4
0x408530:	pop	r12
0x408532:	ret	
F 0x41be68
0x40a0d3:	add	rsp, 0x18
0x40a0d7:	pop	rbx
0x40a0d8:	pop	rbp
0x40a0d9:	pop	r12
0x40a0db:	pop	r13
0x40a0dd:	ret	
F 0x413fa3
0x413e63:	add	byte ptr [r8], al
0x413e66:	nop	word ptr cs:[rax + rax]
0x413e70:	pop	rbx
0x413e71:	ret	
F 0x41f807
0x40a39c:	pop	rbp
0x40a39d:	pop	r14
0x40a39f:	pop	r15
0x40a3a1:	ret	
F 0x41ca62
0x41ca62:	inc	dword ptr [rbp - 0x3f6bf040]
0x41ca68:	add	rsp, 8
0x41ca6c:	movzx	eax, al
0x41ca6f:	ret	
F 0x41104f
0x41104f:	add	byte ptr [rbp + 0x40], dh
0x411052:	add	rsp, 0x20
0x411056:	pop	rbx
0x411057:	pop	rbp
0x411058:	pop	r12
0x41105a:	ret	
F 0x408e71
0x408e71:	and	byte ptr [rbx + 0x5d], bl
0x408e74:	pop	r12
0x408e76:	ret	
F 0x419e60
0x409e92:	pop	rbp
0x409e93:	pop	r14
0x409e95:	ret	
F 0x40ebf7
0x40cdd8:	add	byte ptr [rbx + 0x5d], bl
0x40cddb:	pop	r12
0x40cddd:	ret	
F 0x416c43
0x408530:	pop	r12
0x408532:	ret	
F 0x40f8a0
0x408a95:	pop	r13
0x408a97:	ret	
F 0x40d505
0x408a93:	pop	r12
0x408a95:	pop	r13
0x408a97:	ret	
F 0x41c562
0x41c562:	mov	dword ptr [rax + 0x198], edx
0x41c568:	pop	rbp
0x41c569:	ret	
F 0x417e7f
0x40852f:	pop	rbp
0x408530:	pop	r12
0x408532:	ret	
F 0x4148ab
0x4148ab:	pop	rbp
0x4148ac:	sete	al
0x4148af:	pop	r12
0x4148b1:	pop	r13
0x4148b3:	ret	
F 0x41dd3a
0x41dd3a:	dec	dword ptr [rax - 0x77]
0x41dd3d:	push	r8
0x41dd3f:	add	rsp, 8
0x41dd43:	mov	eax, 1
0x41dd48:	pop	rbx
0x41dd49:	pop	rbp
0x41dd4a:	ret	
F 0x411392
0x4090d7:	or	byte ptr [rbx + 0x5d], bl
0x4090da:	ret	
F 0x412bbc
0x411e54:	add	byte ptr [rax], al
0x411e56:	add	byte ptr [rax], al
0x411e58:	add	rsp, 8
0x411e5c:	pop	rbx
0x411e5d:	pop	rbp
0x411e5e:	ret	
F 0x40b2d5
0x40b2d5:	test	dword ptr [rbx + 1], ecx
0x40b2d8:	add	byte ptr [rax], al
0x40b2da:	add	rsp, 0x18
0x40b2de:	pop	rbx
0x40b2df:	pop	rbp
0x40b2e0:	pop	r12
0x40b2e2:	pop	r13
0x40b2e4:	ret	
F 0x40ec31
0x407016:	ret	
F 0x4149cc
0x407016:	ret	
F 0x40a396
0x40a396:	add	byte ptr [rbx + 0x5d], bl
0x40a399:	pop	r12
0x40a39b:	pop	r13
0x40a39d:	pop	r14
0x40a39f:	pop	r15
0x40a3a1:	ret	
F 0x414c7e
0x408c6e:	pop	rbx
0x408c6f:	ret	
F 0x41c6d3
0x41c6d3:	add	rsp, 0x48
0x41c6d7:	pop	rbx
0x41c6d8:	pop	rbp
0x41c6d9:	ret	
F 0x40bda8
0x407016:	ret	
F 0x413f04
0x413e64:	add	byte ptr [rax], al
0x413e66:	nop	word ptr cs:[rax + rax]
0x413e70:	pop	rbx
0x413e71:	ret	
F 0x408ed2
0x40852f:	pop	rbp
0x408530:	pop	r12
0x408532:	ret	
F 0x40e83e
0x40a397:	pop	rbx
0x40a398:	pop	rbp
0x40a399:	pop	r12
0x40a39b:	pop	r13
0x40a39d:	pop	r14
0x40a39f:	pop	r15
0x40a3a1:	ret	
F 0x409e92
0x409e92:	pop	rbp
0x409e93:	pop	r14
0x409e95:	ret	
F 0x40b724
0x40b724:	add	byte ptr [rax - 0x77], cl
0x40b727:	ret	0x8548
F 0x413fa4
0x413e64:	add	byte ptr [rax], al
0x413e66:	nop	word ptr cs:[rax + rax]
0x413e70:	pop	rbx
0x413e71:	ret	
F 0x411052
0x408e6e:	add	rsp, 0x20
0x408e72:	pop	rbx
0x408e73:	pop	rbp
0x408e74:	pop	r12
0x408e76:	ret	
F 0x413a1a
0x413a1a:	add	byte ptr [rax], al
0x413a1c:	add	byte ptr [rbp + 0x5d], dh
0x413a1f:	add	rsp, 0x28
0x413a23:	pop	rbp
0x413a24:	pop	r12
0x413a26:	ret	
F 0x41dd49
0x40885f:	pop	rbp
0x408860:	ret	
F 0x41f801
0x40a936:	or	byte ptr [rbx + 0x5d], bl
0x40a939:	pop	r12
0x40a93b:	pop	r13
0x40a93d:	pop	r14
0x40a93f:	pop	r15
0x40a941:	ret	
F 0x413e66
0x413e66:	nop	word ptr cs:[rax + rax]
0x413e70:	pop	rbx
0x413e71:	ret	
F 0x415b24
0x407016:	ret	
F 0x41b8bd
0x40885f:	pop	rbp
0x408860:	ret	
F 0x40ed4d
0x40885f:	pop	rbp
0x408860:	ret	
F 0x40a394
0x40a394:	add	byte ptr [rax], al
0x40a396:	add	byte ptr [rbx + 0x5d], bl
0x40a399:	pop	r12
0x40a39b:	pop	r13
0x40a39d:	pop	r14
0x40a39f:	pop	r15
0x40a3a1:	ret	
F 0x415982
0x415982:	push	0x2c
0x415984:	add	byte ptr [rax], al
0x415986:	nop	word ptr cs:[rax + rax]
0x415990:	pop	rbx
0x415991:	ret	
F 0x416d69
0x407016:	ret	
F 0x41d80b
0x41d80b:	lea	edx, [rip + 0x9f]
0x41d811:	mov	qword ptr [rax + 0x88], rdx
0x41d818:	pop	rbp
0x41d819:	ret	
F 0x41d819
0x407016:	ret	
F 0x40a0d8
0x408a92:	pop	rbp
0x408a93:	pop	r12
0x408a95:	pop	r13
0x408a97:	ret	
F 0x4091ee
0x4091ee:	add	rsp, 0x28
0x4091f2:	mov	eax, r12d
0x4091f5:	pop	rbx
0x4091f6:	pop	rbp
0x4091f7:	pop	r12
0x4091f9:	pop	r13
0x4091fb:	ret	
F 0x41dfe8
0x41dfe8:	test	dword ptr [rax + 0x127701fa], 0xb60f9066
0x41dff2:	add	dword ptr [r8 - 0x7d], ecx
0x41dff6:	ret	
F 0x40b2e2
0x408a95:	pop	r13
0x408a97:	ret	
F 0x418701
0x407016:	ret	
F 0x419bc2
0x419bc2:	xor	eax, eax
0x419bc4:	pop	rbx
0x419bc5:	pop	rbp
0x419bc6:	pop	r12
0x419bc8:	pop	r13
0x419bca:	ret	
F 0x41ca27
0x41ca27:	mov	eax, 1
0x41ca2c:	pop	rbp
0x41ca2d:	ret	
F 0x414048
0x413e68:	nop	dword ptr [rax + rax]
0x413e70:	pop	rbx
0x413e71:	ret	
F 0x41c4cf
0x40887f:	nop	
0x408880:	ret	
F 0x419bc6
0x408a93:	pop	r12
0x408a95:	pop	r13
0x408a97:	ret	
F 0x40f89d
0x408a92:	pop	rbp
0x408a93:	pop	r12
0x408a95:	pop	r13
0x408a97:	ret	
F 0x40986b
0x407016:	ret	
F 0x40d6a3
0x40d6a3:	add	byte ptr [rbp + 0xa], dh
0x40d6a6:	add	rsp, 0x10
0x40d6aa:	pop	rbp
0x40d6ab:	pop	r12
0x40d6ad:	pop	r13
0x40d6af:	ret	
F 0x40a8b9
0x407016:	ret	
F 0x40e591
0x408530:	pop	r12
0x408532:	ret	
F 0x41258d
0x40885f:	pop	rbp
0x408860:	ret	
F 0x40aef9
0x407016:	ret	
F 0x416ca2
0x416ca2:	sbb	byte ptr [rbx - 0x17], bl
0x416ca5:	pop	rdx
0x416ca7:	add	byte ptr [rax], al
0x416ca9:	nop	dword ptr [rax]
0x416cb0:	pop	rbx
0x416cb1:	ret	
F 0x41e0ef
0x41dfbf:	add	byte ptr [rdi], cl
0x41dfc1:	mov	dh, 0x43
0x41dfc3:	add	dword ptr [rax - 0x7d], ecx
0x41dfc6:	ret	
F 0x40b890
0x40b890:	mov	ebp, 0x8948ffff
0x40b895:	add	eax, 0x257f6
0x40b89a:	add	rsp, 8
0x40b89e:	ret	
F 0x41838d
0x40885f:	pop	rbp
0x408860:	ret	
F 0x4154b4
0x40ec88:	add	rsp, 8
0x40ec8c:	pop	rbx
0x40ec8d:	pop	rbp
0x40ec8e:	pop	r12
0x40ec90:	pop	r13
0x40ec92:	ret	
F 0x41d3d3
0x407016:	ret	
F 0x4154ad
0x4154ad:	add	byte ptr [rax], al
0x4154af:	add	byte ptr [rax - 0x77], cl
0x4154b2:	push	0x8c48348
0x4154b8:	pop	rbx
0x4154b9:	pop	rbp
0x4154ba:	pop	r12
0x4154bc:	pop	r13
0x4154be:	ret	
F 0x41b75e
0x407016:	ret	
F 0x41d244
0x41d244:	or	byte ptr [rax - 0x7b], cl
0x41d247:	sal	byte ptr [rsi + rdx + 0x48], 0x8b
0x41d24c:	add	eax, 0x14087
0x41d251:	add	rsp, 0x18
0x41d255:	ret	
F 0x417dab
0x40bbad:	add	rsp, 0x18
0x40bbb1:	pop	rbp
0x40bbb2:	pop	r12
0x40bbb4:	ret	
F 0x41db5a
0x41db5a:	dec	dword ptr [rax - 0x77]
0x41db5d:	add	rsp, 8
0x41db63:	mov	eax, 1
0x41db68:	pop	rbx
0x41db69:	pop	rbp
0x41db6a:	ret	
F 0x40972a
0x407016:	ret	
F 0x41830d
0x40885f:	pop	rbp
0x408860:	ret	
F 0x40dd1d
0x409e94:	pop	rsi
0x409e95:	ret	
F 0x412bc4
0x4090d8:	pop	rbx
0x4090d9:	pop	rbp
0x4090da:	ret	
F 0x411394
0x40885f:	pop	rbp
0x408860:	ret	
F 0x4126f5
0x40ed45:	nop	dword ptr [rax]
0x40ed48:	add	rsp, 8
0x40ed4c:	pop	rbx
0x40ed4d:	pop	rbp
0x40ed4e:	ret	
F 0x41d443
0x41d443:	xor	byte ptr [rbx - 0x3d], bl
0x41d446:	nop	word ptr cs:[rax + rax]
0x41d450:	mov	rax, qword ptr [rdi + 0x38]
0x41d454:	ret	
F 0x413f0e
0x409444:	add	byte ptr [rax], al
0x409446:	pop	rbx
0x409447:	ret	
F 0x41d347
0x407016:	ret	
F 0x40a7fa
0x407016:	ret	
F 0x408b6f
0x408b6f:	add	al, byte ptr [rax]
0x408b71:	add	rsp, 0x18
0x408b75:	ret	
F 0x411882
0x40a399:	pop	r12
0x40a39b:	pop	r13
0x40a39d:	pop	r14
0x40a39f:	pop	r15
0x40a3a1:	ret	
F 0x4097db
0x407016:	ret	
F 0x40bcfd
0x40bcfd:	or	byte ptr [rcx], dh
0x40bcff:	shr	al, 0xbb
0x40bd02:	ret	
F 0x41c638
0x41c5fe:	add	qword ptr [rax], r8
0x41c601:	add	rsp, 0x18
0x41c605:	ret	
F 0x41dde9
0x40885f:	pop	rbp
0x408860:	ret	
F 0x416751
0x416751:	push	0x8c48348
0x416757:	pop	rbx
0x416758:	pop	rbp
0x416759:	ret	
F 0x41047d
0x408c6e:	pop	rbx
0x408c6f:	ret	
F 0x41ddda
0x41ddda:	dec	dword ptr [rax - 0x77]
0x41dddd:	add	rsp, 8
0x41dde3:	mov	eax, 1
0x41dde8:	pop	rbx
0x41dde9:	pop	rbp
0x41ddea:	ret	
F 0x41d153
0x41d153:	nop	dword ptr [rax + rax]
0x41d15b:	nop	dword ptr [rax + rax]
0x41d160:	ret	
F 0x40ba11
0x40ba11:	or	byte ptr [rax + 1], bh
0x40ba17:	pop	rbx
0x40ba18:	pop	rbp
0x40ba19:	ret	
F 0x41c4c6
0x41c4c6:	cmp	eax, dword ptr [rax]
0x41c4c8:	add	al, ch
0x41c4ca:	adc	dh, byte ptr [rcx - 0x6f990002]
0x41c4d0:	ret	
F 0x41dd48
0x4090d8:	pop	rbx
0x4090d9:	pop	rbp
0x4090da:	ret	
F 0x416c40
0x408e71:	and	byte ptr [rbx + 0x5d], bl
0x408e74:	pop	r12
0x408e76:	ret	
F 0x41bc72
0x41bc72:	mov	qword ptr [rbp + 0x28], 0
0x41bc7a:	add	rsp, 0x18
0x41bc7e:	pop	rbx
0x41bc7f:	pop	rbp
0x41bc80:	pop	r12
0x41bc82:	pop	r13
0x41bc84:	ret	
F 0x41d816
0x41c566:	add	byte ptr [rax], al
0x41c568:	pop	rbp
0x41c569:	ret	
F 0x4090d8
0x4090d8:	pop	rbx
0x4090d9:	pop	rbp
0x4090da:	ret	
F 0x41597f
0x41597f:	cmp	byte ptr [rbx - 0x17], bl
0x415982:	push	0x2c
0x415984:	add	byte ptr [rax], al
0x415986:	nop	word ptr cs:[rax + rax]
0x415990:	pop	rbx
0x415991:	ret	
F 0x41a091
0x409e93:	pop	r14
0x409e95:	ret	
F 0x40a0d6
0x40a0d6:	sbb	byte ptr [rbx + 0x5d], bl
0x40a0d9:	pop	r12
0x40a0db:	pop	r13
0x40a0dd:	ret	
F 0x414c77
0x414c77:	sal	byte ptr [rsi + rax + 0x48], 0x8b
0x414c7c:	pop	rbx
0x414c7f:	ret	
F 0x408b71
0x408b71:	add	rsp, 0x18
0x408b75:	ret	
F 0x40a867
0x409e93:	pop	r14
0x409e95:	ret	
F 0x412585
0x40ed45:	nop	dword ptr [rax]
0x40ed48:	add	rsp, 8
0x40ed4c:	pop	rbx
0x40ed4d:	pop	rbp
0x40ed4e:	ret	
F 0x414ab3
0x407016:	ret	
F 0x40e6c8
0x408a95:	pop	r13
0x408a97:	ret	
F 0x417cd4
0x408a95:	pop	r13
0x408a97:	ret	
F 0x41d1ea
0x41d1ea:	lea	rdx, [rip + 0x42f]
0x41d1f1:	mov	qword ptr [rax + 0x88], rdx
0x41d1f8:	pop	rbp
0x41d1f9:	ret	
F 0x41ee90
0x41ee90:	add	rsp, 8
0x41ee94:	xor	edi, edi
0x41ee96:	mov	rax, rdi
0x41ee99:	pop	rbx
0x41ee9a:	pop	rbp
0x41ee9b:	ret	
F 0x41875e
0x408c6e:	pop	rbx
0x408c6f:	ret	
F 0x409db3
0x409db3:	cld	
0x409db4:	or	esi, ebx
0x409db6:	or	esi, eax
0x409db8:	mov	byte ptr [r12 + 8], sil
0x409dbd:	mov	rax, r12
0x409dc0:	pop	rbx
0x409dc1:	pop	rbp
0x409dc2:	pop	r12
0x409dc4:	ret	
F 0x418ff9
0x408a95:	pop	r13
0x408a97:	ret	
F 0x417bdf
0x408530:	pop	r12
0x408532:	ret	
F 0x41dac4
0x41dac4:	add	dword ptr [rax + 1], edi
0x41daca:	mov	dword ptr [rdi + 0x2c], esi
0x41dacd:	add	rsp, 8
0x41dad1:	ret	
F 0x4088d2
0x407016:	ret	
F 0x41d3f4
0x407016:	ret	
F 0x40a93c
0x40a39c:	pop	rbp
0x40a39d:	pop	r14
0x40a39f:	pop	r15
0x40a3a1:	ret	
F 0x41e925
0x40852d:	xor	eax, eax
0x40852f:	pop	rbp
0x408530:	pop	r12
0x408532:	ret	
F 0x40a8c2
0x409e8f:	pop	r12
0x409e91:	pop	r13
0x409e93:	pop	r14
0x409e95:	ret	
F 0x41c6d7
0x4090d8:	pop	rbx
0x4090d9:	pop	rbp
0x4090da:	ret	
F 0x41bc82
0x408a95:	pop	r13
0x408a97:	ret	
F 0x40a2f7
0x407016:	ret	
F 0x40ba02
0x407016:	ret	
F 0x40b78f
0x40885f:	pop	rbp
0x408860:	ret	
F 0x40cc8a
0x40cc8a:	add	byte ptr [rax], al
0x40cc8c:	pop	rbp
0x40cc8d:	pop	r12
0x40cc8f:	ret	
F 0x417db0
0x408530:	pop	r12
0x408532:	ret	
F 0x41a19a
0x409e91:	pop	r13
0x409e93:	pop	r14
0x409e95:	ret	
F 0x41d5d5
0x408a95:	pop	r13
0x408a97:	ret	
F 0x40ea7f
0x408b6f:	add	al, byte ptr [rax]
0x408b71:	add	rsp, 0x18
0x408b75:	ret	
F 0x41ee9a
0x40885f:	pop	rbp
0x408860:	ret	
F 0x41d1f3
0x41d1f3:	nop	
0x41d1f4:	mov	byte ptr [rax], al
0x41d1f6:	add	byte ptr [rax], al
0x41d1f8:	pop	rbp
0x41d1f9:	ret	
F 0x41884b
0x41884b:	mov	eax, dword ptr [rbx + 0x68]
0x41884e:	pop	rbx
0x41884f:	ret	
F 0x4094f4
0x4087df:	jmp	rax
F 0x410f98
0x409e94:	pop	rsi
0x409e95:	ret	
F 0x413d76
0x407016:	ret	
F 0x412d63
0x40ec8b:	or	byte ptr [rbx + 0x5d], bl
0x40ec8e:	pop	r12
0x40ec90:	pop	r13
0x40ec92:	ret	
F 0x416752
0x416752:	push	0x8c48348
0x416757:	pop	rbx
0x416758:	pop	rbp
0x416759:	ret	
F 0x4122a6
0x411e56:	add	byte ptr [rax], al
0x411e58:	add	rsp, 8
0x411e5c:	pop	rbx
0x411e5d:	pop	rbp
0x411e5e:	ret	
F 0x40e800
0x407016:	ret	
F 0x408ba5
0x408ba5:	mov	eax, dword ptr [rip + 0x284c5]
0x408bab:	add	rsp, 0x18
0x408baf:	ret	
F 0x411e56
0x411e56:	add	byte ptr [rax], al
0x411e58:	add	rsp, 8
0x411e5c:	pop	rbx
0x411e5d:	pop	rbp
0x411e5e:	ret	
F 0x4174c7
0x4174c7:	pop	rbp
0x4174c8:	mov	qword ptr [r12], rax
0x4174cc:	xor	eax, eax
0x4174ce:	pop	r12
0x4174d0:	pop	r13
0x4174d2:	ret	
F 0x41dca5
0x40ba14:	add	byte ptr [rax], al
0x40ba16:	add	byte ptr [rbx + 0x5d], bl
0x40ba19:	ret	
F 0x40e435
0x4090d8:	pop	rbx
0x4090d9:	pop	rbp
0x4090da:	ret	
F 0x40d059
0x40a398:	pop	rbp
0x40a399:	pop	r12
0x40a39b:	pop	r13
0x40a39d:	pop	r14
0x40a39f:	pop	r15
0x40a3a1:	ret	
F 0x4196ff
0x407016:	ret	
F 0x41dddf
0x40ba0e:	add	rsp, 8
0x40ba12:	mov	eax, 1
0x40ba17:	pop	rbx
0x40ba18:	pop	rbp
0x40ba19:	ret	
F 0x417fb4
0x40a39d:	pop	r14
0x40a39f:	pop	r15
0x40a3a1:	ret	
F 0x413b1f
0x413b1f:	or	eax, 0xf6000045
0x413b24:	or	byte ptr [rbp + 0x37], r14b
0x413b29:	pop	rbp
0x413b2a:	ret	
F 0x4199a0
0x408c6e:	pop	rbx
0x408c6f:	ret	
F 0x414ea0
0x408e72:	pop	rbx
0x408e73:	pop	rbp
0x408e74:	pop	r12
0x408e76:	ret	
F 0x410db6
0x40a3a0:	pop	rdi
0x40a3a1:	ret	
F 0x40e0c5
0x40e0c5:	add	byte ptr [rbp + 0xb], dh
0x40e0c8:	add	rsp, 0x18
0x40e0cc:	pop	rbx
0x40e0cd:	pop	rbp
0x40e0ce:	pop	r12
0x40e0d0:	pop	r13
0x40e0d2:	ret	
F 0x41d488
0x41d488:	or	byte ptr [rcx + rcx*4 - 0x20], cl
0x41d48c:	pop	rbx
0x41d48d:	pop	r12
0x41d48f:	ret	
F 0x414aa2
0x414aa2:	or	eax, 0x3c87e95b
0x414aa7:	add	byte ptr [rax], al
0x414aa9:	nop	dword ptr [rax]
0x414ab0:	xor	eax, eax
0x414ab2:	pop	rbx
0x414ab3:	ret	
F 0x410db2
0x40a39c:	pop	rbp
0x40a39d:	pop	r14
0x40a39f:	pop	r15
0x40a3a1:	ret	
F 0x41d7dd
0x407016:	ret	
F 0x40e2e7
0x40ba0e:	add	rsp, 8
0x40ba12:	mov	eax, 1
0x40ba17:	pop	rbx
0x40ba18:	pop	rbp
0x40ba19:	ret	
F 0x40e848
0x407016:	ret	
F 0x4116f1
0x408a95:	pop	r13
0x408a97:	ret	
F 0x416cb1
0x407016:	ret	
F 0x41dd47
0x40ba16:	add	byte ptr [rbx + 0x5d], bl
0x40ba19:	ret	
F 0x40d447
0x407016:	ret	
F 0x41f737
0x40885f:	pop	rbp
0x408860:	ret	
F 0x4093bf
0x408df0:	add	rsp, 8
0x408df4:	pop	rbp
0x408df5:	pop	r12
0x408df7:	ret	
F 0x4178e1
0x40a399:	pop	r12
0x40a39b:	pop	r13
0x40a39d:	pop	r14
0x40a39f:	pop	r15
0x40a3a1:	ret	
F 0x415f0e
0x415f0e:	add	byte ptr [rax], al
0x415f10:	lea	rax, [rip + 0x1559]
0x415f17:	mov	qword ptr [rdi + 0x10], rax
0x415f1b:	ret	
F 0x414961
0x40dbeb:	add	rsp, 0x10
0x40dbef:	pop	rbp
0x40dbf0:	ret	
F 0x41d5d6
0x40885f:	pop	rbp
0x408860:	ret	
F 0x4154b0
0x4154b0:	mov	qword ptr [rbp + 0x68], rax
0x4154b4:	add	rsp, 8
0x4154b8:	pop	rbx
0x4154b9:	pop	rbp
0x4154ba:	pop	r12
0x4154bc:	pop	r13
0x4154be:	ret	
F 0x409dc1
0x40852f:	pop	rbp
0x408530:	pop	r12
0x408532:	ret	
F 0x40fcb3
0x407016:	ret	
F 0x41465f
0x407016:	ret	
F 0x411536
0x40a399:	pop	r12
0x40a39b:	pop	r13
0x40a39d:	pop	r14
0x40a39f:	pop	r15
0x40a3a1:	ret	
F 0x41adac
0x41820c:	pop	rdx
0x41820d:	pop	rbp
0x41820e:	ret	
F 0x41d4ca
0x41d4ca:	cmp	byte ptr [r8 + 1], dil
0x41d4d1:	add	rsp, 8
0x41d4d5:	pop	rbx
0x41d4d6:	pop	rbp
0x41d4d7:	ret	
F 0x41d5d7
0x407016:	ret	
F 0x40a1b8
0x40a1b8:	add	byte ptr [rbp + 0x7e], dh
0x40a1bb:	add	rsp, 0x10
0x40a1bf:	pop	rbx
0x40a1c0:	pop	rbp
0x40a1c1:	pop	r12
0x40a1c3:	pop	r13
0x40a1c5:	pop	r14
0x40a1c7:	ret	
F 0x41c568
0x40885f:	pop	rbp
0x408860:	ret	
F 0x40fe68
0x407016:	ret	
F 0x41eb86
0x408a93:	pop	r12
0x408a95:	pop	r13
0x408a97:	ret	
F 0x40a8c1
0x409e8e:	pop	rbp
0x409e8f:	pop	r12
0x409e91:	pop	r13
0x409e93:	pop	r14
0x409e95:	ret	
F 0x408c6f
0x407016:	ret	
F 0x40e95d
0x409e91:	pop	r13
0x409e93:	pop	r14
0x409e95:	ret	
F 0x418ff1
0x409ab6:	add	rsp, 0x38
0x409aba:	pop	rbx
0x409abb:	pop	rbp
0x409abc:	pop	r12
0x409abe:	pop	r13
0x409ac0:	ret	
F 0x41981d
0x40eb45:	add	byte ptr [rax], r8b
0x40eb48:	pop	rbx
0x40eb49:	pop	rbp
0x40eb4a:	pop	r12
0x40eb4c:	ret	
F 0x41781c
0x407016:	ret	
F 0x40b4e9
0x407016:	ret	
F 0x41dd3d
0x41dd3d:	push	r8
0x41dd3f:	add	rsp, 8
0x41dd43:	mov	eax, 1
0x41dd48:	pop	rbx
0x41dd49:	pop	rbp
0x41dd4a:	ret	
F 0x41ddde
0x41ddde:	add	rsp, 8
0x41dde3:	mov	eax, 1
0x41dde8:	pop	rbx
0x41dde9:	pop	rbp
0x41ddea:	ret	
F 0x4189bf
0x40bbad:	add	rsp, 0x18
0x40bbb1:	pop	rbp
0x40bbb2:	pop	r12
0x40bbb4:	ret	
F 0x411884
0x40a39b:	pop	r13
0x40a39d:	pop	r14
0x40a39f:	pop	r15
0x40a3a1:	ret	
F 0x4101bd
0x4101bd:	mov	eax, 0x8948ffff
0x4101c2:	ret	
F 0x419b87
0x40885f:	pop	rbp
0x408860:	ret	
F 0x4112be
0x4112be:	add	byte ptr [rbp + 0x5e], dh
0x4112c1:	add	rsp, 0x28
0x4112c5:	pop	rbx
0x4112c6:	pop	rbp
0x4112c7:	ret	
F 0x4104d5
0x4104d5:	inc	dword ptr [rbp + 0x480674c0]
0x4104db:	mov	eax, dword ptr [rbx + 0x78]
0x4104de:	pop	rbx
0x4104df:	ret	
F 0x4093c6
0x407016:	ret	
F 0x41ba1d
0x40885f:	pop	rbp
0x408860:	ret	
F 0x408a8a
0x408a8a:	add	rsp, 8
0x408a8e:	mov	rax, r12
0x408a91:	pop	rbx
0x408a92:	pop	rbp
0x408a93:	pop	r12
0x408a95:	pop	r13
0x408a97:	ret	
F 0x41a19d
0x409e94:	pop	rsi
0x409e95:	ret	
F 0x40cc87
0x40cc87:	mov	eax, 1
0x40cc8c:	pop	rbp
0x40cc8d:	pop	r12
0x40cc8f:	ret	
F 0x418fa9
0x407016:	ret	
F 0x40b44c
0x40b44c:	add	eax, 0x25c47
0x40b451:	add	rsp, 0x18
0x40b455:	ret	
F 0x41394b
0x41394b:	pop	rbx
0x41394e:	ret	
F 0x40c444
0x40bf90:	ret	0x8d48
F 0x41ecdd
0x41ecdd:	add	byte ptr [rax], al
0x41ecdf:	add	rsp, 8
0x41ece3:	pop	rbp
0x41ece4:	pop	r12
0x41ece6:	pop	r13
0x41ece8:	pop	r14
0x41ecea:	ret	
F 0x40e845
0x40a39e:	pop	rsi
0x40a39f:	pop	r15
0x40a3a1:	ret	
F 0x4185c1
0x40885f:	pop	rbp
0x408860:	ret	
F 0x40eab9
0x408b6f:	add	al, byte ptr [rax]
0x408b71:	add	rsp, 0x18
0x408b75:	ret	
F 0x415b20
0x408e72:	pop	rbx
0x408e73:	pop	rbp
0x408e74:	pop	r12
0x408e76:	ret	
F 0x40a93d
0x40a39d:	pop	r14
0x40a39f:	pop	r15
0x40a3a1:	ret	
F 0x417a10
0x409e8f:	pop	r12
0x409e91:	pop	r13
0x409e93:	pop	r14
0x409e95:	ret	
F 0x40c16e
0x40a3a0:	pop	rdi
0x40a3a1:	ret	
F 0x41d1b2
0x407016:	ret	
F 0x41431e
0x40ec86:	add	byte ptr [rax], al
0x40ec88:	add	rsp, 8
0x40ec8c:	pop	rbx
0x40ec8d:	pop	rbp
0x40ec8e:	pop	r12
0x40ec90:	pop	r13
0x40ec92:	ret	
F 0x415ed4
0x4090d8:	pop	rbx
0x4090d9:	pop	rbp
0x4090da:	ret	
F 0x408879
0x408879:	test	byte ptr [rax], al
0x40887b:	add	byte ptr [rax], al
0x40887d:	add	byte ptr [rax], al
0x40887f:	nop	
0x408880:	ret	
F 0x40babc
0x4090d8:	pop	rbx
0x4090d9:	pop	rbp
0x4090da:	ret	
F 0x41b5fc
0x41820c:	pop	rdx
0x41820d:	pop	rbp
0x41820e:	ret	
F 0x40cf16
0x40a398:	pop	rbp
0x40a399:	pop	r12
0x40a39b:	pop	r13
0x40a39d:	pop	r14
0x40a39f:	pop	r15
0x40a3a1:	ret	
F 0x40ad3a
0x40a39d:	pop	r14
0x40a39f:	pop	r15
0x40a3a1:	ret	
F 0x41a195
0x41a195:	or	bl, byte ptr [rbx + 0x5d]
0x41a198:	pop	r12
0x41a19a:	pop	r13
0x41a19c:	pop	r14
0x41a19e:	ret	
F 0x411fc1
0x411e51:	nop	dword ptr [rax]
0x411e58:	add	rsp, 8
0x411e5c:	pop	rbx
0x411e5d:	pop	rbp
0x411e5e:	ret	
F 0x41410e
0x408a93:	pop	r12
0x408a95:	pop	r13
0x408a97:	ret	
F 0x41dde8
0x4090d8:	pop	rbx
0x4090d9:	pop	rbp
0x4090da:	ret	
F 0x412133
0x411e53:	add	byte ptr [rax], 0
0x411e56:	add	byte ptr [rax], al
0x411e58:	add	rsp, 8
0x411e5c:	pop	rbx
0x411e5d:	pop	rbp
0x411e5e:	ret	
F 0x4149c8
0x408b71:	add	rsp, 0x18
0x408b75:	ret	
F 0x409ab4
0x409ab4:	add	al, byte ptr [rax]
0x409ab6:	add	rsp, 0x38
0x409aba:	pop	rbx
0x409abb:	pop	rbp
0x409abc:	pop	r12
0x409abe:	pop	r13
0x409ac0:	ret	
F 0x408f0b
0x408f0b:	mov	eax, dword ptr [rbx + 0x30]
0x408f0e:	pop	rbx
0x408f0f:	ret	
F 0x409abf
0x40885f:	pop	rbp
0x408860:	ret	
F 0x41ba12
0x41ba12:	xor	byte ptr [rcx + 0x65e80000], ah
0x41ba18:	mov	ebp, 0x5a58fffe
0x41ba1d:	pop	rbp
0x41ba1e:	ret	
F 0x40e437
0x407016:	ret	
F 0x40a866
0x409e92:	pop	rbp
0x409e93:	pop	r14
0x409e95:	ret	
F 0x41da6f
0x4117df:	add	dword ptr [rax], eax
0x4117e1:	add	rsp, 0x18
0x4117e5:	ret	
F 0x41875a
0x41875a:	mov	rax, qword ptr [rbx + 0x48]
0x41875e:	pop	rbx
0x41875f:	ret	
F 0x4198b5
0x408a92:	pop	rbp
0x408a93:	pop	r12
0x408a95:	pop	r13
0x408a97:	ret	
F 0x40a398
0x40a398:	pop	rbp
0x40a399:	pop	r12
0x40a39b:	pop	r13
0x40a39d:	pop	r14
0x40a39f:	pop	r15
0x40a3a1:	ret	
F 0x409d17
0x409d17:	add	byte ptr [rbp + 0x2a], dh
0x409d1a:	add	rsp, 0x28
0x409d1e:	xor	eax, eax
0x409d20:	pop	rbx
0x409d21:	pop	rbp
0x409d22:	ret	
F 0x41c49e
0x409e92:	pop	rbp
0x409e93:	pop	r14
0x409e95:	ret	
F 0x41d15b
0x408823:	nop	dword ptr [rax + rax]
0x408828:	ret	
F 0x41152b
0x41152b:	add	byte ptr [rax], al
0x41152d:	add	byte ptr [rbp + 0x4a], dh
0x411530:	add	rsp, 0x38
0x411534:	pop	rbx
0x411535:	pop	rbp
0x411536:	pop	r12
0x411538:	pop	r13
0x41153a:	pop	r14
0x41153c:	pop	r15
0x41153e:	ret	
F 0x415ece
0x411e56:	add	byte ptr [rax], al
0x411e58:	add	rsp, 8
0x411e5c:	pop	rbx
0x411e5d:	pop	rbp
0x411e5e:	ret	
F 0x40ad2e
0x40ad2e:	add	byte ptr [rax], al
0x40ad30:	add	rsp, 0x38
0x40ad34:	pop	rbx
0x40ad35:	pop	rbp
0x40ad36:	pop	r12
0x40ad38:	pop	r13
0x40ad3a:	pop	r14
0x40ad3c:	pop	r15
0x40ad3e:	ret	
F 0x4196bc
0x4196bc:	add	eax, 0x17b5f
0x4196c1:	add	rsp, 0x18
0x4196c5:	ret	
F 0x40e1dc
0x40885f:	pop	rbp
0x408860:	ret	
F 0x408ec7
0x408ec7:	add	al, ch
0x408ec9:	ret	
F 0x41ca68
0x41ca68:	add	rsp, 8
0x41ca6c:	movzx	eax, al
0x41ca6f:	ret	
F 0x411395
0x407016:	ret	
F 0x41ece7
0x409e92:	pop	rbp
0x409e93:	pop	r14
0x409e95:	ret	
F 0x410475
0x410475:	inc	dword ptr [rbp - 0x74f98b40]
0x41047b:	pop	r12
0x41047d:	pop	rbx
0x41047e:	ret	
F 0x40b78c
0x408a93:	pop	r12
0x408a95:	pop	r13
0x408a97:	ret	
F 0x413f05
0x413e65:	add	byte ptr [rsi + 0x2e], ah
0x413e68:	nop	dword ptr [rax + rax]
0x413e70:	pop	rbx
0x413e71:	ret	
F 0x40bd5d
0x40a39c:	pop	rbp
0x40a39d:	pop	r14
0x40a39f:	pop	r15
0x40a3a1:	ret	
F 0x409672
0x407016:	ret	
F 0x40e846
0x40a39f:	pop	r15
0x40a3a1:	ret	
F 0x41d86e
0x41d86e:	test	eax, 0xc085fffe
0x41d873:	sete	r13b
0x41d877:	mov	eax, r13d
0x41d87a:	pop	rbp
0x41d87b:	pop	r12
0x41d87d:	pop	r13
0x41d87f:	ret	
F 0x41b75c
0x41820c:	pop	rdx
0x41820d:	pop	rbp
0x41820e:	ret	
F 0x413fb1
0x407016:	ret	
F 0x40ccf9
0x407016:	ret	
F 0x419a81
0x407016:	ret	
F 0x40a938
0x40a398:	pop	rbp
0x40a399:	pop	r12
0x40a39b:	pop	r13
0x40a39d:	pop	r14
0x40a39f:	pop	r15
0x40a3a1:	ret	
F 0x40c8e5
0x40a397:	pop	rbx
0x40a398:	pop	rbp
0x40a399:	pop	r12
0x40a39b:	pop	r13
0x40a39d:	pop	r14
0x40a39f:	pop	r15
0x40a3a1:	ret	
F 0x40cddd
0x407016:	ret	
F 0x41e212
0x407016:	ret	
F 0x4091f6
0x408a92:	pop	rbp
0x408a93:	pop	r12
0x408a95:	pop	r13
0x408a97:	ret	
F 0x411317
0x411317:	or	al, ch
0x411319:	ret	
F 0x41cf9b
0x41cf9b:	pop	rsi
0x41cf9c:	pop	r15
0x41cf9e:	pop	rbp
0x41cf9f:	ret	
F 0x4196bb
0x4196bb:	mov	eax, dword ptr [rip + 0x17b5f]
0x4196c1:	add	rsp, 0x18
0x4196c5:	ret	
F 0x409447
0x407016:	ret	
F 0x4147ab
0x4147ab:	add	rsp, 0x10
0x4147af:	pop	rbx
0x4147b0:	ret	
F 0x415412
0x407016:	ret	
F 0x415983
0x415983:	sub	al, 0
0x415985:	add	byte ptr [rsi + 0x2e], ah
0x415988:	nop	dword ptr [rax + rax]
0x415990:	pop	rbx
0x415991:	ret	
F 0x419794
0x4090d8:	pop	rbx
0x4090d9:	pop	rbp
0x4090da:	ret	
F 0x40d060
0x40a39f:	pop	r15
0x40a3a1:	ret	
F 0x419e5f
0x409e91:	pop	r13
0x409e93:	pop	r14
0x409e95:	ret	
F 0x40d6af
0x407016:	ret	
F 0x41d4d6
0x40885f:	pop	rbp
0x408860:	ret	
F 0x41d24b
0x41d24b:	mov	eax, dword ptr [rip + 0x14087]
0x41d251:	add	rsp, 0x18
0x41d255:	ret	
F 0x41187c
0x41187c:	sub	byte ptr [rcx + rcx*4 - 0x10], al
0x411880:	pop	rbx
0x411881:	pop	rbp
0x411882:	pop	r12
0x411884:	pop	r13
0x411886:	pop	r14
0x411888:	pop	r15
0x41188a:	ret	
F 0x40e6ca
0x407016:	ret	
F 0x40fffd
0x40a399:	pop	r12
0x40a39b:	pop	r13
0x40a39d:	pop	r14
0x40a39f:	pop	r15
0x40a3a1:	ret	
F 0x41ad19
0x4090d7:	or	byte ptr [rbx + 0x5d], bl
0x4090da:	ret	
F 0x41db5c
0x41db5c:	mov	dword ptr [rbx + 0x40], eax
0x41db5f:	add	rsp, 8
0x41db63:	mov	eax, 1
0x41db68:	pop	rbx
0x41db69:	pop	rbp
0x41db6a:	ret	
F 0x40bd55
0x40bd55:	adc	byte ptr [rcx + rcx*4 - 0x10], al
0x40bd59:	pop	rbp
0x40bd5a:	pop	r12
0x40bd5c:	pop	r13
0x40bd5e:	pop	r14
0x40bd60:	pop	r15
0x40bd62:	ret	
F 0x40dd1c
0x409e93:	pop	r14
0x409e95:	ret	
F 0x411fcc
0x4090d8:	pop	rbx
0x4090d9:	pop	rbp
0x4090da:	ret	
F 0x418623
0x407016:	ret	
F 0x413d71
0x413d71:	sal	byte ptr [rbx + rcx + 0x48], 0x39
0x413d76:	ret	
F 0x41c951
0x41c951:	cmp	byte ptr [rbx + 0x5d], bl
0x41c954:	ret	
F 0x40852c
0x40852c:	sub	byte ptr [rcx], dh
0x40852e:	rcr	byte ptr [rbp + 0x41], 0x5c
0x408532:	ret	
F 0x408ba4
0x408ba4:	mov	rax, qword ptr [rip + 0x284c5]
0x408bab:	add	rsp, 0x18
0x408baf:	ret	
F 0x40b78a
0x408a91:	pop	rbx
0x408a92:	pop	rbp
0x408a93:	pop	r12
0x408a95:	pop	r13
0x408a97:	ret	
F 0x419c91
0x409e93:	pop	r14
0x409e95:	ret	
F 0x40e958
0x40a1be:	adc	byte ptr [rbx + 0x5d], bl
0x40a1c1:	pop	r12
0x40a1c3:	pop	r13
0x40a1c5:	pop	r14
0x40a1c7:	ret	
F 0x417a13
0x409e92:	pop	rbp
0x409e93:	pop	r14
0x409e95:	ret	
F 0x40b44a
0x40b44a:	mov	rax, qword ptr [rip + 0x25c47]
0x40b451:	add	rsp, 0x18
0x40b455:	ret	
F 0x411d45
0x40cdd6:	add	byte ptr [rax], al
0x40cdd8:	add	byte ptr [rbx + 0x5d], bl
0x40cddb:	pop	r12
0x40cddd:	ret	
F 0x419e5b
0x409e8d:	pop	rbx
0x409e8e:	pop	rbp
0x409e8f:	pop	r12
0x409e91:	pop	r13
0x409e93:	pop	r14
0x409e95:	ret	
F 0x41e0f2
0x41dfc2:	add	dword ptr [r8 - 0x7d], ecx
0x41dfc6:	ret	
F 0x4101bf
0x40aba0:	dec	dword ptr [rax - 0x77]
0x40aba3:	ret	
F 0x41d150
0x407016:	ret	
F 0x40e6bd
0x408a8a:	add	rsp, 8
0x408a8e:	mov	rax, r12
0x408a91:	pop	rbx
0x408a92:	pop	rbp
0x408a93:	pop	r12
0x408a95:	pop	r13
0x408a97:	ret	
F 0x41495e
0x41495e:	add	byte ptr [rbp + 0x1b], dh
0x414961:	add	rsp, 0x10
0x414965:	pop	rbp
0x414966:	ret	
F 0x414aab
0x414aab:	add	byte ptr [rax], 0
0x414aae:	add	byte ptr [rax], al
0x414ab0:	xor	eax, eax
0x414ab2:	pop	rbx
0x414ab3:	ret	
F 0x4184f6
0x4184f6:	inc	dword ptr [rbp - 0x74c28b40]
0x4184fc:	sub	byte ptr [r13 + 0x5d0675c0], r8b
0x418503:	ret	
F 0x414e9d
0x40cdd6:	add	byte ptr [rax], al
0x40cdd8:	add	byte ptr [rbx + 0x5d], bl
0x40cddb:	pop	r12
0x40cddd:	ret	
F 0x40cdd5
0x40cdd5:	add	dword ptr [rax], eax
0x40cdd7:	add	byte ptr [rax], al
0x40cdd9:	pop	rbx
0x40cdda:	pop	rbp
0x40cddb:	pop	r12
0x40cddd:	ret	
F 0x412d5e
0x40ec86:	add	byte ptr [rax], al
0x40ec88:	add	rsp, 8
0x40ec8c:	pop	rbx
0x40ec8d:	pop	rbp
0x40ec8e:	pop	r12
0x40ec90:	pop	r13
0x40ec92:	ret	
F 0x40a39e
0x40a39e:	pop	rsi
0x40a39f:	pop	r15
0x40a3a1:	ret	
F 0x416c3d
0x408e6e:	add	rsp, 0x20
0x408e72:	pop	rbx
0x408e73:	pop	rbp
0x408e74:	pop	r12
0x408e76:	ret	
F 0x419238
0x40a399:	pop	r12
0x40a39b:	pop	r13
0x40a39d:	pop	r14
0x40a39f:	pop	r15
0x40a3a1:	ret	
F 0x41aaaf
0x408a95:	pop	r13
0x408a97:	ret	
F 0x408522
0x408522:	add	byte ptr [rdi], cl
0x408524:	test	dword ptr [rdx + 2], ecx
0x408527:	add	byte ptr [rax], al
0x408529:	add	rsp, 0x28
0x40852d:	xor	eax, eax
0x40852f:	pop	rbp
0x408530:	pop	r12
0x408532:	ret	
F 0x41ee55
0x41ee55:	clc	
0x41ee56:	pop	rbx
0x41ee57:	pop	rbp
0x41ee58:	ret	
F 0x41deb2
0x40885f:	pop	rbp
0x408860:	ret	
F 0x40cc03
0x40cc03:	or	al, 0x5b
0x40cc05:	pop	rbp
0x40cc06:	pop	r12
0x40cc08:	ret	
F 0x41a503
0x40885f:	pop	rbp
0x408860:	ret	
F 0x418b62
0x407016:	ret	
F 0x41c9c7
0x407016:	ret	
F 0x4147af
0x408c6e:	pop	rbx
0x408c6f:	ret	
F 0x40a93e
0x40a39e:	pop	rsi
0x40a39f:	pop	r15
0x40a3a1:	ret	
F 0x40f94a
0x40f94a:	ret	0x128
F 0x418503
0x407016:	ret	
F 0x4117e5
0x407016:	ret	
F 0x411819
0x4117df:	add	dword ptr [rax], eax
0x4117e1:	add	rsp, 0x18
0x4117e5:	ret	
F 0x410dae
0x40a398:	pop	rbp
0x40a399:	pop	r12
0x40a39b:	pop	r13
0x40a39d:	pop	r14
0x40a39f:	pop	r15
0x40a3a1:	ret	
F 0x41ca6d
0x41ca6d:	mov	dh, 0xc0
0x41ca6f:	ret	
F 0x40a8bf
0x40a860:	mov	eax, ebp
0x40a862:	pop	rbp
0x40a863:	pop	r12
0x40a865:	pop	r13
0x40a867:	pop	r14
0x40a869:	ret	
F 0x40b89e
0x407016:	ret	
F 0x40eb47
0x40cdd8:	add	byte ptr [rbx + 0x5d], bl
0x40cddb:	pop	r12
0x40cddd:	ret	
F 0x41d15e
0x4087e6:	add	byte ptr [rax], al
0x4087e8:	ret	
F 0x40b2e4
0x407016:	ret	
F 0x40e917
0x407016:	ret	
F 0x40cc01
0x40cc01:	add	dh, byte ptr [rsp + rcx + 0x5b]
0x40cc05:	pop	rbp
0x40cc06:	pop	r12
0x40cc08:	ret	
F 0x40d74e
0x40885f:	pop	rbp
0x408860:	ret	
F 0x408ba9
0x408b6f:	add	al, byte ptr [rax]
0x408b71:	add	rsp, 0x18
0x408b75:	ret	
F 0x409714
0x407012:	add	rsp, 8
0x407016:	ret	
F 0x4198d7
0x407c57:	ret	0
F 0x419232
0x410da9:	add	rsp, 0x28
0x410dad:	pop	rbx
0x410dae:	pop	rbp
0x410daf:	pop	r12
0x410db1:	pop	r13
0x410db3:	pop	r14
0x410db5:	pop	r15
0x410db7:	ret	
F 0x40ba13
0x40ba13:	add	dword ptr [rax], eax
0x40ba15:	add	byte ptr [rax], al
0x40ba17:	pop	rbx
0x40ba18:	pop	rbp
0x40ba19:	ret	
F 0x419a7c
0x413e6c:	add	byte ptr [rax], al
0x413e6e:	add	byte ptr [rax], al
0x413e70:	pop	rbx
0x413e71:	ret	
F 0x40cf0f
0x40cf0f:	add	rsp, 0x18
0x40cf13:	xor	eax, eax
0x40cf15:	pop	rbx
0x40cf16:	pop	rbp
0x40cf17:	pop	r12
0x40cf19:	pop	r13
0x40cf1b:	pop	r14
0x40cf1d:	pop	r15
0x40cf1f:	ret	
F 0x417cd6
0x407016:	ret	
F 0x41f80d
0x41f80d:	nop	dword ptr [rax]
0x41f810:	ret	
F 0x41840d
0x40885f:	pop	rbp
0x408860:	ret	
F 0x40700d
0x40700d:	sal	byte ptr [rdx + rax - 1], 0xd0
0x407012:	add	rsp, 8
0x407016:	ret	
F 0x414328
0x408a95:	pop	r13
0x408a97:	ret	
F 0x41e303
0x407016:	ret	
F 0x40a1be
0x40a1be:	adc	byte ptr [rbx + 0x5d], bl
0x40a1c1:	pop	r12
0x40a1c3:	pop	r13
0x40a1c5:	pop	r14
0x40a1c7:	ret	
F 0x408c6a
0x408c6a:	mov	rax, qword ptr [rbx + 0x28]
0x408c6e:	pop	rbx
0x408c6f:	ret	
F 0x419a0c
0x413e6c:	add	byte ptr [rax], al
0x413e6e:	add	byte ptr [rax], al
0x413e70:	pop	rbx
0x413e71:	ret	
F 0x41bc76
0x41bc76:	add	byte ptr [rax], al
0x41bc78:	add	byte ptr [rax], al
0x41bc7a:	add	rsp, 0x18
0x41bc7e:	pop	rbx
0x41bc7f:	pop	rbp
0x41bc80:	pop	r12
0x41bc82:	pop	r13
0x41bc84:	ret	
F 0x408df0
0x408df0:	add	rsp, 8
0x408df4:	pop	rbp
0x408df5:	pop	r12
0x408df7:	ret	
F 0x40b727
0x40b727:	ret	0x8548
F 0x415990
0x408c6e:	pop	rbx
0x408c6f:	ret	
F 0x413a1e
0x413a1e:	pop	rbp
0x413a1f:	add	rsp, 0x28
0x413a23:	pop	rbp
0x413a24:	pop	r12
0x413a26:	ret	
F 0x415fb7
0x415fb7:	add	byte ptr [rax], al
0x415fb9:	add	byte ptr [rbp + 0xa], dh
0x415fbc:	add	rsp, 0x20
0x415fc0:	mov	rax, r12
0x415fc3:	pop	r12
0x415fc5:	ret	
F 0x41152f
0x41152f:	add	rsp, 0x38
0x411534:	pop	rbx
0x411535:	pop	rbp
0x411536:	pop	r12
0x411538:	pop	r13
0x41153a:	pop	r14
0x41153c:	pop	r15
0x41153e:	ret	
F 0x41d285
0x41d285:	mov	eax, dword ptr [rip + 0x1404d]
0x41d28b:	add	rsp, 0x18
0x41d28f:	ret	
F 0x418502
0x40885f:	pop	rbp
0x408860:	ret	
F 0x40fddb
0x40fddb:	mov	eax, dword ptr [rbx + 0x98]
0x40fde1:	pop	rbx
0x40fde2:	ret	
F 0x408b6b
0x408b6b:	mov	eax, dword ptr [rip + 0x284ff]
0x408b71:	add	rsp, 0x18
0x408b75:	ret	
F 0x41c49b
0x409e8f:	pop	r12
0x409e91:	pop	r13
0x409e93:	pop	r14
0x409e95:	ret	
F 0x412ec1
0x409e8e:	pop	rbp
0x409e8f:	pop	r12
0x409e91:	pop	r13
0x409e93:	pop	r14
0x409e95:	ret	
F 0x40dbef
0x40885f:	pop	rbp
0x408860:	ret	
F 0x41cf9d
0x41cf9d:	pop	rdi
0x41cf9e:	pop	rbp
0x41cf9f:	ret	
F 0x415a4b
0x415a4b:	or	byte ptr [rax - 0x75], cl
0x415a4e:	xor	ecx, dword ptr [rax - 0x7d]
0x415a51:	ret	
F 0x4091fa
0x40885f:	pop	rbp
0x408860:	ret	
F 0x40e440
0x407016:	ret	
F 0x40eee9
0x407016:	ret	
F 0x418b0c
0x4087e4:	add	byte ptr [rax], al
0x4087e6:	add	byte ptr [rax], al
0x4087e8:	ret	
F 0x41dacd
0x407012:	add	rsp, 8
0x407016:	ret	
F 0x40bd50
0x40bd50:	add	byte ptr [rax], al
0x40bd52:	add	rsp, 0x10
0x40bd56:	mov	eax, r14d
0x40bd59:	pop	rbp
0x40bd5a:	pop	r12
0x40bd5c:	pop	r13
0x40bd5e:	pop	r14
0x40bd60:	pop	r15
0x40bd62:	ret	
F 0x418b61
0x40885f:	pop	rbp
0x408860:	ret	
F 0x4142da
0x4142da:	ret	0xf8
F 0x4188ac
0x4188ac:	sub	al, 0x5b
0x4188ae:	ret	
F 0x408527
0x408527:	add	byte ptr [rax], al
0x408529:	add	rsp, 0x28
0x40852d:	xor	eax, eax
0x40852f:	pop	rbp
0x408530:	pop	r12
0x408532:	ret	
F 0x41a08d
0x409e8f:	pop	r12
0x409e91:	pop	r13
0x409e93:	pop	r14
0x409e95:	ret	
F 0x4196ba
0x4196ba:	mov	rax, qword ptr [rip + 0x17b5f]
0x4196c1:	add	rsp, 0x18
0x4196c5:	ret	
F 0x41dd44
0x40ba13:	add	dword ptr [rax], eax
0x40ba15:	add	byte ptr [rax], al
0x40ba17:	pop	rbx
0x40ba18:	pop	rbp
0x40ba19:	ret	
F 0x414106
0x40ec86:	add	byte ptr [rax], al
0x40ec88:	add	rsp, 8
0x40ec8c:	pop	rbx
0x40ec8d:	pop	rbp
0x40ec8e:	pop	r12
0x40ec90:	pop	r13
0x40ec92:	ret	
F 0x409442
0x409442:	add	dword ptr [rax], eax
0x409444:	add	byte ptr [rax], al
0x409446:	pop	rbx
0x409447:	ret	
F 0x409e91
0x409e91:	pop	r13
0x409e93:	pop	r14
0x409e95:	ret	
F 0x416c36
0x416c36:	add	byte ptr [rbx - 0x18], dl
0x416c39:	adc	dword ptr [rdi + rdi*8], -1
0x416c3d:	add	rsp, 0x20
0x416c41:	pop	rbx
0x416c42:	pop	rbp
0x416c43:	pop	r12
0x416c45:	ret	
F 0x41144a
0x408530:	pop	r12
0x408532:	ret	
F 0x4147a8
0x4147a8:	add	byte ptr [rbp + 0x33], dh
0x4147ab:	add	rsp, 0x10
0x4147af:	pop	rbx
0x4147b0:	ret	
F 0x419e63
0x407016:	ret	
F 0x40e0c8
0x40a0d3:	add	rsp, 0x18
0x40a0d7:	pop	rbx
0x40a0d8:	pop	rbp
0x40a0d9:	pop	r12
0x40a0db:	pop	r13
0x40a0dd:	ret	
F 0x41caad
0x40885f:	pop	rbp
0x408860:	ret	
F 0x409ab0
0x409ab0:	mov	dword ptr [rip + 0x27602], eax
0x409ab6:	add	rsp, 0x38
0x409aba:	pop	rbx
0x409abb:	pop	rbp
0x409abc:	pop	r12
0x409abe:	pop	r13
0x409ac0:	ret	
F 0x4093c3
0x40852f:	pop	rbp
0x408530:	pop	r12
0x408532:	ret	
F 0x40cdda
0x40852f:	pop	rbp
0x408530:	pop	r12
0x408532:	ret	
F 0x415991
0x407016:	ret	
F 0x412bbe
0x411e56:	add	byte ptr [rax], al
0x411e58:	add	rsp, 8
0x411e5c:	pop	rbx
0x411e5d:	pop	rbp
0x411e5e:	ret	
F 0x409d1e
0x409d1e:	xor	eax, eax
0x409d20:	pop	rbx
0x409d21:	pop	rbp
0x409d22:	ret	
F 0x41ee96
0x41ee53:	mov	rax, rdi
0x41ee56:	pop	rbx
0x41ee57:	pop	rbp
0x41ee58:	ret	
F 0x40a0d7
0x408a91:	pop	rbx
0x408a92:	pop	rbp
0x408a93:	pop	r12
0x408a95:	pop	r13
0x408a97:	ret	
F 0x418b60
0x4088d0:	pop	rcx
0x4088d1:	pop	rbp
0x4088d2:	ret	
F 0x41be1a
0x415a4a:	push	rbx
0x415a4b:	or	byte ptr [rax - 0x75], cl
0x415a4e:	xor	ecx, dword ptr [rax - 0x7d]
0x415a51:	ret	
F 0x411886
0x40a39d:	pop	r14
0x40a39f:	pop	r15
0x40a3a1:	ret	
F 0x41565e
0x411d44:	add	byte ptr [rax], al
0x411d46:	add	byte ptr [rax], al
0x411d48:	pop	rbx
0x411d49:	pop	rbp
0x411d4a:	pop	r12
0x411d4c:	ret	
F 0x41a500
0x408a93:	pop	r12
0x408a95:	pop	r13
0x408a97:	ret	
F 0x41c55a
0x41c55a:	lea	rdx, [rip + 0x2f]
0x41c561:	mov	qword ptr [rax + 0x198], rdx
0x41c568:	pop	rbp
0x41c569:	ret	
F 0x41d24a
0x41d24a:	mov	rax, qword ptr [rip + 0x14087]
0x41d251:	add	rsp, 0x18
0x41d255:	ret	
F 0x40dbeb
0x40dbeb:	add	rsp, 0x10
0x40dbef:	pop	rbp
0x40dbf0:	ret	
F 0x417431
0x408b71:	add	rsp, 0x18
0x408b75:	ret	
F 0x41565d
0x41565d:	cmp	byte ptr [rax], al
0x41565f:	add	byte ptr [rax], al
0x415661:	add	byte ptr [rbx + 0x5d], bl
0x415664:	pop	r12
0x415666:	ret	
F 0x41c2db
0x40a3a0:	pop	rdi
0x40a3a1:	ret	
F 0x418616
0x418616:	inc	dword ptr [rbp - 0x74c28b40]
0x41861c:	sub	al, 0x85
0x41861f:	sal	byte ptr [rbp + 6], 0x5d
0x418623:	ret	
F 0x409718
0x407016:	ret	
F 0x408dec
0x408dec:	add	byte ptr [rax], al
0x408dee:	add	byte ptr [rax], al
0x408df0:	add	rsp, 8
0x408df4:	pop	rbp
0x408df5:	pop	r12
0x408df7:	ret	
F 0x409db8
0x409db8:	mov	byte ptr [r12 + 8], sil
0x409dbd:	mov	rax, r12
0x409dc0:	pop	rbx
0x409dc1:	pop	rbp
0x409dc2:	pop	r12
0x409dc4:	ret	
F 0x41db68
0x4090d8:	pop	rbx
0x4090d9:	pop	rbp
0x4090da:	ret	
F 0x40c579
0x407016:	ret	
F 0x409dc4
0x407016:	ret	
F 0x409728
0x409728:	mov	eax, eax
0x40972a:	ret	
F 0x410da9
0x410da9:	add	rsp, 0x28
0x410dad:	pop	rbx
0x410dae:	pop	rbp
0x410daf:	pop	r12
0x410db1:	pop	r13
0x410db3:	pop	r14
0x410db5:	pop	r15
0x410db7:	ret	
F 0x40d508
0x40885f:	pop	rbp
0x408860:	ret	
F 0x40fe66
0x4090d8:	pop	rbx
0x4090d9:	pop	rbp
0x4090da:	ret	
F 0x4117df
0x4117df:	add	dword ptr [rax], eax
0x4117e1:	add	rsp, 0x18
0x4117e5:	ret	
F 0x40cff6
0x407016:	ret	
F 0x412ff8
0x408a92:	pop	rbp
0x408a93:	pop	r12
0x408a95:	pop	r13
0x408a97:	ret	
F 0x415fbf
0x415fbf:	and	byte ptr [rcx + rcx*4 - 0x20], cl
0x415fc3:	pop	r12
0x415fc5:	ret	
F 0x410f78
0x409e91:	pop	r13
0x409e93:	pop	r14
0x409e95:	ret	
F 0x40b483
0x40b483:	dec	dword ptr [rax - 0x75]
0x40b486:	add	eax, 0x25c0d
0x40b48b:	add	rsp, 0x18
0x40b48f:	ret	
F 0x41b75d
0x40885f:	pop	rbp
0x408860:	ret	
F 0x415278
0x40a39b:	pop	r13
0x40a39d:	pop	r14
0x40a39f:	pop	r15
0x40a3a1:	ret	
F 0x41a70e
0x40852f:	pop	rbp
0x408530:	pop	r12
0x408532:	ret	
F 0x4184fa
0x4184fa:	cmp	eax, 0x8528458b
0x4184ff:	sal	byte ptr [rbp + 6], 0x5d
0x418503:	ret	
F 0x417ac5
0x40bbad:	add	rsp, 0x18
0x40bbb1:	pop	rbp
0x40bbb2:	pop	r12
0x40bbb4:	ret	
F 0x40e2f1
0x40885f:	pop	rbp
0x408860:	ret	
F 0x410db5
0x40a39f:	pop	r15
0x40a3a1:	ret	
F 0x41c5f4
0x41c5f4:	or	byte ptr [rax - 0x7b], cl
0x41c5f7:	sal	byte ptr [rsi + rdx + 0x48], 0x8b
0x41c5fc:	add	eax, 0x14c77
0x41c601:	add	rsp, 0x18
0x41c605:	ret	
F 0x41dabe
0x41dabe:	add	esi, dword ptr [rdi + 0x17]
0x41dac1:	or	dword ptr [rdi + 0x28], 1
0x41dac5:	mov	eax, 1
0x41daca:	mov	dword ptr [rdi + 0x2c], esi
0x41dacd:	add	rsp, 8
0x41dad1:	ret	
F 0x41c520
0x4088d0:	pop	rcx
0x4088d1:	pop	rbp
0x4088d2:	ret	
F 0x41875b
0x41394a:	mov	eax, dword ptr [rbx + 0x48]
0x41394d:	pop	rbx
0x41394e:	ret	
F 0x414cf6
0x414cf6:	mov	eax, dword ptr [rbx + 0xb4]
0x414cfc:	pop	rbx
0x414cfd:	pop	rbp
0x414cfe:	mov	dword ptr [r12], eax
0x414d02:	pop	r12
0x414d04:	ret	
F 0x40ed43
0x40ed43:	add	byte ptr [rax], al
0x40ed45:	nop	dword ptr [rax]
0x40ed48:	add	rsp, 8
0x40ed4c:	pop	rbx
0x40ed4d:	pop	rbp
0x40ed4e:	ret	
F 0x40dd0f
0x40dd0f:	add	byte ptr [rbp + 0x2a], dh
0x40dd12:	add	rsp, 0x10
0x40dd16:	pop	rbx
0x40dd17:	pop	rbp
0x40dd18:	pop	r12
0x40dd1a:	pop	r13
0x40dd1c:	pop	r14
0x40dd1e:	ret	
F 0x40887f
0x40887f:	nop	
0x408880:	ret	
F 0x411842
0x407016:	ret	
F 0x415f15
0x415f15:	add	byte ptr [rax], al
0x415f17:	mov	qword ptr [rdi + 0x10], rax
0x415f1b:	ret	
F 0x41cec7
0x407016:	ret	
F 0x419a10
0x408c6e:	pop	rbx
0x408c6f:	ret	
F 0x4122a8
0x4090d4:	add	rsp, 8
0x4090d8:	pop	rbx
0x4090d9:	pop	rbp
0x4090da:	ret	
F 0x40d05f
0x40a39e:	pop	rsi
0x40a39f:	pop	r15
0x40a3a1:	ret	
F 0x4196c1
0x408b71:	add	rsp, 0x18
0x408b75:	ret	
F 0x412d57
0x412d57:	nop	dword ptr cs:[rax + rax]
0x412d60:	add	rsp, 8
0x412d64:	pop	rbx
0x412d65:	pop	rbp
0x412d66:	pop	r12
0x412d68:	pop	r13
0x412d6a:	ret	
F 0x41caae
0x407016:	ret	
F 0x40f17e
0x408a95:	pop	r13
0x408a97:	ret	
F 0x40f89b
0x40ec8b:	or	byte ptr [rbx + 0x5d], bl
0x40ec8e:	pop	r12
0x40ec90:	pop	r13
0x40ec92:	ret	
F 0x41be21
0x407016:	ret	
F 0x41dd3b
0x41dd3b:	mov	qword ptr [rbx + 0x50], rax
0x41dd3f:	add	rsp, 8
0x41dd43:	mov	eax, 1
0x41dd48:	pop	rbx
0x41dd49:	pop	rbp
0x41dd4a:	ret	
F 0x41e706
0x409e8f:	pop	r12
0x409e91:	pop	r13
0x409e93:	pop	r14
0x409e95:	ret	
F 0x417cd1
0x408a92:	pop	rbp
0x408a93:	pop	r12
0x408a95:	pop	r13
0x408a97:	ret	
F 0x417819
0x40852f:	pop	rbp
0x408530:	pop	r12
0x408532:	ret	
F 0x41d7d2
0x41d7d2:	add	al, ch
0x41d7d4:	mov	eax, 0x48fffe9b
0x41d7d9:	mov	dword ptr [rbx + 0x58], eax
0x41d7dc:	pop	rbx
0x41d7dd:	ret	
F 0x40e653
0x408a95:	pop	r13
0x408a97:	ret	
F 0x40cdd8
0x40cdd8:	add	byte ptr [rbx + 0x5d], bl
0x40cddb:	pop	r12
0x40cddd:	ret	
F 0x408877
0x408877:	nop	dword ptr [rax + rax]
0x40887f:	nop	
0x408880:	ret	
F 0x413f03
0x413e63:	add	byte ptr [r8], al
0x413e66:	nop	word ptr cs:[rax + rax]
0x413e70:	pop	rbx
0x413e71:	ret	
F 0x410f90
0x410f73:	mov	eax, esp
0x410f75:	pop	rbp
0x410f76:	pop	r12
0x410f78:	pop	r13
0x410f7a:	pop	r14
0x410f7c:	ret	
F 0x4112bc
0x4112bc:	add	byte ptr [rax], al
0x4112be:	add	byte ptr [rbp + 0x5e], dh
0x4112c1:	add	rsp, 0x28
0x4112c5:	pop	rbx
0x4112c6:	pop	rbp
0x4112c7:	ret	
F 0x41c953
0x40885f:	pop	rbp
0x408860:	ret	
F 0x41c0ee
0x407016:	ret	
F 0x41f80b
0x40a3a0:	pop	rdi
0x40a3a1:	ret	
F 0x412ebe
0x412ebe:	nop	
0x412ec0:	pop	rbx
0x412ec1:	pop	rbp
0x412ec2:	pop	r12
0x412ec4:	pop	r13
0x412ec6:	pop	r14
0x412ec8:	ret	
F 0x412ff5
0x412ff5:	add	byte ptr [rax], r8b
0x412ff8:	pop	rbp
0x412ff9:	pop	r12
0x412ffb:	pop	r13
0x412ffd:	ret	
F 0x40e961
0x407016:	ret	
F 0x41041d
0x408c6e:	pop	rbx
0x408c6f:	ret	
F 0x4126fd
0x40885f:	pop	rbp
0x408860:	ret	
F 0x41394e
0x407016:	ret	
F 0x4160ee
0x4160ee:	ret	0xce8
F 0x4105af
0x4105af:	mov	qword ptr [rbx + 0x90], rax
0x4105b6:	pop	rbx
0x4105b7:	ret	
F 0x40a862
0x409e8e:	pop	rbp
0x409e8f:	pop	r12
0x409e91:	pop	r13
0x409e93:	pop	r14
0x409e95:	ret	
F 0x4174ca
0x4174ca:	add	al, 0x24
0x4174cc:	xor	eax, eax
0x4174ce:	pop	r12
0x4174d0:	pop	r13
0x4174d2:	ret	
F 0x41d1f1
0x41d1f1:	mov	qword ptr [rax + 0x88], rdx
0x41d1f8:	pop	rbp
0x41d1f9:	ret	
F 0x40bf21
0x407016:	ret	
F 0x40ccef
0x40ccef:	inc	dword ptr [rbp - 0x177bf040]
0x40ccf5:	add	byte ptr [rax], al
0x40ccf7:	add	al, ch
0x40ccf9:	ret	
F 0x4111ec
0x409be6:	add	rsp, 0x18
0x409bea:	pop	rbx
0x409beb:	pop	rbp
0x409bec:	ret	
F 0x40a74d
0x409e91:	pop	r13
0x409e93:	pop	r14
0x409e95:	ret	
F 0x40a0d9
0x408a93:	pop	r12
0x408a95:	pop	r13
0x408a97:	ret	
F 0x410f99
0x407016:	ret	
F 0x40fe67
0x40885f:	pop	rbp
0x408860:	ret	
F 0x417daf
0x40852f:	pop	rbp
0x408530:	pop	r12
0x408532:	ret	
F 0x41c5fe
0x41c5fe:	add	qword ptr [rax], r8
0x41c601:	add	rsp, 0x18
0x41c605:	ret	
F 0x40d500
0x40b787:	add	byte ptr [rax], al
0x40b789:	add	byte ptr [rbx + 0x5d], bl
0x40b78c:	pop	r12
0x40b78e:	pop	r13
0x40b790:	ret	
F 0x41d781
0x40885f:	pop	rbp
0x408860:	ret	
F 0x41861c
0x41861c:	sub	al, 0x85
0x41861f:	sal	byte ptr [rbp + 6], 0x5d
0x418623:	ret	
F 0x410db3
0x40a39d:	pop	r14
0x40a39f:	pop	r15
0x40a3a1:	ret	
F 0x4154bc
0x408a95:	pop	r13
0x408a97:	ret	
F 0x416be0
0x407016:	ret	
F 0x41a2f0
0x408a93:	pop	r12
0x408a95:	pop	r13
0x408a97:	ret	
F 0x41bc78
0x40b2d8:	add	byte ptr [rax], al
0x40b2da:	add	rsp, 0x18
0x40b2de:	pop	rbx
0x40b2df:	pop	rbp
0x40b2e0:	pop	r12
0x40b2e2:	pop	r13
0x40b2e4:	ret	
F 0x41ccf8
0x409e93:	pop	r14
0x409e95:	ret	
F 0x40852d
0x40852d:	xor	eax, eax
0x40852f:	pop	rbp
0x408530:	pop	r12
0x408532:	ret	
F 0x4148b1
0x408a95:	pop	r13
0x408a97:	ret	
F 0x40d831
0x407016:	ret	
F 0x40e64b
0x408a8d:	or	byte ptr [rcx + rcx*4 - 0x20], cl
0x408a91:	pop	rbx
0x408a92:	pop	rbp
0x408a93:	pop	r12
0x408a95:	pop	r13
0x408a97:	ret	
F 0x411056
0x408e72:	pop	rbx
0x408e73:	pop	rbp
0x408e74:	pop	r12
0x408e76:	ret	
F 0x41cec2
0x41cec2:	add	eax, 0x143e1
0x41cec7:	ret	
F 0x413fa5
0x413e65:	add	byte ptr [rsi + 0x2e], ah
0x413e68:	nop	dword ptr [rax + rax]
0x413e70:	pop	rbx
0x413e71:	ret	
F 0x4154af
0x4154af:	add	byte ptr [rax - 0x77], cl
0x4154b2:	push	0x8c48348
0x4154b8:	pop	rbx
0x4154b9:	pop	rbp
0x4154ba:	pop	r12
0x4154bc:	pop	r13
0x4154be:	ret	
F 0x40c165
0x40a397:	pop	rbx
0x40a398:	pop	rbp
0x40a399:	pop	r12
0x40a39b:	pop	r13
0x40a39d:	pop	r14
0x40a39f:	pop	r15
0x40a3a1:	ret	
F 0x40a0dc
0x40885f:	pop	rbp
0x408860:	ret	
F 0x414b97
0x4090d7:	or	byte ptr [rbx + 0x5d], bl
0x4090da:	ret	
F 0x40cc88
0x40cc88:	add	dword ptr [rax], eax
0x40cc8a:	add	byte ptr [rax], al
0x40cc8c:	pop	rbp
0x40cc8d:	pop	r12
0x40cc8f:	ret	
F 0x417c20
0x408df0:	add	rsp, 8
0x408df4:	pop	rbp
0x408df5:	pop	r12
0x408df7:	ret	
F 0x41eb83
0x41eb83:	or	byte ptr [rcx], al
0x41eb85:	pop	rbp
0x41eb86:	pop	r12
0x41eb88:	pop	r13
0x41eb8a:	ret	
F 0x417e7b
0x40bbad:	add	rsp, 0x18
0x40bbb1:	pop	rbp
0x40bbb2:	pop	r12
0x40bbb4:	ret	
F 0x41e1b9
0x41e1b9:	cmp	byte ptr [rcx + rcx*4 - 0x20], cl
0x41e1bd:	pop	rbx
0x41e1be:	pop	rbp
0x41e1bf:	pop	r12
0x41e1c1:	pop	r13
0x41e1c3:	pop	r14
0x41e1c5:	pop	r15
0x41e1c7:	ret	
F 0x41d3ef
0x41d3ef:	nop	
0x41d3f0:	mov	rax, qword ptr [rdi + 0x30]
0x41d3f4:	ret	
F 0x414108
0x40ec88:	add	rsp, 8
0x40ec8c:	pop	rbx
0x40ec8d:	pop	rbp
0x40ec8e:	pop	r12
0x40ec90:	pop	r13
0x40ec92:	ret	
F 0x41c9bd
0x41c9bd:	add	byte ptr [rbp + 0x31], dh
0x41c9c0:	add	rsp, 0x18
0x41c9c4:	pop	rbp
0x41c9c5:	pop	r12
0x41c9c7:	ret	
F 0x41e5be
0x41e5be:	add	al, bpl
0x41e5c1:	sbb	ebx, dword ptr [rsi + rdi*8 + 0x7b8b48ff]
0x41e5c8:	or	byte ptr [rax - 0x7d], cl
0x41e5cb:	ret	
F 0x415276
0x40a399:	pop	r12
0x40a39b:	pop	r13
0x40a39d:	pop	r14
0x40a39f:	pop	r15
0x40a3a1:	ret	
F 0x4085eb
0x407016:	ret	
F 0x4147b0
0x407016:	ret	
F 0x40dab0
0x40dab0:	add	rsp, 0x18
0x40dab4:	pop	rbp
0x40dab5:	pop	r12
0x40dab7:	pop	r13
0x40dab9:	pop	r14
0x40dabb:	ret	
F 0x40bd36
0x40bd36:	add	byte ptr [rax], al
0x40bd38:	add	al, ch
0x40bd3a:	push	rdx
0x40bd3b:	ret	
F 0x40a8c7
0x409e94:	pop	rsi
0x409e95:	ret	
F 0x40b4e6
0x40b4e6:	ror	byte ptr [rdi], 0x85
0x40b4e9:	ret	
F 0x409ab6
0x409ab6:	add	rsp, 0x38
0x409aba:	pop	rbx
0x409abb:	pop	rbp
0x409abc:	pop	r12
0x409abe:	pop	r13
0x409ac0:	ret	
F 0x40ea74
0x40ea74:	or	byte ptr [rax - 0x7b], cl
0x40ea77:	sal	byte ptr [rsi + rdx + 0x48], 0x8b
0x40ea7c:	add	eax, 0x22647
0x40ea81:	add	rsp, 0x18
0x40ea85:	ret	
F 0x4122a3
0x411e53:	add	byte ptr [rax], 0
0x411e56:	add	byte ptr [rax], al
0x411e58:	add	rsp, 8
0x411e5c:	pop	rbx
0x411e5d:	pop	rbp
0x411e5e:	ret	
F 0x408822
0x408822:	nop	word ptr [rax + rax]
0x408828:	ret	
F 0x40d74d
0x408a95:	pop	r13
0x408a97:	ret	
F 0x41c2d6
0x40a39b:	pop	r13
0x40a39d:	pop	r14
0x40a39f:	pop	r15
0x40a3a1:	ret	
F 0x41ee8a
0x41ee8a:	test	byte ptr [rax], al
0x41ee8c:	add	byte ptr [rax], al
0x41ee8e:	add	byte ptr [rax], al
0x41ee90:	add	rsp, 8
0x41ee94:	xor	edi, edi
0x41ee96:	mov	rax, rdi
0x41ee99:	pop	rbx
0x41ee9a:	pop	rbp
0x41ee9b:	ret	
F 0x41a0a3
0x407016:	ret	
F 0x41bc73
0x41bc73:	mov	dword ptr [rbp + 0x28], 0
0x41bc7a:	add	rsp, 0x18
0x41bc7e:	pop	rbx
0x41bc7f:	pop	rbp
0x41bc80:	pop	r12
0x41bc82:	pop	r13
0x41bc84:	ret	
F 0x41f7f7
0x407016:	ret	
F 0x40e2f2
0x407016:	ret	
F 0x41703f
0x407016:	ret	
F 0x41f808
0x40a39d:	pop	r14
0x40a39f:	pop	r15
0x40a3a1:	ret	
F 0x419788
0x412bb8:	nop	dword ptr [rax + rax]
0x412bc0:	add	rsp, 8
0x412bc4:	pop	rbx
0x412bc5:	pop	rbp
0x412bc6:	ret	
F 0x41d53a
0x408c6a:	mov	rax, qword ptr [rbx + 0x28]
0x408c6e:	pop	rbx
0x408c6f:	ret	
F 0x41527c
0x40a39f:	pop	r15
0x40a3a1:	ret	
F 0x412ec6
0x409e93:	pop	r14
0x409e95:	ret	
F 0x40e6c6
0x408a93:	pop	r12
0x408a95:	pop	r13
0x408a97:	ret	
F 0x408bab
0x408b71:	add	rsp, 0x18
0x408b75:	ret	
F 0x41e1be
0x40a398:	pop	rbp
0x40a399:	pop	r12
0x40a39b:	pop	r13
0x40a39d:	pop	r14
0x40a39f:	pop	r15
0x40a3a1:	ret	
F 0x40f898
0x40ec88:	add	rsp, 8
0x40ec8c:	pop	rbx
0x40ec8d:	pop	rbp
0x40ec8e:	pop	r12
0x40ec90:	pop	r13
0x40ec92:	ret	
F 0x40eb48
0x408e72:	pop	rbx
0x408e73:	pop	rbp
0x408e74:	pop	r12
0x408e76:	ret	
F 0x411d47
0x40cdd8:	add	byte ptr [rbx + 0x5d], bl
0x40cddb:	pop	r12
0x40cddd:	ret	
F 0x4087e3
0x4087e3:	add	byte ptr [rax], 0
0x4087e6:	add	byte ptr [rax], al
0x4087e8:	ret	
F 0x408524
0x408524:	test	dword ptr [rdx + 2], ecx
0x408527:	add	byte ptr [rax], al
0x408529:	add	rsp, 0x28
0x40852d:	xor	eax, eax
0x40852f:	pop	rbp
0x408530:	pop	r12
0x408532:	ret	
F 0x415662
0x408e72:	pop	rbx
0x408e73:	pop	rbp
0x408e74:	pop	r12
0x408e76:	ret	
F 0x41d7d0
0x41d7d0:	add	byte ptr [rax], al
0x41d7d2:	add	al, ch
0x41d7d4:	mov	eax, 0x48fffe9b
0x41d7d9:	mov	dword ptr [rbx + 0x58], eax
0x41d7dc:	pop	rbx
0x41d7dd:	ret	
F 0x40dab5
0x409e8f:	pop	r12
0x409e91:	pop	r13
0x409e93:	pop	r14
0x409e95:	ret	
F 0x4132ad
0x408530:	pop	r12
0x408532:	ret	
F 0x414b0e
0x407016:	ret	
F 0x413b2a
0x407016:	ret	
F 0x40b7b2
0x40b724:	add	byte ptr [rax - 0x77], cl
0x40b727:	ret	0x8548
F 0x409be4
0x409be4:	add	byte ptr [rax], al
0x409be6:	add	rsp, 0x18
0x409bea:	pop	rbx
0x409beb:	pop	rbp
0x409bec:	ret	
F 0x419026
0x407016:	ret	
F 0x41116d
0x407016:	ret	
F 0x40fbcf
0x40885f:	pop	rbp
0x408860:	ret	
F 0x41f04a
0x41f04a:	ret	0x80
F 0x417646
0x409e92:	pop	rbp
0x409e93:	pop	r14
0x409e95:	ret	
F 0x417fb7
0x40a3a0:	pop	rdi
0x40a3a1:	ret	
F 0x40fbd0
0x407016:	ret	
F 0x419bc4
0x408a91:	pop	rbx
0x408a92:	pop	rbp
0x408a93:	pop	r12
0x408a95:	pop	r13
0x408a97:	ret	
F 0x40c8e9
0x40a39b:	pop	r13
0x40a39d:	pop	r14
0x40a39f:	pop	r15
0x40a3a1:	ret	
F 0x41861a
0x41861a:	cmp	eax, 0x852c458b
0x41861f:	sal	byte ptr [rbp + 6], 0x5d
0x418623:	ret	
F 0x41ee8c
0x41ee8c:	add	byte ptr [rax], al
0x41ee8e:	add	byte ptr [rax], al
0x41ee90:	add	rsp, 8
0x41ee94:	xor	edi, edi
0x41ee96:	mov	rax, rdi
0x41ee99:	pop	rbx
0x41ee9a:	pop	rbp
0x41ee9b:	ret	
F 0x41d444
0x408c6e:	pop	rbx
0x408c6f:	ret	
F 0x41d3f0
0x41d3f0:	mov	rax, qword ptr [rdi + 0x30]
0x41d3f4:	ret	
F 0x40e95a
0x409e8e:	pop	rbp
0x409e8f:	pop	r12
0x409e91:	pop	r13
0x409e93:	pop	r14
0x409e95:	ret	
F 0x40c398
0x40a39b:	pop	r13
0x40a39d:	pop	r14
0x40a39f:	pop	r15
0x40a3a1:	ret	
F 0x417bda
0x408df0:	add	rsp, 8
0x408df4:	pop	rbp
0x408df5:	pop	r12
0x408df7:	ret	
F 0x41a088
0x40dab0:	add	rsp, 0x18
0x40dab4:	pop	rbp
0x40dab5:	pop	r12
0x40dab7:	pop	r13
0x40dab9:	pop	r14
0x40dabb:	ret	
F 0x41d24c
0x41d24c:	add	eax, 0x14087
0x41d251:	add	rsp, 0x18
0x41d255:	ret	
F 0x414aac
0x41178a:	add	byte ptr [rax], al
0x41178c:	add	byte ptr [rax], al
0x41178e:	xor	eax, eax
0x411790:	pop	rbx
0x411791:	ret	
F 0x408b38
0x407016:	ret	
F 0x413663
0x40bf90:	ret	0x8d48
F 0x41e24e
0x407016:	ret	
F 0x413fa8
0x413e68:	nop	dword ptr [rax + rax]
0x413e70:	pop	rbx
0x413e71:	ret	
F 0x41d3ca
0x41d33e:	dec	dword ptr [rcx + rcx*4 - 0x20]
0x41d342:	pop	rbp
0x41d343:	pop	r12
0x41d345:	pop	r13
0x41d347:	ret	
F 0x40d058
0x40a397:	pop	rbx
0x40a398:	pop	rbp
0x40a399:	pop	r12
0x40a39b:	pop	r13
0x40a39d:	pop	r14
0x40a39f:	pop	r15
0x40a3a1:	ret	
F 0x408fa9
0x408e72:	pop	rbx
0x408e73:	pop	rbp
0x408e74:	pop	r12
0x408e76:	ret	
F 0x41d878
0x41caa7:	mov	eax, ebp
0x41caa9:	pop	rbp
0x41caaa:	pop	r12
0x41caac:	pop	r13
0x41caae:	ret	
F 0x41820e
0x407016:	ret	
F 0x40daae
0x40daae:	add	byte ptr [rax], al
0x40dab0:	add	rsp, 0x18
0x40dab4:	pop	rbp
0x40dab5:	pop	r12
0x40dab7:	pop	r13
0x40dab9:	pop	r14
0x40dabb:	ret	
F 0x41e701
0x41e701:	add	dword ptr [rax], eax
0x41e703:	add	byte ptr [rax], al
0x41e705:	pop	rbp
0x41e706:	pop	r12
0x41e708:	pop	r13
0x41e70a:	pop	r14
0x41e70c:	ret	
F 0x40b2e0
0x408a93:	pop	r12
0x408a95:	pop	r13
0x408a97:	ret	
F 0x40fbca
0x4090d4:	add	rsp, 8
0x4090d8:	pop	rbx
0x4090d9:	pop	rbp
0x4090da:	ret	
F 0x41d5cc
0x41d5cc:	add	rsp, 8
0x41d5d1:	pop	rbx
0x41d5d2:	pop	rbp
0x41d5d3:	pop	r12
0x41d5d5:	pop	r13
0x41d5d7:	ret	
F 0x414656
0x40a860:	mov	eax, ebp
0x40a862:	pop	rbp
0x40a863:	pop	r12
0x40a865:	pop	r13
0x40a867:	pop	r14
0x40a869:	ret	
F 0x40945b
0x409442:	add	dword ptr [rax], eax
0x409444:	add	byte ptr [rax], al
0x409446:	pop	rbx
0x409447:	ret	
F 0x41394a
0x41394a:	mov	eax, dword ptr [rbx + 0x48]
0x41394d:	pop	rbx
0x41394e:	ret	
F 0x418b5f
0x4088cf:	pop	rdx
0x4088d0:	pop	rcx
0x4088d1:	pop	rbp
0x4088d2:	ret	
F 0x419235
0x410dac:	sub	byte ptr [rbx + 0x5d], bl
0x410daf:	pop	r12
0x410db1:	pop	r13
0x410db3:	pop	r14
0x410db5:	pop	r15
0x410db7:	ret	
F 0x407b72
0x407b72:	ret	0x290
F 0x41d15d
0x408825:	add	byte ptr [rax], r8b
0x408828:	ret	
F 0x40e655
0x407016:	ret	
F 0x40d86b
0x40d86b:	add	byte ptr [rax], al
0x40d86d:	add	byte ptr [rbx + 0x5d], bl
0x40d870:	pop	r12
0x40d872:	pop	r13
0x40d874:	pop	r14
0x40d876:	ret	
F 0x4091f5
0x408a91:	pop	rbx
0x408a92:	pop	rbp
0x408a93:	pop	r12
0x408a95:	pop	r13
0x408a97:	ret	
F 0x411319
0x407016:	ret	
F 0x40eab4
0x40eab4:	mov	rax, qword ptr [rip + 0x2260d]
0x40eabb:	add	rsp, 0x18
0x40eabf:	ret	
F 0x40d86f
0x409e8e:	pop	rbp
0x409e8f:	pop	r12
0x409e91:	pop	r13
0x409e93:	pop	r14
0x409e95:	ret	
F 0x41f727
0x41f727:	add	byte ptr [rax], al
0x41f729:	add	byte ptr [rbp + 0x7a], dh
0x41f72c:	add	rsp, 0x20
0x41f730:	mov	eax, r12d
0x41f733:	pop	rbx
0x41f734:	pop	r12
0x41f736:	pop	r13
0x41f738:	ret	
F 0x41daa9
0x4117df:	add	dword ptr [rax], eax
0x4117e1:	add	rsp, 0x18
0x4117e5:	ret	
F 0x40a85f
0x40a85f:	mov	eax, r13d
0x40a862:	pop	rbp
0x40a863:	pop	r12
0x40a865:	pop	r13
0x40a867:	pop	r14
0x40a869:	ret	
F 0x40ea51
0x408a92:	pop	rbp
0x408a93:	pop	r12
0x408a95:	pop	r13
0x408a97:	ret	
F 0x416e20
0x409e8d:	pop	rbx
0x409e8e:	pop	rbp
0x409e8f:	pop	r12
0x409e91:	pop	r13
0x409e93:	pop	r14
0x409e95:	ret	
F 0x41a90e
0x40852f:	pop	rbp
0x408530:	pop	r12
0x408532:	ret	
F 0x41aaac
0x408a92:	pop	rbp
0x408a93:	pop	r12
0x408a95:	pop	r13
0x408a97:	ret	
F 0x41bddc
0x407016:	ret	
F 0x419931
0x407016:	ret	
F 0x41dfc3
0x41dfc3:	add	dword ptr [rax - 0x7d], ecx
0x41dfc6:	ret	
F 0x410f71
0x410f71:	pop	rbx
0x410f72:	mov	eax, r12d
0x410f75:	pop	rbp
0x410f76:	pop	r12
0x410f78:	pop	r13
0x410f7a:	pop	r14
0x410f7c:	ret	
F 0x41ca6b
0x41ca6b:	or	byte ptr [rdi], cl
0x41ca6d:	mov	dh, 0xc0
0x41ca6f:	ret	
F 0x4116ea
0x4116ea:	movabs	al, byte ptr [0x5d415c415d000000]
0x4116f3:	ret	
F 0x419c90
0x409e92:	pop	rbp
0x409e93:	pop	r14
0x409e95:	ret	
F 0x40fd32
0x40fd32:	dec	dword ptr [rax - 0x77]
0x40fd35:	add	eax, 0x21386
0x40fd3a:	add	rsp, 8
0x40fd3e:	ret	
F 0x40bd02
0x407016:	ret	
F 0x40ea52
0x408a93:	pop	r12
0x408a95:	pop	r13
0x408a97:	ret	
F 0x412bc6
0x407016:	ret	
F 0x414b91
0x414b91:	mov	dword ptr [rbx + 0x4c], ebp
0x414b94:	add	rsp, 8
0x414b98:	pop	rbx
0x414b99:	pop	rbp
0x414b9a:	ret	
F 0x41d3f1
0x41d3f1:	mov	eax, dword ptr [rdi + 0x30]
0x41d3f4:	ret	
F 0x40e6c4
0x408a91:	pop	rbx
0x408a92:	pop	rbp
0x408a93:	pop	r12
0x408a95:	pop	r13
0x408a97:	ret	
F 0x41da67
0x41da67:	sal	byte ptr [rsi + rdx + 0x48], 0x8b
0x41da6c:	add	eax, 0x1387f
0x41da71:	add	rsp, 0x18
0x41da75:	ret	
F 0x4174d2
0x407016:	ret	
F 0x40b786
0x40b786:	test	al, 0
0x40b788:	add	byte ptr [rax], al
0x40b78a:	pop	rbx
0x40b78b:	pop	rbp
0x40b78c:	pop	r12
0x40b78e:	pop	r13
0x40b790:	ret	
F 0x409149
0x40885f:	pop	rbp
0x408860:	ret	
F 0x414583
0x414583:	or	byte ptr [rcx + rcx*4 - 0x18], cl
0x414587:	pop	rbp
0x414588:	pop	r12
0x41458a:	pop	r13
0x41458c:	pop	r14
0x41458e:	ret	
F 0x41c83f
0x40a39b:	pop	r13
0x40a39d:	pop	r14
0x40a39f:	pop	r15
0x40a3a1:	ret	
F 0x40e837
0x40e837:	add	byte ptr [rbp + 0x49], dh
0x40e83a:	add	rsp, 0x18
0x40e83e:	pop	rbx
0x40e83f:	pop	rbp
0x40e840:	pop	r12
0x40e842:	pop	r13
0x40e844:	pop	r14
0x40e846:	pop	r15
0x40e848:	ret	
F 0x40b7b5
0x40b727:	ret	0x8548
F 0x412588
0x4090d4:	add	rsp, 8
0x4090d8:	pop	rbx
0x4090d9:	pop	rbp
0x4090da:	ret	
F 0x41dd45
0x40ba14:	add	byte ptr [rax], al
0x40ba16:	add	byte ptr [rbx + 0x5d], bl
0x40ba19:	ret	
F 0x41dac8
0x41dac8:	add	byte ptr [rax], al
0x41daca:	mov	dword ptr [rdi + 0x2c], esi
0x41dacd:	add	rsp, 8
0x41dad1:	ret	
F 0x413e65
0x413e65:	add	byte ptr [rsi + 0x2e], ah
0x413e68:	nop	dword ptr [rax + rax]
0x413e70:	pop	rbx
0x413e71:	ret	
F 0x41923d
0x40a39e:	pop	rsi
0x40a39f:	pop	r15
0x40a3a1:	ret	
F 0x41685a
0x407016:	ret	
F 0x40a8c8
0x407016:	ret	
F 0x4184fc
0x4184fc:	sub	byte ptr [r13 + 0x5d0675c0], r8b
0x418503:	ret	
F 0x41ca5f
0x41ca5f:	lea	esi, [rdi - 0x3f7a0002]
0x41ca65:	sete	al
0x41ca68:	add	rsp, 8
0x41ca6c:	movzx	eax, al
0x41ca6f:	ret	
F 0x40a749
0x409e8d:	pop	rbx
0x409e8e:	pop	rbp
0x409e8f:	pop	r12
0x409e91:	pop	r13
0x409e93:	pop	r14
0x409e95:	ret	
F 0x415985
0x413e65:	add	byte ptr [rsi + 0x2e], ah
0x413e68:	nop	dword ptr [rax + rax]
0x413e70:	pop	rbx
0x413e71:	ret	
F 0x41dc9c
0x41dc9c:	mov	dword ptr [rbx + 0x38], eax
0x41dc9f:	add	rsp, 8
0x41dca3:	mov	eax, 1
0x41dca8:	pop	rbx
0x41dca9:	pop	rbp
0x41dcaa:	ret	
F 0x4174c8
0x4174c8:	mov	qword ptr [r12], rax
0x4174cc:	xor	eax, eax
0x4174ce:	pop	r12
0x4174d0:	pop	r13
0x4174d2:	ret	
F 0x40dab7
0x409e91:	pop	r13
0x409e93:	pop	r14
0x409e95:	ret	
F 0x409bec
0x407016:	ret	
F 0x408857
0x408857:	inc	esi
0x408859:	add	eax, 0x28801
0x40885e:	add	dword ptr [rbp - 0x3d], ebx
0x408861:	nop	dword ptr [rax]
0x408868:	ret	
F 0x412ffb
0x408a95:	pop	r13
0x408a97:	ret	
F 0x413b25
0x413b25:	or	byte ptr [rbp + 0x37], r14b
0x413b29:	pop	rbp
0x413b2a:	ret	
F 0x41ee54
0x41ee54:	mov	eax, edi
0x41ee56:	pop	rbx
0x41ee57:	pop	rbp
0x41ee58:	ret	
F 0x40c39d
0x40a3a0:	pop	rdi
0x40a3a1:	ret	
F 0x41cff3
0x407016:	ret	
F 0x40fd38
0x40b898:	add	al, byte ptr [rax]
0x40b89a:	add	rsp, 8
0x40b89e:	ret	
F 0x409144
0x4090d4:	add	rsp, 8
0x4090d8:	pop	rbx
0x4090d9:	pop	rbp
0x4090da:	ret	
F 0x415ecc
0x411e54:	add	byte ptr [rax], al
0x411e56:	add	byte ptr [rax], al
0x411e58:	add	rsp, 8
0x411e5c:	pop	rbx
0x411e5d:	pop	rbp
0x411e5e:	ret	
F 0x41763b
0x40e953:	add	byte ptr [rax], al
0x40e955:	add	rsp, 0x10
0x40e959:	pop	rbx
0x40e95a:	pop	rbp
0x40e95b:	pop	r12
0x40e95d:	pop	r13
0x40e95f:	pop	r14
0x40e961:	ret	
F 0x4091f2
0x4091f2:	mov	eax, r12d
0x4091f5:	pop	rbx
0x4091f6:	pop	rbp
0x4091f7:	pop	r12
0x4091f9:	pop	r13
0x4091fb:	ret	
F 0x40b86c
0x407016:	ret	
F 0x414cf8
0x414cf8:	mov	ah, 0
0x414cfa:	add	byte ptr [rax], al
0x414cfc:	pop	rbx
0x414cfd:	pop	rbp
0x414cfe:	mov	dword ptr [r12], eax
0x414d02:	pop	r12
0x414d04:	ret	
F 0x41be6b
0x40a0d6:	sbb	byte ptr [rbx + 0x5d], bl
0x40a0d9:	pop	r12
0x40a0db:	pop	r13
0x40a0dd:	ret	
F 0x419818
0x419818:	test	eax, 0x1f0fffff
0x41981d:	add	byte ptr [rax], r8b
0x419820:	pop	rbx
0x419821:	pop	rbp
0x419822:	pop	r12
0x419824:	ret	
F 0x415ed6
0x407016:	ret	
F 0x414112
0x407016:	ret	
F 0x40a750
0x409e94:	pop	rsi
0x409e95:	ret	
F 0x415275
0x40a398:	pop	rbp
0x40a399:	pop	r12
0x40a39b:	pop	r13
0x40a39d:	pop	r14
0x40a39f:	pop	r15
0x40a3a1:	ret	
F 0x41dde4
0x40ba13:	add	dword ptr [rax], eax
0x40ba15:	add	byte ptr [rax], al
0x40ba17:	pop	rbx
0x40ba18:	pop	rbp
0x40ba19:	ret	
F 0x413fa7
0x413e67:	nop	dword ptr cs:[rax + rax]
0x413e70:	pop	rbx
0x413e71:	ret	
F 0x4169af
0x40afd4:	add	byte ptr [rax - 0x77], cl
0x40afd7:	ret	
F 0x415411
0x40ba01:	stosd	dword ptr [rdi], eax
0x40ba02:	ret	
F 0x40fd34
0x40fd34:	mov	dword ptr [rip + 0x21386], eax
0x40fd3a:	add	rsp, 8
0x40fd3e:	ret	
F 0x41d157
0x41d157:	add	byte ptr [rax], al
0x41d159:	add	byte ptr [rax], al
0x41d15b:	nop	dword ptr [rax + rax]
0x41d160:	ret	
F 0x41e1f9
0x407016:	ret	
F 0x411e5e
0x407016:	ret	
F 0x414aa7
0x414aa7:	add	byte ptr [rax], al
0x414aa9:	nop	dword ptr [rax]
0x414ab0:	xor	eax, eax
0x414ab2:	pop	rbx
0x414ab3:	ret	
F 0x410550
0x4088d0:	pop	rcx
0x4088d1:	pop	rbp
0x4088d2:	ret	
F 0x411889
0x40a3a0:	pop	rdi
0x40a3a1:	ret	
F 0x413faa
0x413e6a:	test	byte ptr [rax], al
0x413e6c:	add	byte ptr [rax], al
0x413e6e:	add	byte ptr [rax], al
0x413e70:	pop	rbx
0x413e71:	ret	
F 0x415ec7
0x415ec7:	add	byte ptr [rax], al
0x415ec9:	nop	dword ptr [rax]
0x415ed0:	add	rsp, 8
0x415ed4:	pop	rbx
0x415ed5:	pop	rbp
0x415ed6:	ret	
F 0x41f806
0x40a39b:	pop	r13
0x40a39d:	pop	r14
0x40a39f:	pop	r15
0x40a3a1:	ret	
F 0x40dca7
0x40dca7:	dec	dword ptr [rax - 0x7d]
0x40dcaa:	ret	
F 0x41742f
0x4117df:	add	dword ptr [rax], eax
0x4117e1:	add	rsp, 0x18
0x4117e5:	ret	
F 0x41ba13
0x41ba13:	movabs	eax, dword ptr [0x58fffebd65e80000]
0x41ba1c:	pop	rdx
0x41ba1d:	pop	rbp
0x41ba1e:	ret	
F 0x40fcb0
0x40852f:	pop	rbp
0x408530:	pop	r12
0x408532:	ret	
F 0x417a0d
0x40a748:	pop	rdx
0x40a749:	pop	rbx
0x40a74a:	pop	rbp
0x40a74b:	pop	r12
0x40a74d:	pop	r13
0x40a74f:	pop	r14
0x40a751:	ret	
F 0x4184ff
0x4184ff:	sal	byte ptr [rbp + 6], 0x5d
0x418503:	ret	
F 0x40ea7b
0x40ea7b:	mov	eax, dword ptr [rip + 0x22647]
0x40ea81:	add	rsp, 0x18
0x40ea85:	ret	
F 0x40b807
0x407016:	ret	
F 0x41ee88
0x41ee88:	nop	dword ptr [rax + rax]
0x41ee90:	add	rsp, 8
0x41ee94:	xor	edi, edi
0x41ee96:	mov	rax, rdi
0x41ee99:	pop	rbx
0x41ee9a:	pop	rbp
0x41ee9b:	ret	
F 0x419b88
0x407016:	ret	
F 0x417435
0x407016:	ret	
F 0x41e752
0x409e94:	pop	rsi
0x409e95:	ret	
F 0x412d5a
0x412d5a:	test	byte ptr [rax], al
0x412d5c:	add	byte ptr [rax], al
0x412d5e:	add	byte ptr [rax], al
0x412d60:	add	rsp, 8
0x412d64:	pop	rbx
0x412d65:	pop	rbp
0x412d66:	pop	r12
0x412d68:	pop	r13
0x412d6a:	ret	
F 0x4132ac
0x40852f:	pop	rbp
0x408530:	pop	r12
0x408532:	ret	
F 0x41213c
0x4090d8:	pop	rbx
0x4090d9:	pop	rbp
0x4090da:	ret	
F 0x41dfc6
0x407016:	ret	
F 0x419c93
0x407016:	ret	
F 0x41e6fb
0x41e6fb:	add	dword ptr [rcx], eax
0x41e6fd:	add	byte ptr [rax], al
0x41e6ff:	pop	rbx
0x41e700:	mov	eax, 1
0x41e705:	pop	rbp
0x41e706:	pop	r12
0x41e708:	pop	r13
0x41e70a:	pop	r14
0x41e70c:	ret	
F 0x41c49a
0x409e8e:	pop	rbp
0x409e8f:	pop	r12
0x409e91:	pop	r13
0x409e93:	pop	r14
0x409e95:	ret	
F 0x417ac9
0x40852f:	pop	rbp
0x408530:	pop	r12
0x408532:	ret	
F 0x412fee
0x412fee:	mov	esi, 0x66ffff4b
0x412ff3:	nop	dword ptr [rax + rax]
0x412ff8:	pop	rbp
0x412ff9:	pop	r12
0x412ffb:	pop	r13
0x412ffd:	ret	
F 0x40d94e
0x40d6a6:	add	rsp, 0x10
0x40d6aa:	pop	rbp
0x40d6ab:	pop	r12
0x40d6ad:	pop	r13
0x40d6af:	ret	
F 0x416750
0x416750:	mov	dword ptr [rbx + 0x68], eax
0x416753:	add	rsp, 8
0x416757:	pop	rbx
0x416758:	pop	rbp
0x416759:	ret	
F 0x41dde2
0x40ba11:	or	byte ptr [rax + 1], bh
0x40ba17:	pop	rbx
0x40ba18:	pop	rbp
0x40ba19:	ret	
F 0x416859
0x40885f:	pop	rbp
0x408860:	ret	
F 0x41c566
0x41c566:	add	byte ptr [rax], al
0x41c568:	pop	rbp
0x41c569:	ret	
F 0x41dc09
0x40885f:	pop	rbp
0x408860:	ret	
F 0x4088d1
0x40885f:	pop	rbp
0x408860:	ret	
F 0x41b07c
0x41820c:	pop	rdx
0x41820d:	pop	rbp
0x41820e:	ret	
F 0x409e94
0x409e94:	pop	rsi
0x409e95:	ret	
F 0x40fdd5
0x40fdd5:	inc	dword ptr [rbp + 0x480e74c0]
0x40fddb:	mov	eax, dword ptr [rbx + 0x98]
0x40fde1:	pop	rbx
0x40fde2:	ret	
F 0x40d016
0x40d016:	test	byte ptr [rbp - 0x7d000000], dl
0x40d01c:	ret	
F 0x40e2ee
0x40ba15:	add	byte ptr [rax], al
0x40ba17:	pop	rbx
0x40ba18:	pop	rbp
0x40ba19:	ret	
F 0x408baf
0x407016:	ret	
F 0x414320
0x40ec88:	add	rsp, 8
0x40ec8c:	pop	rbx
0x40ec8d:	pop	rbp
0x40ec8e:	pop	r12
0x40ec90:	pop	r13
0x40ec92:	ret	
F 0x411e5b
0x4090d7:	or	byte ptr [rbx + 0x5d], bl
0x4090da:	ret	
F 0x40eb49
0x40852f:	pop	rbp
0x408530:	pop	r12
0x408532:	ret	
F 0x4187f1
0x408e72:	pop	rbx
0x408e73:	pop	rbp
0x408e74:	pop	r12
0x408e76:	ret	
F 0x41f029
0x41f029:	test	dh, bh
0x41f02b:	dec	dword ptr [rax - 0x77]
0x41f02e:	ret	0x8548
F 0x413844
0x4090d8:	pop	rbx
0x4090d9:	pop	rbp
0x4090da:	ret	
F 0x4149c3
0x4149c3:	add	byte ptr [rax], al
0x4149c5:	add	byte ptr [rbp + 0x35], dh
0x4149c8:	add	rsp, 0x18
0x4149cc:	ret	
F 0x415660
0x40cdd7:	add	byte ptr [rax], al
0x40cdd9:	pop	rbx
0x40cdda:	pop	rbp
0x40cddb:	pop	r12
0x40cddd:	ret	
F 0x413d50
0x407016:	ret	
F 0x416e24
0x409e91:	pop	r13
0x409e93:	pop	r14
0x409e95:	ret	
F 0x41d871
0x41d871:	test	eax, eax
0x41d873:	sete	r13b
0x41d877:	mov	eax, r13d
0x41d87a:	pop	rbp
0x41d87b:	pop	r12
0x41d87d:	pop	r13
0x41d87f:	ret	
F 0x40e842
0x40a39b:	pop	r13
0x40a39d:	pop	r14
0x40a39f:	pop	r15
0x40a3a1:	ret	
F 0x40ec8d
0x408a92:	pop	rbp
0x408a93:	pop	r12
0x408a95:	pop	r13
0x408a97:	ret	
F 0x40bcfc
0x40bcfc:	or	byte ptr [rcx], sil
0x40bcff:	shr	al, 0xbb
0x40bd02:	ret	
F 0x41d4cf
0x411e56:	add	byte ptr [rax], al
0x411e58:	add	rsp, 8
0x411e5c:	pop	rbx
0x411e5d:	pop	rbp
0x411e5e:	ret	
F 0x40d6aa
0x408a92:	pop	rbp
0x408a93:	pop	r12
0x408a95:	pop	r13
0x408a97:	ret	
F 0x41573c
0x40885f:	pop	rbp
0x408860:	ret	
F 0x41846c
0x41846c:	sub	byte ptr [r13 + 0x5d0674c0], r8b
0x418473:	ret	
F 0x41291f
0x4090d4:	add	rsp, 8
0x4090d8:	pop	rbx
0x4090d9:	pop	rbp
0x4090da:	ret	
F 0x41cec0
0x41cec0:	mov	rax, qword ptr [rip + 0x143e1]
0x41cec7:	ret	
F 0x417466
0x417466:	add	eax, 0x19d15
0x41746b:	add	rsp, 0x18
0x41746f:	ret	
F 0x4122ae
0x407016:	ret	
F 0x419c92
0x409e94:	pop	rsi
0x409e95:	ret	
F 0x40b898
0x40b898:	add	al, byte ptr [rax]
0x40b89a:	add	rsp, 8
0x40b89e:	ret	
F 0x419b7e
0x40ec88:	add	rsp, 8
0x40ec8c:	pop	rbx
0x40ec8d:	pop	rbp
0x40ec8e:	pop	r12
0x40ec90:	pop	r13
0x40ec92:	ret	
F 0x41c633
0x41c633:	dec	dword ptr [rax - 0x75]
0x41c636:	add	eax, 0x14c3d
0x41c63b:	add	rsp, 0x18
0x41c63f:	ret	
F 0x40970b
0x40970b:	add	byte ptr [rcx + 0x3b], cl
0x40970e:	xor	byte ptr [rbp - 0x11], dh
0x409711:	mov	rax, r8
0x409714:	add	rsp, 8
0x409718:	ret	
F 0x4105aa
0x4105aa:	add	eax, 0x20b59
0x4105af:	mov	qword ptr [rbx + 0x90], rax
0x4105b6:	pop	rbx
0x4105b7:	ret	
F 0x41565a
0x41565a:	mov	qword ptr [rbp + 0x38], 0
0x415662:	pop	rbx
0x415663:	pop	rbp
0x415664:	pop	r12
0x415666:	ret	
F 0x4178db
0x40e83a:	add	rsp, 0x18
0x40e83e:	pop	rbx
0x40e83f:	pop	rbp
0x40e840:	pop	r12
0x40e842:	pop	r13
0x40e844:	pop	r14
0x40e846:	pop	r15
0x40e848:	ret	
F 0x415b1f
0x415b1f:	nop	
0x415b20:	pop	rbx
0x415b21:	pop	rbp
0x415b22:	pop	r12
0x415b24:	ret	
F 0x40bbac
0x40bbac:	push	0x18c48348
0x40bbb1:	pop	rbp
0x40bbb2:	pop	r12
0x40bbb4:	ret	
F 0x40ebf9
0x40852f:	pop	rbp
0x408530:	pop	r12
0x408532:	ret	
F 0x41e1c3
0x40a39d:	pop	r14
0x40a39f:	pop	r15
0x40a3a1:	ret	
F 0x41ca6c
0x41ca6c:	movzx	eax, al
0x41ca6f:	ret	
F 0x415e2d
0x407016:	ret	
F 0x41e2b8
0x41e2b8:	adc	byte ptr [rax - 0x7d], cl
0x41e2bb:	ret	
F 0x41526e
0x41526e:	add	byte ptr [rax], al
0x415270:	add	rsp, 8
0x415274:	pop	rbx
0x415275:	pop	rbp
0x415276:	pop	r12
0x415278:	pop	r13
0x41527a:	pop	r14
0x41527c:	pop	r15
0x41527e:	ret	
F 0x418593
0x407016:	ret	
F 0x408f0a
0x408f0a:	mov	rax, qword ptr [rbx + 0x30]
0x408f0e:	pop	rbx
0x408f0f:	ret	
F 0x41d155
0x41d155:	test	byte ptr [rax], al
0x41d157:	add	byte ptr [rax], al
0x41d159:	add	byte ptr [rax], al
0x41d15b:	nop	dword ptr [rax + rax]
0x41d160:	ret	
F 0x417c27
0x407016:	ret	
F 0x416f41
0x407016:	ret	
F 0x41d80a
0x41d80a:	lea	rdx, [rip + 0x9f]
0x41d811:	mov	qword ptr [rax + 0x88], rdx
0x41d818:	pop	rbp
0x41d819:	ret	
F 0x412bba
0x412bba:	test	byte ptr [rax], al
0x412bbc:	add	byte ptr [rax], al
0x412bbe:	add	byte ptr [rax], al
0x412bc0:	add	rsp, 8
0x412bc4:	pop	rbx
0x412bc5:	pop	rbp
0x412bc6:	ret	
F 0x414965
0x40885f:	pop	rbp
0x408860:	ret	
F 0x40d052
0x40cf0f:	add	rsp, 0x18
0x40cf13:	xor	eax, eax
0x40cf15:	pop	rbx
0x40cf16:	pop	rbp
0x40cf17:	pop	r12
0x40cf19:	pop	r13
0x40cf1b:	pop	r14
0x40cf1d:	pop	r15
0x40cf1f:	ret	
F 0x41465c
0x409e92:	pop	rbp
0x409e93:	pop	r14
0x409e95:	ret	
F 0x40c393
0x40a936:	or	byte ptr [rbx + 0x5d], bl
0x40a939:	pop	r12
0x40a93b:	pop	r13
0x40a93d:	pop	r14
0x40a93f:	pop	r15
0x40a941:	ret	
F 0x411388
0x411388:	add	dh, dh
0x41138a:	or	byte ptr [rbp + 0x11], r14b
0x41138f:	add	rsp, 8
0x411393:	pop	rbx
0x411394:	pop	rbp
0x411395:	ret	
F 0x4141b4
0x407016:	ret	
F 0x408863
0x4087e3:	add	byte ptr [rax], 0
0x4087e6:	add	byte ptr [rax], al
0x4087e8:	ret	
F 0x41b8bc
0x41820c:	pop	rdx
0x41820d:	pop	rbp
0x41820e:	ret	
F 0x40bd62
0x407016:	ret	
F 0x41d5cb
0x41d5cb:	add	rsp, 8
0x41d5d1:	pop	rbx
0x41d5d2:	pop	rbp
0x41d5d3:	pop	r12
0x41d5d5:	pop	r13
0x41d5d7:	ret	
F 0x419a11
0x407016:	ret	
F 0x417be1
0x407016:	ret	
F 0x41054f
0x4088cf:	pop	rdx
0x4088d0:	pop	rcx
0x4088d1:	pop	rbp
0x4088d2:	ret	
F 0x413699
0x407016:	ret	
F 0x40c15e
0x40c15e:	add	byte ptr [rbp + 0x65], dh
0x40c161:	add	rsp, 0x38
0x40c165:	pop	rbx
0x40c166:	pop	rbp
0x40c167:	pop	r12
0x40c169:	pop	r13
0x40c16b:	pop	r14
0x40c16d:	pop	r15
0x40c16f:	ret	
F 0x408a5b
0x408a5b:	sal	byte ptr [rsp + 0x48], 0x89
0x408a60:	ret	
F 0x41dca3
0x40ba12:	mov	eax, 1
0x40ba17:	pop	rbx
0x40ba18:	pop	rbp
0x40ba19:	ret	
F 0x41dc9b
0x41dc9b:	mov	qword ptr [rbx + 0x38], rax
0x41dc9f:	add	rsp, 8
0x41dca3:	mov	eax, 1
0x41dca8:	pop	rbx
0x41dca9:	pop	rbp
0x41dcaa:	ret	
F 0x416ca9
0x416ca9:	nop	dword ptr [rax]
0x416cb0:	pop	rbx
0x416cb1:	ret	
F 0x41410b
0x40ec8b:	or	byte ptr [rbx + 0x5d], bl
0x40ec8e:	pop	r12
0x40ec90:	pop	r13
0x40ec92:	ret	
F 0x40f179
0x40a0d6:	sbb	byte ptr [rbx + 0x5d], bl
0x40a0d9:	pop	r12
0x40a0db:	pop	r13
0x40a0dd:	ret	
F 0x41b203
0x407016:	ret	
F 0x40c166
0x40a398:	pop	rbp
0x40a399:	pop	r12
0x40a39b:	pop	r13
0x40a39d:	pop	r14
0x40a39f:	pop	r15
0x40a3a1:	ret	
F 0x414cf7
0x414cf7:	xor	dword ptr [rax + rax + 0x5d5b0000], 0x41
0x414cff:	mov	dword ptr [rsp], eax
0x414d02:	pop	r12
0x414d04:	ret	
F 0x41187e
0x40c8e3:	mov	eax, esi
0x40c8e5:	pop	rbx
0x40c8e6:	pop	rbp
0x40c8e7:	pop	r12
0x40c8e9:	pop	r13
0x40c8eb:	pop	r14
0x40c8ed:	pop	r15
0x40c8ef:	ret	
F 0x409e87
0x409e87:	add	byte ptr [rax], al
0x409e89:	add	rsp, 0x20
0x409e8d:	pop	rbx
0x409e8e:	pop	rbp
0x409e8f:	pop	r12
0x409e91:	pop	r13
0x409e93:	pop	r14
0x409e95:	ret	
F 0x40eb45
0x40eb45:	add	byte ptr [rax], r8b
0x40eb48:	pop	rbx
0x40eb49:	pop	rbp
0x40eb4a:	pop	r12
0x40eb4c:	ret	
F 0x40e6c0
0x408a8d:	or	byte ptr [rcx + rcx*4 - 0x20], cl
0x408a91:	pop	rbx
0x408a92:	pop	rbp
0x408a93:	pop	r12
0x408a95:	pop	r13
0x408a97:	ret	
F 0x41a504
0x407016:	ret	
F 0x41598e
0x409444:	add	byte ptr [rax], al
0x409446:	pop	rbx
0x409447:	ret	
F 0x41c90b
0x40afd4:	add	byte ptr [rax - 0x77], cl
0x40afd7:	ret	
F 0x418531
0x40885f:	pop	rbp
0x408860:	ret	
F 0x40fbce
0x4090d8:	pop	rbx
0x4090d9:	pop	rbp
0x4090da:	ret	
F 0x4154ae
0x4154ae:	add	byte ptr [rax], al
0x4154b0:	mov	qword ptr [rbp + 0x68], rax
0x4154b4:	add	rsp, 8
0x4154b8:	pop	rbx
0x4154b9:	pop	rbp
0x4154ba:	pop	r12
0x4154bc:	pop	r13
0x4154be:	ret	
F 0x41923f
0x40a3a0:	pop	rdi
0x40a3a1:	ret	
F 0x4149c7
0x4149c7:	xor	eax, 0x18c48348
0x4149cc:	ret	
F 0x40d876
0x407016:	ret	
F 0x41ea29
0x407016:	ret	
F 0x41d7d8
0x41d7d8:	mov	qword ptr [rbx + 0x58], rax
0x41d7dc:	pop	rbx
0x41d7dd:	ret	
F 0x418fef
0x418fef:	add	dword ptr [rax], eax
0x418ff1:	add	rsp, 0x38
0x418ff5:	pop	rbx
0x418ff6:	pop	rbp
0x418ff7:	pop	r12
0x418ff9:	pop	r13
0x418ffb:	ret	
F 0x41746f
0x407016:	ret	
F 0x40e2ef
0x40ba16:	add	byte ptr [rbx + 0x5d], bl
0x40ba19:	ret	
F 0x40fd35
0x40fd35:	add	eax, 0x21386
0x40fd3a:	add	rsp, 8
0x40fd3e:	ret	
F 0x419b84
0x408a93:	pop	r12
0x408a95:	pop	r13
0x408a97:	ret	
F 0x41e4f0
0x407016:	ret	
F 0x40c16d
0x40a39f:	pop	r15
0x40a3a1:	ret	
F 0x411e5c
0x4090d8:	pop	rbx
0x4090d9:	pop	rbp
0x4090da:	ret	
F 0x40d4ff
0x40d4ff:	cwde	
0x40d500:	add	byte ptr [rax], al
0x40d502:	add	byte ptr [rbx + 0x5d], bl
0x40d505:	pop	r12
0x40d507:	pop	r13
0x40d509:	ret	
F 0x40d503
0x408a91:	pop	rbx
0x408a92:	pop	rbp
0x408a93:	pop	r12
0x408a95:	pop	r13
0x408a97:	ret	
F 0x419065
0x419065:	sbb	al, 0x83
0x419067:	ret	
F 0x4104da
0x4104da:	mov	rax, qword ptr [rbx + 0x78]
0x4104de:	pop	rbx
0x4104df:	ret	
F 0x408de8
0x408de8:	nop	dword ptr [rax + rax]
0x408df0:	add	rsp, 8
0x408df4:	pop	rbp
0x408df5:	pop	r12
0x408df7:	ret	
F 0x40ba0e
0x40ba0e:	add	rsp, 8
0x40ba12:	mov	eax, 1
0x40ba17:	pop	rbx
0x40ba18:	pop	rbp
0x40ba19:	ret	
F 0x415d02
0x415d02:	add	byte ptr [rax], al
0x415d04:	add	byte ptr [rbp + 0x73], dh
0x415d07:	add	rsp, 0x18
0x415d0b:	pop	rbp
0x415d0c:	pop	r12
0x415d0e:	ret	
F 0x41d48a
0x41d48a:	mov	eax, esp
0x41d48c:	pop	rbx
0x41d48d:	pop	r12
0x41d48f:	ret	
F 0x409db1
0x409db1:	and	eax, 0xfffffffc
0x409db4:	or	esi, ebx
0x409db6:	or	esi, eax
0x409db8:	mov	byte ptr [r12 + 8], sil
0x409dbd:	mov	rax, r12
0x409dc0:	pop	rbx
0x409dc1:	pop	rbp
0x409dc2:	pop	r12
0x409dc4:	ret	
F 0x41c5fc
0x41c5fc:	add	eax, 0x14c77
0x41c601:	add	rsp, 0x18
0x41c605:	ret	
F 0x41e1f6
0x41e1f6:	add	byte ptr [rax - 0x7d], cl
0x41e1f9:	ret	
F 0x410dad
0x40a397:	pop	rbx
0x40a398:	pop	rbp
0x40a399:	pop	r12
0x40a39b:	pop	r13
0x40a39d:	pop	r14
0x40a39f:	pop	r15
0x40a3a1:	ret	
F 0x41dc04
0x40ba13:	add	dword ptr [rax], eax
0x40ba15:	add	byte ptr [rax], al
0x40ba17:	pop	rbx
0x40ba18:	pop	rbp
0x40ba19:	ret	
F 0x409abc
0x408a93:	pop	r12
0x408a95:	pop	r13
0x408a97:	ret	
F 0x40bba8
0x40bba8:	add	byte ptr [rax], al
0x40bbaa:	add	byte ptr [rbp + 0x68], dh
0x40bbad:	add	rsp, 0x18
0x40bbb1:	pop	rbp
0x40bbb2:	pop	r12
0x40bbb4:	ret	
F 0x408ecd
0x408ecd:	mov	qword ptr [rbp + 0x28], rax
0x408ed1:	pop	rbx
0x408ed2:	pop	rbp
0x408ed3:	pop	r12
0x408ed5:	ret	
F 0x4104db
0x4104db:	mov	eax, dword ptr [rbx + 0x78]
0x4104de:	pop	rbx
0x4104df:	ret	
F 0x412d66
0x408a93:	pop	r12
0x408a95:	pop	r13
0x408a97:	ret	
F 0x40b895
0x40b895:	add	eax, 0x257f6
0x40b89a:	add	rsp, 8
0x40b89e:	ret	
F 0x415988
0x413e68:	nop	dword ptr [rax + rax]
0x413e70:	pop	rbx
0x413e71:	ret	
F 0x40d05e
0x40a39d:	pop	r14
0x40a39f:	pop	r15
0x40a3a1:	ret	
F 0x418960
0x407016:	ret	
F 0x41c2da
0x40a39f:	pop	r15
0x40a3a1:	ret	
F 0x41bdd9
0x41bdd9:	shr	al, 0x41
0x41bddc:	ret	
F 0x41852f
0x4088cf:	pop	rdx
0x4088d0:	pop	rcx
0x4088d1:	pop	rbp
0x4088d2:	ret	
F 0x41e920
0x41e920:	sub	byte ptr [r12 + rcx + 0x5b], r14b
0x41e925:	xor	eax, eax
0x41e927:	pop	rbp
0x41e928:	pop	r12
0x41e92a:	ret	
F 0x414c75
0x414c75:	inc	dword ptr [rbp + 0x480674c0]
0x414c7b:	mov	eax, dword ptr [rbx + 0x40]
0x414c7e:	pop	rbx
0x414c7f:	ret	
F 0x41ccf4
0x409e8f:	pop	r12
0x409e91:	pop	r13
0x409e93:	pop	r14
0x409e95:	ret	
F 0x40bbb4
0x407016:	ret	
F 0x40c16f
0x407016:	ret	
F 0x41b49c
0x41820c:	pop	rdx
0x41820d:	pop	rbp
0x41820e:	ret	
F 0x41c9c0
0x40bbad:	add	rsp, 0x18
0x40bbb1:	pop	rbp
0x40bbb2:	pop	r12
0x40bbb4:	ret	
F 0x41dd3e
0x41dd3e:	push	rax
0x41dd3f:	add	rsp, 8
0x41dd43:	mov	eax, 1
0x41dd48:	pop	rbx
0x41dd49:	pop	rbp
0x41dd4a:	ret	
F 0x40bd5a
0x40a399:	pop	r12
0x40a39b:	pop	r13
0x40a39d:	pop	r14
0x40a39f:	pop	r15
0x40a3a1:	ret	
F 0x40b484
0x40b484:	mov	rax, qword ptr [rip + 0x25c0d]
0x40b48b:	add	rsp, 0x18
0x40b48f:	ret	
F 0x416bde
0x408530:	pop	r12
0x408532:	ret	
F 0x40fe65
0x4090d7:	or	byte ptr [rbx + 0x5d], bl
0x4090da:	ret	
F 0x40fca9
0x40fca9:	or	byte ptr [rbp + 0xc], dh
0x40fcac:	add	rsp, 8
0x40fcb0:	pop	rbp
0x40fcb1:	pop	r12
0x40fcb3:	ret	
F 0x4178df
0x40a397:	pop	rbx
0x40a398:	pop	rbp
0x40a399:	pop	r12
0x40a39b:	pop	r13
0x40a39d:	pop	r14
0x40a39f:	pop	r15
0x40a3a1:	ret	
F 0x414e9a
0x414e9a:	test	byte ptr [rax], al
0x414e9c:	add	byte ptr [rax], al
0x414e9e:	add	byte ptr [rax], al
0x414ea0:	pop	rbx
0x414ea1:	pop	rbp
0x414ea2:	pop	r12
0x414ea4:	ret	
F 0x41e70b
0x409e94:	pop	rsi
0x409e95:	ret	
F 0x41be6e
0x408a93:	pop	r12
0x408a95:	pop	r13
0x408a97:	ret	
F 0x40e776
0x407016:	ret	
F 0x41c1b4
0x40bbad:	add	rsp, 0x18
0x40bbb1:	pop	rbp
0x40bbb2:	pop	r12
0x40bbb4:	ret	
F 0x408868
0x407016:	ret	
F 0x4141ad
0x40eb45:	add	byte ptr [rax], r8b
0x40eb48:	pop	rbx
0x40eb49:	pop	rbp
0x40eb4a:	pop	r12
0x40eb4c:	ret	
F 0x408fab
0x408530:	pop	r12
0x408532:	ret	
F 0x415a51
0x407016:	ret	
F 0x41d288
0x41d24e:	add	dword ptr [rax], eax
0x41d251:	add	rsp, 0x18
0x41d255:	ret	
F 0x413f08
0x413e68:	nop	dword ptr [rax + rax]
0x413e70:	pop	rbx
0x413e71:	ret	
F 0x41974b
0x41974b:	ret	0x8348
F 0x4101bc
0x4101bc:	nop	
0x4101bd:	mov	eax, 0x8948ffff
0x4101c2:	ret	
F 0x414580
0x414580:	add	rsp, 8
0x414584:	mov	rax, r13
0x414587:	pop	rbp
0x414588:	pop	r12
0x41458a:	pop	r13
0x41458c:	pop	r14
0x41458e:	ret	
F 0x41cfbb
0x41cfbb:	ret	0x8148
F 0x41e41a
0x41e1f6:	add	byte ptr [rax - 0x7d], cl
0x41e1f9:	ret	
F 0x4187f0
0x408e71:	and	byte ptr [rbx + 0x5d], bl
0x408e74:	pop	r12
0x408e76:	ret	
F 0x41e0f3
0x41dfc3:	add	dword ptr [rax - 0x7d], ecx
0x41dfc6:	ret	
F 0x414110
0x408a95:	pop	r13
0x408a97:	ret	
F 0x4116ef
0x408a93:	pop	r12
0x408a95:	pop	r13
0x408a97:	ret	
F 0x410db4
0x40a39e:	pop	rsi
0x40a39f:	pop	r15
0x40a3a1:	ret	
F 0x41d48d
0x408530:	pop	r12
0x408532:	ret	
F 0x40fd33
0x40fd33:	mov	qword ptr [rip + 0x21386], rax
0x40fd3a:	add	rsp, 8
0x40fd3e:	ret	
F 0x4132a4
0x4132a4:	nop	dword ptr [rax]
0x4132a8:	add	rsp, 8
0x4132ac:	pop	rbp
0x4132ad:	pop	r12
0x4132af:	ret	
F 0x40e839
0x40e839:	add	rsp, 0x18
0x40e83e:	pop	rbx
0x40e83f:	pop	rbp
0x40e840:	pop	r12
0x40e842:	pop	r13
0x40e844:	pop	r14
0x40e846:	pop	r15
0x40e848:	ret	
F 0x416e21
0x409e8e:	pop	rbp
0x409e8f:	pop	r12
0x409e91:	pop	r13
0x409e93:	pop	r14
0x409e95:	ret	
F 0x408876
0x408876:	nop	dword ptr cs:[rax + rax]
0x40887f:	nop	
0x408880:	ret	
F 0x40afd4
0x40afd4:	add	byte ptr [rax - 0x77], cl
0x40afd7:	ret	
F 0x413660
0x413660:	sbb	byte ptr [rax - 0x77], cl
0x413663:	ret	0x8d48
F 0x41a198
0x409e8f:	pop	r12
0x409e91:	pop	r13
0x409e93:	pop	r14
0x409e95:	ret	
F 0x40c8ef
0x407016:	ret	
F 0x41dca8
0x4090d8:	pop	rbx
0x4090d9:	pop	rbp
0x4090da:	ret	
F 0x419c8b
0x409e8d:	pop	rbx
0x409e8e:	pop	rbp
0x409e8f:	pop	r12
0x409e91:	pop	r13
0x409e93:	pop	r14
0x409e95:	ret	
F 0x41daab
0x408b71:	add	rsp, 0x18
0x408b75:	ret	
F 0x41e753
0x407016:	ret	
F 0x41dc05
0x40ba14:	add	byte ptr [rax], al
0x40ba16:	add	byte ptr [rbx + 0x5d], bl
0x40ba19:	ret	
F 0x41999b
0x416cab:	add	byte ptr [rax], 0
0x416cae:	add	byte ptr [rax], al
0x416cb0:	pop	rbx
0x416cb1:	ret	
F 0x40d4ac
0x407016:	ret	
F 0x416bd7
0x416bd7:	dec	dword ptr [rax - 0x77]
0x416bda:	pop	rbx
0x416bdd:	pop	rbp
0x416bde:	pop	r12
0x416be0:	ret	
F 0x41a70f
0x408530:	pop	r12
0x408532:	ret	
F 0x40dd0d
0x40dd0d:	add	byte ptr [rax], al
0x40dd0f:	add	byte ptr [rbp + 0x2a], dh
0x40dd12:	add	rsp, 0x10
0x40dd16:	pop	rbx
0x40dd17:	pop	rbp
0x40dd18:	pop	r12
0x40dd1a:	pop	r13
0x40dd1c:	pop	r14
0x40dd1e:	ret	
F 0x414c7c
0x414c7c:	pop	rbx
0x414c7f:	ret	
F 0x415ff0
0x415ff0:	mov	qword ptr [rbx + 0x68], rax
0x415ff4:	pop	rbx
0x415ff5:	ret	
F 0x41a092
0x409e94:	pop	rsi
0x409e95:	ret	
F 0x41d451
0x41d451:	mov	eax, dword ptr [rdi + 0x38]
0x41d454:	ret	
F 0x416cab
0x416cab:	add	byte ptr [rax], 0
0x416cae:	add	byte ptr [rax], al
0x416cb0:	pop	rbx
0x416cb1:	ret	
F 0x418fec
0x418fec:	add	eax, 0x18283
0x418ff1:	add	rsp, 0x38
0x418ff5:	pop	rbx
0x418ff6:	pop	rbp
0x418ff7:	pop	r12
0x418ff9:	pop	r13
0x418ffb:	ret	
F 0x40e0c3
0x40e0c3:	add	byte ptr [rax], al
0x40e0c5:	add	byte ptr [rbp + 0xb], dh
0x40e0c8:	add	rsp, 0x18
0x40e0cc:	pop	rbx
0x40e0cd:	pop	rbp
0x40e0ce:	pop	r12
0x40e0d0:	pop	r13
0x40e0d2:	ret	
F 0x411539
0x40a39c:	pop	rbp
0x40a39d:	pop	r14
0x40a39f:	pop	r15
0x40a3a1:	ret	
F 0x40885a
0x40885a:	add	dword ptr [rax + 0x5d010002], ecx
0x408860:	ret	
F 0x40fd3e
0x407016:	ret	
F 0x415ff5
0x407016:	ret	
F 0x4177df
0x407016:	ret	
F 0x41d87d
0x408a95:	pop	r13
0x408a97:	ret	
F 0x41d48c
0x41d48c:	pop	rbx
0x41d48d:	pop	r12
0x41d48f:	ret	
F 0x41dde5
0x40ba14:	add	byte ptr [rax], al
0x40ba16:	add	byte ptr [rbx + 0x5d], bl
0x40ba19:	ret	
F 0x40b78b
0x408a92:	pop	rbp
0x408a93:	pop	r12
0x408a95:	pop	r13
0x408a97:	ret	
F 0x40b850
0x40b850:	add	al, ch
0x40b852:	mov	bh, byte ptr [rbp + 0x15e8ffff]
0x40b858:	ret	
F 0x41ba1c
0x41820c:	pop	rdx
0x41820d:	pop	rbp
0x41820e:	ret	
F 0x413f0c
0x413e6c:	add	byte ptr [rax], al
0x413e6e:	add	byte ptr [rax], al
0x413e70:	pop	rbx
0x413e71:	ret	
F 0x40b790
0x407016:	ret	
F 0x40a92f
0x40a92f:	mov	qword ptr [rbx + 8], rax
0x40a933:	add	rsp, 8
0x40a937:	pop	rbx
0x40a938:	pop	rbp
0x40a939:	pop	r12
0x40a93b:	pop	r13
0x40a93d:	pop	r14
0x40a93f:	pop	r15
0x40a941:	ret	
F 0x4188aa
0x4188aa:	mov	eax, dword ptr [rbx + 0x2c]
0x4188ad:	pop	rbx
0x4188ae:	ret	
F 0x40e1dd
0x407016:	ret	
F 0x4117da
0x4117da:	mov	rax, qword ptr [rip + 0x1f907]
0x4117e1:	add	rsp, 0x18
0x4117e5:	ret	
F 0x4141ae
0x40cdd7:	add	byte ptr [rax], al
0x40cdd9:	pop	rbx
0x40cdda:	pop	rbp
0x40cddb:	pop	r12
0x40cddd:	ret	
F 0x419817
0x419817:	test	eax, 0x1f0fffff
0x41981d:	add	byte ptr [rax], r8b
0x419820:	pop	rbx
0x419821:	pop	rbp
0x419822:	pop	r12
0x419824:	ret	
F 0x40d949
0x40d949:	add	byte ptr [rax], al
0x40d94b:	add	byte ptr [rbp + 0x42], dh
0x40d94e:	add	rsp, 0x10
0x40d952:	pop	rbp
0x40d953:	pop	r12
0x40d955:	pop	r13
0x40d957:	ret	
F 0x41ee95
0x41ee95:	dec	dword ptr [rax - 0x77]
0x41ee98:	clc	
0x41ee99:	pop	rbx
0x41ee9a:	pop	rbp
0x41ee9b:	ret	
F 0x41cf91
0x41cf91:	lea	rsp, [rbp - 0x28]
0x41cf95:	pop	rbx
0x41cf96:	pop	r12
0x41cf98:	pop	r13
0x41cf9a:	pop	r14
0x41cf9c:	pop	r15
0x41cf9e:	pop	rbp
0x41cf9f:	ret	
F 0x40e0d1
0x40885f:	pop	rbp
0x408860:	ret	
F 0x414e9c
0x411d44:	add	byte ptr [rax], al
0x411d46:	add	byte ptr [rax], al
0x411d48:	pop	rbx
0x411d49:	pop	rbp
0x411d4a:	pop	r12
0x411d4c:	ret	
F 0x40dd17
0x409e8e:	pop	rbp
0x409e8f:	pop	r12
0x409e91:	pop	r13
0x409e93:	pop	r14
0x409e95:	ret	
F 0x4116e2
0x4116e2:	add	byte ptr [rax], al
0x4116e4:	add	byte ptr [rbp + 0x4d], dh
0x4116e7:	add	rsp, 0xa0
0x4116ee:	pop	rbp
0x4116ef:	pop	r12
0x4116f1:	pop	r13
0x4116f3:	ret	
F 0x415e26
0x408df0:	add	rsp, 8
0x408df4:	pop	rbp
0x408df5:	pop	r12
0x408df7:	ret	
F 0x40b22f
0x407016:	ret	
F 0x415d04
0x415d04:	add	byte ptr [rbp + 0x73], dh
0x415d07:	add	rsp, 0x18
0x415d0b:	pop	rbp
0x415d0c:	pop	r12
0x415d0e:	ret	
F 0x40955f
0x40955f:	pop	rbx
0x409560:	test	edx, edx
0x409562:	setne	al
0x409565:	ret	
F 0x40bbad
0x40bbad:	add	rsp, 0x18
0x40bbb1:	pop	rbp
0x40bbb2:	pop	r12
0x40bbb4:	ret	
F 0x41c605
0x407016:	ret	
F 0x41e1c2
0x40a39c:	pop	rbp
0x40a39d:	pop	r14
0x40a39f:	pop	r15
0x40a3a1:	ret	
F 0x408b64
0x408b64:	or	byte ptr [rax - 0x7b], cl
0x408b67:	sal	byte ptr [rsi + rdx + 0x48], 0x8b
0x408b6c:	add	eax, 0x284ff
0x408b71:	add	rsp, 0x18
0x408b75:	ret	
F 0x40a39f
0x40a39f:	pop	r15
0x40a3a1:	ret	
F 0x41d1ef
0x41d1ef:	add	byte ptr [rax], al
0x41d1f1:	mov	qword ptr [rax + 0x88], rdx
0x41d1f8:	pop	rbp
0x41d1f9:	ret	
F 0x4178e6
0x40a39e:	pop	rsi
0x40a39f:	pop	r15
0x40a3a1:	ret	
F 0x41d342
0x408a92:	pop	rbp
0x408a93:	pop	r12
0x408a95:	pop	r13
0x408a97:	ret	
F 0x40c39c
0x40a39f:	pop	r15
0x40a3a1:	ret	
F 0x414324
0x408a91:	pop	rbx
0x408a92:	pop	rbp
0x408a93:	pop	r12
0x408a95:	pop	r13
0x408a97:	ret	
F 0x4196f6
0x4196f6:	add	eax, 0x17b25
0x4196fb:	add	rsp, 0x18
0x4196ff:	ret	
F 0x41a2f4
0x407016:	ret	
F 0x413d46
0x413d46:	add	byte ptr [rax], al
0x413d48:	add	rsp, 0x20
0x413d4c:	pop	rbx
0x413d4d:	pop	rbp
0x413d4e:	pop	r12
0x413d50:	ret	
F 0x41116a
0x41116a:	sub	byte ptr [rbx + 0x5d], bl
0x41116d:	ret	
F 0x40e0cb
0x40a0d6:	sbb	byte ptr [rbx + 0x5d], bl
0x40a0d9:	pop	r12
0x40a0db:	pop	r13
0x40a0dd:	ret	
F 0x411791
0x407016:	ret	
F 0x40d01c
0x407016:	ret	
F 0x41d152
0x41d152:	nop	dword ptr cs:[rax + rax]
0x41d15b:	nop	dword ptr [rax + rax]
0x41d160:	ret	
F 0x41caa9
0x408a92:	pop	rbp
0x408a93:	pop	r12
0x408a95:	pop	r13
0x408a97:	ret	
F 0x411051
0x411051:	add	rsp, 0x20
0x411056:	pop	rbx
0x411057:	pop	rbp
0x411058:	pop	r12
0x41105a:	ret	
F 0x412bc3
0x4090d7:	or	byte ptr [rbx + 0x5d], bl
0x4090da:	ret	
F 0x40bd3b
0x407016:	ret	
F 0x416bd9
0x416bd9:	mov	dword ptr [rbp + 0x48], eax
0x416bdc:	pop	rbx
0x416bdd:	pop	rbp
0x416bde:	pop	r12
0x416be0:	ret	
F 0x412d5c
0x412d5c:	add	byte ptr [rax], al
0x412d5e:	add	byte ptr [rax], al
0x412d60:	add	rsp, 8
0x412d64:	pop	rbx
0x412d65:	pop	rbp
0x412d66:	pop	r12
0x412d68:	pop	r13
0x412d6a:	ret	
F 0x41deae
0x408a92:	pop	rbp
0x408a93:	pop	r12
0x408a95:	pop	r13
0x408a97:	ret	
F 0x411787
0x411787:	mov	dword ptr [rbx + 0x10], 0
0x41178e:	xor	eax, eax
0x411790:	pop	rbx
0x411791:	ret	
F 0x40c8ed
0x40a39f:	pop	r15
0x40a3a1:	ret	
F 0x41e41d
0x407016:	ret	
F 0x41c0ed
0x408c6e:	pop	rbx
0x408c6f:	ret	
F 0x411162
0x411162:	add	byte ptr [rax], al
0x411164:	add	byte ptr [rbp + 7], dh
0x411167:	add	rsp, 0x28
0x41116b:	pop	rbx
0x41116c:	pop	rbp
0x41116d:	ret	
F 0x414d04
0x407016:	ret	
F 0x4111ef
0x409be9:	sbb	byte ptr [rbx + 0x5d], bl
0x409bec:	ret	
F 0x41d53b
0x408c6b:	mov	eax, dword ptr [rbx + 0x28]
0x408c6e:	pop	rbx
0x408c6f:	ret	
F 0x40a0d0
0x40a0d0:	add	byte ptr [rbp + 0x33], dh
0x40a0d3:	add	rsp, 0x18
0x40a0d7:	pop	rbx
0x40a0d8:	pop	rbp
0x40a0d9:	pop	r12
0x40a0db:	pop	r13
0x40a0dd:	ret	
F 0x414b8f
0x414b8f:	add	byte ptr [rax], al
0x414b91:	mov	dword ptr [rbx + 0x4c], ebp
0x414b94:	add	rsp, 8
0x414b98:	pop	rbx
0x414b99:	pop	rbp
0x414b9a:	ret	
F 0x40d957
0x407016:	ret	
F 0x4196b7
0x4196b7:	sal	byte ptr [rsi + rdx + 0x48], 0x8b
0x4196bc:	add	eax, 0x17b5f
0x4196c1:	add	rsp, 0x18
0x4196c5:	ret	
F 0x40bbb1
0x40852f:	pop	rbp
0x408530:	pop	r12
0x408532:	ret	
F 0x40ebf8
0x408e72:	pop	rbx
0x408e73:	pop	rbp
0x408e74:	pop	r12
0x408e76:	ret	
F 0x415fc5
0x407016:	ret	
F 0x410001
0x40a39d:	pop	r14
0x40a39f:	pop	r15
0x40a3a1:	ret	
F 0x41c845
0x407016:	ret	
F 0x41465b
0x409e91:	pop	r13
0x409e93:	pop	r14
0x409e95:	ret	
F 0x4117d4
0x4117d4:	or	byte ptr [rax - 0x7b], cl
0x4117d7:	sal	byte ptr [rsi + rdx + 0x48], 0x8b
0x4117dc:	add	eax, 0x1f907
0x4117e1:	add	rsp, 0x18
0x4117e5:	ret	
F 0x40a397
0x40a397:	pop	rbx
0x40a398:	pop	rbp
0x40a399:	pop	r12
0x40a39b:	pop	r13
0x40a39d:	pop	r14
0x40a39f:	pop	r15
0x40a3a1:	ret	
F 0x40e648
0x408a8a:	add	rsp, 8
0x408a8e:	mov	rax, r12
0x408a91:	pop	rbx
0x408a92:	pop	rbp
0x408a93:	pop	r12
0x408a95:	pop	r13
0x408a97:	ret	
F 0x408a92
0x408a92:	pop	rbp
0x408a93:	pop	r12
0x408a95:	pop	r13
0x408a97:	ret	
F 0x41db65
0x40ba14:	add	byte ptr [rax], al
0x40ba16:	add	byte ptr [rbx + 0x5d], bl
0x40ba19:	ret	
F 0x40c160
0x40c160:	add	rsp, 0x38
0x40c165:	pop	rbx
0x40c166:	pop	rbp
0x40c167:	pop	r12
0x40c169:	pop	r13
0x40c16b:	pop	r14
0x40c16d:	pop	r15
0x40c16f:	ret	
F 0x41ee94
0x41ee94:	xor	edi, edi
0x41ee96:	mov	rax, rdi
0x41ee99:	pop	rbx
0x41ee9a:	pop	rbp
0x41ee9b:	ret	
F 0x40d501
0x40b788:	add	byte ptr [rax], al
0x40b78a:	pop	rbx
0x40b78b:	pop	rbp
0x40b78c:	pop	r12
0x40b78e:	pop	r13
0x40b790:	ret	
F 0x41457e
0x41457e:	add	byte ptr [rax], al
0x414580:	add	rsp, 8
0x414584:	mov	rax, r13
0x414587:	pop	rbp
0x414588:	pop	r12
0x41458a:	pop	r13
0x41458c:	pop	r14
0x41458e:	ret	
F 0x40b788
0x40b788:	add	byte ptr [rax], al
0x40b78a:	pop	rbx
0x40b78b:	pop	rbp
0x40b78c:	pop	r12
0x40b78e:	pop	r13
0x40b790:	ret	
F 0x41a4fe
0x417cd0:	pop	rdx
0x417cd1:	pop	rbp
0x417cd2:	pop	r12
0x417cd4:	pop	r13
0x417cd6:	ret	
F 0x41c569
0x407016:	ret	
F 0x41adad
0x40885f:	pop	rbp
0x408860:	ret	
F 0x40bf16
0x40bf16:	add	rsp, 8
0x40bf1a:	pop	rbp
0x40bf1b:	pop	r12
0x40bf1d:	pop	r13
0x40bf1f:	pop	r14
0x40bf21:	ret	
F 0x409141
0x409141:	mov	dword ptr [rbx + 0x3c], ebp
0x409144:	add	rsp, 8
0x409148:	pop	rbx
0x409149:	pop	rbp
0x40914a:	ret	
F 0x41241e
0x407016:	ret	
F 0x415279
0x40a39c:	pop	rbp
0x40a39d:	pop	r14
0x40a39f:	pop	r15
0x40a3a1:	ret	
F 0x41dd3f
0x40ba0e:	add	rsp, 8
0x40ba12:	mov	eax, 1
0x40ba17:	pop	rbx
0x40ba18:	pop	rbp
0x40ba19:	ret	
F 0x416cb0
0x408c6e:	pop	rbx
0x408c6f:	ret	
F 0x40b486
0x40b486:	add	eax, 0x25c0d
0x40b48b:	add	rsp, 0x18
0x40b48f:	ret	
F 0x41dde6
0x40ba15:	add	byte ptr [rax], al
0x40ba17:	pop	rbx
0x40ba18:	pop	rbp
0x40ba19:	ret	
F 0x41db5f
0x40ba0e:	add	rsp, 8
0x40ba12:	mov	eax, 1
0x40ba17:	pop	rbx
0x40ba18:	pop	rbp
0x40ba19:	ret	
F 0x40971e
0x40971e:	add	byte ptr [rax], al
0x409720:	xor	r8d, r8d
0x409723:	add	rsp, 8
0x409727:	mov	rax, r8
0x40972a:	ret	
F 0x40ec91
0x40885f:	pop	rbp
0x408860:	ret	
F 0x41dfbf
0x41dfbf:	add	byte ptr [rdi], cl
0x41dfc1:	mov	dh, 0x43
0x41dfc3:	add	dword ptr [rax - 0x7d], ecx
0x41dfc6:	ret	
F 0x41ae86
0x4090d4:	add	rsp, 8
0x4090d8:	pop	rbx
0x4090d9:	pop	rbp
0x4090da:	ret	
F 0x41241b
0x4090d7:	or	byte ptr [rbx + 0x5d], bl
0x4090da:	ret	
F 0x41d1f2
0x41d1f2:	mov	dword ptr [rax + 0x88], edx
0x41d1f8:	pop	rbp
0x41d1f9:	ret	
F 0x41cf8f
0x41cf8f:	add	byte ptr [rax], al
0x41cf91:	lea	rsp, [rbp - 0x28]
0x41cf95:	pop	rbx
0x41cf96:	pop	r12
0x41cf98:	pop	r13
0x41cf9a:	pop	r14
0x41cf9c:	pop	r15
0x41cf9e:	pop	rbp
0x41cf9f:	ret	
F 0x414b9a
0x407016:	ret	
F 0x41a4ff
0x408a92:	pop	rbp
0x408a93:	pop	r12
0x408a95:	pop	r13
0x408a97:	ret	
F 0x41e1bd
0x40a397:	pop	rbx
0x40a398:	pop	rbp
0x40a399:	pop	r12
0x40a39b:	pop	r13
0x40a39d:	pop	r14
0x40a39f:	pop	r15
0x40a3a1:	ret	
F 0x415666
0x407016:	ret	
F 0x417db2
0x407016:	ret	
F 0x4105a9
0x4105a9:	mov	eax, dword ptr [rip + 0x20b59]
0x4105af:	mov	qword ptr [rbx + 0x90], rax
0x4105b6:	pop	rbx
0x4105b7:	ret	
F 0x41c2d8
0x40a39d:	pop	r14
0x40a39f:	pop	r15
0x40a3a1:	ret	
F 0x415735
0x415735:	add	dh, dh
0x415737:	or	byte ptr [rbp + 0x44], r14b
0x41573c:	pop	rbp
0x41573d:	ret	
F 0x40c8e1
0x40c8e1:	or	byte ptr [rcx + rcx*4 - 0x10], cl
0x40c8e5:	pop	rbx
0x40c8e6:	pop	rbp
0x40c8e7:	pop	r12
0x40c8e9:	pop	r13
0x40c8eb:	pop	r14
0x40c8ed:	pop	r15
0x40c8ef:	ret	
F 0x41e923
0x41e923:	or	al, 0x5b
0x41e925:	xor	eax, eax
0x41e927:	pop	rbp
0x41e928:	pop	r12
0x41e92a:	ret	
F 0x41c8de
0x41c8de:	adc	byte ptr [rcx + rcx*4 - 0x20], cl
0x41c8e2:	pop	r12
0x41c8e4:	ret	
F 0x4104de
0x408c6e:	pop	rbx
0x408c6f:	ret	
F 0x40b44f
0x408b6f:	add	al, byte ptr [rax]
0x408b71:	add	rsp, 0x18
0x408b75:	ret	
F 0x4197b6
0x4197b6:	push	rsi
0x4197b7:	ret	
F 0x40b2de
0x408a91:	pop	rbx
0x408a92:	pop	rbp
0x408a93:	pop	r12
0x408a95:	pop	r13
0x408a97:	ret	
F 0x418472
0x40885f:	pop	rbp
0x408860:	ret	
F 0x4126fb
0x4090d7:	or	byte ptr [rbx + 0x5d], bl
0x4090da:	ret	
F 0x40e650
0x408a92:	pop	rbp
0x408a93:	pop	r12
0x408a95:	pop	r13
0x408a97:	ret	
F 0x40ed4c
0x4090d8:	pop	rbx
0x4090d9:	pop	rbp
0x4090da:	ret	
F 0x40c8ec
0x40a39e:	pop	rsi
0x40a39f:	pop	r15
0x40a3a1:	ret	
F 0x4174cd
0x4148ae:	rol	byte ptr [rcx + 0x5c], 0x41
0x4148b2:	pop	rbp
0x4148b3:	ret	
F 0x40d504
0x408a92:	pop	rbp
0x408a93:	pop	r12
0x408a95:	pop	r13
0x408a97:	ret	
F 0x411786
0x411786:	mov	qword ptr [rbx + 0x10], 0
0x41178e:	xor	eax, eax
0x411790:	pop	rbx
0x411791:	ret	
F 0x41bc7d
0x40a0d6:	sbb	byte ptr [rbx + 0x5d], bl
0x40a0d9:	pop	r12
0x40a0db:	pop	r13
0x40a0dd:	ret	
F 0x41d53e
0x408c6e:	pop	rbx
0x408c6f:	ret	
F 0x417cd2
0x408a93:	pop	r12
0x408a95:	pop	r13
0x408a97:	ret	
F 0x4111f2
0x407016:	ret	
F 0x41a2f3
0x40885f:	pop	rbp
0x408860:	ret	
F 0x41d5d1
0x408a91:	pop	rbx
0x408a92:	pop	rbp
0x408a93:	pop	r12
0x408a95:	pop	r13
0x408a97:	ret	
F 0x40a863
0x409e8f:	pop	r12
0x409e91:	pop	r13
0x409e93:	pop	r14
0x409e95:	ret	
F 0x41dd46
0x40ba15:	add	byte ptr [rax], al
0x40ba17:	pop	rbx
0x40ba18:	pop	rbp
0x40ba19:	ret	
F 0x40d444
0x40852f:	pop	rbp
0x408530:	pop	r12
0x408532:	ret	
F 0x414d02
0x408530:	pop	r12
0x408532:	ret	
F 0x41a08c
0x409e8e:	pop	rbp
0x409e8f:	pop	r12
0x409e91:	pop	r13
0x409e93:	pop	r14
0x409e95:	ret	
F 0x416bdd
0x40852f:	pop	rbp
0x408530:	pop	r12
0x408532:	ret	
F 0x417cd5
0x40885f:	pop	rbp
0x408860:	ret	
F 0x408864
0x4087e4:	add	byte ptr [rax], al
0x4087e6:	add	byte ptr [rax], al
0x4087e8:	ret	
F 0x41ad16
0x4090d4:	add	rsp, 8
0x4090d8:	pop	rbx
0x4090d9:	pop	rbp
0x4090da:	ret	
F 0x41dac1
0x41dac1:	or	dword ptr [rdi + 0x28], 1
0x41dac5:	mov	eax, 1
0x41daca:	mov	dword ptr [rdi + 0x2c], esi
0x41dacd:	add	rsp, 8
0x41dad1:	ret	
F 0x41573d
0x407016:	ret	
F 0x40a8b7
0x408ec7:	add	al, ch
0x408ec9:	ret	
F 0x418aa3
0x40bbad:	add	rsp, 0x18
0x40bbb1:	pop	rbp
0x40bbb2:	pop	r12
0x40bbb4:	ret	
F 0x40eab5
0x40eab5:	mov	eax, dword ptr [rip + 0x2260d]
0x40eabb:	add	rsp, 0x18
0x40eabf:	ret	
F 0x414654
0x414583:	or	byte ptr [rcx + rcx*4 - 0x18], cl
0x414587:	pop	rbp
0x414588:	pop	r12
0x41458a:	pop	r13
0x41458c:	pop	r14
0x41458e:	ret	
F 0x4148ac
0x4148ac:	sete	al
0x4148af:	pop	r12
0x4148b1:	pop	r13
0x4148b3:	ret	
F 0x41e700
0x41e700:	mov	eax, 1
0x41e705:	pop	rbp
0x41e706:	pop	r12
0x41e708:	pop	r13
0x41e70a:	pop	r14
0x41e70c:	ret	
F 0x40ba17
0x4090d8:	pop	rbx
0x4090d9:	pop	rbp
0x4090da:	ret	
F 0x411d44
0x411d44:	add	byte ptr [rax], al
0x411d46:	add	byte ptr [rax], al
0x411d48:	pop	rbx
0x411d49:	pop	rbp
0x411d4a:	pop	r12
0x411d4c:	ret	
F 0x41213d
0x40885f:	pop	rbp
0x408860:	ret	
F 0x40885f
0x40885f:	pop	rbp
0x408860:	ret	
F 0x419b81
0x40ec8b:	or	byte ptr [rbx + 0x5d], bl
0x40ec8e:	pop	r12
0x40ec90:	pop	r13
0x40ec92:	ret	
F 0x4105a7
0x4105a7:	dec	dword ptr [rax - 0x75]
0x4105aa:	add	eax, 0x20b59
0x4105af:	mov	qword ptr [rbx + 0x90], rax
0x4105b6:	pop	rbx
0x4105b7:	ret	
F 0x410f73
0x410f73:	mov	eax, esp
0x410f75:	pop	rbp
0x410f76:	pop	r12
0x410f78:	pop	r13
0x410f7a:	pop	r14
0x410f7c:	ret	
F 0x40d94d
0x40d94d:	add	rsp, 0x10
0x40d952:	pop	rbp
0x40d953:	pop	r12
0x40d955:	pop	r13
0x40d957:	ret	
F 0x41d343
0x408a93:	pop	r12
0x408a95:	pop	r13
0x408a97:	ret	
F 0x4154b8
0x408a91:	pop	rbx
0x408a92:	pop	rbp
0x408a93:	pop	r12
0x408a95:	pop	r13
0x408a97:	ret	
F 0x417141
0x407c57:	ret	0
F 0x409bea
0x4090d8:	pop	rbx
0x4090d9:	pop	rbp
0x4090da:	ret	
F 0x418b08
0x40e438:	nop	dword ptr [rax + rax]
0x40e440:	ret	
F 0x4111e9
0x4111e9:	add	byte ptr [rbp + 0x17], dh
0x4111ec:	add	rsp, 0x18
0x4111f0:	pop	rbx
0x4111f1:	pop	rbp
0x4111f2:	ret	
F 0x40ba14
0x40ba14:	add	byte ptr [rax], al
0x40ba16:	add	byte ptr [rbx + 0x5d], bl
0x40ba19:	ret	
F 0x411e54
0x411e54:	add	byte ptr [rax], al
0x411e56:	add	byte ptr [rax], al
0x411e58:	add	rsp, 8
0x411e5c:	pop	rbx
0x411e5d:	pop	rbp
0x411e5e:	ret	
F 0x41d151
0x41d151:	nop	word ptr cs:[rax + rax]
0x41d15b:	nop	dword ptr [rax + rax]
0x41d160:	ret	
F 0x41ae8a
0x4090d8:	pop	rbx
0x4090d9:	pop	rbp
0x4090da:	ret	
F 0x40b897
0x40b897:	push	rdi
0x40b898:	add	al, byte ptr [rax]
0x40b89a:	add	rsp, 8
0x40b89e:	ret	
F 0x41752d
0x41752d:	dec	dword ptr [rbx + rcx*4 + 0x6d]
0x417531:	or	byte ptr [rax - 0x77], cl
0x417534:	ret	
F 0x414cfc
0x414cfc:	pop	rbx
0x414cfd:	pop	rbp
0x414cfe:	mov	dword ptr [r12], eax
0x414d02:	pop	r12
0x414d04:	ret	
F 0x413e68
0x413e68:	nop	dword ptr [rax + rax]
0x413e70:	pop	rbx
0x413e71:	ret	
F 0x40ed45
0x40ed45:	nop	dword ptr [rax]
0x40ed48:	add	rsp, 8
0x40ed4c:	pop	rbx
0x40ed4d:	pop	rbp
0x40ed4e:	ret	
F 0x414cfe
0x414cfe:	mov	dword ptr [r12], eax
0x414d02:	pop	r12
0x414d04:	ret	
F 0x40fff5
0x40fff5:	add	byte ptr [rax], al
0x40fff7:	add	rsp, 0x18
0x40fffb:	pop	rbx
0x40fffc:	pop	rbp
0x40fffd:	pop	r12
0x40ffff:	pop	r13
0x410001:	pop	r14
0x410003:	pop	r15
0x410005:	ret	
F 0x40daac
0x407c57:	ret	0
F 0x41ece4
0x409e8f:	pop	r12
0x409e91:	pop	r13
0x409e93:	pop	r14
0x409e95:	ret	
F 0x41d446
0x41d446:	nop	word ptr cs:[rax + rax]
0x41d450:	mov	rax, qword ptr [rdi + 0x38]
0x41d454:	ret	
F 0x40ba19
0x407016:	ret	
F 0x40c8eb
0x40a39d:	pop	r14
0x40a39f:	pop	r15
0x40a3a1:	ret	
F 0x412923
0x4090d8:	pop	rbx
0x4090d9:	pop	rbp
0x4090da:	ret	
F 0x41d811
0x41d1f1:	mov	qword ptr [rax + 0x88], rdx
0x41d1f8:	pop	rbp
0x41d1f9:	ret	
F 0x416bd4
0x416bd4:	mov	eax, 0x48ffff0e
0x416bd9:	mov	dword ptr [rbp + 0x48], eax
0x416bdc:	pop	rbx
0x416bdd:	pop	rbp
0x416bde:	pop	r12
0x416be0:	ret	
F 0x418652
0x407016:	ret	
F 0x408861
0x4087e1:	nop	dword ptr [rax]
0x4087e8:	ret	
F 0x40cc08
0x407016:	ret	
F 0x41ea20
0x40cc86:	pop	rbx
0x40cc87:	mov	eax, 1
0x40cc8c:	pop	rbp
0x40cc8d:	pop	r12
0x40cc8f:	ret	
F 0x40cf1a
0x40a39c:	pop	rbp
0x40a39d:	pop	r14
0x40a39f:	pop	r15
0x40a3a1:	ret	
F 0x414c7d
0x414c7d:	pop	rbx
0x414c7f:	ret	
F 0x412d64
0x408a91:	pop	rbx
0x408a92:	pop	rbp
0x408a93:	pop	r12
0x408a95:	pop	r13
0x408a97:	ret	
F 0x40c7eb
0x407016:	ret	
F 0x41e708
0x409e91:	pop	r13
0x409e93:	pop	r14
0x409e95:	ret	
F 0x409ab1
0x409ab1:	add	eax, 0x27602
0x409ab6:	add	rsp, 0x38
0x409aba:	pop	rbx
0x409abb:	pop	rbp
0x409abc:	pop	r12
0x409abe:	pop	r13
0x409ac0:	ret	
F 0x40d382
0x40d382:	xor	eax, eax
0x40d384:	pop	rbp
0x40d385:	ret	
F 0x4169b2
0x407016:	ret	
F 0x40d74f
0x407016:	ret	
F 0x41dc9f
0x40ba0e:	add	rsp, 8
0x40ba12:	mov	eax, 1
0x40ba17:	pop	rbx
0x40ba18:	pop	rbp
0x40ba19:	ret	
F 0x40bab5
0x40bab5:	mov	rax, qword ptr [rax]
0x40bab8:	add	rsp, 8
0x40babc:	pop	rbx
0x40babd:	pop	rbp
0x40babe:	ret	
F 0x409db6
0x409db6:	or	esi, eax
0x409db8:	mov	byte ptr [r12 + 8], sil
0x409dbd:	mov	rax, r12
0x409dc0:	pop	rbx
0x409dc1:	pop	rbp
0x409dc2:	pop	r12
0x409dc4:	ret	
F 0x41ca2a
0x41c566:	add	byte ptr [rax], al
0x41c568:	pop	rbp
0x41c569:	ret	
F 0x41daa3
0x41daa3:	dec	dword ptr [rax - 0x75]
0x41daa6:	add	eax, 0x13845
0x41daab:	add	rsp, 0x18
0x41daaf:	ret	
F 0x41875f
0x407016:	ret	
F 0x41d814
0x41d1f4:	mov	byte ptr [rax], al
0x41d1f6:	add	byte ptr [rax], al
0x41d1f8:	pop	rbp
0x41d1f9:	ret	
F 0x41e1c1
0x40a39b:	pop	r13
0x40a39d:	pop	r14
0x40a39f:	pop	r15
0x40a3a1:	ret	
F 0x414c3a
0x414c3a:	add	byte ptr [rax], al
0x414c3c:	add	byte ptr [rbp + 8], dh
0x414c3f:	add	rsp, 0x18
0x414c43:	pop	rbp
0x414c44:	pop	r12
0x414c46:	ret	
F 0x414051
0x407016:	ret	
F 0x40a395
0x40a395:	add	byte ptr [rax], al
0x40a397:	pop	rbx
0x40a398:	pop	rbp
0x40a399:	pop	r12
0x40a39b:	pop	r13
0x40a39d:	pop	r14
0x40a39f:	pop	r15
0x40a3a1:	ret	
F 0x418618
0x418618:	sal	byte ptr [rbp + rdi - 0x75], 0x45
0x41861d:	sub	al, 0x85
0x41861f:	sal	byte ptr [rbp + 6], 0x5d
0x418623:	ret	
F 0x408e76
0x407016:	ret	
F 0x40eb46
0x40cdd7:	add	byte ptr [rax], al
0x40cdd9:	pop	rbx
0x40cdda:	pop	rbp
0x40cddb:	pop	r12
0x40cddd:	ret	
F 0x413693
0x413693:	add	byte ptr [rcx - 0x173fce3a], cl
0x413699:	ret	
F 0x40a7f5
0x40a7f5:	sal	byte ptr [rcx + rdi + 0x48], 0x89
0x40a7fa:	ret	
F 0x41cec1
0x41cec1:	mov	eax, dword ptr [rip + 0x143e1]
0x41cec7:	ret	
F 0x416756
0x4090d7:	or	byte ptr [rbx + 0x5d], bl
0x4090da:	ret	
F 0x41c952
0x4090d8:	pop	rbx
0x4090d9:	pop	rbp
0x4090da:	ret	
F 0x41db63
0x40ba12:	mov	eax, 1
0x40ba17:	pop	rbx
0x40ba18:	pop	rbp
0x40ba19:	ret	
F 0x4148a3
0x4148a3:	xor	bh, bh
0x4148a5:	push	qword ptr [rcx]
0x4148a7:	rol	byte ptr [rbp - 0x7b], 0xe4
0x4148ab:	pop	rbp
0x4148ac:	sete	al
0x4148af:	pop	r12
0x4148b1:	pop	r13
0x4148b3:	ret	
F 0x417bde
0x40852f:	pop	rbp
0x408530:	pop	r12
0x408532:	ret	
F 0x41047b
0x41047b:	pop	r12
0x41047d:	pop	rbx
0x41047e:	ret	
F 0x417e82
0x407016:	ret	
F 0x414b93
0x414b93:	add	rsp, 8
0x414b98:	pop	rbx
0x414b99:	pop	rbp
0x414b9a:	ret	
F 0x417642
0x409e8e:	pop	rbp
0x409e8f:	pop	r12
0x409e91:	pop	r13
0x409e93:	pop	r14
0x409e95:	ret	
F 0x408ece
0x408ece:	mov	dword ptr [rbp + 0x28], eax
0x408ed1:	pop	rbx
0x408ed2:	pop	rbp
0x408ed3:	pop	r12
0x408ed5:	ret	
F 0x40babe
0x407016:	ret	
F 0x410f8e
0x410f71:	pop	rbx
0x410f72:	mov	eax, r12d
0x410f75:	pop	rbp
0x410f76:	pop	r12
0x410f78:	pop	r13
0x410f7a:	pop	r14
0x410f7c:	ret	
F 0x40b48b
0x408b71:	add	rsp, 0x18
0x408b75:	ret	
F 0x4154b3
0x4154b3:	push	0x8c48348
0x4154b8:	pop	rbx
0x4154b9:	pop	rbp
0x4154ba:	pop	r12
0x4154bc:	pop	r13
0x4154be:	ret	
F 0x411d48
0x408e72:	pop	rbx
0x408e73:	pop	rbp
0x408e74:	pop	r12
0x408e76:	ret	
F 0x40b894
0x40b894:	mov	dword ptr [rip + 0x257f6], eax
0x40b89a:	add	rsp, 8
0x40b89e:	ret	
F 0x41138b
0x41138b:	or	byte ptr [rbp + 0x11], r14b
0x41138f:	add	rsp, 8
0x411393:	pop	rbx
0x411394:	pop	rbp
0x411395:	ret	
F 0x418b06
0x418b06:	nop	word ptr cs:[rax + rax]
0x418b10:	ret	
F 0x41da6c
0x41da6c:	add	eax, 0x1387f
0x41da71:	add	rsp, 0x18
0x41da75:	ret	
F 0x40caf8
0x407016:	ret	
F 0x4090d7
0x4090d7:	or	byte ptr [rbx + 0x5d], bl
0x4090da:	ret	
F 0x4186f6
0x40dab0:	add	rsp, 0x18
0x40dab4:	pop	rbp
0x40dab5:	pop	r12
0x40dab7:	pop	r13
0x40dab9:	pop	r14
0x40dabb:	ret	
F 0x40a93f
0x40a39f:	pop	r15
0x40a3a1:	ret	
F 0x41e74d
0x409e8f:	pop	r12
0x409e91:	pop	r13
0x409e93:	pop	r14
0x409e95:	ret	
F 0x419999
0x416ca9:	nop	dword ptr [rax]
0x416cb0:	pop	rbx
0x416cb1:	ret	
F 0x40945d
0x409444:	add	byte ptr [rax], al
0x409446:	pop	rbx
0x409447:	ret	
F 0x40f172
0x40f172:	cmp	dword ptr [rdx], eax
0x40f174:	add	byte ptr [rax], al
0x40f176:	add	rsp, 0x18
0x40f17a:	pop	rbx
0x40f17b:	pop	rbp
0x40f17c:	pop	r12
0x40f17e:	pop	r13
0x40f180:	ret	
F 0x41cf9f
0x407016:	ret	
F 0x419b83
0x408a92:	pop	rbp
0x408a93:	pop	r12
0x408a95:	pop	r13
0x408a97:	ret	
F 0x413e6a
0x413e6a:	test	byte ptr [rax], al
0x413e6c:	add	byte ptr [rax], al
0x413e6e:	add	byte ptr [rax], al
0x413e70:	pop	rbx
0x413e71:	ret	
F 0x40a751
0x407016:	ret	
F 0x41c3ea
0x40bbad:	add	rsp, 0x18
0x40bbb1:	pop	rbp
0x40bbb2:	pop	r12
0x40bbb4:	ret	
F 0x41d283
0x41d283:	dec	dword ptr [rax - 0x75]
0x41d286:	add	eax, 0x1404d
0x41d28b:	add	rsp, 0x18
0x41d28f:	ret	
F 0x410f8f
0x410f72:	mov	eax, r12d
0x410f75:	pop	rbp
0x410f76:	pop	r12
0x410f78:	pop	r13
0x410f7a:	pop	r14
0x410f7c:	ret	
F 0x4198b4
0x408a91:	pop	rbx
0x408a92:	pop	rbp
0x408a93:	pop	r12
0x408a95:	pop	r13
0x408a97:	ret	
F 0x41dfc1
0x41dfc1:	mov	dh, 0x43
0x41dfc3:	add	dword ptr [rax - 0x7d], ecx
0x41dfc6:	ret	
F 0x41e0f1
0x41dfc1:	mov	dh, 0x43
0x41dfc3:	add	dword ptr [rax - 0x7d], ecx
0x41dfc6:	ret	
F 0x40b892
0x40b892:	dec	dword ptr [rax - 0x77]
0x40b895:	add	eax, 0x257f6
0x40b89a:	add	rsp, 8
0x40b89e:	ret	
F 0x40a0db
0x408a95:	pop	r13
0x408a97:	ret	
F 0x412d60
0x40ec88:	add	rsp, 8
0x40ec8c:	pop	rbx
0x40ec8d:	pop	rbp
0x40ec8e:	pop	r12
0x40ec90:	pop	r13
0x40ec92:	ret	
F 0x40bcff
0x40bcff:	shr	al, 0xbb
0x40bd02:	ret	
F 0x40eb41
0x40eb41:	add	byte ptr [rax], al
0x40eb43:	nop	dword ptr [rax + rax]
0x40eb48:	pop	rbx
0x40eb49:	pop	rbp
0x40eb4a:	pop	r12
0x40eb4c:	ret	
F 0x41ca45
0x40885f:	pop	rbp
0x408860:	ret	
F 0x409e93
0x409e93:	pop	r14
0x409e95:	ret	
F 0x416ca5
0x416ca5:	pop	rdx
0x416ca7:	add	byte ptr [rax], al
0x416ca9:	nop	dword ptr [rax]
0x416cb0:	pop	rbx
0x416cb1:	ret	
F 0x41153c
0x40a39f:	pop	r15
0x40a3a1:	ret	
F 0x41ee57
0x40885f:	pop	rbp
0x408860:	ret	
F 0x41cf99
0x41cf99:	pop	rbp
0x41cf9a:	pop	r14
0x41cf9c:	pop	r15
0x41cf9e:	pop	rbp
0x41cf9f:	ret	
F 0x41d5d3
0x408a93:	pop	r12
0x408a95:	pop	r13
0x408a97:	ret	
F 0x40c8ee
0x40a3a0:	pop	rdi
0x40a3a1:	ret	
F 0x417534
0x407016:	ret	
F 0x41d4d5
0x4090d8:	pop	rbx
0x4090d9:	pop	rbp
0x4090da:	ret	
F 0x417c1f
0x417c1f:	pop	rdx
0x417c20:	add	rsp, 8
0x417c24:	pop	rbp
0x417c25:	pop	r12
0x417c27:	ret	
F 0x4116f3
0x407016:	ret	
