T 0x40499f
0x40460e:	pop	r12
0x404610:	ret	
T 0x40d32a
0x409ad8:	mov	rax, r12
0x409adb:	pop	rbp
0x409adc:	pop	r12
0x409ade:	ret	
T 0x41201b
0x40d23b:	and	al, 0x10
0x40d23d:	pop	r12
0x40d23f:	ret	
T 0x41219d
0x4117e5:	mov	rax, r12
0x4117e8:	pop	rbx
0x4117e9:	pop	r12
0x4117eb:	ret	
T 0x4120a1
0x40d23b:	and	al, 0x10
0x40d23d:	pop	r12
0x40d23f:	ret	
T 0x4117e5
0x4117e5:	mov	rax, r12
0x4117e8:	pop	rbx
0x4117e9:	pop	r12
0x4117eb:	ret	
T 0x40d23b
0x40d23b:	and	al, 0x10
0x40d23d:	pop	r12
0x40d23f:	ret	
T 0x414d8d
0x4117e5:	mov	rax, r12
0x4117e8:	pop	rbx
0x4117e9:	pop	r12
0x4117eb:	ret	
T 0x411ee4
0x40d23b:	and	al, 0x10
0x40d23d:	pop	r12
0x40d23f:	ret	
T 0x409ad8
0x409ad8:	mov	rax, r12
0x409adb:	pop	rbp
0x409adc:	pop	r12
0x409ade:	ret	
T 0x416ecf
0x40460e:	pop	r12
0x404610:	ret	
T 0x4171ba
0x4117e5:	mov	rax, r12
0x4117e8:	pop	rbx
0x4117e9:	pop	r12
0x4117eb:	ret	
T 0x40d2b8
0x40460e:	pop	r12
0x404610:	ret	
T 0x409b38
0x409ad8:	mov	rax, r12
0x409adb:	pop	rbp
0x409adc:	pop	r12
0x409ade:	ret	
T 0x4049c7
0x40460e:	pop	r12
0x404610:	ret	
T 0x4120e0
0x4120e0:	adc	dword ptr [rsp + 0x10], ecx
0x4120e4:	add	rsp, 0x10
0x4120e8:	mov	rax, r12
0x4120eb:	pop	r12
0x4120ed:	ret	
T 0x41b78d
0x40460e:	pop	r12
0x404610:	ret	
T 0x4117dd
0x4117dd:	adc	dword ptr [rsp + 0x10], eax
0x4117e1:	add	rsp, 8
0x4117e5:	mov	rax, r12
0x4117e8:	pop	rbx
0x4117e9:	pop	r12
0x4117eb:	ret	
T 0x412409
0x40460e:	pop	r12
0x404610:	ret	
T 0x412b5f
0x412b5f:	mov	rax, r12
0x412b62:	pop	rbx
0x412b63:	pop	rbp
0x412b64:	pop	r12
0x412b66:	pop	r13
0x412b68:	ret	
T 0x4166d0
0x40460e:	pop	r12
0x404610:	ret	
T 0x41a7ed
0x412b5f:	mov	rax, r12
0x412b62:	pop	rbx
0x412b63:	pop	rbp
0x412b64:	pop	r12
0x412b66:	pop	r13
0x412b68:	ret	
T 0x411f94
0x40d23b:	and	al, 0x10
0x40d23d:	pop	r12
0x40d23f:	ret	
T 0x41a864
0x412b5f:	mov	rax, r12
0x412b62:	pop	rbx
0x412b63:	pop	rbp
0x412b64:	pop	r12
0x412b66:	pop	r13
0x412b68:	ret	
T 0x40a338
0x40460e:	pop	r12
0x404610:	ret	
T 0x412b5e
0x412b5e:	mov	rax, r12
0x412b62:	pop	rbx
0x412b63:	pop	rbp
0x412b64:	pop	r12
0x412b66:	pop	r13
0x412b68:	ret	
T 0x411fc4
0x40d23b:	and	al, 0x10
0x40d23d:	pop	r12
0x40d23f:	ret	
T 0x4117e1
0x4117e1:	add	rsp, 8
0x4117e5:	mov	rax, r12
0x4117e8:	pop	rbx
0x4117e9:	pop	r12
0x4117eb:	ret	
T 0x40e1cb
0x40460e:	pop	r12
0x404610:	ret	
T 0x414d89
0x4117e1:	add	rsp, 8
0x4117e5:	mov	rax, r12
0x4117e8:	pop	rbx
0x4117e9:	pop	r12
0x4117eb:	ret	
T 0x41c5f8
0x40d99f:	pop	r13
0x40d9a1:	ret	
T 0x40d998
0x40d998:	mov	rax, r13
0x40d99b:	pop	rbx
0x40d99c:	pop	rbp
0x40d99d:	pop	r12
0x40d99f:	pop	r13
0x40d9a1:	ret	
T 0x411f14
0x40d23b:	and	al, 0x10
0x40d23d:	pop	r12
0x40d23f:	ret	
T 0x4171b6
0x4117e1:	add	rsp, 8
0x4117e5:	mov	rax, r12
0x4117e8:	pop	rbx
0x4117e9:	pop	r12
0x4117eb:	ret	
T 0x40e238
0x40460e:	pop	r12
0x404610:	ret	
T 0x412199
0x412199:	add	rsp, 0x18
0x41219d:	mov	rax, r12
0x4121a0:	pop	rbx
0x4121a1:	pop	r12
0x4121a3:	ret	
T 0x409b16
0x40460e:	pop	r12
0x404610:	ret	
T 0x4117df
0x4117df:	and	al, 0x10
0x4117e1:	add	rsp, 8
0x4117e5:	mov	rax, r12
0x4117e8:	pop	rbx
0x4117e9:	pop	r12
0x4117eb:	ret	
T 0x4122cb
0x40460e:	pop	r12
0x404610:	ret	
T 0x41ab4c
0x41ab4c:	mov	dword ptr [rsp + 8], eax
0x41ab50:	mov	rax, r12
0x41ab53:	pop	rbx
0x41ab54:	pop	rbp
0x41ab55:	pop	r12
0x41ab57:	ret	
T 0x41bf7f
0x409c44:	pop	r14
0x409c46:	ret	
T 0x411b79
0x411aa9:	mov	rax, r14
0x411aac:	pop	rbp
0x411aad:	pop	r12
0x411aaf:	pop	r13
0x411ab1:	pop	r14
0x411ab3:	ret	
T 0x409c5d
0x409c44:	pop	r14
0x409c46:	ret	
T 0x411b59
0x411aa9:	mov	rax, r14
0x411aac:	pop	rbp
0x411aad:	pop	r12
0x411aaf:	pop	r13
0x411ab1:	pop	r14
0x411ab3:	ret	
T 0x411ab1
0x409c44:	pop	r14
0x409c46:	ret	
T 0x411ac9
0x411aa9:	mov	rax, r14
0x411aac:	pop	rbp
0x411aad:	pop	r12
0x411aaf:	pop	r13
0x411ab1:	pop	r14
0x411ab3:	ret	
T 0x41ab39
0x40460e:	pop	r12
0x404610:	ret	
T 0x41a7e9
0x41a7e9:	add	rsp, 8
0x41a7ed:	mov	rax, r12
0x41a7f0:	pop	rbx
0x41a7f1:	pop	rbp
0x41a7f2:	pop	r12
0x41a7f4:	pop	r13
0x41a7f6:	ret	
T 0x4129d3
0x40460e:	pop	r12
0x404610:	ret	
T 0x41a860
0x41a7e9:	add	rsp, 8
0x41a7ed:	mov	rax, r12
0x41a7f0:	pop	rbx
0x41a7f1:	pop	rbp
0x41a7f2:	pop	r12
0x41a7f4:	pop	r13
0x41a7f6:	ret	
T 0x40a178
0x409c44:	pop	r14
0x409c46:	ret	
T 0x411aa9
0x411aa9:	mov	rax, r14
0x411aac:	pop	rbp
0x411aad:	pop	r12
0x411aaf:	pop	r13
0x411ab1:	pop	r14
0x411ab3:	ret	
T 0x41b91e
0x409c44:	pop	r14
0x409c46:	ret	
T 0x411b58
0x411aa8:	pop	rbx
0x411aa9:	mov	rax, r14
0x411aac:	pop	rbp
0x411aad:	pop	r12
0x411aaf:	pop	r13
0x411ab1:	pop	r14
0x411ab3:	ret	
T 0x41bef9
0x409c44:	pop	r14
0x409c46:	ret	
T 0x411ac8
0x411aa8:	pop	rbx
0x411aa9:	mov	rax, r14
0x411aac:	pop	rbp
0x411aad:	pop	r12
0x411aaf:	pop	r13
0x411ab1:	pop	r14
0x411ab3:	ret	
T 0x41bd83
0x409c44:	pop	r14
0x409c46:	ret	
T 0x411aa8
0x411aa8:	pop	rbx
0x411aa9:	mov	rax, r14
0x411aac:	pop	rbp
0x411aad:	pop	r12
0x411aaf:	pop	r13
0x411ab1:	pop	r14
0x411ab3:	ret	
T 0x413b97
0x409c44:	pop	r14
0x409c46:	ret	
T 0x411b78
0x411aa8:	pop	rbx
0x411aa9:	mov	rax, r14
0x411aac:	pop	rbp
0x411aad:	pop	r12
0x411aaf:	pop	r13
0x411ab1:	pop	r14
0x411ab3:	ret	
T 0x41ab55
0x40460e:	pop	r12
0x404610:	ret	
T 0x411d77
0x41175d:	mov	rax, r12
0x411760:	pop	rbx
0x411761:	pop	rbp
0x411762:	pop	r12
0x411764:	pop	r13
0x411766:	pop	r14
0x411768:	pop	r15
0x41176a:	ret	
T 0x411f16
0x40460e:	pop	r12
0x404610:	ret	
T 0x4126a5
0x41175d:	mov	rax, r12
0x411760:	pop	rbx
0x411761:	pop	rbp
0x411762:	pop	r12
0x411764:	pop	r13
0x411766:	pop	r14
0x411768:	pop	r15
0x41176a:	ret	
T 0x40e501
0x40460e:	pop	r12
0x404610:	ret	
T 0x41680d
0x41175d:	mov	rax, r12
0x411760:	pop	rbx
0x411761:	pop	rbp
0x411762:	pop	r12
0x411764:	pop	r13
0x411766:	pop	r14
0x411768:	pop	r15
0x41176a:	ret	
T 0x41205f
0x40d23b:	and	al, 0x10
0x40d23d:	pop	r12
0x40d23f:	ret	
T 0x41175d
0x41175d:	mov	rax, r12
0x411760:	pop	rbx
0x411761:	pop	rbp
0x411762:	pop	r12
0x411764:	pop	r13
0x411766:	pop	r14
0x411768:	pop	r15
0x41176a:	ret	
T 0x41b775
0x40460e:	pop	r12
0x404610:	ret	
T 0x41c268
0x41175d:	mov	rax, r12
0x411760:	pop	rbx
0x411761:	pop	rbp
0x411762:	pop	r12
0x411764:	pop	r13
0x411766:	pop	r14
0x411768:	pop	r15
0x41176a:	ret	
T 0x414d91
0x40460e:	pop	r12
0x404610:	ret	
T 0x411999
0x41175d:	mov	rax, r12
0x411760:	pop	rbx
0x411761:	pop	rbp
0x411762:	pop	r12
0x411764:	pop	r13
0x411766:	pop	r14
0x411768:	pop	r15
0x41176a:	ret	
T 0x411f96
0x40460e:	pop	r12
0x404610:	ret	
T 0x41b4ad
0x41175d:	mov	rax, r12
0x411760:	pop	rbx
0x411761:	pop	rbp
0x411762:	pop	r12
0x411764:	pop	r13
0x411766:	pop	r14
0x411768:	pop	r15
0x41176a:	ret	
T 0x40460e
0x40460e:	pop	r12
0x404610:	ret	
T 0x4172bd
0x41175d:	mov	rax, r12
0x411760:	pop	rbx
0x411761:	pop	rbp
0x411762:	pop	r12
0x411764:	pop	r13
0x411766:	pop	r14
0x411768:	pop	r15
0x41176a:	ret	
T 0x41a86b
0x40d99f:	pop	r13
0x40d9a1:	ret	
T 0x41666c
0x41666c:	mov	rax, r13
0x41666f:	pop	rbx
0x416670:	pop	rbp
0x416671:	pop	r12
0x416673:	pop	r13
0x416675:	pop	r14
0x416677:	pop	r15
0x416679:	ret	
T 0x4103bb
0x40d99f:	pop	r13
0x40d9a1:	ret	
T 0x419a2e
0x41666c:	mov	rax, r13
0x41666f:	pop	rbx
0x416670:	pop	rbp
0x416671:	pop	r12
0x416673:	pop	r13
0x416675:	pop	r14
0x416677:	pop	r15
0x416679:	ret	
T 0x409c44
0x409c44:	pop	r14
0x409c46:	ret	
T 0x416f50
0x4108bb:	mov	rax, r14
0x4108be:	pop	rbx
0x4108bf:	pop	rbp
0x4108c0:	pop	r12
0x4108c2:	pop	r13
0x4108c4:	pop	r14
0x4108c6:	pop	r15
0x4108c8:	ret	
T 0x411b81
0x409c44:	pop	r14
0x409c46:	ret	
T 0x4108bb
0x4108bb:	mov	rax, r14
0x4108be:	pop	rbx
0x4108bf:	pop	rbp
0x4108c0:	pop	r12
0x4108c2:	pop	r13
0x4108c4:	pop	r14
0x4108c6:	pop	r15
0x4108c8:	ret	
T 0x41c6fd
0x409c44:	pop	r14
0x409c46:	ret	
T 0x416cec
0x4108bb:	mov	rax, r14
0x4108be:	pop	rbx
0x4108bf:	pop	rbp
0x4108c0:	pop	r12
0x4108c2:	pop	r13
0x4108c4:	pop	r14
0x4108c6:	pop	r15
0x4108c8:	ret	
T 0x418eb6
0x409c44:	pop	r14
0x409c46:	ret	
T 0x414f38
0x4108bb:	mov	rax, r14
0x4108be:	pop	rbx
0x4108bf:	pop	rbp
0x4108c0:	pop	r12
0x4108c2:	pop	r13
0x4108c4:	pop	r14
0x4108c6:	pop	r15
0x4108c8:	ret	
T 0x41afee
0x409c44:	pop	r14
0x409c46:	ret	
T 0x412fb0
0x4108bb:	mov	rax, r14
0x4108be:	pop	rbx
0x4108bf:	pop	rbp
0x4108c0:	pop	r12
0x4108c2:	pop	r13
0x4108c4:	pop	r14
0x4108c6:	pop	r15
0x4108c8:	ret	
T 0x411ad1
0x409c44:	pop	r14
0x409c46:	ret	
T 0x4127c7
0x4108bb:	mov	rax, r14
0x4108be:	pop	rbx
0x4108bf:	pop	rbp
0x4108c0:	pop	r12
0x4108c2:	pop	r13
0x4108c4:	pop	r14
0x4108c6:	pop	r15
0x4108c8:	ret	
T 0x41144c
0x404ed3:	pop	r15
0x404ed5:	ret	
T 0x4168ec
0x414177:	mov	rax, r15
0x41417a:	pop	rbx
0x41417b:	pop	rbp
0x41417c:	pop	r12
0x41417e:	pop	r13
0x414180:	pop	r14
0x414182:	pop	r15
0x414184:	ret	
T 0x416a8c
0x404ed3:	pop	r15
0x404ed5:	ret	
T 0x414177
0x414177:	mov	rax, r15
0x41417a:	pop	rbx
0x41417b:	pop	rbp
0x41417c:	pop	r12
0x41417e:	pop	r13
0x414180:	pop	r14
0x414182:	pop	r15
0x414184:	ret	
T 0x41a7f4
0x40d99f:	pop	r13
0x40d9a1:	ret	
T 0x419a2d
0x419a2d:	pop	rax
0x419a2e:	mov	rax, r13
0x419a31:	pop	rbx
0x419a32:	pop	rbp
0x419a33:	pop	r12
0x419a35:	pop	r13
0x419a37:	pop	r14
0x419a39:	pop	r15
0x419a3b:	ret	
T 0x416e4a
0x40d99f:	pop	r13
0x40d9a1:	ret	
T 0x40d994
0x40d994:	add	rsp, 0x18
0x40d998:	mov	rax, r13
0x40d99b:	pop	rbx
0x40d99c:	pop	rbp
0x40d99d:	pop	r12
0x40d99f:	pop	r13
0x40d9a1:	ret	
T 0x40a15a
0x409c44:	pop	r14
0x409c46:	ret	
T 0x416ce6
0x416ce6:	mov	esi, ebx
0x416ce8:	add	rsp, 8
0x416cec:	mov	rax, r14
0x416cef:	pop	rbx
0x416cf0:	pop	rbp
0x416cf1:	pop	r12
0x416cf3:	pop	r13
0x416cf5:	pop	r14
0x416cf7:	pop	r15
0x416cf9:	ret	
T 0x418cb3
0x404ed3:	pop	r15
0x404ed5:	ret	
T 0x4168e8
0x4168e8:	add	rsp, 8
0x4168ec:	mov	rax, r15
0x4168ef:	pop	rbx
0x4168f0:	pop	rbp
0x4168f1:	pop	r12
0x4168f3:	pop	r13
0x4168f5:	pop	r14
0x4168f7:	pop	r15
0x4168f9:	ret	
T 0x4178f0
0x4178f0:	jmp	0x41773e
T 0x4178ee
0x4178ee:	add	al, 0xf7
0x4178f0:	jmp	0x41773e
T 0x40d99f
0x40d99f:	pop	r13
0x40d9a1:	ret	
T 0x416668
0x416668:	add	rsp, 8
0x41666c:	mov	rax, r13
0x41666f:	pop	rbx
0x416670:	pop	rbp
0x416671:	pop	r12
0x416673:	pop	r13
0x416675:	pop	r14
0x416677:	pop	r15
0x416679:	ret	
T 0x418d54
0x404ed3:	pop	r15
0x404ed5:	ret	
T 0x414173
0x414173:	add	rsp, 0x28
0x414177:	mov	rax, r15
0x41417a:	pop	rbx
0x41417b:	pop	rbp
0x41417c:	pop	r12
0x41417e:	pop	r13
0x414180:	pop	r14
0x414182:	pop	r15
0x414184:	ret	
T 0x41205e
0x411ee3:	and	al, 0x10
0x411ee6:	pop	r12
0x411ee8:	ret	
T 0x412519
0x412519:	pop	rdi
0x41251a:	add	rsp, 0x40
0x41251e:	mov	rax, r12
0x412521:	pop	rbx
0x412522:	pop	rbp
0x412523:	pop	r12
0x412525:	ret	
T 0x411fc6
0x40460e:	pop	r12
0x404610:	ret	
T 0x412b5b
0x412b5b:	add	rsp, 0x48
0x412b5f:	mov	rax, r12
0x412b62:	pop	rbx
0x412b63:	pop	rbp
0x412b64:	pop	r12
0x412b66:	pop	r13
0x412b68:	ret	
T 0x4152ff
0x40d99f:	pop	r13
0x40d9a1:	ret	
T 0x419a2a
0x419a2a:	add	rsp, 0x58
0x419a2e:	mov	rax, r13
0x419a31:	pop	rbx
0x419a32:	pop	rbp
0x419a33:	pop	r12
0x419a35:	pop	r13
0x419a37:	pop	r14
0x419a39:	pop	r15
0x419a3b:	ret	
T 0x40d731
0x40d731:	pop	rax
0x40d732:	adc	byte ptr [rdi], cl
0x40d734:	adc	dword ptr [rip + 0x26976], ebx
0x40d73a:	add	rsp, 8
0x40d73e:	ret	
T 0x40d72b
0x40d72b:	imul	eax, dword ptr [rdx], 0x6f0ff300
0x40d731:	pop	rax
0x40d732:	adc	byte ptr [rdi], cl
0x40d734:	adc	dword ptr [rip + 0x26976], ebx
0x40d73a:	add	rsp, 8
0x40d73e:	ret	
T 0x40d364
0x40d364:	pop	rax
0x40d365:	clc	
0x40d366:	mov	qword ptr [rip + 0x26d4b], rax
0x40d36d:	add	rsp, 8
0x40d371:	pop	rbx
0x40d372:	pop	rbp
0x40d373:	ret	
T 0x40d3b2
0x40d3b2:	pop	rax
0x40d3b3:	clc	
0x40d3b4:	mov	qword ptr [rip + 0x26cfd], rax
0x40d3bb:	add	rsp, 8
0x40d3bf:	pop	rbx
0x40d3c0:	pop	rbp
0x40d3c1:	ret	
T 0x4178ed
0x4178ed:	mov	dword ptr [rdi + rsi*8], eax
0x4178f0:	jmp	0x41773e
T 0x4178ec
0x4178ec:	mov	qword ptr [rdi + rsi*8], rax
0x4178f0:	jmp	0x41773e
T 0x4178eb
0x4178eb:	dec	dword ptr [rax - 0x77]
0x4178ee:	add	al, 0xf7
0x4178f0:	jmp	0x41773e
T 0x40a49e
0x40a49e:	pop	rax
0x40a49f:	pop	rbx
0x40a4a0:	pop	rbp
0x40a4a1:	pop	r12
0x40a4a3:	pop	r13
0x40a4a5:	pop	r14
0x40a4a7:	pop	r15
0x40a4a9:	ret	
T 0x4178e5
0x4178e5:	mov	dword ptr [rax + rbx], 0xffffffff
0x4178ec:	mov	qword ptr [rdi + rsi*8], rax
0x4178f0:	jmp	0x41773e
T 0x41143b
0x41143b:	mov	rax, qword ptr [rsp + 8]
0x411440:	add	rsp, 0x18
0x411444:	pop	rbx
0x411445:	pop	rbp
0x411446:	pop	r12
0x411448:	pop	r13
0x41144a:	pop	r14
0x41144c:	pop	r15
0x41144e:	ret	
T 0x41773e
0x41773e:	mov	rax, qword ptr [rsp + 8]
0x417743:	add	rsp, 0x28
0x417747:	pop	rbx
0x417748:	pop	rbp
0x417749:	pop	r12
0x41774b:	pop	r13
0x41774d:	pop	r14
0x41774f:	pop	r15
0x417751:	ret	
F 0x414865
0x404016:	ret	
F 0x41b88c
0x404016:	ret	
F 0x41a7e5
0x41a7e5:	test	dword ptr [rax], eax
0x41a7e7:	add	byte ptr [rax], al
0x41a7e9:	add	rsp, 8
0x41a7ed:	mov	rax, r12
0x41a7f0:	pop	rbx
0x41a7f1:	pop	rbp
0x41a7f2:	pop	r12
0x41a7f4:	pop	r13
0x41a7f6:	ret	
F 0x4175ab
0x4175ab:	mov	qword ptr [rdi], rbx
0x4175ae:	jmp	0x417516
F 0x40ea2f
0x40ea2f:	add	byte ptr [rax - 0x73], cl
0x40ea32:	add	eax, 0x11974
0x40ea37:	ret	
F 0x40e149
0x40e149:	mov	qword ptr [rax], rdx
0x40e14c:	pop	rbx
0x40e14d:	mov	qword ptr [rip + 0x1938c], rax
0x40e154:	ret	
F 0x413b96
0x409c43:	pop	rbp
0x409c44:	pop	r14
0x409c46:	ret	
F 0x40f88f
0x404ed4:	pop	rdi
0x404ed5:	ret	
F 0x40e146
0x40e146:	mov	dword ptr [rax + 8], ebx
0x40e149:	mov	qword ptr [rax], rdx
0x40e14c:	pop	rbx
0x40e14d:	mov	qword ptr [rip + 0x1938c], rax
0x40e154:	ret	
F 0x40f87d
0x40f87d:	add	byte ptr [rax], al
0x40f87f:	add	byte ptr [rbp + 0xf], dh
0x40f882:	add	rsp, 0x28
0x40f886:	pop	rbx
0x40f887:	pop	rbp
0x40f888:	pop	r12
0x40f88a:	pop	r13
0x40f88c:	pop	r14
0x40f88e:	pop	r15
0x40f890:	ret	
F 0x4149c2
0x4144b1:	xor	byte ptr [rcx], al
0x4144b3:	add	byte ptr [rax], al
0x4144b5:	pop	rbp
0x4144b6:	pop	r12
0x4144b8:	pop	r13
0x4144ba:	ret	
F 0x40a350
0x40a333:	add	byte ptr [rax], al
0x40a335:	mov	rax, r12
0x40a338:	pop	r12
0x40a33a:	ret	
F 0x417355
0x417355:	or	byte ptr [r11], dl
0x417358:	shl	eax, cl
0x41735a:	not	eax
0x41735c:	or	byte ptr [rdi + r9], al
0x417360:	ret	
F 0x40a275
0x40a275:	nop	dword ptr [rax]
0x40a278:	add	rsp, 8
0x40a27c:	xor	eax, eax
0x40a27e:	pop	rbx
0x40a27f:	pop	rbp
0x40a280:	ret	
F 0x41143e
0x41143e:	and	al, 8
0x411440:	add	rsp, 0x18
0x411444:	pop	rbx
0x411445:	pop	rbp
0x411446:	pop	r12
0x411448:	pop	r13
0x41144a:	pop	r14
0x41144c:	pop	r15
0x41144e:	ret	
F 0x407c41
0x407c41:	sub	edx, 1
0x407c44:	pop	rbx
0x407c45:	mov	qword ptr [rip + 0x1f664], rdx
0x407c4c:	ret	
F 0x40a352
0x40499c:	mov	rax, r12
0x40499f:	pop	r12
0x4049a1:	ret	
F 0x40a27c
0x40a27c:	xor	eax, eax
0x40a27e:	pop	rbx
0x40a27f:	pop	rbp
0x40a280:	ret	
F 0x41c684
0x41c684:	add	eax, 0x1dc47
0x41c689:	pop	rbx
0x41c68a:	pop	rbp
0x41c68b:	pop	r12
0x41c68d:	pop	r13
0x41c68f:	pop	r14
0x41c691:	ret	
F 0x41417b
0x404ecc:	pop	rbp
0x404ecd:	pop	r12
0x404ecf:	pop	r13
0x404ed1:	pop	r14
0x404ed3:	pop	r15
0x404ed5:	ret	
F 0x40889c
0x40889c:	sub	eax, edi
0x40889e:	mov	qword ptr [rsi], r8
0x4088a1:	ret	
F 0x41209d
0x411ee0:	movups	xmmword ptr [r12 + 0x10], xmm0
0x411ee6:	pop	r12
0x411ee8:	ret	
F 0x415192
0x415192:	or	byte ptr [rcx], al
0x415195:	add	rsp, 8
0x415199:	ret	
F 0x40ea40
0x40ea40:	lea	rax, [rip + 0x11138]
0x40ea47:	ret	
F 0x419e4b
0x419e4b:	ret	0x4c18
F 0x419e44
0x419e44:	test	byte ptr [rsi], cl
0x419e46:	add	eax, dword ptr [rax]
0x419e48:	add	byte ptr [rcx - 0x7d], cl
0x419e4b:	ret	0x4c18
F 0x417b63
0x404012:	add	rsp, 8
0x404016:	ret	
F 0x41520e
0x41520e:	add	dword ptr [rax], eax
0x415210:	add	rsp, 8
0x415214:	pop	rbp
0x415215:	pop	r12
0x415217:	ret	
F 0x41734d
0x41734d:	leave	
0x41734e:	mov	edx, eax
0x417350:	shl	edx, cl
0x417352:	mov	ecx, r8d
0x417355:	or	byte ptr [r11], dl
0x417358:	shl	eax, cl
0x41735a:	not	eax
0x41735c:	or	byte ptr [rdi + r9], al
0x417360:	ret	
F 0x40d239
0x40d239:	mov	dword ptr [rsp + 0x10], edx
0x40d23d:	pop	r12
0x40d23f:	ret	
F 0x416670
0x404ecc:	pop	rbp
0x404ecd:	pop	r12
0x404ecf:	pop	r13
0x404ed1:	pop	r14
0x404ed3:	pop	r15
0x404ed5:	ret	
F 0x407a90
0x407a90:	dec	dword ptr [rcx + 0x1f81505]
0x407a96:	add	byte ptr [rbx + 0x1c74fff8], al
0x407a9c:	add	rsp, 8
0x407aa0:	ret	
F 0x41ae72
0x41ae72:	push	rdx
0x41ae73:	ret	0
F 0x40f246
0x40f246:	and	byte ptr [rax - 0x39], cl
0x40f249:	ret	
F 0x417559
0x417559:	add	rbx, 2
0x41755d:	jmp	0x4175f4
F 0x4172ca
0x404016:	ret	
F 0x417eb0
0x404016:	ret	
F 0x405ce9
0x404016:	ret	
F 0x418eae
0x418eae:	pop	rbp
0x418eaf:	or	byte ptr [rbx + 0x5d], bl
0x418eb2:	pop	r12
0x418eb4:	pop	r13
0x418eb6:	pop	r14
0x418eb8:	ret	
F 0x41144d
0x404ed4:	pop	rdi
0x404ed5:	ret	
F 0x409b39
0x409ad9:	mov	eax, esp
0x409adb:	pop	rbp
0x409adc:	pop	r12
0x409ade:	ret	
F 0x40d761
0x40d738:	add	al, byte ptr [rax]
0x40d73a:	add	rsp, 8
0x40d73e:	ret	
F 0x41a07e
0x41a07e:	add	dword ptr [rcx - 0x7d], ecx
0x41a081:	ret	0xe918
F 0x4122c0
0x4122c0:	movups	xmmword ptr [r12 + 0x10], xmm0
0x4122c6:	add	rsp, 8
0x4122ca:	pop	rbx
0x4122cb:	pop	r12
0x4122cd:	ret	
F 0x407bdf
0x407bdf:	rol	byte ptr [rcx], 0x44
0x407be2:	movzx	eax, dl
0x407be5:	mov	qword ptr [rip + 0x1f6c4], rax
0x407bec:	mov	eax, r8d
0x407bef:	ret	
F 0x41895e
0x41890e:	add	eax, 0x28c48348
0x418913:	ret	
F 0x41800f
0x404016:	ret	
F 0x413a6e
0x409e43:	or	byte ptr [rbx + 0x5d], bl
0x409e46:	pop	r12
0x409e48:	pop	r13
0x409e4a:	pop	r14
0x409e4c:	pop	r15
0x409e4e:	ret	
F 0x412439
0x404016:	ret	
F 0x40a2b7
0x40a2b7:	add	byte ptr [rax], al
0x40a2b9:	add	rsp, 8
0x40a2bd:	xor	eax, eax
0x40a2bf:	pop	rbx
0x40a2c0:	pop	rbp
0x40a2c1:	ret	
F 0x41143d
0x41143d:	and	al, 8
0x411440:	add	rsp, 0x18
0x411444:	pop	rbx
0x411445:	pop	rbp
0x411446:	pop	r12
0x411448:	pop	r13
0x41144a:	pop	r14
0x41144c:	pop	r15
0x41144e:	ret	
F 0x419022
0x404ed4:	pop	rdi
0x404ed5:	ret	
F 0x407aa0
0x404016:	ret	
F 0x414f40
0x404ed0:	pop	rbp
0x404ed1:	pop	r14
0x404ed3:	pop	r15
0x404ed5:	ret	
F 0x412057
0x412057:	orps	xmm0, xmm3
0x41205a:	movsd	qword ptr [r12 + 0x10], xmm0
0x412061:	pop	r12
0x412063:	ret	
F 0x417ccc
0x40f7e4:	dec	dword ptr [rax - 0x77]
0x40f7e7:	ret	
F 0x418eb1
0x409c3f:	pop	rbp
0x409c40:	pop	r12
0x409c42:	pop	r13
0x409c44:	pop	r14
0x409c46:	ret	
F 0x40a496
0x40a496:	test	dword ptr [rax + 0x2d], ebx
0x40a499:	add	byte ptr [rax], al
0x40a49b:	add	rsp, 0x58
0x40a49f:	pop	rbx
0x40a4a0:	pop	rbp
0x40a4a1:	pop	r12
0x40a4a3:	pop	r13
0x40a4a5:	pop	r14
0x40a4a7:	pop	r15
0x40a4a9:	ret	
F 0x41c690
0x409c45:	pop	rsi
0x409c46:	ret	
F 0x4046ed
0x4046ed:	add	byte ptr [rcx], al
0x4046ef:	pop	rbp
0x4046f0:	ret	
F 0x41ab46
0x41ab46:	add	eax, 0xc6e5
0x41ab4b:	mov	qword ptr [r12 + 8], rax
0x41ab50:	mov	rax, r12
0x41ab53:	pop	rbx
0x41ab54:	pop	rbp
0x41ab55:	pop	r12
0x41ab57:	ret	
F 0x40a11d
0x409c40:	pop	r12
0x409c42:	pop	r13
0x409c44:	pop	r14
0x409c46:	ret	
F 0x40a2ab
0x4046ef:	pop	rbp
0x4046f0:	ret	
F 0x40a26a
0x40a26a:	ror	byte ptr [rdi], 0x45
0x40a26d:	ret	0x8348
F 0x4139ae
0x4139ae:	mov	esi, 0x6600006d
0x4139b3:	nop	dword ptr [rax + rax]
0x4139b8:	ret	
F 0x40499c
0x40499c:	mov	rax, r12
0x40499f:	pop	r12
0x4049a1:	ret	
F 0x4115d9
0x4115d9:	add	rsp, 8
0x4115dd:	lea	rax, [rbp - 0x18]
0x4115e1:	pop	rbx
0x4115e2:	pop	rbp
0x4115e3:	pop	r12
0x4115e5:	pop	r13
0x4115e7:	pop	r14
0x4115e9:	pop	r15
0x4115eb:	ret	
F 0x405b19
0x404016:	ret	
F 0x4103bc
0x4046ef:	pop	rbp
0x4046f0:	ret	
F 0x41756f
0x41756f:	jmp	0x417516
F 0x40a29b
0x40a29b:	or	byte ptr [rax - 0x7d], cl
0x40a29e:	cmp	byte ptr [rax], al
0x40a2a0:	setne	al
0x40a2a3:	add	rsp, 8
0x40a2a7:	movzx	eax, al
0x40a2aa:	pop	rbx
0x40a2ab:	pop	rbp
0x40a2ac:	ret	
F 0x40d329
0x40d329:	or	byte ptr [rcx + rcx*4 - 0x20], cl
0x40d32d:	pop	rbp
0x40d32e:	pop	r12
0x40d330:	ret	
F 0x40d59a
0x40d59a:	pop	rcx
0x40d59b:	pop	rbx
0x40d59c:	ret	
F 0x41209c
0x411edf:	movsd	qword ptr [r12 + 0x10], xmm0
0x411ee6:	pop	r12
0x411ee8:	ret	
F 0x41c5f0
0x41c5f0:	add	rsp, 0x48
0x41c5f4:	pop	rbx
0x41c5f5:	pop	rbp
0x41c5f6:	pop	r12
0x41c5f8:	pop	r13
0x41c5fa:	ret	
F 0x414d90
0x4117e8:	pop	rbx
0x4117e9:	pop	r12
0x4117eb:	ret	
F 0x41ac8d
0x41ac8d:	mov	dword ptr [rip + 0x1f635], eax
0x41ac93:	add	rsp, 8
0x41ac97:	ret	
F 0x40d758
0x40d758:	movq	mm5, qword ptr [rax + 0x10]
0x40d75c:	movups	xmmword ptr [rip + 0x2694d], xmm5
0x40d763:	add	rsp, 8
0x40d767:	ret	
F 0x408941
0x408941:	add	rax, rbp
0x408944:	jmp	rax
F 0x41b81d
0x41b81d:	add	byte ptr [rax], r8b
0x41b820:	lea	edx, [rdi + 1]
0x41b823:	add	edi, 0x100
0x41b829:	cmp	dl, 1
0x41b82c:	cmovg	eax, edi
0x41b82f:	ret	
F 0x4192bf
0x4192bf:	mov	qword ptr [rip + 0x20ff2], rbp
0x4192c6:	add	rsp, 8
0x4192ca:	pop	rbx
0x4192cb:	pop	rbp
0x4192cc:	ret	
F 0x4139da
0x4139da:	mov	eax, dword ptr [rip + 0x13b10]
0x4139e0:	add	eax, 1
0x4139e3:	mov	dword ptr [rip + 0x13b07], eax
0x4139e9:	ret	
F 0x40e14b
0x40e14b:	adc	byte ptr [rbx + 0x48], bl
0x40e14e:	mov	dword ptr [rip + 0x1938c], eax
0x40e154:	ret	
F 0x407aae
0x404674:	add	byte ptr [rax], al
0x404676:	add	byte ptr [rax], al
0x404678:	ret	
F 0x41735c
0x41735c:	or	byte ptr [rdi + r9], al
0x417360:	ret	
F 0x4046e7
0x4046e7:	inc	esi
0x4046e9:	add	eax, 0x22b79
0x4046ee:	add	dword ptr [rbp - 0x3d], ebx
0x4046f1:	nop	dword ptr [rax]
0x4046f8:	ret	
F 0x416351
0x416351:	mov	dh, 0x41
0x416353:	add	dword ptr [rax - 0x7d], ecx
0x416356:	ret	
F 0x40d362
0x40d362:	mov	qword ptr [rax - 8], rbx
0x40d366:	mov	qword ptr [rip + 0x26d4b], rax
0x40d36d:	add	rsp, 8
0x40d371:	pop	rbx
0x40d372:	pop	rbp
0x40d373:	ret	
F 0x40d7e0
0x40d7e0:	dec	dword ptr [rax - 0x7d]
0x40d7e3:	ret	
F 0x411b5c
0x409c3f:	pop	rbp
0x409c40:	pop	r12
0x409c42:	pop	r13
0x409c44:	pop	r14
0x409c46:	ret	
F 0x41769e
0x40d307:	ret	0x2948
F 0x407bc7
0x407bc7:	add	dword ptr [rax], eax
0x407bc9:	mov	eax, r8d
0x407bcc:	add	rsp, 8
0x407bd0:	ret	
F 0x40e141
0x40e141:	wait	
0x40e142:	xchg	eax, ebx
0x40e143:	add	dword ptr [rax], eax
0x40e145:	mov	qword ptr [rax + 8], rbx
0x40e149:	mov	qword ptr [rax], rdx
0x40e14c:	pop	rbx
0x40e14d:	mov	qword ptr [rip + 0x1938c], rax
0x40e154:	ret	
F 0x419434
0x404ed2:	pop	rsi
0x404ed3:	pop	r15
0x404ed5:	ret	
F 0x412401
0x4122c3:	and	al, 0x10
0x4122c6:	add	rsp, 8
0x4122ca:	pop	rbx
0x4122cb:	pop	r12
0x4122cd:	ret	
F 0x419435
0x404ed3:	pop	r15
0x404ed5:	ret	
F 0x4129c8
0x4129c8:	add	byte ptr [rax], al
0x4129ca:	add	rsp, 0x10
0x4129ce:	mov	rax, r12
0x4129d1:	pop	rbx
0x4129d2:	pop	rbp
0x4129d3:	pop	r12
0x4129d5:	ret	
F 0x41c119
0x41c119:	add	byte ptr [rax], al
0x41c11b:	nop	dword ptr [rax + rax]
0x41c120:	ret	
F 0x415523
0x40d99c:	pop	rbp
0x40d99d:	pop	r12
0x40d99f:	pop	r13
0x40d9a1:	ret	
F 0x414f42
0x404ed2:	pop	rsi
0x404ed3:	pop	r15
0x404ed5:	ret	
F 0x409f7c
0x404016:	ret	
F 0x409f98
0x409f98:	scasd	eax, dword ptr [rdi]
0x409f99:	lea	rax, [rip + 0x1d090]
0x409fa0:	ret	
F 0x41751a
0x40460d:	pop	rbp
0x40460e:	pop	r12
0x404610:	ret	
F 0x409b18
0x404016:	ret	
F 0x417445
0x417445:	shl	eax, 2
0x417449:	sub	edx, eax
0x41744b:	cmp	edx, 0xa
0x41744e:	sete	r8b
0x417452:	jmp	0x4173ca
F 0x408456
0x408456:	mov	dword ptr [rip + 0x1eccf], eax
0x40845c:	mov	byte ptr [rip + 0x1ecca], 0x22
0x408463:	add	rsp, 8
0x408467:	ret	
F 0x40e9e2
0x40e9e2:	add	eax, 0x11192
0x40e9e7:	ret	
F 0x4129cd
0x4129cd:	adc	byte ptr [rcx + rcx*4 - 0x20], cl
0x4129d1:	pop	rbx
0x4129d2:	pop	rbp
0x4129d3:	pop	r12
0x4129d5:	ret	
F 0x41759c
0x41759c:	jmp	0x417516
F 0x41750a
0x41750a:	add	al, 0x48
0x41750c:	add	ebx, 3
0x41750f:	add	r12d, eax
0x417512:	mov	qword ptr [rbp], rbx
0x417516:	mov	eax, r12d
0x417519:	pop	rbx
0x41751a:	pop	rbp
0x41751b:	pop	r12
0x41751d:	ret	
F 0x4049bf
0x4049bf:	add	eax, 0x228c4
0x4049c4:	mov	rax, r12
0x4049c7:	pop	r12
0x4049c9:	ret	
F 0x416cf3
0x404ecf:	pop	r13
0x404ed1:	pop	r14
0x404ed3:	pop	r15
0x404ed5:	ret	
F 0x40f9de
0x40f9de:	mov	dword ptr [rbx], eax
0x40f9e0:	add	rsp, 8
0x40f9e4:	pop	rbx
0x40f9e5:	pop	rbp
0x40f9e6:	ret	
F 0x41a378
0x404016:	ret	
F 0x41c51a
0x414331:	ret	0
F 0x4117db
0x4117db:	movups	xmmword ptr [r12 + 0x10], xmm0
0x4117e1:	add	rsp, 8
0x4117e5:	mov	rax, r12
0x4117e8:	pop	rbx
0x4117e9:	pop	r12
0x4117eb:	ret	
F 0x412fb4
0x404ecc:	pop	rbp
0x404ecd:	pop	r12
0x404ecf:	pop	r13
0x404ed1:	pop	r14
0x404ed3:	pop	r15
0x404ed5:	ret	
F 0x408a24
0x40819a:	add	rsp, 0x28
0x40819e:	pop	rbx
0x40819f:	pop	rbp
0x4081a0:	pop	r12
0x4081a2:	pop	r13
0x4081a4:	pop	r14
0x4081a6:	pop	r15
0x4081a8:	ret	
F 0x404ad4
0x404ad4:	add	al, 2
0x404ad6:	or	al, 0x5d
0x404ad8:	ret	
F 0x40ec99
0x40ec99:	test	rax, rax
0x40ec9c:	sete	al
0x40ec9f:	add	rsp, 8
0x40eca3:	movzx	eax, al
0x40eca6:	ret	
F 0x414642
0x414084:	ret	0xc748
F 0x417ece
0x417ece:	mov	rax, qword ptr [rax + rdx*8]
0x417ed2:	ret	
F 0x416f57
0x404ecf:	pop	r13
0x404ed1:	pop	r14
0x404ed3:	pop	r15
0x404ed5:	ret	
F 0x418d51
0x404ed0:	pop	rbp
0x404ed1:	pop	r14
0x404ed3:	pop	r15
0x404ed5:	ret	
F 0x41a86c
0x4046ef:	pop	rbp
0x4046f0:	ret	
F 0x40ea21
0x40ea21:	lea	eax, [rip + 0x11160]
0x40ea27:	ret	
F 0x411be0
0x4083d0:	pop	rbx
0x4083d1:	ret	
F 0x411acf
0x409c42:	pop	r13
0x409c44:	pop	r14
0x409c46:	ret	
F 0x41681a
0x404016:	ret	
F 0x411b74
0x411b74:	clc	
0x411b75:	mov	eax, dword ptr [rax]
0x411b77:	add	byte ptr [rbx + 0x4c], bl
0x411b7a:	mov	eax, esi
0x411b7c:	pop	rbp
0x411b7d:	pop	r12
0x411b7f:	pop	r13
0x411b81:	pop	r14
0x411b83:	ret	
F 0x41749a
0x41749a:	test	eax, eax
0x41749c:	cmove	eax, edx
0x41749f:	pop	rbx
0x4174a0:	ret	
F 0x410124
0x408627:	add	rsp, 8
0x40862b:	pop	rbx
0x40862c:	pop	rbp
0x40862d:	ret	
F 0x409b2b
0x409b2b:	and	eax, 0x1d4f0
0x409b30:	pop	rbx
0x409b31:	add	dword ptr [rip + 0x1d4f0], 1
0x409b38:	mov	rax, r12
0x409b3b:	pop	rbp
0x409b3c:	pop	r12
0x409b3e:	ret	
F 0x41895c
0x41890c:	add	byte ptr [rbp + 5], dh
0x41890f:	add	rsp, 0x28
0x418913:	ret	
F 0x41c269
0x41175e:	mov	eax, esp
0x411760:	pop	rbx
0x411761:	pop	rbp
0x411762:	pop	r12
0x411764:	pop	r13
0x411766:	pop	r14
0x411768:	pop	r15
0x41176a:	ret	
F 0x418cab
0x404ecb:	pop	rbx
0x404ecc:	pop	rbp
0x404ecd:	pop	r12
0x404ecf:	pop	r13
0x404ed1:	pop	r14
0x404ed3:	pop	r15
0x404ed5:	ret	
F 0x41ad32
0x4046ef:	pop	rbp
0x4046f0:	ret	
F 0x41a8f0
0x41a8f0:	add	byte ptr [rax], al
0x41a8f2:	add	rsp, 0x30
0x41a8f6:	pop	rbx
0x41a8f7:	pop	rbp
0x41a8f8:	pop	r12
0x41a8fa:	pop	r13
0x41a8fc:	pop	r14
0x41a8fe:	ret	
F 0x40e235
0x40e235:	mov	edx, 0x5c415d5b
0x40e23a:	ret	
F 0x40faf6
0x40faf6:	add	byte ptr [rax], al
0x40faf8:	mov	eax, 1
0x40fafd:	mov	word ptr [rbx + 0x18], ax
0x40fb01:	add	rsp, 8
0x40fb05:	pop	rbx
0x40fb06:	pop	rbp
0x40fb07:	ret	
F 0x40e9e1
0x40e9e1:	lea	eax, [rip + 0x11192]
0x40e9e7:	ret	
F 0x41757e
0x41757e:	jmp	0x417516
F 0x40a179
0x409c45:	pop	rsi
0x409c46:	ret	
F 0x40ebde
0x404016:	ret	
F 0x41c117
0x41c117:	add	byte ptr [rax], al
0x41c119:	add	byte ptr [rax], al
0x41c11b:	nop	dword ptr [rax + rax]
0x41c120:	ret	
F 0x41c8eb
0x404ed4:	pop	rdi
0x404ed5:	ret	
F 0x41bff8
0x404016:	ret	
F 0x404ad2
0x404ad2:	and	dh, al
0x404ad4:	add	al, 2
0x404ad6:	or	al, 0x5d
0x404ad8:	ret	
F 0x40a4a9
0x404016:	ret	
F 0x4120a3
0x40460e:	pop	r12
0x404610:	ret	
F 0x416a85
0x404ecc:	pop	rbp
0x404ecd:	pop	r12
0x404ecf:	pop	r13
0x404ed1:	pop	r14
0x404ed3:	pop	r15
0x404ed5:	ret	
F 0x419a5e
0x419a5e:	scasb	al, byte ptr [rdi]
0x419a5f:	add	byte ptr [rax], al
0x419a61:	add	byte ptr [rcx - 0x7d], cl
0x419a64:	ret	0x4818
F 0x412fb7
0x404ecf:	pop	r13
0x404ed1:	pop	r14
0x404ed3:	pop	r15
0x404ed5:	ret	
F 0x40d619
0x4083d0:	pop	rbx
0x4083d1:	ret	
F 0x41ac8c
0x41ac8c:	mov	qword ptr [rip + 0x1f635], rax
0x41ac93:	add	rsp, 8
0x41ac97:	ret	
F 0x41c11d
0x4046b5:	add	byte ptr [rax], r8b
0x4046b8:	ret	
F 0x41a8fe
0x404016:	ret	
F 0x412521
0x409b14:	pop	rbx
0x409b15:	pop	rbp
0x409b16:	pop	r12
0x409b18:	ret	
F 0x40d2a6
0x404016:	ret	
F 0x409d3d
0x409d3d:	mov	dword ptr [rax - 8], esi
0x409d40:	pop	rbx
0x409d41:	ret	
F 0x413805
0x40f9de:	mov	dword ptr [rbx], eax
0x40f9e0:	add	rsp, 8
0x40f9e4:	pop	rbx
0x40f9e5:	pop	rbp
0x40f9e6:	ret	
F 0x413f0d
0x404ed1:	pop	r14
0x404ed3:	pop	r15
0x404ed5:	ret	
F 0x411b77
0x411ac7:	add	byte ptr [rbx + 0x4c], bl
0x411aca:	mov	eax, esi
0x411acc:	pop	rbp
0x411acd:	pop	r12
0x411acf:	pop	r13
0x411ad1:	pop	r14
0x411ad3:	ret	
F 0x40fb04
0x40862a:	or	byte ptr [rbx + 0x5d], bl
0x40862d:	ret	
F 0x40473a
0x404674:	add	byte ptr [rax], al
0x404676:	add	byte ptr [rax], al
0x404678:	ret	
F 0x404ec7
0x404ec7:	sub	byte ptr [rax], cl
0x404ec9:	add	byte ptr [rax], al
0x404ecb:	pop	rbx
0x404ecc:	pop	rbp
0x404ecd:	pop	r12
0x404ecf:	pop	r13
0x404ed1:	pop	r14
0x404ed3:	pop	r15
0x404ed5:	ret	
F 0x411aac
0x409c3f:	pop	rbp
0x409c40:	pop	r12
0x409c42:	pop	r13
0x409c44:	pop	r14
0x409c46:	ret	
F 0x41019f
0x41019f:	test	dword ptr [rsi + 1], ecx
0x4101a2:	add	byte ptr [rax], al
0x4101a4:	add	rsp, 0x10
0x4101a8:	pop	rbx
0x4101a9:	pop	rbp
0x4101aa:	pop	r12
0x4101ac:	ret	
F 0x40f992
0x40f992:	mov	word ptr [rip + 0x24786], r8w
0x40f99a:	ret	
F 0x404992
0x404992:	mov	dword ptr [rax + 0x10], edi
0x404995:	mov	qword ptr [rax + 0x18], r12
0x404999:	mov	qword ptr [rsi], rax
0x40499c:	mov	rax, r12
0x40499f:	pop	r12
0x4049a1:	ret	
F 0x40466c
0x40466c:	sal	byte ptr [rcx + rcx - 1], 0xe0
0x404671:	nop	dword ptr [rax]
0x404678:	ret	
F 0x41c11b
0x4046b3:	nop	dword ptr [rax + rax]
0x4046b8:	ret	
F 0x40f9d6
0x40f9d6:	add	byte ptr [rax], al
0x40f9d8:	mov	eax, 1
0x40f9dd:	mov	word ptr [rbx], ax
0x40f9e0:	add	rsp, 8
0x40f9e4:	pop	rbx
0x40f9e5:	pop	rbp
0x40f9e6:	ret	
F 0x4152a0
0x4152a0:	inc	dword ptr [rbx]
0x4152a2:	sar	rax, 3
0x4152a6:	imul	edx, edi, 0xaaaaaaab
0x4152ac:	shl	eax, 0xa
0x4152af:	add	eax, edx
0x4152b1:	ret	
F 0x40ea3c
0x40ea3c:	add	byte ptr [rax], al
0x40ea3e:	add	byte ptr [rax], al
0x40ea40:	lea	rax, [rip + 0x11138]
0x40ea47:	ret	
F 0x40e98b
0x40e98b:	nop	dword ptr [rax + rax]
0x40e990:	lea	rax, [rip + 0x11216]
0x40e997:	ret	
F 0x407bc3
0x407bc3:	mov	dword ptr [rip + 0x1f6e7], eax
0x407bc9:	mov	eax, r8d
0x407bcc:	add	rsp, 8
0x407bd0:	ret	
F 0x40a2bd
0x40a27c:	xor	eax, eax
0x40a27e:	pop	rbx
0x40a27f:	pop	rbp
0x40a280:	ret	
F 0x41144b
0x404ed2:	pop	rsi
0x404ed3:	pop	r15
0x404ed5:	ret	
F 0x40740c
0x404016:	ret	
F 0x40ec50
0x40ec50:	add	byte ptr [rbp + 0x23], dh
0x40ec53:	add	rsp, 0x28
0x40ec57:	pop	rbx
0x40ec58:	pop	rbp
0x40ec59:	pop	r12
0x40ec5b:	pop	r13
0x40ec5d:	pop	r14
0x40ec5f:	pop	r15
0x40ec61:	ret	
F 0x407aa1
0x407aa1:	nop	dword ptr [rax]
0x407aa8:	mov	dword ptr [rip + 0x1f7fa], 0
0x407ab2:	ret	
F 0x410bb9
0x404016:	ret	
F 0x417564
0x404016:	ret	
F 0x41bbf1
0x404ecd:	pop	r12
0x404ecf:	pop	r13
0x404ed1:	pop	r14
0x404ed3:	pop	r15
0x404ed5:	ret	
F 0x41a52d
0x404ecb:	pop	rbx
0x404ecc:	pop	rbp
0x404ecd:	pop	r12
0x404ecf:	pop	r13
0x404ed1:	pop	r14
0x404ed3:	pop	r15
0x404ed5:	ret	
F 0x411d7b
0x404ecc:	pop	rbp
0x404ecd:	pop	r12
0x404ecf:	pop	r13
0x404ed1:	pop	r14
0x404ed3:	pop	r15
0x404ed5:	ret	
F 0x40f88c
0x404ed1:	pop	r14
0x404ed3:	pop	r15
0x404ed5:	ret	
F 0x404604
0x404604:	pop	rbp
0x404605:	add	byte ptr [rax], al
0x404607:	add	rsp, 8
0x40460b:	xor	eax, eax
0x40460d:	pop	rbp
0x40460e:	pop	r12
0x404610:	ret	
F 0x419231
0x419231:	add	al, byte ptr [rax]
0x419233:	mov	qword ptr [rip + 0x2106e], rdx
0x41923a:	add	rsp, 8
0x41923e:	pop	rbx
0x41923f:	pop	rbp
0x419240:	ret	
F 0x40ec61
0x404016:	ret	
F 0x404012
0x404012:	add	rsp, 8
0x404016:	ret	
F 0x418a63
0x404016:	ret	
F 0x40f176
0x404ecb:	pop	rbx
0x404ecc:	pop	rbp
0x404ecd:	pop	r12
0x404ecf:	pop	r13
0x404ed1:	pop	r14
0x404ed3:	pop	r15
0x404ed5:	ret	
F 0x41b81a
0x404016:	ret	
F 0x409e4d
0x404ed4:	pop	rdi
0x404ed5:	ret	
F 0x409b15
0x40460d:	pop	rbp
0x40460e:	pop	r12
0x404610:	ret	
F 0x419018
0x404eca:	add	byte ptr [rbx + 0x5d], bl
0x404ecd:	pop	r12
0x404ecf:	pop	r13
0x404ed1:	pop	r14
0x404ed3:	pop	r15
0x404ed5:	ret	
F 0x416f72
0x404016:	ret	
F 0x40a317
0x40a317:	add	dl, dh
0x40a319:	movups	xmm0, xmmword ptr [rsi + 0x10]
0x40a31d:	mov	rax, r12
0x40a320:	movsd	qword ptr [rdi + 0x10], xmm0
0x40a325:	pop	r12
0x40a327:	ret	
F 0x40499a
0x40499a:	mov	dword ptr [rsi], eax
0x40499c:	mov	rax, r12
0x40499f:	pop	r12
0x4049a1:	ret	
F 0x41b919
0x409c3f:	pop	rbp
0x409c40:	pop	r12
0x409c42:	pop	r13
0x409c44:	pop	r14
0x409c46:	ret	
F 0x41b4b2
0x404ecd:	pop	r12
0x404ecf:	pop	r13
0x404ed1:	pop	r14
0x404ed3:	pop	r15
0x404ed5:	ret	
F 0x41b87d
0x40460e:	pop	r12
0x404610:	ret	
F 0x409d3c
0x409d3c:	mov	qword ptr [rax - 8], rsi
0x409d40:	pop	rbx
0x409d41:	ret	
F 0x417571
0x417571:	add	rbx, 1
0x417575:	mov	r12d, 8
0x41757b:	mov	qword ptr [rdi], rbx
0x41757e:	jmp	0x417516
F 0x410121
0x40f9dd:	mov	word ptr [rbx], ax
0x40f9e0:	add	rsp, 8
0x40f9e4:	pop	rbx
0x40f9e5:	pop	rbp
0x40f9e6:	ret	
F 0x415317
0x415317:	and	dword ptr [rcx], eax
0x415319:	add	byte ptr [rax - 0x7d], cl
0x41531c:	ret	
F 0x404ecd
0x404ecd:	pop	r12
0x404ecf:	pop	r13
0x404ed1:	pop	r14
0x404ed3:	pop	r15
0x404ed5:	ret	
F 0x41c8e4
0x404ecd:	pop	r12
0x404ecf:	pop	r13
0x404ed1:	pop	r14
0x404ed3:	pop	r15
0x404ed5:	ret	
F 0x412339
0x412339:	adc	dword ptr [rsp + 0x10], eax
0x41233d:	mov	word ptr [r12], ax
0x412342:	mov	rax, r12
0x412345:	pop	rbx
0x412346:	pop	rbp
0x412347:	pop	r12
0x412349:	ret	
F 0x41a8c2
0x4161cc:	add	dword ptr [r8 - 0x7d], ecx
0x4161d0:	ret	
F 0x40e9a0
0x40e9a0:	lea	rax, [rip + 0x111fe]
0x40e9a7:	ret	
F 0x411f0f
0x411edf:	movsd	qword ptr [r12 + 0x10], xmm0
0x411ee6:	pop	r12
0x411ee8:	ret	
F 0x40864b
0x40864b:	mov	qword ptr [rip + 0x1ec5e], rax
0x408652:	add	rsp, 8
0x408656:	pop	rbx
0x408657:	pop	rbp
0x408658:	ret	
F 0x4105b0
0x4105b0:	mov	eax, 1
0x4105b5:	ret	
F 0x41c8de
0x409e40:	add	rsp, 8
0x409e44:	pop	rbx
0x409e45:	pop	rbp
0x409e46:	pop	r12
0x409e48:	pop	r13
0x409e4a:	pop	r14
0x409e4c:	pop	r15
0x409e4e:	ret	
F 0x410444
0x410444:	add	rsp, 8
0x410448:	pop	rbp
0x410449:	pop	r12
0x41044b:	ret	
F 0x40499d
0x40499d:	mov	eax, esp
0x40499f:	pop	r12
0x4049a1:	ret	
F 0x4088a1
0x404016:	ret	
F 0x409a91
0x407c4a:	add	dword ptr [rax], eax
0x407c4c:	ret	
F 0x417575
0x417575:	mov	r12d, 8
0x41757b:	mov	qword ptr [rdi], rbx
0x41757e:	jmp	0x417516
F 0x40a327
0x404016:	ret	
F 0x40e236
0x409b14:	pop	rbx
0x409b15:	pop	rbp
0x409b16:	pop	r12
0x409b18:	ret	
F 0x411d84
0x404016:	ret	
F 0x411d73
0x411d73:	mov	eax, 0x4c000000
0x411d78:	mov	eax, esp
0x411d7a:	pop	rbx
0x411d7b:	pop	rbp
0x411d7c:	pop	r12
0x411d7e:	pop	r13
0x411d80:	pop	r14
0x411d82:	pop	r15
0x411d84:	ret	
F 0x40889d
0x40889d:	clc	
0x40889e:	mov	qword ptr [rsi], r8
0x4088a1:	ret	
F 0x408a29
0x404ecc:	pop	rbp
0x404ecd:	pop	r12
0x404ecf:	pop	r13
0x404ed1:	pop	r14
0x404ed3:	pop	r15
0x404ed5:	ret	
F 0x41748e
0x41748e:	mov	edx, 0x10
0x417493:	movsxd	rbx, ebx
0x417496:	movsx	eax, byte ptr [rax + rbx]
0x41749a:	test	eax, eax
0x41749c:	cmove	eax, edx
0x41749f:	pop	rbx
0x4174a0:	ret	
F 0x409a8c
0x409a8c:	lea	rax, [rip + 0x1d58d]
0x409a93:	ret	
F 0x407be3
0x407be3:	mov	dh, 0xc2
0x407be5:	mov	qword ptr [rip + 0x1f6c4], rax
0x407bec:	mov	eax, r8d
0x407bef:	ret	
F 0x419a38
0x404ed2:	pop	rsi
0x404ed3:	pop	r15
0x404ed5:	ret	
F 0x417f3b
0x404012:	add	rsp, 8
0x404016:	ret	
F 0x40eaed
0x404016:	ret	
F 0x4139b2
0x4046b2:	nop	word ptr [rax + rax]
0x4046b8:	ret	
F 0x40e9d7
0x404016:	ret	
F 0x40eca6
0x404016:	ret	
F 0x41402d
0x41402d:	sbb	byte ptr [rcx], al
0x41402f:	add	byte ptr [rax], al
0x414031:	pop	rbx
0x414032:	pop	rbp
0x414033:	pop	r12
0x414035:	pop	r13
0x414037:	pop	r14
0x414039:	pop	r15
0x41403b:	ret	
F 0x41c6ff
0x404016:	ret	
F 0x417fff
0x417fff:	add	byte ptr [rax], al
0x418001:	add	rsp, 0x48
0x418005:	pop	rbx
0x418006:	pop	rbp
0x418007:	pop	r12
0x418009:	pop	r13
0x41800b:	pop	r14
0x41800d:	pop	r15
0x41800f:	ret	
F 0x41bfb8
0x41bfb8:	sal	byte ptr [rdi + rsi + 0x48], 0x89
0x41bfbd:	ret	
F 0x40ec5d
0x404ed1:	pop	r14
0x404ed3:	pop	r15
0x404ed5:	ret	
F 0x418ea5
0x418ea5:	mov	dword ptr [rbp + 0x10], esp
0x418ea8:	mov	qword ptr [r13], rbp
0x418eac:	mov	qword ptr [r13 + 8], rbx
0x418eb0:	pop	rbx
0x418eb1:	pop	rbp
0x418eb2:	pop	r12
0x418eb4:	pop	r13
0x418eb6:	pop	r14
0x418eb8:	ret	
F 0x4120e9
0x40499d:	mov	eax, esp
0x40499f:	pop	r12
0x4049a1:	ret	
F 0x417376
0x417376:	shl	eax, cl
0x417378:	sub	edx, eax
0x41737a:	or	byte ptr [r11], dl
0x41737d:	ret	
F 0x41251a
0x41251a:	add	rsp, 0x40
0x41251e:	mov	rax, r12
0x412521:	pop	rbx
0x412522:	pop	rbp
0x412523:	pop	r12
0x412525:	ret	
F 0x41476b
0x404ecf:	pop	r13
0x404ed1:	pop	r14
0x404ed3:	pop	r15
0x404ed5:	ret	
F 0x41ab4f
0x41ab4f:	or	byte ptr [rcx + rcx*4 - 0x20], cl
0x41ab53:	pop	rbx
0x41ab54:	pop	rbp
0x41ab55:	pop	r12
0x41ab57:	ret	
F 0x40d41a
0x40d41a:	add	byte ptr [rax], bl
0x40d41d:	add	byte ptr [rax], al
0x40d41f:	add	rsp, 8
0x40d423:	ret	
F 0x41a6f2
0x407be4:	ret	0x8948
F 0x4142d6
0x4142d6:	add	byte ptr [rax], al
0x4142d8:	add	rsp, 0x128
0x4142df:	pop	rbx
0x4142e0:	pop	rbp
0x4142e1:	pop	r12
0x4142e3:	pop	r13
0x4142e5:	pop	r14
0x4142e7:	pop	r15
0x4142e9:	ret	
F 0x416f53
0x404ecb:	pop	rbx
0x404ecc:	pop	rbp
0x404ecd:	pop	r12
0x404ecf:	pop	r13
0x404ed1:	pop	r14
0x404ed3:	pop	r15
0x404ed5:	ret	
F 0x413a73
0x404ecf:	pop	r13
0x404ed1:	pop	r14
0x404ed3:	pop	r15
0x404ed5:	ret	
F 0x41755e
0x41755e:	xchg	eax, edx
0x41755f:	add	byte ptr [rax], al
0x417561:	add	byte ptr [rax - 0x7d], cl
0x417564:	ret	
F 0x40e9a2
0x40e9a2:	add	eax, 0x111fe
0x40e9a7:	ret	
F 0x40ba67
0x406917:	or	al, ch
0x406919:	ret	
F 0x4152ab
0x4152ab:	stosb	byte ptr [rdi], al
0x4152ac:	shl	eax, 0xa
0x4152af:	add	eax, edx
0x4152b1:	ret	
F 0x407bcf
0x407bcf:	or	bl, al
0x407bd1:	nop	dword ptr [rax]
0x407bd8:	xor	r8d, r8d
0x407bdb:	jmp	0x407bbe
F 0x412263
0x412263:	pop	rcx
0x412264:	rol	dword ptr [rax], cl
0x412266:	add	dl, dh
0x412268:	movups	xmmword ptr [rbx + 0x28], xmm0
0x41226c:	pop	rbx
0x41226d:	ret	
F 0x41049c
0x41049c:	rol	bl, 0x66
0x41049f:	nop	
0x4104a0:	mov	eax, 0x80000001
0x4104a5:	ret	
F 0x413a67
0x413a67:	test	dword ptr [rdx], edi
0x413a69:	add	dword ptr [rax], eax
0x413a6b:	add	rsp, 8
0x413a6f:	pop	rbx
0x413a70:	pop	rbp
0x413a71:	pop	r12
0x413a73:	pop	r13
0x413a75:	pop	r14
0x413a77:	pop	r15
0x413a79:	ret	
F 0x41bbf6
0x404ed2:	pop	rsi
0x404ed3:	pop	r15
0x404ed5:	ret	
F 0x417513
0x417513:	mov	dword ptr [rbp], ebx
0x417516:	mov	eax, r12d
0x417519:	pop	rbx
0x41751a:	pop	rbp
0x41751b:	pop	r12
0x41751d:	ret	
F 0x418d9d
0x404ecd:	pop	r12
0x404ecf:	pop	r13
0x404ed1:	pop	r14
0x404ed3:	pop	r15
0x404ed5:	ret	
F 0x40fb34
0x404016:	ret	
F 0x40eca5
0x40eca5:	rol	bl, 0x66
0x40eca8:	nop	dword ptr [rax + rax]
0x40ecb0:	xor	eax, eax
0x40ecb2:	ret	
F 0x411ab0
0x409c43:	pop	rbp
0x409c44:	pop	r14
0x409c46:	ret	
F 0x4126b1
0x404ed4:	pop	rdi
0x404ed5:	ret	
F 0x4046ec
0x4046ec:	add	al, byte ptr [rax]
0x4046ee:	add	dword ptr [rbp - 0x3d], ebx
0x4046f1:	nop	dword ptr [rax]
0x4046f8:	ret	
F 0x4192c1
0x4192c1:	sub	eax, 0x20ff2
0x4192c6:	add	rsp, 8
0x4192ca:	pop	rbx
0x4192cb:	pop	rbp
0x4192cc:	ret	
F 0x40e9dd
0x40e9dd:	add	byte ptr [rax], al
0x40e9df:	add	byte ptr [rax - 0x73], cl
0x40e9e2:	add	eax, 0x11192
0x40e9e7:	ret	
F 0x4126af
0x404ed2:	pop	rsi
0x404ed3:	pop	r15
0x404ed5:	ret	
F 0x409e46
0x404ecd:	pop	r12
0x404ecf:	pop	r13
0x404ed1:	pop	r14
0x404ed3:	pop	r15
0x404ed5:	ret	
F 0x4115d2
0x404016:	ret	
F 0x4152f9
0x4152f9:	lea	rax, [rax + rdx*8]
0x4152fd:	pop	r12
0x4152ff:	pop	r13
0x415301:	ret	
F 0x40845a
0x40845a:	add	dword ptr [rax], eax
0x40845c:	mov	byte ptr [rip + 0x1ecca], 0x22
0x408463:	add	rsp, 8
0x408467:	ret	
F 0x41c67e
0x41c67e:	mov	qword ptr [rax + 0x28], r12
0x41c682:	mov	qword ptr [rip + 0x1dc47], rax
0x41c689:	pop	rbx
0x41c68a:	pop	rbp
0x41c68b:	pop	r12
0x41c68d:	pop	r13
0x41c68f:	pop	r14
0x41c691:	ret	
F 0x4198c7
0x404016:	ret	
F 0x407e56
0x404016:	ret	
F 0x419240
0x404016:	ret	
F 0x4100c1
0x404016:	ret	
F 0x40d997
0x40d997:	sbb	byte ptr [rcx + rcx*4 - 0x18], cl
0x40d99b:	pop	rbx
0x40d99c:	pop	rbp
0x40d99d:	pop	r12
0x40d99f:	pop	r13
0x40d9a1:	ret	
F 0x419a3a
0x404ed4:	pop	rdi
0x404ed5:	ret	
F 0x411448
0x404ecf:	pop	r13
0x404ed1:	pop	r14
0x404ed3:	pop	r15
0x404ed5:	ret	
F 0x40ed59
0x4046ef:	pop	rbp
0x4046f0:	ret	
F 0x41a6c5
0x41a6c5:	mov	qword ptr [rdx + rcx*8], rsi
0x41a6c9:	add	rsp, 0x18
0x41a6cd:	pop	rbx
0x41a6ce:	pop	rbp
0x41a6cf:	ret	
F 0x41befb
0x404016:	ret	
F 0x40855d
0x40855d:	nop	dword ptr [rax]
0x408560:	sub	qword ptr [rip + 0x1ed48], 1
0x408568:	pop	rbx
0x408569:	ret	
F 0x411be1
0x404016:	ret	
F 0x413b86
0x413b86:	add	byte ptr [rbx + 0x139622d], al
0x413b8c:	add	byte ptr [rcx], al
0x413b8e:	pop	rbx
0x413b8f:	mov	eax, r14d
0x413b92:	pop	rbp
0x413b93:	pop	r12
0x413b95:	pop	r13
0x413b97:	pop	r14
0x413b99:	ret	
F 0x407bec
0x407bec:	mov	eax, r8d
0x407bef:	ret	
F 0x41ba3f
0x41ba3f:	add	byte ptr [rbp + 0x2a], dh
0x41ba42:	add	rsp, 0x18
0x41ba46:	pop	rbx
0x41ba47:	pop	rbp
0x41ba48:	pop	r12
0x41ba4a:	pop	r13
0x41ba4c:	pop	r14
0x41ba4e:	pop	r15
0x41ba50:	ret	
F 0x411d80
0x404ed1:	pop	r14
0x404ed3:	pop	r15
0x404ed5:	ret	
F 0x40f54e
0x404016:	ret	
F 0x404730
0x404730:	add	byte ptr [rax], al
0x404732:	add	byte ptr [rax], al
0x404734:	mov	dword ptr [rip + 0x22b5a], 0
0x40473e:	ret	
F 0x40ea4d
0x40ea4d:	add	byte ptr [rax], al
0x40ea4f:	add	byte ptr [rax - 0x73], cl
0x40ea52:	add	eax, 0x10dd3
0x40ea57:	ret	
F 0x41bf79
0x41bf79:	mov	eax, esp
0x41bf7b:	pop	r12
0x41bf7d:	pop	r13
0x41bf7f:	pop	r14
0x41bf81:	ret	
F 0x419bad
0x419bad:	nop	
0x419bae:	add	eax, 0x83490000
0x419bb3:	ret	0xb918
F 0x40e8a0
0x404012:	add	rsp, 8
0x404016:	ret	
F 0x41666b
0x41666b:	or	byte ptr [rcx + rcx*4 - 0x18], cl
0x41666f:	pop	rbx
0x416670:	pop	rbp
0x416671:	pop	r12
0x416673:	pop	r13
0x416675:	pop	r14
0x416677:	pop	r15
0x416679:	ret	
F 0x417582
0x404016:	ret	
F 0x4115e5
0x404ecf:	pop	r13
0x404ed1:	pop	r14
0x404ed3:	pop	r15
0x404ed5:	ret	
F 0x411acc
0x409c3f:	pop	rbp
0x409c40:	pop	r12
0x409c42:	pop	r13
0x409c44:	pop	r14
0x409c46:	ret	
F 0x40a30a
0x40a30a:	mov	qword ptr [r12 + 8], rax
0x40a30f:	mov	rax, r12
0x40a312:	pop	r12
0x40a314:	ret	
F 0x4171af
0x4171af:	and	al, 8
0x4171b2:	add	r12, 0xc
0x4171b6:	add	rsp, 8
0x4171ba:	mov	rax, r12
0x4171bd:	pop	rbx
0x4171be:	pop	r12
0x4171c0:	ret	
F 0x41901a
0x404ecc:	pop	rbp
0x404ecd:	pop	r12
0x404ecf:	pop	r13
0x404ed1:	pop	r14
0x404ed3:	pop	r15
0x404ed5:	ret	
F 0x41044b
0x404016:	ret	
F 0x41bff1
0x41bff1:	leave	
0x41bff2:	add	rsp, 8
0x41bff6:	pop	rbx
0x41bff7:	pop	rbp
0x41bff8:	ret	
F 0x41c68f
0x409c44:	pop	r14
0x409c46:	ret	
F 0x4117e9
0x40460e:	pop	r12
0x404610:	ret	
F 0x409f78
0x409f78:	mov	rax, qword ptr [rax + 8]
0x409f7c:	ret	
F 0x41c8ed
0x41c8ed:	nop	dword ptr [rax]
0x41c8f0:	ret	
F 0x417590
0x417590:	add	ebx, 1
0x417593:	mov	r12d, 0xa
0x417599:	mov	qword ptr [rdi], rbx
0x41759c:	jmp	0x417516
F 0x4115e7
0x404ed1:	pop	r14
0x404ed3:	pop	r15
0x404ed5:	ret	
F 0x41c6fe
0x409c45:	pop	rsi
0x409c46:	ret	
F 0x40f17f
0x404ed4:	pop	rdi
0x404ed5:	ret	
F 0x41c120
0x404016:	ret	
F 0x40845c
0x40845c:	mov	byte ptr [rip + 0x1ecca], 0x22
0x408463:	add	rsp, 8
0x408467:	ret	
F 0x411ee8
0x404016:	ret	
F 0x416ec0
0x416ec0:	adc	byte ptr [rax - 0x7d], cl
0x416ec3:	ret	0x4808
F 0x41761a
0x404016:	ret	
F 0x411d7e
0x404ecf:	pop	r13
0x404ed1:	pop	r14
0x404ed3:	pop	r15
0x404ed5:	ret	
F 0x4113cf
0x40d2a3:	add	byte ptr [rax - 0x7d], cl
0x40d2a6:	ret	
F 0x4127c8
0x4108bc:	mov	eax, esi
0x4108be:	pop	rbx
0x4108bf:	pop	rbp
0x4108c0:	pop	r12
0x4108c2:	pop	r13
0x4108c4:	pop	r14
0x4108c6:	pop	r15
0x4108c8:	ret	
F 0x40f9e0
0x408627:	add	rsp, 8
0x40862b:	pop	rbx
0x40862c:	pop	rbp
0x40862d:	ret	
F 0x40ba66
0x40ba66:	ror	dword ptr [rax], 0xe8
0x40ba69:	ret	
F 0x417572
0x417572:	add	ebx, 1
0x417575:	mov	r12d, 8
0x41757b:	mov	qword ptr [rdi], rbx
0x41757e:	jmp	0x417516
F 0x410117
0x410117:	sbb	byte ptr [rax + 5], bh
0x41011d:	mov	qword ptr [rbx + 8], rbp
0x410121:	mov	word ptr [rbx], ax
0x410124:	add	rsp, 8
0x410128:	pop	rbx
0x410129:	pop	rbp
0x41012a:	ret	
F 0x40e14a
0x40e14a:	mov	dword ptr [rax], edx
0x40e14c:	pop	rbx
0x40e14d:	mov	qword ptr [rip + 0x1938c], rax
0x40e154:	ret	
F 0x4108c8
0x404016:	ret	
F 0x40f177
0x404ecc:	pop	rbp
0x404ecd:	pop	r12
0x404ecf:	pop	r13
0x404ed1:	pop	r14
0x404ed3:	pop	r15
0x404ed5:	ret	
F 0x41ab51
0x409b12:	mov	eax, esp
0x409b14:	pop	rbx
0x409b15:	pop	rbp
0x409b16:	pop	r12
0x409b18:	ret	
F 0x4158c0
0x404ecf:	pop	r13
0x404ed1:	pop	r14
0x404ed3:	pop	r15
0x404ed5:	ret	
F 0x41b745
0x41b745:	nop	dword ptr [rax]
0x41b748:	xor	eax, eax
0x41b74a:	ret	
F 0x410c5e
0x40466f:	jmp	rax
F 0x411440
0x411440:	add	rsp, 0x18
0x411444:	pop	rbx
0x411445:	pop	rbp
0x411446:	pop	r12
0x411448:	pop	r13
0x41144a:	pop	r14
0x41144c:	pop	r15
0x41144e:	ret	
F 0x40f173
0x40f173:	add	byte ptr [rax], al
0x40f175:	add	byte ptr [rbx + 0x5d], bl
0x40f178:	pop	r12
0x40f17a:	pop	r13
0x40f17c:	pop	r14
0x40f17e:	pop	r15
0x40f180:	ret	
F 0x411d7c
0x404ecd:	pop	r12
0x404ecf:	pop	r13
0x404ed1:	pop	r14
0x404ed3:	pop	r15
0x404ed5:	ret	
F 0x409acf
0x409acf:	add	byte ptr [rbx - 0x7d], bl
0x409ad2:	add	eax, 0x1d550
0x409ad7:	add	dword ptr [rcx + rcx*4 - 0x20], ecx
0x409adb:	pop	rbp
0x409adc:	pop	r12
0x409ade:	ret	
F 0x418da0
0x404ed0:	pop	rbp
0x404ed1:	pop	r14
0x404ed3:	pop	r15
0x404ed5:	ret	
F 0x4108c2
0x404ecf:	pop	r13
0x404ed1:	pop	r14
0x404ed3:	pop	r15
0x404ed5:	ret	
F 0x4120e8
0x40499c:	mov	rax, r12
0x40499f:	pop	r12
0x4049a1:	ret	
F 0x4152ac
0x4152ac:	shl	eax, 0xa
0x4152af:	add	eax, edx
0x4152b1:	ret	
F 0x419a3b
0x404016:	ret	
F 0x4138d0
0x404016:	ret	
F 0x4168ef
0x404ecb:	pop	rbx
0x404ecc:	pop	rbp
0x404ecd:	pop	r12
0x404ecf:	pop	r13
0x404ed1:	pop	r14
0x404ed3:	pop	r15
0x404ed5:	ret	
F 0x4175be
0x4175be:	mov	dword ptr [rdi], ebx
0x4175c0:	jmp	0x417516
F 0x40d413
0x40d413:	mov	dword ptr [rip + 0x26c9f], edx
0x40d419:	mov	dword ptr [rax], 0x58
0x40d41f:	add	rsp, 8
0x40d423:	ret	
F 0x407bd3
0x407bd3:	add	byte ptr [rax], 0
0x407bd6:	add	byte ptr [rax], al
0x407bd8:	xor	r8d, r8d
0x407bdb:	jmp	0x407bbe
F 0x415186
0x415186:	mov	esi, 0x48000250
0x41518b:	mov	dword ptr [rip + 0x250bf], eax
0x415191:	add	dword ptr [rax + 8], 1
0x415195:	add	rsp, 8
0x415199:	ret	
F 0x41492f
0x41492f:	add	byte ptr [rax - 0x77], cl
0x414932:	ror	dword ptr [rax - 0x77], 1
0x414935:	ret	0x8b48
F 0x4046b8
0x404016:	ret	
F 0x41201c
0x40a324:	adc	byte ptr [rcx + 0x5c], al
0x40a327:	ret	
F 0x404a90
0x404a90:	pxor	xmm0, xmm0
0x404a94:	movups	xmmword ptr [rax], xmm0
0x404a97:	movups	xmmword ptr [rax + 0x10], xmm0
0x404a9b:	mov	qword ptr [rbp + 0x10], rax
0x404a9f:	pop	rbp
0x404aa0:	ret	
F 0x409cc5
0x409cc5:	nop	dword ptr [rax]
0x409cc8:	mov	eax, 0x811c9dc5
0x409ccd:	ret	
F 0x418dd4
0x418dd4:	mov	ch, 0xfe
0x418dd6:	dec	dword ptr [rax - 0x77]
0x418dd9:	ret	
F 0x41366e
0x41366e:	and	al, 0x50
0x413670:	add	rsp, 0xc8
0x413677:	pop	rbx
0x413678:	pop	rbp
0x413679:	pop	r12
0x41367b:	pop	r13
0x41367d:	pop	r14
0x41367f:	pop	r15
0x413681:	ret	
F 0x41b711
0x4046ef:	pop	rbp
0x4046f0:	ret	
F 0x417498
0x417498:	add	al, 0x18
0x41749a:	test	eax, eax
0x41749c:	cmove	eax, edx
0x41749f:	pop	rbx
0x4174a0:	ret	
F 0x419bae
0x419bae:	add	eax, 0x83490000
0x419bb3:	ret	0xb918
F 0x40fd2d
0x40fd2d:	add	byte ptr [rbx + 0x5d], bl
0x40fd30:	ret	
F 0x412b59
0x412b59:	add	byte ptr [rax], al
0x412b5b:	add	rsp, 0x48
0x412b5f:	mov	rax, r12
0x412b62:	pop	rbx
0x412b63:	pop	rbp
0x412b64:	pop	r12
0x412b66:	pop	r13
0x412b68:	ret	
F 0x408566
0x4083ce:	add	byte ptr [rcx], al
0x4083d0:	pop	rbx
0x4083d1:	ret	
F 0x40fd25
0x40fd25:	add	byte ptr [rax], al
0x40fd27:	add	rsp, 0x118
0x40fd2e:	pop	rbx
0x40fd2f:	pop	rbp
0x40fd30:	ret	
F 0x40f9e5
0x4046ef:	pop	rbp
0x4046f0:	ret	
F 0x417615
0x4113cd:	add	byte ptr [rax], al
0x4113cf:	add	byte ptr [rax - 0x7d], cl
0x4113d2:	ret	
F 0x40a155
0x409c3f:	pop	rbp
0x409c40:	pop	r12
0x409c42:	pop	r13
0x409c44:	pop	r14
0x409c46:	ret	
F 0x40f9d7
0x40f9d7:	add	byte ptr [rax + 1], bh
0x40f9dd:	mov	word ptr [rbx], ax
0x40f9e0:	add	rsp, 8
0x40f9e4:	pop	rbx
0x40f9e5:	pop	rbp
0x40f9e6:	ret	
F 0x41a337
0x41a337:	mov	qword ptr [rsi], rax
0x41a33a:	mov	rax, qword ptr [rdi + 0x10]
0x41a33e:	ret	
F 0x40ea25
0x407c4a:	add	dword ptr [rax], eax
0x407c4c:	ret	
F 0x4101aa
0x40460e:	pop	r12
0x404610:	ret	
F 0x418d55
0x404ed4:	pop	rdi
0x404ed5:	ret	
F 0x40d363
0x40d363:	mov	dword ptr [rax - 8], ebx
0x40d366:	mov	qword ptr [rip + 0x26d4b], rax
0x40d36d:	add	rsp, 8
0x40d371:	pop	rbx
0x40d372:	pop	rbp
0x40d373:	ret	
F 0x4046aa
0x4046aa:	add	byte ptr [rax - 0x7b], cl
0x4046ad:	sal	byte ptr [rax + rcx - 1], 0xe0
0x4046b2:	nop	word ptr [rax + rax]
0x4046b8:	ret	
F 0x417352
0x417352:	mov	ecx, r8d
0x417355:	or	byte ptr [r11], dl
0x417358:	shl	eax, cl
0x41735a:	not	eax
0x41735c:	or	byte ptr [rdi + r9], al
0x417360:	ret	
F 0x412fbd
0x404016:	ret	
F 0x4083d1
0x404016:	ret	
F 0x40ea2a
0x40ea2a:	test	byte ptr [rax], al
0x40ea2c:	add	byte ptr [rax], al
0x40ea2e:	add	byte ptr [rax], al
0x40ea30:	lea	rax, [rip + 0x11974]
0x40ea37:	ret	
F 0x415040
0x404016:	ret	
F 0x41a725
0x41a725:	adc	eax, 0x117f6
0x41a72a:	add	rsp, 0x18
0x41a72e:	pop	rbx
0x41a72f:	pop	rbp
0x41a730:	ret	
F 0x4083ce
0x4083ce:	add	byte ptr [rcx], al
0x4083d0:	pop	rbx
0x4083d1:	ret	
F 0x416b46
0x40460e:	pop	r12
0x404610:	ret	
F 0x416972
0x4046b2:	nop	word ptr [rax + rax]
0x4046b8:	ret	
F 0x41a789
0x41a789:	add	dword ptr [rax - 0x75], ecx
0x41a78c:	or	al, 0xd0
0x41a78e:	mov	qword ptr [rax + rdx*8], rdi
0x41a792:	mov	qword ptr [rdi], rcx
0x41a795:	ret	
F 0x41a7f2
0x40d99d:	pop	r12
0x40d99f:	pop	r13
0x40d9a1:	ret	
F 0x41ad83
0x404016:	ret	
F 0x409ea6
0x409ea6:	mov	qword ptr [rax - 8], rsi
0x409eaa:	mov	qword ptr [rbx], rdx
0x409ead:	pop	rbx
0x409eae:	ret	
F 0x41a8c1
0x4161cb:	mov	dh, 0x43
0x4161cd:	add	dword ptr [rax - 0x7d], ecx
0x4161d0:	ret	
F 0x40870c
0x40870c:	mov	qword ptr [rsi], r8
0x40870f:	pop	rbx
0x408710:	pop	rbp
0x408711:	ret	
F 0x4139b6
0x404676:	add	byte ptr [rax], al
0x404678:	ret	
F 0x4142e3
0x404ecf:	pop	r13
0x404ed1:	pop	r14
0x404ed3:	pop	r15
0x404ed5:	ret	
F 0x41aec0
0x414862:	add	dword ptr [rax - 0x77], ecx
0x414865:	ret	
F 0x404a97
0x404a97:	movups	xmmword ptr [rax + 0x10], xmm0
0x404a9b:	mov	qword ptr [rbp + 0x10], rax
0x404a9f:	pop	rbp
0x404aa0:	ret	
F 0x40acd0
0x40acd0:	ret	
F 0x41755a
0x41755a:	add	ebx, 2
0x41755d:	jmp	0x4175f4
F 0x4172c8
0x404ed3:	pop	r15
0x404ed5:	ret	
F 0x40e9a1
0x40e9a1:	lea	eax, [rip + 0x111fe]
0x40e9a7:	ret	
F 0x40ea27
0x404016:	ret	
F 0x4122c6
0x411f68:	add	rsp, 8
0x411f6c:	pop	rbx
0x411f6d:	pop	r12
0x411f6f:	ret	
F 0x40ea2d
0x40ea2d:	add	byte ptr [rax], al
0x40ea2f:	add	byte ptr [rax - 0x73], cl
0x40ea32:	add	eax, 0x11974
0x40ea37:	ret	
F 0x418d97
0x409e40:	add	rsp, 8
0x409e44:	pop	rbx
0x409e45:	pop	rbp
0x409e46:	pop	r12
0x409e48:	pop	r13
0x409e4a:	pop	r14
0x409e4c:	pop	r15
0x409e4e:	ret	
F 0x4133ee
0x40f7e4:	dec	dword ptr [rax - 0x77]
0x40f7e7:	ret	
F 0x409a8a
0x409a8a:	add	byte ptr [rcx], al
0x409a8c:	lea	rax, [rip + 0x1d58d]
0x409a93:	ret	
F 0x4152f2
0x4152f2:	ror	dword ptr [rax - 0x7d], 0xc4
0x4152f6:	or	byte ptr [rbx + 0x5d], bl
0x4152f9:	lea	rax, [rax + rdx*8]
0x4152fd:	pop	r12
0x4152ff:	pop	r13
0x415301:	ret	
F 0x41476f
0x404ed3:	pop	r15
0x404ed5:	ret	
F 0x412f86
0x412f86:	ret	
F 0x409d3a
0x409d3a:	ror	byte ptr [rax], 0x48
0x409d3d:	mov	dword ptr [rax - 8], esi
0x409d40:	pop	rbx
0x409d41:	ret	
F 0x4129ce
0x409b11:	mov	rax, r12
0x409b14:	pop	rbx
0x409b15:	pop	rbp
0x409b16:	pop	r12
0x409b18:	ret	
F 0x40e9ff
0x40e9ff:	add	byte ptr [rax - 0x73], cl
0x40ea02:	add	eax, 0x11198
0x40ea07:	ret	
F 0x4104c8
0x4104c8:	add	byte ptr [rdi + 5], dh
0x4104cb:	ret	
F 0x410129
0x4046ef:	pop	rbp
0x4046f0:	ret	
F 0x40d2ba
0x404016:	ret	
F 0x404bb1
0x404016:	ret	
F 0x41afe4
0x41afe4:	add	rsp, 0x60
0x41afe8:	pop	rbx
0x41afe9:	pop	rbp
0x41afea:	pop	r12
0x41afec:	pop	r13
0x41afee:	pop	r14
0x41aff0:	ret	
F 0x4049a1
0x404016:	ret	
F 0x4138c0
0x408625:	add	dword ptr [rax], eax
0x408627:	add	rsp, 8
0x40862b:	pop	rbx
0x40862c:	pop	rbp
0x40862d:	ret	
F 0x4046e9
0x4046e9:	add	eax, 0x22b79
0x4046ee:	add	dword ptr [rbp - 0x3d], ebx
0x4046f1:	nop	dword ptr [rax]
0x4046f8:	ret	
F 0x4085e3
0x404016:	ret	
F 0x407aa3
0x407aa3:	add	byte ptr [rax], 0
0x407aa6:	add	byte ptr [rax], al
0x407aa8:	mov	dword ptr [rip + 0x1f7fa], 0
0x407ab2:	ret	
F 0x412523
0x40460e:	pop	r12
0x404610:	ret	
F 0x418abd
0x418abd:	add	byte ptr [rbp + 7], dh
0x418ac0:	add	rsp, 0x28
0x418ac4:	pop	rbx
0x418ac5:	pop	rbp
0x418ac6:	ret	
F 0x417fc7
0x417fc7:	mov	byte ptr [rcx + rax - 0x3e], cl
0x417fcb:	jmp	rdx
F 0x41ac97
0x404016:	ret	
F 0x4152fd
0x40d99d:	pop	r12
0x40d99f:	pop	r13
0x40d9a1:	ret	
F 0x41be23
0x404016:	ret	
F 0x4144b3
0x4144b3:	add	byte ptr [rax], al
0x4144b5:	pop	rbp
0x4144b6:	pop	r12
0x4144b8:	pop	r13
0x4144ba:	ret	
F 0x4173cb
0x407bed:	mov	eax, eax
0x407bef:	ret	
F 0x411d76
0x411d76:	add	byte ptr [rcx + rcx*4 - 0x20], cl
0x411d7a:	pop	rbx
0x411d7b:	pop	rbp
0x411d7c:	pop	r12
0x411d7e:	pop	r13
0x411d80:	pop	r14
0x411d82:	pop	r15
0x411d84:	ret	
F 0x41a722
0x41a722:	add	byte ptr [rax - 0x77], cl
0x41a725:	adc	eax, 0x117f6
0x41a72a:	add	rsp, 0x18
0x41a72e:	pop	rbx
0x41a72f:	pop	rbp
0x41a730:	ret	
F 0x416cef
0x404ecb:	pop	rbx
0x404ecc:	pop	rbp
0x404ecd:	pop	r12
0x404ecf:	pop	r13
0x404ed1:	pop	r14
0x404ed3:	pop	r15
0x404ed5:	ret	
F 0x417378
0x417378:	sub	edx, eax
0x41737a:	or	byte ptr [r11], dl
0x41737d:	ret	
F 0x414183
0x404ed4:	pop	rdi
0x404ed5:	ret	
F 0x41758f
0x41758f:	add	rbx, 1
0x417593:	mov	r12d, 0xa
0x417599:	mov	qword ptr [rdi], rbx
0x41759c:	jmp	0x417516
F 0x41800d
0x404ed3:	pop	r15
0x404ed5:	ret	
F 0x415a6b
0x404012:	add	rsp, 8
0x404016:	ret	
F 0x419023
0x404016:	ret	
F 0x418da4
0x404ed4:	pop	rdi
0x404ed5:	ret	
F 0x406917
0x406917:	or	al, ch
0x406919:	ret	
F 0x40e1ca
0x40460d:	pop	rbp
0x40460e:	pop	r12
0x404610:	ret	
F 0x40d61a
0x404016:	ret	
F 0x417556
0x4113cd:	add	byte ptr [rax], al
0x4113cf:	add	byte ptr [rax - 0x7d], cl
0x4113d2:	ret	
F 0x414f43
0x404ed3:	pop	r15
0x404ed5:	ret	
F 0x41735e
0x41735e:	add	al, 0xf
0x417360:	ret	
F 0x41a32c
0x41a32c:	adc	eax, dword ptr [rbx + 0x750b187f]
0x41a332:	or	eax, 0x8478b48
0x41a337:	mov	qword ptr [rsi], rax
0x41a33a:	mov	rax, qword ptr [rdi + 0x10]
0x41a33e:	ret	
F 0x41a71f
0x41a71f:	add	eax, 0x48000118
0x41a724:	mov	dword ptr [rip + 0x117f6], edx
0x41a72a:	add	rsp, 0x18
0x41a72e:	pop	rbx
0x41a72f:	pop	rbp
0x41a730:	ret	
F 0x411d78
0x41175e:	mov	eax, esp
0x411760:	pop	rbx
0x411761:	pop	rbp
0x411762:	pop	r12
0x411764:	pop	r13
0x411766:	pop	r14
0x411768:	pop	r15
0x41176a:	ret	
F 0x410629
0x404016:	ret	
F 0x40a32f
0x40a32f:	add	al, ch
0x40a331:	sub	ecx, ebx
0x40a333:	add	byte ptr [rax], al
0x40a335:	mov	rax, r12
0x40a338:	pop	r12
0x40a33a:	ret	
F 0x4149c9
0x40d99f:	pop	r13
0x40d9a1:	ret	
F 0x4049c9
0x404016:	ret	
F 0x41bf80
0x409c45:	pop	rsi
0x409c46:	ret	
F 0x40a312
0x40460e:	pop	r12
0x404610:	ret	
F 0x412b64
0x40d99d:	pop	r12
0x40d99f:	pop	r13
0x40d9a1:	ret	
F 0x41c68d
0x409c42:	pop	r13
0x409c44:	pop	r14
0x409c46:	ret	
F 0x418d9f
0x404ecf:	pop	r13
0x404ed1:	pop	r14
0x404ed3:	pop	r15
0x404ed5:	ret	
F 0x41afea
0x409c40:	pop	r12
0x409c42:	pop	r13
0x409c44:	pop	r14
0x409c46:	ret	
F 0x412400
0x4122c2:	adc	dword ptr [rsp + 0x10], eax
0x4122c6:	add	rsp, 8
0x4122ca:	pop	rbx
0x4122cb:	pop	r12
0x4122cd:	ret	
F 0x41a369
0x408297:	ret	0x8d48
F 0x416f54
0x404ecc:	pop	rbp
0x404ecd:	pop	r12
0x404ecf:	pop	r13
0x404ed1:	pop	r14
0x404ed3:	pop	r15
0x404ed5:	ret	
F 0x41ba45
0x411443:	sbb	byte ptr [rbx + 0x5d], bl
0x411446:	pop	r12
0x411448:	pop	r13
0x41144a:	pop	r14
0x41144c:	pop	r15
0x41144e:	ret	
F 0x404a27
0x404a27:	mov	dword ptr [rax], edx
0x404a29:	pop	rbp
0x404a2a:	ret	
F 0x41c03d
0x41c03d:	add	byte ptr [rax], r8b
0x41c040:	mov	eax, 0xffffffff
0x41c045:	ret	
F 0x416cf6
0x404ed2:	pop	rsi
0x404ed3:	pop	r15
0x404ed5:	ret	
F 0x41b920
0x404016:	ret	
F 0x40fd23
0x40fd23:	mov	bh, 0
0x40fd25:	add	byte ptr [rax], al
0x40fd27:	add	rsp, 0x118
0x40fd2e:	pop	rbx
0x40fd2f:	pop	rbp
0x40fd30:	ret	
F 0x41a348
0x404016:	ret	
F 0x41bbf0
0x404ecc:	pop	rbp
0x404ecd:	pop	r12
0x404ecf:	pop	r13
0x404ed1:	pop	r14
0x404ed3:	pop	r15
0x404ed5:	ret	
F 0x4175a7
0x4175a7:	or	eax, 0x48000000
0x4175ac:	mov	dword ptr [rdi], ebx
0x4175ae:	jmp	0x417516
F 0x412402
0x4122c4:	and	al, 0x10
0x4122c6:	add	rsp, 8
0x4122ca:	pop	rbx
0x4122cb:	pop	r12
0x4122cd:	ret	
F 0x408944
0x40466f:	jmp	rax
F 0x41800a
0x404ed0:	pop	rbp
0x404ed1:	pop	r14
0x404ed3:	pop	r15
0x404ed5:	ret	
F 0x418c6a
0x404ecd:	pop	r12
0x404ecf:	pop	r13
0x404ed1:	pop	r14
0x404ed3:	pop	r15
0x404ed5:	ret	
F 0x40ecaa
0x40ecaa:	test	byte ptr [rax], al
0x40ecac:	add	byte ptr [rax], al
0x40ecae:	add	byte ptr [rax], al
0x40ecb0:	xor	eax, eax
0x40ecb2:	ret	
F 0x41144a
0x404ed1:	pop	r14
0x404ed3:	pop	r15
0x404ed5:	ret	
F 0x409c45
0x409c45:	pop	rsi
0x409c46:	ret	
F 0x40e9e7
0x404016:	ret	
F 0x412b60
0x412b60:	mov	eax, esp
0x412b62:	pop	rbx
0x412b63:	pop	rbp
0x412b64:	pop	r12
0x412b66:	pop	r13
0x412b68:	ret	
F 0x418eb2
0x409c40:	pop	r12
0x409c42:	pop	r13
0x409c44:	pop	r14
0x409c46:	ret	
F 0x404ed5
0x404016:	ret	
F 0x409e4a
0x404ed1:	pop	r14
0x404ed3:	pop	r15
0x404ed5:	ret	
F 0x407bbd
0x407bbd:	ret	0x8348
F 0x412349
0x404016:	ret	
F 0x416f59
0x404ed1:	pop	r14
0x404ed3:	pop	r15
0x404ed5:	ret	
F 0x41ab4d
0x41ab4d:	and	al, 8
0x41ab50:	mov	rax, r12
0x41ab53:	pop	rbx
0x41ab54:	pop	rbp
0x41ab55:	pop	r12
0x41ab57:	ret	
F 0x417555
0x417555:	mov	edi, 0x48000000
0x41755a:	add	ebx, 2
0x41755d:	jmp	0x4175f4
F 0x4172c5
0x404ed0:	pop	rbp
0x404ed1:	pop	r14
0x404ed3:	pop	r15
0x404ed5:	ret	
F 0x4152f1
0x4152f1:	add	al, 0xc1
0x4152f3:	add	rsp, 8
0x4152f7:	pop	rbx
0x4152f8:	pop	rbp
0x4152f9:	lea	rax, [rax + rdx*8]
0x4152fd:	pop	r12
0x4152ff:	pop	r13
0x415301:	ret	
F 0x417558
0x40d2a3:	add	byte ptr [rax - 0x7d], cl
0x40d2a6:	ret	
F 0x41a36f
0x41a36f:	add	byte ptr [rax], al
0x41a371:	movzx	edx, dl
0x41a374:	mov	rax, qword ptr [rax + rdx*8]
0x41a378:	ret	
F 0x4079ec
0x404016:	ret	
F 0x414767
0x404ecb:	pop	rbx
0x404ecc:	pop	rbp
0x404ecd:	pop	r12
0x404ecf:	pop	r13
0x404ed1:	pop	r14
0x404ed3:	pop	r15
0x404ed5:	ret	
F 0x40ea1a
0x40ea1a:	test	byte ptr [rax], al
0x40ea1c:	add	byte ptr [rax], al
0x40ea1e:	add	byte ptr [rax], al
0x40ea20:	lea	rax, [rip + 0x11160]
0x40ea27:	ret	
F 0x4137d8
0x404016:	ret	
F 0x40a2bf
0x40862b:	pop	rbx
0x40862c:	pop	rbp
0x40862d:	ret	
F 0x4152f8
0x4152f8:	pop	rbp
0x4152f9:	lea	rax, [rax + rdx*8]
0x4152fd:	pop	r12
0x4152ff:	pop	r13
0x415301:	ret	
F 0x413734
0x40d7e0:	dec	dword ptr [rax - 0x7d]
0x40d7e3:	ret	
F 0x41c688
0x41c688:	add	byte ptr [rbx + 0x5d], bl
0x41c68b:	pop	r12
0x41c68d:	pop	r13
0x41c68f:	pop	r14
0x41c691:	ret	
F 0x411d7a
0x404ecb:	pop	rbx
0x404ecc:	pop	rbp
0x404ecd:	pop	r12
0x404ecf:	pop	r13
0x404ed1:	pop	r14
0x404ed3:	pop	r15
0x404ed5:	ret	
F 0x418a06
0x418a06:	add	byte ptr [rax], al
0x418a08:	add	byte ptr [rbp + 6], dh
0x418a0b:	add	rsp, 0x20
0x418a0f:	pop	rbx
0x418a10:	ret	
F 0x40862d
0x404016:	ret	
F 0x40a310
0x40499d:	mov	eax, esp
0x40499f:	pop	r12
0x4049a1:	ret	
F 0x41751b
0x40460e:	pop	r12
0x404610:	ret	
F 0x41737d
0x404016:	ret	
F 0x4139e3
0x4139e3:	mov	dword ptr [rip + 0x13b07], eax
0x4139e9:	ret	
F 0x41b4ac
0x4172bc:	sbb	byte ptr [rcx + rcx*4 - 0x20], cl
0x4172c0:	pop	rbx
0x4172c1:	pop	rbp
0x4172c2:	pop	r12
0x4172c4:	pop	r13
0x4172c6:	pop	r14
0x4172c8:	pop	r15
0x4172ca:	ret	
F 0x417444
0x417444:	add	al, 0x40
0x417446:	shl	eax, 2
0x417449:	sub	edx, eax
0x41744b:	cmp	edx, 0xa
0x41744e:	sete	r8b
0x417452:	jmp	0x4173ca
F 0x41a7ec
0x41a7ec:	or	byte ptr [rcx + rcx*4 - 0x20], cl
0x41a7f0:	pop	rbx
0x41a7f1:	pop	rbp
0x41a7f2:	pop	r12
0x41a7f4:	pop	r13
0x41a7f6:	ret	
F 0x417b57
0x417b57:	adc	eax, 0x22734
0x417b5c:	mov	qword ptr [rip + 0x22745], rax
0x417b63:	add	rsp, 8
0x417b67:	ret	
F 0x412267
0x412267:	movsd	qword ptr [rbx + 0x28], xmm0
0x41226c:	pop	rbx
0x41226d:	ret	
F 0x418d53
0x404ed2:	pop	rsi
0x404ed3:	pop	r15
0x404ed5:	ret	
F 0x40e9ae
0x40e9ae:	add	byte ptr [rax], al
0x40e9b0:	lea	rax, [rip + 0x111ba]
0x40e9b7:	ret	
F 0x40ea47
0x404016:	ret	
F 0x40f882
0x40819a:	add	rsp, 0x28
0x40819e:	pop	rbx
0x40819f:	pop	rbp
0x4081a0:	pop	r12
0x4081a2:	pop	r13
0x4081a4:	pop	r14
0x4081a6:	pop	r15
0x4081a8:	ret	
F 0x416a84
0x404ecb:	pop	rbx
0x404ecc:	pop	rbp
0x404ecd:	pop	r12
0x404ecf:	pop	r13
0x404ed1:	pop	r14
0x404ed3:	pop	r15
0x404ed5:	ret	
F 0x40d98f
0x40d98f:	test	dword ptr [rbx + 7], ecx
0x40d992:	add	byte ptr [rax], al
0x40d994:	add	rsp, 0x18
0x40d998:	mov	rax, r13
0x40d99b:	pop	rbx
0x40d99c:	pop	rbp
0x40d99d:	pop	r12
0x40d99f:	pop	r13
0x40d9a1:	ret	
F 0x409ea4
0x409ea4:	add	dword ptr [rax], eax
0x409ea6:	mov	qword ptr [rax - 8], rsi
0x409eaa:	mov	qword ptr [rbx], rdx
0x409ead:	pop	rbx
0x409eae:	ret	
F 0x419e46
0x419e46:	add	eax, dword ptr [rax]
0x419e48:	add	byte ptr [rcx - 0x7d], cl
0x419e4b:	ret	0x4c18
F 0x417bbf
0x404012:	add	rsp, 8
0x404016:	ret	
F 0x40e98f
0x40e98f:	add	byte ptr [rax - 0x73], cl
0x40e992:	add	eax, 0x11216
0x40e997:	ret	
F 0x416811
0x404ecc:	pop	rbp
0x404ecd:	pop	r12
0x404ecf:	pop	r13
0x404ed1:	pop	r14
0x404ed3:	pop	r15
0x404ed5:	ret	
F 0x40ea44
0x40ea44:	adc	dword ptr [rcx], eax
0x40ea46:	add	bl, al
0x40ea48:	nop	dword ptr [rax + rax]
0x40ea50:	lea	rax, [rip + 0x10dd3]
0x40ea57:	ret	
F 0x4122ca
0x4117e8:	pop	rbx
0x4117e9:	pop	r12
0x4117eb:	ret	
F 0x41aec3
0x404016:	ret	
F 0x417ec0
0x417ec0:	movsxd	rdx, dword ptr [rip + 0x223c1]
0x417ec7:	lea	rax, [rip + 0xe6d2]
0x417ece:	mov	rax, qword ptr [rax + rdx*8]
0x417ed2:	ret	
F 0x4121a0
0x4117e8:	pop	rbx
0x4117e9:	pop	r12
0x4117eb:	ret	
F 0x40fd30
0x404016:	ret	
F 0x41b21a
0x4046ef:	pop	rbp
0x4046f0:	ret	
F 0x41403b
0x404016:	ret	
F 0x40ea52
0x40ea52:	add	eax, 0x10dd3
0x40ea57:	ret	
F 0x417b17
0x417b17:	add	byte ptr [rbx + 0x49], bl
0x417b1a:	mov	dword ptr [rsp], eax
0x417b1d:	mov	qword ptr [rbp], rdx
0x417b21:	pop	rbp
0x417b22:	pop	r12
0x417b24:	ret	
F 0x418ac6
0x404016:	ret	
F 0x411b7c
0x409c3f:	pop	rbp
0x409c40:	pop	r12
0x409c42:	pop	r13
0x409c44:	pop	r14
0x409c46:	ret	
F 0x407aa6
0x407aa6:	add	byte ptr [rax], al
0x407aa8:	mov	dword ptr [rip + 0x1f7fa], 0
0x407ab2:	ret	
F 0x411995
0x411759:	add	rsp, 8
0x41175d:	mov	rax, r12
0x411760:	pop	rbx
0x411761:	pop	rbp
0x411762:	pop	r12
0x411764:	pop	r13
0x411766:	pop	r14
0x411768:	pop	r15
0x41176a:	ret	
F 0x412faf
0x412faf:	add	byte ptr [rcx + rcx*4 - 0x10], cl
0x412fb3:	pop	rbx
0x412fb4:	pop	rbp
0x412fb5:	pop	r12
0x412fb7:	pop	r13
0x412fb9:	pop	r14
0x412fbb:	pop	r15
0x412fbd:	ret	
F 0x41a031
0x419e48:	add	byte ptr [rcx - 0x7d], cl
0x419e4b:	ret	0x4c18
F 0x40d236
0x40d236:	mov	eax, esp
0x40d238:	mov	qword ptr [r12 + 0x10], rdx
0x40d23d:	pop	r12
0x40d23f:	ret	
F 0x416e4b
0x4046ef:	pop	rbp
0x4046f0:	ret	
F 0x411bd3
0x411bd3:	add	byte ptr [rax], al
0x411bd5:	add	byte ptr [rbp + 0xa], dh
0x411bd8:	add	rsp, 0x10
0x411bdc:	lea	rax, [rbx + 0x18]
0x411be0:	pop	rbx
0x411be1:	ret	
F 0x40400d
0x40400d:	sal	byte ptr [rdx + rax - 1], 0xd0
0x404012:	add	rsp, 8
0x404016:	ret	
F 0x414037
0x404ed1:	pop	r14
0x404ed3:	pop	r15
0x404ed5:	ret	
F 0x40d368
0x40d368:	add	eax, 0x26d4b
0x40d36d:	add	rsp, 8
0x40d371:	pop	rbx
0x40d372:	pop	rbp
0x40d373:	ret	
F 0x40af17
0x40af17:	or	al, 0xe8
0x40af19:	ret	
F 0x41c26c
0x404ecc:	pop	rbp
0x404ecd:	pop	r12
0x404ecf:	pop	r13
0x404ed1:	pop	r14
0x404ed3:	pop	r15
0x404ed5:	ret	
F 0x40e9f5
0x407c4a:	add	dword ptr [rax], eax
0x407c4c:	ret	
F 0x41b280
0x405aa5:	sbb	byte ptr [rax - 0x77], cl
0x405aa8:	ret	
F 0x409c5c
0x409c43:	pop	rbp
0x409c44:	pop	r14
0x409c46:	ret	
F 0x4175bd
0x4175bd:	mov	qword ptr [rdi], rbx
0x4175c0:	jmp	0x417516
F 0x41bde5
0x404016:	ret	
F 0x418a0b
0x418a0b:	add	rsp, 0x20
0x418a0f:	pop	rbx
0x418a10:	ret	
F 0x414e2a
0x414e2a:	or	byte ptr [r8 - 0x7d], cl
0x414e2e:	ret	
F 0x4101a4
0x4101a4:	add	rsp, 0x10
0x4101a8:	pop	rbx
0x4101a9:	pop	rbp
0x4101aa:	pop	r12
0x4101ac:	ret	
F 0x4168ee
0x414179:	clc	
0x41417a:	pop	rbx
0x41417b:	pop	rbp
0x41417c:	pop	r12
0x41417e:	pop	r13
0x414180:	pop	r14
0x414182:	pop	r15
0x414184:	ret	
F 0x40ff9a
0x404016:	ret	
F 0x413b8c
0x413b8c:	add	byte ptr [rcx], al
0x413b8e:	pop	rbx
0x413b8f:	mov	eax, r14d
0x413b92:	pop	rbp
0x413b93:	pop	r12
0x413b95:	pop	r13
0x413b97:	pop	r14
0x413b99:	ret	
F 0x40ea18
0x40ea18:	nop	dword ptr [rax + rax]
0x40ea20:	lea	rax, [rip + 0x11160]
0x40ea27:	ret	
F 0x411ac5
0x411ac5:	mov	word ptr [rax], es
0x411ac7:	add	byte ptr [rbx + 0x4c], bl
0x411aca:	mov	eax, esi
0x411acc:	pop	rbp
0x411acd:	pop	r12
0x411acf:	pop	r13
0x411ad1:	pop	r14
0x411ad3:	ret	
F 0x409c52
0x409c52:	add	al, 0xe6
0x409c54:	mov	rax, rbx
0x409c57:	pop	rbx
0x409c58:	pop	rbp
0x409c59:	pop	r12
0x409c5b:	pop	r13
0x409c5d:	pop	r14
0x409c5f:	ret	
F 0x4127c2
0x4127c2:	clc	
0x4127c3:	add	rsp, 8
0x4127c7:	mov	rax, r14
0x4127ca:	pop	rbx
0x4127cb:	pop	rbp
0x4127cc:	pop	r12
0x4127ce:	pop	r13
0x4127d0:	pop	r14
0x4127d2:	pop	r15
0x4127d4:	ret	
F 0x41a867
0x40d99b:	pop	rbx
0x40d99c:	pop	rbp
0x40d99d:	pop	r12
0x40d99f:	pop	r13
0x40d9a1:	ret	
F 0x414180
0x404ed1:	pop	r14
0x404ed3:	pop	r15
0x404ed5:	ret	
F 0x40ea30
0x40ea30:	lea	rax, [rip + 0x11974]
0x40ea37:	ret	
F 0x40fb05
0x40862b:	pop	rbx
0x40862c:	pop	rbp
0x40862d:	ret	
F 0x417353
0x417353:	mov	ecx, eax
0x417355:	or	byte ptr [r11], dl
0x417358:	shl	eax, cl
0x41735a:	not	eax
0x41735c:	or	byte ptr [rdi + r9], al
0x417360:	ret	
F 0x40a307
0x40a307:	or	byte ptr [rcx], al
0x40a30a:	mov	qword ptr [r12 + 8], rax
0x40a30f:	mov	rax, r12
0x40a312:	pop	r12
0x40a314:	ret	
F 0x40fd2b
0x40fd2b:	add	dword ptr [rax], eax
0x40fd2d:	add	byte ptr [rbx + 0x5d], bl
0x40fd30:	ret	
F 0x40ea24
0x40ea24:	adc	dword ptr [rcx], eax
0x40ea26:	add	bl, al
0x40ea28:	nop	dword ptr [rax + rax]
0x40ea30:	lea	rax, [rip + 0x11974]
0x40ea37:	ret	
F 0x409d33
0x409d33:	ror	dword ptr [rax - 0x77], 1
0x409d36:	add	al, 0xd1
0x409d38:	add	rax, 8
0x409d3c:	mov	qword ptr [rax - 8], rsi
0x409d40:	pop	rbx
0x409d41:	ret	
F 0x41923d
0x40862a:	or	byte ptr [rbx + 0x5d], bl
0x40862d:	ret	
F 0x414184
0x404016:	ret	
F 0x415f03
0x404ed0:	pop	rbp
0x404ed1:	pop	r14
0x404ed3:	pop	r15
0x404ed5:	ret	
F 0x41bd85
0x404016:	ret	
F 0x4175c7
0x404016:	ret	
F 0x4175a1
0x4175a1:	add	rbx, 1
0x4175a5:	mov	r12d, 0xd
0x4175ab:	mov	qword ptr [rdi], rbx
0x4175ae:	jmp	0x417516
F 0x409e3b
0x409e3b:	sub	ecx, dword ptr [rcx - 0x77]
0x409e3e:	sbb	al, 0xee
0x409e40:	add	rsp, 8
0x409e44:	pop	rbx
0x409e45:	pop	rbp
0x409e46:	pop	r12
0x409e48:	pop	r13
0x409e4a:	pop	r14
0x409e4c:	pop	r15
0x409e4e:	ret	
F 0x417b61
0x40d738:	add	al, byte ptr [rax]
0x40d73a:	add	rsp, 8
0x40d73e:	ret	
F 0x407c49
0x407c49:	test	byte ptr [rcx], 0
0x407c4c:	ret	
F 0x40e9da
0x40e9da:	test	byte ptr [rax], al
0x40e9dc:	add	byte ptr [rax], al
0x40e9de:	add	byte ptr [rax], al
0x40e9e0:	lea	rax, [rip + 0x11192]
0x40e9e7:	ret	
F 0x409c57
0x409c3e:	pop	rbx
0x409c3f:	pop	rbp
0x409c40:	pop	r12
0x409c42:	pop	r13
0x409c44:	pop	r14
0x409c46:	ret	
F 0x410811
0x410811:	lea	rax, [rbx + rbp]
0x410815:	pop	rbx
0x410816:	pop	rbp
0x410817:	ret	
F 0x41b214
0x416e45:	or	byte ptr [rbx + 0x5d], bl
0x416e48:	pop	r12
0x416e4a:	pop	r13
0x416e4c:	ret	
F 0x410618
0x410618:	xor	eax, eax
0x41061a:	mov	edx, 0
0x41061f:	pop	rbx
0x410620:	test	dil, dil
0x410623:	sete	al
0x410626:	cmovne	eax, edx
0x410629:	ret	
F 0x41a7ee
0x412b60:	mov	eax, esp
0x412b62:	pop	rbx
0x412b63:	pop	rbp
0x412b64:	pop	r12
0x412b66:	pop	r13
0x412b68:	ret	
F 0x417e7e
0x417e7e:	or	al, 0x89
0x417e80:	or	al, 0x48
0x417e83:	mov	eax, dword ptr [rbx]
0x417e85:	pop	rbx
0x417e86:	ret	
F 0x40ea3e
0x40ea3e:	add	byte ptr [rax], al
0x40ea40:	lea	rax, [rip + 0x11138]
0x40ea47:	ret	
F 0x411752
0x404016:	ret	
F 0x40e9ea
0x40e9ea:	test	byte ptr [rax], al
0x40e9ec:	add	byte ptr [rax], al
0x40e9ee:	add	byte ptr [rax], al
0x40e9f0:	lea	rax, [rip + 0x111bf]
0x40e9f7:	ret	
F 0x41bf77
0x41bf77:	pop	rbp
0x41bf78:	mov	eax, r12d
0x41bf7b:	pop	r12
0x41bf7d:	pop	r13
0x41bf7f:	pop	r14
0x41bf81:	ret	
F 0x40d379
0x404016:	ret	
F 0x41942c
0x41942c:	cmp	byte ptr [rbx + 0x5d], bl
0x41942f:	pop	r12
0x419431:	pop	r13
0x419433:	pop	r14
0x419435:	pop	r15
0x419437:	ret	
F 0x411f92
0x411ee2:	adc	dword ptr [rsp + 0x10], eax
0x411ee6:	pop	r12
0x411ee8:	ret	
F 0x41a343
0x404673:	add	byte ptr [rax], 0
0x404676:	add	byte ptr [rax], al
0x404678:	ret	
F 0x4170a8
0x404016:	ret	
F 0x40e14c
0x40e14c:	pop	rbx
0x40e14d:	mov	qword ptr [rip + 0x1938c], rax
0x40e154:	ret	
F 0x41b4b7
0x404ed2:	pop	rsi
0x404ed3:	pop	r15
0x404ed5:	ret	
F 0x416a7e
0x416a7e:	nop	
0x416a80:	add	rsp, 8
0x416a84:	pop	rbx
0x416a85:	pop	rbp
0x416a86:	pop	r12
0x416a88:	pop	r13
0x416a8a:	pop	r14
0x416a8c:	pop	r15
0x416a8e:	ret	
F 0x40a31d
0x40a31d:	mov	rax, r12
0x40a320:	movsd	qword ptr [rdi + 0x10], xmm0
0x40a325:	pop	r12
0x40a327:	ret	
F 0x40ea3f
0x40ea3f:	add	byte ptr [rax - 0x73], cl
0x40ea42:	add	eax, 0x11138
0x40ea47:	ret	
F 0x40fb01
0x408627:	add	rsp, 8
0x40862b:	pop	rbx
0x40862c:	pop	rbp
0x40862d:	ret	
F 0x40c8e9
0x404016:	ret	
F 0x414039
0x404ed3:	pop	r15
0x404ed5:	ret	
F 0x40e9a6
0x40e9a6:	add	bl, al
0x40e9a8:	nop	dword ptr [rax + rax]
0x40e9b0:	lea	rax, [rip + 0x111ba]
0x40e9b7:	ret	
F 0x40a4a4
0x404ed0:	pop	rbp
0x404ed1:	pop	r14
0x404ed3:	pop	r15
0x404ed5:	ret	
F 0x418a5e
0x41890e:	add	eax, 0x28c48348
0x418913:	ret	
F 0x41a853
0x404016:	ret	
F 0x408a2e
0x404ed1:	pop	r14
0x404ed3:	pop	r15
0x404ed5:	ret	
F 0x4166c8
0x4166c8:	add	byte ptr [rax], al
0x4166ca:	add	byte ptr [rax], al
0x4166cc:	xor	eax, eax
0x4166ce:	pop	rbx
0x4166cf:	pop	rbp
0x4166d0:	pop	r12
0x4166d2:	ret	
F 0x413b88
0x413b88:	sub	eax, 0x13962
0x413b8d:	add	dword ptr [rbx + 0x44], ebx
0x413b90:	mov	eax, esi
0x413b92:	pop	rbp
0x413b93:	pop	r12
0x413b95:	pop	r13
0x413b97:	pop	r14
0x413b99:	ret	
F 0x404610
0x404016:	ret	
F 0x4103bd
0x404016:	ret	
F 0x418e2c
0x404ecf:	pop	r13
0x404ed1:	pop	r14
0x404ed3:	pop	r15
0x404ed5:	ret	
F 0x418e74
0x418e74:	mov	ah, 0xfe
0x418e76:	dec	dword ptr [rax - 0x7b]
0x418e79:	sal	byte ptr [rbp + rdi + 0x48], 0x83
0x418e7e:	ret	
F 0x40d376
0x40d376:	add	al, bpl
0x40d379:	ret	
F 0x40a2b6
0x40a2b6:	add	byte ptr [rax], al
0x40a2b9:	add	rsp, 8
0x40a2bd:	xor	eax, eax
0x40a2bf:	pop	rbx
0x40a2c0:	pop	rbp
0x40a2c1:	ret	
F 0x418e29
0x404ecc:	pop	rbp
0x404ecd:	pop	r12
0x404ecf:	pop	r13
0x404ed1:	pop	r14
0x404ed3:	pop	r15
0x404ed5:	ret	
F 0x418a5c
0x41890c:	add	byte ptr [rbp + 5], dh
0x41890f:	add	rsp, 0x28
0x418913:	ret	
F 0x41ad71
0x41ad71:	mov	qword ptr [rbx + 0x18], rbp
0x41ad75:	mov	qword ptr [rbx + 0x10], rbp
0x41ad79:	mov	qword ptr [rbx + 0x20], rbp
0x41ad7d:	add	rsp, 8
0x41ad81:	pop	rbx
0x41ad82:	pop	rbp
0x41ad83:	ret	
F 0x40ea01
0x40ea01:	lea	eax, [rip + 0x11198]
0x40ea07:	ret	
F 0x4173d8
0x4173d8:	sbb	byte ptr [r8 - 0x77], r9b
0x4173dc:	ret	0x6948
F 0x413f00
0x410ba8:	add	rsp, 0x98
0x410baf:	pop	rbx
0x410bb0:	pop	rbp
0x410bb1:	pop	r12
0x410bb3:	pop	r13
0x410bb5:	pop	r14
0x410bb7:	pop	r15
0x410bb9:	ret	
F 0x41c10f
0x4046ef:	pop	rbp
0x4046f0:	ret	
F 0x4105b5
0x404016:	ret	
F 0x41ab28
0x41ab28:	add	byte ptr [rbp + 0x15], dh
0x41ab2b:	mov	qword ptr [r12 + 8], 0
0x41ab34:	mov	rax, r12
0x41ab37:	pop	rbx
0x41ab38:	pop	rbp
0x41ab39:	pop	r12
0x41ab3b:	ret	
F 0x410128
0x40862b:	pop	rbx
0x40862c:	pop	rbp
0x40862d:	ret	
F 0x41bef4
0x409c3f:	pop	rbp
0x409c40:	pop	r12
0x409c42:	pop	r13
0x409c44:	pop	r14
0x409c46:	ret	
F 0x408a2f
0x404ed2:	pop	rsi
0x404ed3:	pop	r15
0x404ed5:	ret	
F 0x404673
0x404673:	add	byte ptr [rax], 0
0x404676:	add	byte ptr [rax], al
0x404678:	ret	
F 0x415d99
0x404016:	ret	
F 0x41a868
0x40d99c:	pop	rbp
0x40d99d:	pop	r12
0x40d99f:	pop	r13
0x40d9a1:	ret	
F 0x415862
0x406787:	ret	0x3948
F 0x415f05
0x404ed2:	pop	rsi
0x404ed3:	pop	r15
0x404ed5:	ret	
F 0x41942d
0x404ecb:	pop	rbx
0x404ecc:	pop	rbp
0x404ecd:	pop	r12
0x404ecf:	pop	r13
0x404ed1:	pop	r14
0x404ed3:	pop	r15
0x404ed5:	ret	
F 0x414f77
0x40f7e4:	dec	dword ptr [rax - 0x77]
0x40f7e7:	ret	
F 0x416ced
0x4108bc:	mov	eax, esi
0x4108be:	pop	rbx
0x4108bf:	pop	rbp
0x4108c0:	pop	r12
0x4108c2:	pop	r13
0x4108c4:	pop	r14
0x4108c6:	pop	r15
0x4108c8:	ret	
F 0x418ca7
0x409e40:	add	rsp, 8
0x409e44:	pop	rbx
0x409e45:	pop	rbp
0x409e46:	pop	r12
0x409e48:	pop	r13
0x409e4a:	pop	r14
0x409e4c:	pop	r15
0x409e4e:	ret	
F 0x41a375
0x417ecf:	mov	eax, dword ptr [rax + rdx*8]
0x417ed2:	ret	
F 0x41bbef
0x404ecb:	pop	rbx
0x404ecc:	pop	rbp
0x404ecd:	pop	r12
0x404ecf:	pop	r13
0x404ed1:	pop	r14
0x404ed3:	pop	r15
0x404ed5:	ret	
F 0x418cad
0x404ecd:	pop	r12
0x404ecf:	pop	r13
0x404ed1:	pop	r14
0x404ed3:	pop	r15
0x404ed5:	ret	
F 0x413f0b
0x404ecf:	pop	r13
0x404ed1:	pop	r14
0x404ed3:	pop	r15
0x404ed5:	ret	
F 0x40d614
0x40d614:	add	byte ptr [rbp], cl
0x40d617:	add	byte ptr [rax], al
0x40d619:	pop	rbx
0x40d61a:	ret	
F 0x41a869
0x40d99d:	pop	r12
0x40d99f:	pop	r13
0x40d9a1:	ret	
F 0x40a2c0
0x4046ef:	pop	rbp
0x4046f0:	ret	
F 0x41376b
0x41376b:	adc	byte ptr [rax - 0x7d], cl
0x41376e:	ret	0x4d10
F 0x41209f
0x411ee2:	adc	dword ptr [rsp + 0x10], eax
0x411ee6:	pop	r12
0x411ee8:	ret	
F 0x40d23a
0x40d23a:	push	rsp
0x40d23b:	and	al, 0x10
0x40d23d:	pop	r12
0x40d23f:	ret	
F 0x41bef8
0x409c43:	pop	rbp
0x409c44:	pop	r14
0x409c46:	ret	
F 0x40e9a5
0x407c4a:	add	dword ptr [rax], eax
0x407c4c:	ret	
F 0x414e27
0x414e27:	add	byte ptr [rax - 0x75], cl
0x414e2a:	or	byte ptr [r8 - 0x7d], cl
0x414e2e:	ret	
F 0x4152a6
0x4152a6:	imul	edx, edi, 0xaaaaaaab
0x4152ac:	shl	eax, 0xa
0x4152af:	add	eax, edx
0x4152b1:	ret	
F 0x417ec5
0x417ec5:	add	al, byte ptr [rax]
0x417ec7:	lea	rax, [rip + 0xe6d2]
0x417ece:	mov	rax, qword ptr [rax + rdx*8]
0x417ed2:	ret	
F 0x417bbc
0x417bbc:	mov	dword ptr [rax + 8], ecx
0x417bbf:	add	rsp, 8
0x417bc3:	ret	
F 0x4113cd
0x4113cd:	add	byte ptr [rax], al
0x4113cf:	add	byte ptr [rax - 0x7d], cl
0x4113d2:	ret	
F 0x4173dc
0x4173aa:	ret	0x6948
F 0x413677
0x404ecb:	pop	rbx
0x404ecc:	pop	rbp
0x404ecd:	pop	r12
0x404ecf:	pop	r13
0x404ed1:	pop	r14
0x404ed3:	pop	r15
0x404ed5:	ret	
F 0x41a52f
0x404ecd:	pop	r12
0x404ecf:	pop	r13
0x404ed1:	pop	r14
0x404ed3:	pop	r15
0x404ed5:	ret	
F 0x407bde
0x407bde:	add	eax, 1
0x407be1:	movzx	r8d, dl
0x407be5:	mov	qword ptr [rip + 0x1f6c4], rax
0x407bec:	mov	eax, r8d
0x407bef:	ret	
F 0x40d2b5
0x40d2b5:	add	al, byte ptr [rax]
0x40d2b7:	pop	rbp
0x40d2b8:	pop	r12
0x40d2ba:	ret	
F 0x4171c0
0x404016:	ret	
F 0x4172c6
0x404ed1:	pop	r14
0x404ed3:	pop	r15
0x404ed5:	ret	
F 0x4139e1
0x4139e1:	rol	byte ptr [rcx], 0x89
0x4139e4:	add	eax, 0x13b07
0x4139e9:	ret	
F 0x409ab0
0x409ab0:	sbb	byte ptr [rax + rax], r9b
0x409ab4:	pop	rbx
0x409ab5:	ret	
F 0x407a61
0x404016:	ret	
F 0x41a72f
0x4046ef:	pop	rbp
0x4046f0:	ret	
F 0x409ea0
0x409ea0:	mov	dword ptr [rip + 0x1d43a], ebx
0x409ea6:	mov	qword ptr [rax - 8], rsi
0x409eaa:	mov	qword ptr [rbx], rdx
0x409ead:	pop	rbx
0x409eae:	ret	
F 0x41ba4f
0x404ed4:	pop	rdi
0x404ed5:	ret	
F 0x410bb7
0x404ed3:	pop	r15
0x404ed5:	ret	
F 0x40d32b
0x409ad9:	mov	eax, esp
0x409adb:	pop	rbp
0x409adc:	pop	r12
0x409ade:	ret	
F 0x411b5d
0x409c40:	pop	r12
0x409c42:	pop	r13
0x409c44:	pop	r14
0x409c46:	ret	
F 0x41c272
0x404ed2:	pop	rsi
0x404ed3:	pop	r15
0x404ed5:	ret	
F 0x417628
0x417628:	add	rbx, 1
0x41762c:	mov	r12d, 0x78
0x417632:	mov	qword ptr [rbp], rbx
0x417636:	jmp	0x417516
F 0x40d412
0x40d412:	mov	qword ptr [rip + 0x26c9f], rdx
0x40d419:	mov	dword ptr [rax], 0x58
0x40d41f:	add	rsp, 8
0x40d423:	ret	
F 0x41b916
0x41b916:	mov	eax, r12d
0x41b919:	pop	rbp
0x41b91a:	pop	r12
0x41b91c:	pop	r13
0x41b91e:	pop	r14
0x41b920:	ret	
F 0x413b8f
0x413b8f:	mov	eax, r14d
0x413b92:	pop	rbp
0x413b93:	pop	r12
0x413b95:	pop	r13
0x413b97:	pop	r14
0x413b99:	ret	
F 0x409adb
0x40460d:	pop	rbp
0x40460e:	pop	r12
0x404610:	ret	
F 0x41518b
0x41518b:	mov	dword ptr [rip + 0x250bf], eax
0x415191:	add	dword ptr [rax + 8], 1
0x415195:	add	rsp, 8
0x415199:	ret	
F 0x41901e
0x404ed0:	pop	rbp
0x404ed1:	pop	r14
0x404ed3:	pop	r15
0x404ed5:	ret	
F 0x417ec6
0x417ec6:	add	byte ptr [rax - 0x73], cl
0x417ec9:	add	eax, 0xe6d2
0x417ece:	mov	rax, qword ptr [rax + rdx*8]
0x417ed2:	ret	
F 0x40e9e4
0x40e9e4:	adc	dword ptr [rcx], eax
0x40e9e6:	add	bl, al
0x40e9e8:	nop	dword ptr [rax + rax]
0x40e9f0:	lea	rax, [rip + 0x111bf]
0x40e9f7:	ret	
F 0x416f4f
0x4108ba:	sbb	byte ptr [rcx + rcx*4 - 0x10], cl
0x4108be:	pop	rbx
0x4108bf:	pop	rbp
0x4108c0:	pop	r12
0x4108c2:	pop	r13
0x4108c4:	pop	r14
0x4108c6:	pop	r15
0x4108c8:	ret	
F 0x4175fa
0x4175fa:	mov	dh, 0xe4
0x4175fc:	jmp	0x417516
F 0x408648
0x408648:	sub	eax, 1
0x40864b:	mov	qword ptr [rip + 0x1ec5e], rax
0x408652:	add	rsp, 8
0x408656:	pop	rbx
0x408657:	pop	rbp
0x408658:	ret	
F 0x41afe2
0x41afe2:	add	byte ptr [rax], al
0x41afe4:	add	rsp, 0x60
0x41afe8:	pop	rbx
0x41afe9:	pop	rbp
0x41afea:	pop	r12
0x41afec:	pop	r13
0x41afee:	pop	r14
0x41aff0:	ret	
F 0x41a6c9
0x41a6c9:	add	rsp, 0x18
0x41a6cd:	pop	rbx
0x41a6ce:	pop	rbp
0x41a6cf:	ret	
F 0x407bd9
0x407bd9:	xor	eax, eax
0x407bdb:	jmp	0x407bbe
F 0x418e32
0x404016:	ret	
F 0x41a8f8
0x409c40:	pop	r12
0x409c42:	pop	r13
0x409c44:	pop	r14
0x409c46:	ret	
F 0x409a1d
0x404016:	ret	
F 0x40fd2a
0x40fd2a:	sbb	byte ptr [rcx], al
0x40fd2c:	add	byte ptr [rax], al
0x40fd2e:	pop	rbx
0x40fd2f:	pop	rbp
0x40fd30:	ret	
F 0x4046e8
0x4046e8:	mov	byte ptr [rip + 0x22b79], 1
0x4046ef:	pop	rbp
0x4046f0:	ret	
F 0x40ea75
0x40ea75:	add	byte ptr [rax], al
0x40ea77:	add	al, ch
0x40ea79:	add	esi, dword ptr [rcx - 0x3fce0001]
0x40ea7f:	add	rsp, 8
0x40ea83:	ret	
F 0x412019
0x411ee2:	adc	dword ptr [rsp + 0x10], eax
0x411ee6:	pop	r12
0x411ee8:	ret	
F 0x404601
0x404601:	add	al, ch
0x404603:	pop	rcx
0x404604:	pop	rbp
0x404605:	add	byte ptr [rax], al
0x404607:	add	rsp, 8
0x40460b:	xor	eax, eax
0x40460d:	pop	rbp
0x40460e:	pop	r12
0x404610:	ret	
F 0x417747
0x404ecb:	pop	rbx
0x404ecc:	pop	rbp
0x404ecd:	pop	r12
0x404ecf:	pop	r13
0x404ed1:	pop	r14
0x404ed3:	pop	r15
0x404ed5:	ret	
F 0x416a89
0x404ed0:	pop	rbp
0x404ed1:	pop	r14
0x404ed3:	pop	r15
0x404ed5:	ret	
F 0x418cb0
0x404ed0:	pop	rbp
0x404ed1:	pop	r14
0x404ed3:	pop	r15
0x404ed5:	ret	
F 0x40a344
0x40a344:	jmp	0x40a30a
F 0x408710
0x4046ef:	pop	rbp
0x4046f0:	ret	
F 0x4191da
0x404016:	ret	
F 0x409c42
0x409c42:	pop	r13
0x409c44:	pop	r14
0x409c46:	ret	
F 0x417b56
0x417b56:	mov	dword ptr [rip + 0x22734], edx
0x417b5c:	mov	qword ptr [rip + 0x22745], rax
0x417b63:	add	rsp, 8
0x417b67:	ret	
F 0x409c98
0x407bec:	mov	eax, r8d
0x407bef:	ret	
F 0x41ab49
0x41ab49:	add	byte ptr [rax], al
0x41ab4b:	mov	qword ptr [r12 + 8], rax
0x41ab50:	mov	rax, r12
0x41ab53:	pop	rbx
0x41ab54:	pop	rbp
0x41ab55:	pop	r12
0x41ab57:	ret	
F 0x41a865
0x412b60:	mov	eax, esp
0x412b62:	pop	rbx
0x412b63:	pop	rbp
0x412b64:	pop	r12
0x412b66:	pop	r13
0x412b68:	ret	
F 0x407bc4
0x407bc4:	add	eax, 0x1f6e7
0x407bc9:	mov	eax, r8d
0x407bcc:	add	rsp, 8
0x407bd0:	ret	
F 0x41a723
0x41a723:	mov	qword ptr [rip + 0x117f6], rdx
0x41a72a:	add	rsp, 0x18
0x41a72e:	pop	rbx
0x41a72f:	pop	rbp
0x41a730:	ret	
F 0x40a170
0x40a170:	xor	eax, eax
0x40a172:	pop	rbx
0x40a173:	pop	rbp
0x40a174:	pop	r12
0x40a176:	pop	r13
0x40a178:	pop	r14
0x40a17a:	ret	
F 0x409ead
0x4083d0:	pop	rbx
0x4083d1:	ret	
F 0x41bbf5
0x404ed1:	pop	r14
0x404ed3:	pop	r15
0x404ed5:	ret	
F 0x4175a9
0x4175a9:	add	byte ptr [rax], al
0x4175ab:	mov	qword ptr [rdi], rbx
0x4175ae:	jmp	0x417516
F 0x416674
0x404ed0:	pop	rbp
0x404ed1:	pop	r14
0x404ed3:	pop	r15
0x404ed5:	ret	
F 0x409ccb
0x409ccb:	sbb	al, 0x81
0x409ccd:	ret	
F 0x410664
0x404016:	ret	
F 0x41518a
0x41518a:	mov	qword ptr [rip + 0x250bf], rax
0x415191:	add	dword ptr [rax + 8], 1
0x415195:	add	rsp, 8
0x415199:	ret	
F 0x417515
0x417515:	add	byte ptr [rcx + rcx*4 - 0x20], al
0x417519:	pop	rbx
0x41751a:	pop	rbp
0x41751b:	pop	r12
0x41751d:	ret	
F 0x411ee1
0x411ee1:	movups	xmmword ptr [rsp + 0x10], xmm0
0x411ee6:	pop	r12
0x411ee8:	ret	
F 0x40e9af
0x40e9af:	add	byte ptr [rax - 0x73], cl
0x40e9b2:	add	eax, 0x111ba
0x40e9b7:	ret	
F 0x407e4a
0x404ec9:	add	byte ptr [rax], al
0x404ecb:	pop	rbx
0x404ecc:	pop	rbp
0x404ecd:	pop	r12
0x404ecf:	pop	r13
0x404ed1:	pop	r14
0x404ed3:	pop	r15
0x404ed5:	ret	
F 0x416a83
0x409e43:	or	byte ptr [rbx + 0x5d], bl
0x409e46:	pop	r12
0x409e48:	pop	r13
0x409e4a:	pop	r14
0x409e4c:	pop	r15
0x409e4e:	ret	
F 0x415712
0x414e2a:	or	byte ptr [r8 - 0x7d], cl
0x414e2e:	ret	
F 0x411449
0x404ed0:	pop	rbp
0x404ed1:	pop	r14
0x404ed3:	pop	r15
0x404ed5:	ret	
F 0x41c6f1
0x41c6f1:	mov	qword ptr [rip + 0x1dbd8], rax
0x41c6f8:	pop	rbp
0x41c6f9:	pop	r12
0x41c6fb:	pop	r13
0x41c6fd:	pop	r14
0x41c6ff:	ret	
F 0x409a8d
0x409a8d:	lea	eax, [rip + 0x1d58d]
0x409a93:	ret	
F 0x40a156
0x409c40:	pop	r12
0x409c42:	pop	r13
0x409c44:	pop	r14
0x409c46:	ret	
F 0x40d23d
0x40460e:	pop	r12
0x404610:	ret	
F 0x40a322
0x40a322:	adc	dword ptr [rdi + 0x10], eax
0x40a325:	pop	r12
0x40a327:	ret	
F 0x417d29
0x404ed3:	pop	r15
0x404ed5:	ret	
F 0x41bd77
0x41bd77:	xor	byte ptr [rax - 1], bh
0x41bd7d:	pop	rbx
0x41bd7e:	pop	rbp
0x41bd7f:	pop	r12
0x41bd81:	pop	r13
0x41bd83:	pop	r14
0x41bd85:	ret	
F 0x409aa8
0x409aa8:	mov	dword ptr [rax + 8], 1
0x409aaf:	mov	byte ptr [rax + rbx + 0xc], 0
0x409ab4:	pop	rbx
0x409ab5:	ret	
F 0x404a9c
0x404a9c:	mov	dword ptr [rbp + 0x10], eax
0x404a9f:	pop	rbp
0x404aa0:	ret	
F 0x40ea51
0x40ea51:	lea	eax, [rip + 0x10dd3]
0x40ea57:	ret	
F 0x40e6a5
0x404016:	ret	
F 0x4127cf
0x404ed0:	pop	rbp
0x404ed1:	pop	r14
0x404ed3:	pop	r15
0x404ed5:	ret	
F 0x40d41f
0x404012:	add	rsp, 8
0x404016:	ret	
F 0x40e9fc
0x40e9fc:	add	byte ptr [rax], al
0x40e9fe:	add	byte ptr [rax], al
0x40ea00:	lea	rax, [rip + 0x11198]
0x40ea07:	ret	
F 0x417619
0x417619:	add	ebx, 3
0x41761c:	lea	r12d, [rax + r12*8 - 0x30]
0x417621:	jmp	0x4175f4
F 0x40ea4c
0x40ea4c:	add	byte ptr [rax], al
0x40ea4e:	add	byte ptr [rax], al
0x40ea50:	lea	rax, [rip + 0x10dd3]
0x40ea57:	ret	
F 0x40d2b0
0x40d2b0:	mov	qword ptr [rip + 0x26e01], rax
0x40d2b7:	pop	rbp
0x40d2b8:	pop	r12
0x40d2ba:	ret	
F 0x41c10a
0x408627:	add	rsp, 8
0x40862b:	pop	rbx
0x40862c:	pop	rbp
0x40862d:	ret	
F 0x40f993
0x40f993:	mov	dword ptr [rip + 0x24786], r8d
0x40f99a:	ret	
F 0x4046f8
0x404016:	ret	
F 0x4123fb
0x4122bd:	mov	eax, esp
0x4122bf:	movsd	qword ptr [r12 + 0x10], xmm0
0x4122c6:	add	rsp, 8
0x4122ca:	pop	rbx
0x4122cb:	pop	r12
0x4122cd:	ret	
F 0x414f41
0x404ed1:	pop	r14
0x404ed3:	pop	r15
0x404ed5:	ret	
F 0x4108c7
0x404ed4:	pop	rdi
0x404ed5:	ret	
F 0x416409
0x404016:	ret	
F 0x417396
0x417396:	add	ecx, dword ptr [rax + 0xf]
0x417399:	scasd	eax, dword ptr [rdi]
0x41739a:	ret	0x8348
F 0x40a153
0x40a153:	neg	eax
0x40a155:	pop	rbp
0x40a156:	pop	r12
0x40a158:	pop	r13
0x40a15a:	pop	r14
0x40a15c:	ret	
F 0x40a315
0x40a315:	nop	dword ptr [rax]
0x40a318:	movsd	xmm0, qword ptr [rsi + 0x10]
0x40a31d:	mov	rax, r12
0x40a320:	movsd	qword ptr [rdi + 0x10], xmm0
0x40a325:	pop	r12
0x40a327:	ret	
F 0x40861a
0x40861a:	add	byte ptr [rax + 0x10740038], al
0x408620:	mov	qword ptr [rip + 0x1ec89], rax
0x408627:	add	rsp, 8
0x40862b:	pop	rbx
0x40862c:	pop	rbp
0x40862d:	ret	
F 0x41402e
0x407e49:	add	dword ptr [rax], eax
0x407e4b:	add	byte ptr [rbx + 0x5d], bl
0x407e4e:	pop	r12
0x407e50:	pop	r13
0x407e52:	pop	r14
0x407e54:	pop	r15
0x407e56:	ret	
F 0x404a91
0x404a91:	pxor	mm0, mm0
0x404a94:	movups	xmmword ptr [rax], xmm0
0x404a97:	movups	xmmword ptr [rax + 0x10], xmm0
0x404a9b:	mov	qword ptr [rbp + 0x10], rax
0x404a9f:	pop	rbp
0x404aa0:	ret	
F 0x4168f7
0x404ed3:	pop	r15
0x404ed5:	ret	
F 0x40a324
0x40a324:	adc	byte ptr [rcx + 0x5c], al
0x40a327:	ret	
F 0x4054d9
0x404016:	ret	
F 0x40d60c
0x40d60c:	mov	dword ptr [rax + 8], 5
0x40d613:	mov	dword ptr [rax], 0x4d
0x40d619:	pop	rbx
0x40d61a:	ret	
F 0x412261
0x412261:	pop	rsi
0x412262:	add	eax, 0xd359
0x412267:	movsd	qword ptr [rbx + 0x28], xmm0
0x41226c:	pop	rbx
0x41226d:	ret	
F 0x412eb3
0x4066c3:	ret	0x8b48
F 0x416809
0x416809:	add	rsp, 0x38
0x41680d:	mov	rax, r12
0x416810:	pop	rbx
0x416811:	pop	rbp
0x416812:	pop	r12
0x416814:	pop	r13
0x416816:	pop	r14
0x416818:	pop	r15
0x41681a:	ret	
F 0x41c6ee
0x41c6ee:	xor	byte ptr [rbx + 0x48], bl
0x41c6f2:	mov	dword ptr [rip + 0x1dbd8], eax
0x41c6f8:	pop	rbp
0x41c6f9:	pop	r12
0x41c6fb:	pop	r13
0x41c6fd:	pop	r14
0x41c6ff:	ret	
F 0x40a31a
0x40a31a:	adc	byte ptr [rsi + 0x10], al
0x40a31d:	mov	rax, r12
0x40a320:	movsd	qword ptr [rdi + 0x10], xmm0
0x40a325:	pop	r12
0x40a327:	ret	
F 0x4192c0
0x4192c0:	mov	dword ptr [rip + 0x20ff2], ebp
0x4192c6:	add	rsp, 8
0x4192ca:	pop	rbx
0x4192cb:	pop	rbp
0x4192cc:	ret	
F 0x408621
0x408621:	mov	dword ptr [rip + 0x1ec89], eax
0x408627:	add	rsp, 8
0x40862b:	pop	rbx
0x40862c:	pop	rbp
0x40862d:	ret	
F 0x40b17d
0x404016:	ret	
F 0x413f08
0x404ecc:	pop	rbp
0x404ecd:	pop	r12
0x404ecf:	pop	r13
0x404ed1:	pop	r14
0x404ed3:	pop	r15
0x404ed5:	ret	
F 0x40d291
0x404016:	ret	
F 0x40ec58
0x404ecc:	pop	rbp
0x404ecd:	pop	r12
0x404ecf:	pop	r13
0x404ed1:	pop	r14
0x404ed3:	pop	r15
0x404ed5:	ret	
F 0x4142de
0x404eca:	add	byte ptr [rbx + 0x5d], bl
0x404ecd:	pop	r12
0x404ecf:	pop	r13
0x404ed1:	pop	r14
0x404ed3:	pop	r15
0x404ed5:	ret	
F 0x408a27
0x40819d:	sub	byte ptr [rbx + 0x5d], bl
0x4081a0:	pop	r12
0x4081a2:	pop	r13
0x4081a4:	pop	r14
0x4081a6:	pop	r15
0x4081a8:	ret	
F 0x40f178
0x404ecd:	pop	r12
0x404ecf:	pop	r13
0x404ed1:	pop	r14
0x404ed3:	pop	r15
0x404ed5:	ret	
F 0x40c159
0x404016:	ret	
F 0x409b31
0x409b31:	add	dword ptr [rip + 0x1d4f0], 1
0x409b38:	mov	rax, r12
0x409b3b:	pop	rbp
0x409b3c:	pop	r12
0x409b3e:	ret	
F 0x416808
0x416808:	add	rsp, 0x38
0x41680d:	mov	rax, r12
0x416810:	pop	rbx
0x416811:	pop	rbp
0x416812:	pop	r12
0x416814:	pop	r13
0x416816:	pop	r14
0x416818:	pop	r15
0x41681a:	ret	
F 0x413674
0x40f173:	add	byte ptr [rax], al
0x40f175:	add	byte ptr [rbx + 0x5d], bl
0x40f178:	pop	r12
0x40f17a:	pop	r13
0x40f17c:	pop	r14
0x40f17e:	pop	r15
0x40f180:	ret	
F 0x414030
0x404eca:	add	byte ptr [rbx + 0x5d], bl
0x404ecd:	pop	r12
0x404ecf:	pop	r13
0x404ed1:	pop	r14
0x404ed3:	pop	r15
0x404ed5:	ret	
F 0x416671
0x404ecd:	pop	r12
0x404ecf:	pop	r13
0x404ed1:	pop	r14
0x404ed3:	pop	r15
0x404ed5:	ret	
F 0x417e87
0x417e87:	nop	word ptr [rax + rax]
0x417e90:	mov	rax, qword ptr [rbx]
0x417e93:	mov	qword ptr [rdi], rbx
0x417e96:	pop	rbx
0x417e97:	ret	
F 0x416f51
0x4108bc:	mov	eax, esi
0x4108be:	pop	rbx
0x4108bf:	pop	rbp
0x4108c0:	pop	r12
0x4108c2:	pop	r13
0x4108c4:	pop	r14
0x4108c6:	pop	r15
0x4108c8:	ret	
F 0x417581
0x417581:	add	ebx, 1
0x417584:	mov	r12d, 0xc
0x41758a:	mov	qword ptr [rdi], rbx
0x41758d:	jmp	0x417516
F 0x413a71
0x404ecd:	pop	r12
0x404ecf:	pop	r13
0x404ed1:	pop	r14
0x404ed3:	pop	r15
0x404ed5:	ret	
F 0x41059d
0x4083d0:	pop	rbx
0x4083d1:	ret	
F 0x4199d1
0x404016:	ret	
F 0x419ae9
0x419ae9:	or	al, 1
0x419aec:	add	byte ptr [rax], al
0x419aee:	add	byte ptr [rcx - 0x7d], cl
0x419af1:	ret	0x4818
F 0x409f0f
0x404016:	ret	
F 0x40d28e
0x40d28e:	add	byte ptr [rax + 1], cl
0x40d291:	ret	
F 0x4127c1
0x4127c1:	clc	
0x4127c3:	add	rsp, 8
0x4127c7:	mov	rax, r14
0x4127ca:	pop	rbx
0x4127cb:	pop	rbp
0x4127cc:	pop	r12
0x4127ce:	pop	r13
0x4127d0:	pop	r14
0x4127d2:	pop	r15
0x4127d4:	ret	
F 0x40e992
0x40e992:	add	eax, 0x11216
0x40e997:	ret	
F 0x408463
0x404012:	add	rsp, 8
0x404016:	ret	
F 0x41a33f
0x40481f:	nop	
0x404820:	ret	
F 0x411a69
0x404016:	ret	
F 0x40a30d
0x40a30d:	and	al, 8
0x40a30f:	mov	rax, r12
0x40a312:	pop	r12
0x40a314:	ret	
F 0x409ade
0x404016:	ret	
F 0x416d7e
0x416d7e:	sal	byte ptr [rdi + rcx + 0x48], 0x39
0x416d83:	push	rax
0x416d84:	or	byte ptr [rbp - 0xf], dh
0x416d87:	mov	rax, qword ptr [rax + 0x10]
0x416d8b:	add	rax, 0xc
0x416d8f:	ret	
F 0x417512
0x417512:	mov	qword ptr [rbp], rbx
0x417516:	mov	eax, r12d
0x417519:	pop	rbx
0x41751a:	pop	rbp
0x41751b:	pop	r12
0x41751d:	ret	
F 0x409b3e
0x404016:	ret	
F 0x418d4e
0x404ecd:	pop	r12
0x404ecf:	pop	r13
0x404ed1:	pop	r14
0x404ed3:	pop	r15
0x404ed5:	ret	
F 0x409f9b
0x409f9b:	add	eax, 0x1d090
0x409fa0:	ret	
F 0x407e47
0x407e47:	mov	eax, 0x132
0x407e4c:	pop	rbx
0x407e4d:	pop	rbp
0x407e4e:	pop	r12
0x407e50:	pop	r13
0x407e52:	pop	r14
0x407e54:	pop	r15
0x407e56:	ret	
F 0x416c59
0x416c59:	sal	byte ptr [rsp + rsi + 0x48], 0x89
0x416c5e:	ret	
F 0x409c43
0x409c43:	pop	rbp
0x409c44:	pop	r14
0x409c46:	ret	
F 0x4081a5
0x404ed2:	pop	rsi
0x404ed3:	pop	r15
0x404ed5:	ret	
F 0x414084
0x414084:	ret	0xc748
F 0x41a05f
0x419a64:	ret	0x4818
F 0x407bc6
0x407bc6:	test	byte ptr [rcx], 0
0x407bc9:	mov	eax, r8d
0x407bcc:	add	rsp, 8
0x407bd0:	ret	
F 0x409d30
0x409d30:	mov	rsi, qword ptr [rcx + rdx*8]
0x409d34:	mov	qword ptr [rcx + rdx*8], rax
0x409d38:	add	rax, 8
0x409d3c:	mov	qword ptr [rax - 8], rsi
0x409d40:	pop	rbx
0x409d41:	ret	
F 0x41251f
0x409b12:	mov	eax, esp
0x409b14:	pop	rbx
0x409b15:	pop	rbp
0x409b16:	pop	r12
0x409b18:	ret	
F 0x41b4b9
0x404ed4:	pop	rdi
0x404ed5:	ret	
F 0x40d3c0
0x4046ef:	pop	rbp
0x4046f0:	ret	
F 0x4152a8
0x4152a8:	stosd	dword ptr [rdi], eax
0x4152a9:	stosb	byte ptr [rdi], al
0x4152aa:	stosb	byte ptr [rdi], al
0x4152ab:	stosb	byte ptr [rdi], al
0x4152ac:	shl	eax, 0xa
0x4152af:	add	eax, edx
0x4152b1:	ret	
F 0x40e991
0x40e991:	lea	eax, [rip + 0x11216]
0x40e997:	ret	
F 0x41762a
0x404016:	ret	
F 0x40893f
0x40893f:	test	dword ptr [rax], eax
0x408941:	add	rax, rbp
0x408944:	jmp	rax
F 0x413673
0x413673:	enter	0, 0
0x413677:	pop	rbx
0x413678:	pop	rbp
0x413679:	pop	r12
0x41367b:	pop	r13
0x41367d:	pop	r14
0x41367f:	pop	r15
0x413681:	ret	
F 0x417bbb
0x417bbb:	mov	qword ptr [rax + 8], rcx
0x417bbf:	add	rsp, 8
0x417bc3:	ret	
F 0x412013
0x411edc:	mov	rax, r12
0x411edf:	movsd	qword ptr [r12 + 0x10], xmm0
0x411ee6:	pop	r12
0x411ee8:	ret	
F 0x41061a
0x41061a:	mov	edx, 0
0x41061f:	pop	rbx
0x410620:	test	dil, dil
0x410623:	sete	al
0x410626:	cmovne	eax, edx
0x410629:	ret	
F 0x411f15
0x40a324:	adc	byte ptr [rcx + 0x5c], al
0x40a327:	ret	
F 0x4121a3
0x404016:	ret	
F 0x415c9a
0x404016:	ret	
F 0x417354
0x417354:	rol	dword ptr [rcx + 8], 0x13
0x417358:	shl	eax, cl
0x41735a:	not	eax
0x41735c:	or	byte ptr [rdi + r9], al
0x417360:	ret	
F 0x417bb5
0x417bb5:	mov	dword ptr [rax], 0
0x417bbb:	mov	qword ptr [rax + 8], rcx
0x417bbf:	add	rsp, 8
0x417bc3:	ret	
F 0x40f88e
0x404ed3:	pop	r15
0x404ed5:	ret	
F 0x411bdc
0x411bdc:	lea	rax, [rbx + 0x18]
0x411be0:	pop	rbx
0x411be1:	ret	
F 0x414f32
0x414f32:	add	byte ptr [rax], al
0x414f34:	add	rsp, 0x28
0x414f38:	mov	rax, r14
0x414f3b:	pop	rbx
0x414f3c:	pop	rbp
0x414f3d:	pop	r12
0x414f3f:	pop	r13
0x414f41:	pop	r14
0x414f43:	pop	r15
0x414f45:	ret	
F 0x418d52
0x404ed1:	pop	r14
0x404ed3:	pop	r15
0x404ed5:	ret	
F 0x418eb5
0x409c43:	pop	rbp
0x409c44:	pop	r14
0x409c46:	ret	
F 0x41b283
0x404016:	ret	
F 0x41a7f0
0x40d99b:	pop	rbx
0x40d99c:	pop	rbp
0x40d99d:	pop	r12
0x40d99f:	pop	r13
0x40d9a1:	ret	
F 0x41773f
0x41773f:	mov	eax, dword ptr [rsp + 8]
0x417743:	add	rsp, 0x28
0x417747:	pop	rbx
0x417748:	pop	rbp
0x417749:	pop	r12
0x41774b:	pop	r13
0x41774d:	pop	r14
0x41774f:	pop	r15
0x417751:	ret	
F 0x41760a
0x404016:	ret	
F 0x411759
0x411759:	add	rsp, 8
0x41175d:	mov	rax, r12
0x411760:	pop	rbx
0x411761:	pop	rbp
0x411762:	pop	r12
0x411764:	pop	r13
0x411766:	pop	r14
0x411768:	pop	r15
0x41176a:	ret	
F 0x411b5a
0x411aaa:	mov	eax, esi
0x411aac:	pop	rbp
0x411aad:	pop	r12
0x411aaf:	pop	r13
0x411ab1:	pop	r14
0x411ab3:	ret	
F 0x418ac4
0x40862b:	pop	rbx
0x40862c:	pop	rbp
0x40862d:	ret	
F 0x41b27c
0x41b27c:	dec	dword ptr [rbx + rcx*4 + 0x60]
0x41b280:	sbb	byte ptr [rax - 0x77], cl
0x41b283:	ret	
F 0x41ad80
0x40862a:	or	byte ptr [rbx + 0x5d], bl
0x40862d:	ret	
F 0x40d2b1
0x40d2b1:	mov	dword ptr [rip + 0x26e01], eax
0x40d2b7:	pop	rbp
0x40d2b8:	pop	r12
0x40d2ba:	ret	
F 0x4187e9
0x404016:	ret	
F 0x4142e5
0x404ed1:	pop	r14
0x404ed3:	pop	r15
0x404ed5:	ret	
F 0x410626
0x410626:	cmovne	eax, edx
0x410629:	ret	
F 0x411765
0x404ed0:	pop	rbp
0x404ed1:	pop	r14
0x404ed3:	pop	r15
0x404ed5:	ret	
F 0x418f44
0x404016:	ret	
F 0x4173ca
0x407bec:	mov	eax, r8d
0x407bef:	ret	
F 0x41c0b2
0x404016:	ret	
F 0x4123f4
0x404016:	ret	
F 0x41a52e
0x404ecc:	pop	rbp
0x404ecd:	pop	r12
0x404ecf:	pop	r13
0x404ed1:	pop	r14
0x404ed3:	pop	r15
0x404ed5:	ret	
F 0x41b219
0x40d99f:	pop	r13
0x40d9a1:	ret	
F 0x4165df
0x40d2a3:	add	byte ptr [rax - 0x7d], cl
0x40d2a6:	ret	
F 0x4120a5
0x404016:	ret	
F 0x40f9e6
0x404016:	ret	
F 0x41942f
0x404ecd:	pop	r12
0x404ecf:	pop	r13
0x404ed1:	pop	r14
0x404ed3:	pop	r15
0x404ed5:	ret	
F 0x40eca2
0x40eca2:	or	byte ptr [rdi], cl
0x40eca4:	mov	dh, 0xc0
0x40eca6:	ret	
F 0x4168f1
0x404ecd:	pop	r12
0x404ecf:	pop	r13
0x404ed1:	pop	r14
0x404ed3:	pop	r15
0x404ed5:	ret	
F 0x40e503
0x404016:	ret	
F 0x41758b
0x41758b:	mov	dword ptr [rdi], ebx
0x41758d:	jmp	0x417516
F 0x41bd9e
0x41bd9e:	add	byte ptr [rbx - 0x76f3db94], cl
0x41bda4:	ret	
F 0x40e6a3
0x40460e:	pop	r12
0x404610:	ret	
F 0x407c44
0x407c44:	pop	rbx
0x407c45:	mov	qword ptr [rip + 0x1f664], rdx
0x407c4c:	ret	
F 0x408625
0x408625:	add	dword ptr [rax], eax
0x408627:	add	rsp, 8
0x40862b:	pop	rbx
0x40862c:	pop	rbp
0x40862d:	ret	
F 0x409c5f
0x404016:	ret	
F 0x411ee0
0x411ee0:	movups	xmmword ptr [r12 + 0x10], xmm0
0x411ee6:	pop	r12
0x411ee8:	ret	
F 0x40d235
0x40d235:	mov	rax, r12
0x40d238:	mov	qword ptr [r12 + 0x10], rdx
0x40d23d:	pop	r12
0x40d23f:	ret	
F 0x41ad81
0x40862b:	pop	rbx
0x40862c:	pop	rbp
0x40862d:	ret	
F 0x4171b0
0x4171b0:	and	al, 8
0x4171b2:	add	r12, 0xc
0x4171b6:	add	rsp, 8
0x4171ba:	mov	rax, r12
0x4171bd:	pop	rbx
0x4171be:	pop	r12
0x4171c0:	ret	
F 0x40d411
0x40d411:	or	byte ptr [rax - 0x77], cl
0x40d414:	adc	eax, 0x26c9f
0x40d419:	mov	dword ptr [rax], 0x58
0x40d41f:	add	rsp, 8
0x40d423:	ret	
F 0x417743
0x40819a:	add	rsp, 0x28
0x40819e:	pop	rbx
0x40819f:	pop	rbp
0x4081a0:	pop	r12
0x4081a2:	pop	r13
0x4081a4:	pop	r14
0x4081a6:	pop	r15
0x4081a8:	ret	
F 0x41b216
0x40d99c:	pop	rbp
0x40d99d:	pop	r12
0x40d99f:	pop	r13
0x40d9a1:	ret	
F 0x411b62
0x409c45:	pop	rsi
0x409c46:	ret	
F 0x41c6f0
0x41c6f0:	pop	rbx
0x41c6f1:	mov	qword ptr [rip + 0x1dbd8], rax
0x41c6f8:	pop	rbp
0x41c6f9:	pop	r12
0x41c6fb:	pop	r13
0x41c6fd:	pop	r14
0x41c6ff:	ret	
F 0x41901d
0x404ecf:	pop	r13
0x404ed1:	pop	r14
0x404ed3:	pop	r15
0x404ed5:	ret	
F 0x40f175
0x404eca:	add	byte ptr [rbx + 0x5d], bl
0x404ecd:	pop	r12
0x404ecf:	pop	r13
0x404ed1:	pop	r14
0x404ed3:	pop	r15
0x404ed5:	ret	
F 0x417d21
0x404ecb:	pop	rbx
0x404ecc:	pop	rbp
0x404ecd:	pop	r12
0x404ecf:	pop	r13
0x404ed1:	pop	r14
0x404ed3:	pop	r15
0x404ed5:	ret	
F 0x4129cf
0x409b12:	mov	eax, esp
0x409b14:	pop	rbx
0x409b15:	pop	rbp
0x409b16:	pop	r12
0x409b18:	ret	
F 0x412fb3
0x404ecb:	pop	rbx
0x404ecc:	pop	rbp
0x404ecd:	pop	r12
0x404ecf:	pop	r13
0x404ed1:	pop	r14
0x404ed3:	pop	r15
0x404ed5:	ret	
F 0x409cc7
0x409cc7:	add	byte ptr [rax - 0x7ee3623b], bh
0x409ccd:	ret	
F 0x409dd5
0x404016:	ret	
F 0x40ea37
0x404016:	ret	
F 0x41bda4
0x404016:	ret	
F 0x41a8fc
0x409c44:	pop	r14
0x409c46:	ret	
F 0x40e9c7
0x404016:	ret	
F 0x413f05
0x404ec9:	add	byte ptr [rax], al
0x404ecb:	pop	rbx
0x404ecc:	pop	rbp
0x404ecd:	pop	r12
0x404ecf:	pop	r13
0x404ed1:	pop	r14
0x404ed3:	pop	r15
0x404ed5:	ret	
F 0x40d2a8
0x40d2a8:	mov	qword ptr [rip + 0x26e01], rbx
0x40d2af:	pop	rbx
0x40d2b0:	mov	qword ptr [rip + 0x26e01], rax
0x40d2b7:	pop	rbp
0x40d2b8:	pop	r12
0x40d2ba:	ret	
F 0x418004
0x418004:	pop	rbx
0x418006:	pop	rbp
0x418007:	pop	r12
0x418009:	pop	r13
0x41800b:	pop	r14
0x41800d:	pop	r15
0x41800f:	ret	
F 0x4161c9
0x4161c9:	add	byte ptr [rdi], cl
0x4161cb:	mov	dh, 0x43
0x4161cd:	add	dword ptr [rax - 0x7d], ecx
0x4161d0:	ret	
F 0x41226d
0x404016:	ret	
F 0x416f5b
0x404ed3:	pop	r15
0x404ed5:	ret	
F 0x40f885
0x40819d:	sub	byte ptr [rbx + 0x5d], bl
0x4081a0:	pop	r12
0x4081a2:	pop	r13
0x4081a4:	pop	r14
0x4081a6:	pop	r15
0x4081a8:	ret	
F 0x41476e
0x404ed2:	pop	rsi
0x404ed3:	pop	r15
0x404ed5:	ret	
F 0x40a2a7
0x40a2a7:	movzx	eax, al
0x40a2aa:	pop	rbx
0x40a2ab:	pop	rbp
0x40a2ac:	ret	
F 0x418cb5
0x404016:	ret	
F 0x40f886
0x404ecb:	pop	rbx
0x404ecc:	pop	rbp
0x404ecd:	pop	r12
0x404ecf:	pop	r13
0x404ed1:	pop	r14
0x404ed3:	pop	r15
0x404ed5:	ret	
F 0x40d3c1
0x404016:	ret	
F 0x417b24
0x404016:	ret	
F 0x419020
0x404ed2:	pop	rsi
0x404ed3:	pop	r15
0x404ed5:	ret	
F 0x417ec7
0x417ec7:	lea	rax, [rip + 0xe6d2]
0x417ece:	mov	rax, qword ptr [rax + rdx*8]
0x417ed2:	ret	
F 0x417566
0x417566:	mov	r12d, 7
0x41756c:	mov	qword ptr [rdi], rbx
0x41756f:	jmp	0x417516
F 0x41503c
0x404012:	add	rsp, 8
0x404016:	ret	
F 0x418dd9
0x404016:	ret	
F 0x40a30e
0x40a30e:	or	byte ptr [rcx + rcx*4 - 0x20], cl
0x40a312:	pop	r12
0x40a314:	ret	
F 0x41ab45
0x41ab45:	mov	eax, dword ptr [rip + 0xc6e5]
0x41ab4b:	mov	qword ptr [r12 + 8], rax
0x41ab50:	mov	rax, r12
0x41ab53:	pop	rbx
0x41ab54:	pop	rbp
0x41ab55:	pop	r12
0x41ab57:	ret	
F 0x411fb9
0x411fb9:	and	al, 0xff
0x411fbb:	dec	dword ptr [rcx + rcx*4 - 0x20]
0x411fbf:	movsd	qword ptr [r12 + 0x10], xmm0
0x411fc6:	pop	r12
0x411fc8:	ret	
F 0x413807
0x408627:	add	rsp, 8
0x40862b:	pop	rbx
0x40862c:	pop	rbp
0x40862d:	ret	
F 0x41a819
0x404016:	ret	
F 0x412052
0x412052:	movapd	xmm0, xmm2
0x412056:	orpd	xmm0, xmm3
0x41205a:	movsd	qword ptr [r12 + 0x10], xmm0
0x412061:	pop	r12
0x412063:	ret	
F 0x4123fd
0x4122bf:	movsd	qword ptr [r12 + 0x10], xmm0
0x4122c6:	add	rsp, 8
0x4122ca:	pop	rbx
0x4122cb:	pop	r12
0x4122cd:	ret	
F 0x404a23
0x404a23:	mov	dword ptr [rbp + 0x10], eax
0x404a26:	mov	word ptr [rax], dx
0x404a29:	pop	rbp
0x404a2a:	ret	
F 0x40ea05
0x407c4a:	add	dword ptr [rax], eax
0x407c4c:	ret	
F 0x4138c2
0x408627:	add	rsp, 8
0x40862b:	pop	rbx
0x40862c:	pop	rbp
0x40862d:	ret	
F 0x41a6cd
0x40862b:	pop	rbx
0x40862c:	pop	rbp
0x40862d:	ret	
F 0x410bad
0x404ec9:	add	byte ptr [rax], al
0x404ecb:	pop	rbx
0x404ecc:	pop	rbp
0x404ecd:	pop	r12
0x404ecf:	pop	r13
0x404ed1:	pop	r14
0x404ed3:	pop	r15
0x404ed5:	ret	
F 0x405b16
0x405aa5:	sbb	byte ptr [rax - 0x77], cl
0x405aa8:	ret	
F 0x41bbf7
0x404ed3:	pop	r15
0x404ed5:	ret	
F 0x411b7d
0x409c40:	pop	r12
0x409c42:	pop	r13
0x409c44:	pop	r14
0x409c46:	ret	
F 0x4175a4
0x4175a4:	add	dword ptr [rcx - 0x44], eax
0x4175a7:	or	eax, 0x48000000
0x4175ac:	mov	dword ptr [rdi], ebx
0x4175ae:	jmp	0x417516
F 0x409aa5
0x409aa5:	mov	qword ptr [rax], rbx
0x409aa8:	mov	dword ptr [rax + 8], 1
0x409aaf:	mov	byte ptr [rax + rbx + 0xc], 0
0x409ab4:	pop	rbx
0x409ab5:	ret	
F 0x415efc
0x404ec9:	add	byte ptr [rax], al
0x404ecb:	pop	rbx
0x404ecc:	pop	rbp
0x404ecd:	pop	r12
0x404ecf:	pop	r13
0x404ed1:	pop	r14
0x404ed3:	pop	r15
0x404ed5:	ret	
F 0x413679
0x404ecd:	pop	r12
0x404ecf:	pop	r13
0x404ed1:	pop	r14
0x404ed3:	pop	r15
0x404ed5:	ret	
F 0x404a95
0x404a95:	adc	dword ptr [rax], eax
0x404a97:	movups	xmmword ptr [rax + 0x10], xmm0
0x404a9b:	mov	qword ptr [rbp + 0x10], rax
0x404a9f:	pop	rbp
0x404aa0:	ret	
F 0x416675
0x404ed1:	pop	r14
0x404ed3:	pop	r15
0x404ed5:	ret	
F 0x417ec2
0x417ec2:	adc	eax, 0x223c1
0x417ec7:	lea	rax, [rip + 0xe6d2]
0x417ece:	mov	rax, qword ptr [rax + rdx*8]
0x417ed2:	ret	
F 0x414f37
0x414f37:	sub	byte ptr [rcx + rcx*4 - 0x10], cl
0x414f3b:	pop	rbx
0x414f3c:	pop	rbp
0x414f3d:	pop	r12
0x414f3f:	pop	r13
0x414f41:	pop	r14
0x414f43:	pop	r15
0x414f45:	ret	
F 0x410810
0x410810:	or	byte ptr [rax - 0x73], cl
0x410813:	add	al, 0x2b
0x410815:	pop	rbx
0x410816:	pop	rbp
0x410817:	ret	
F 0x407a58
0x407a58:	mov	byte ptr [rdx + rax + 1], 0
0x407a5d:	add	rsp, 8
0x407a61:	ret	
F 0x40ea4e
0x40ea4e:	add	byte ptr [rax], al
0x40ea50:	lea	rax, [rip + 0x10dd3]
0x40ea57:	ret	
F 0x411d74
0x411d74:	add	byte ptr [rax], al
0x411d76:	add	byte ptr [rcx + rcx*4 - 0x20], cl
0x411d7a:	pop	rbx
0x411d7b:	pop	rbp
0x411d7c:	pop	r12
0x411d7e:	pop	r13
0x411d80:	pop	r14
0x411d82:	pop	r15
0x411d84:	ret	
F 0x4085ff
0x4066c3:	ret	0x8b48
F 0x40e9cf
0x40e9cf:	add	byte ptr [rax - 0x73], cl
0x40e9d2:	add	eax, 0x111e5
0x40e9d7:	ret	
F 0x40d59c
0x404016:	ret	
F 0x40d367
0x40d367:	mov	dword ptr [rip + 0x26d4b], eax
0x40d36d:	add	rsp, 8
0x40d371:	pop	rbx
0x40d372:	pop	rbp
0x40d373:	ret	
F 0x41b4b4
0x404ecf:	pop	r13
0x404ed1:	pop	r14
0x404ed3:	pop	r15
0x404ed5:	ret	
F 0x4189b3
0x404016:	ret	
F 0x413681
0x404016:	ret	
F 0x41476c
0x404ed0:	pop	rbp
0x404ed1:	pop	r14
0x404ed3:	pop	r15
0x404ed5:	ret	
F 0x41a730
0x404016:	ret	
F 0x409ccd
0x404016:	ret	
F 0x417b67
0x404016:	ret	
F 0x4144ba
0x404016:	ret	
F 0x41205c
0x411ee1:	movups	xmmword ptr [rsp + 0x10], xmm0
0x411ee6:	pop	r12
0x411ee8:	ret	
F 0x410bb3
0x404ecf:	pop	r13
0x404ed1:	pop	r14
0x404ed3:	pop	r15
0x404ed5:	ret	
F 0x417b54
0x417b54:	sub	byte ptr [rax - 0x77], cl
0x417b57:	adc	eax, 0x22734
0x417b5c:	mov	qword ptr [rip + 0x22745], rax
0x417b63:	add	rsp, 8
0x417b67:	ret	
F 0x411f67
0x411f67:	clc	
0x411f68:	add	rsp, 8
0x411f6c:	pop	rbx
0x411f6d:	pop	r12
0x411f6f:	ret	
F 0x415030
0x415030:	stosq	qword ptr [rdi], rax
0x415032:	mov	rax, qword ptr [rip + 0x25247]
0x415039:	mov	qword ptr [rax], rdx
0x41503c:	add	rsp, 8
0x415040:	ret	
F 0x404735
0x404735:	add	eax, 0x22b5a
0x40473a:	add	byte ptr [rax], al
0x40473c:	add	byte ptr [rax], al
0x40473e:	ret	
F 0x407bc2
0x407bc2:	mov	qword ptr [rip + 0x1f6e7], rax
0x407bc9:	mov	eax, r8d
0x407bcc:	add	rsp, 8
0x407bd0:	ret	
F 0x4105fc
0x404016:	ret	
F 0x41251e
0x409b11:	mov	rax, r12
0x409b14:	pop	rbx
0x409b15:	pop	rbp
0x409b16:	pop	r12
0x409b18:	ret	
F 0x40d75b
0x40d75b:	adc	byte ptr [rdi], cl
0x40d75d:	adc	dword ptr [rip + 0x2694d], ebp
0x40d763:	add	rsp, 8
0x40d767:	ret	
F 0x417748
0x404ecc:	pop	rbp
0x404ecd:	pop	r12
0x404ecf:	pop	r13
0x404ed1:	pop	r14
0x404ed3:	pop	r15
0x404ed5:	ret	
F 0x404aad
0x404016:	ret	
F 0x409a8b
0x409a8b:	add	dword ptr [rax - 0x73], ecx
0x409a8e:	add	eax, 0x1d58d
0x409a93:	ret	
F 0x418e2f
0x404ed2:	pop	rsi
0x404ed3:	pop	r15
0x404ed5:	ret	
F 0x40ea4a
0x40ea4a:	test	byte ptr [rax], al
0x40ea4c:	add	byte ptr [rax], al
0x40ea4e:	add	byte ptr [rax], al
0x40ea50:	lea	rax, [rip + 0x10dd3]
0x40ea57:	ret	
F 0x416b41
0x409b11:	mov	rax, r12
0x409b14:	pop	rbx
0x409b15:	pop	rbp
0x409b16:	pop	r12
0x409b18:	ret	
F 0x40a11a
0x40a11a:	adc	byte ptr [rbx + 0x5d], bl
0x40a11d:	pop	r12
0x40a11f:	pop	r13
0x40a121:	pop	r14
0x40a123:	ret	
F 0x415a66
0x415a66:	add	eax, 0x1e79d
0x415a6b:	add	rsp, 8
0x415a6f:	ret	
F 0x4103b6
0x4103b6:	sbb	byte ptr [rbx + 0x5d], bl
0x4103b9:	pop	r12
0x4103bb:	pop	r13
0x4103bd:	ret	
F 0x415208
0x415208:	add	byte ptr [rax - 0x77], cl
0x41520b:	add	eax, 0x1eff8
0x415210:	add	rsp, 8
0x415214:	pop	rbp
0x415215:	pop	r12
0x415217:	ret	
F 0x415301
0x404016:	ret	
F 0x41367f
0x404ed3:	pop	r15
0x404ed5:	ret	
F 0x414031
0x404ecb:	pop	rbx
0x404ecc:	pop	rbp
0x404ecd:	pop	r12
0x404ecf:	pop	r13
0x404ed1:	pop	r14
0x404ed3:	pop	r15
0x404ed5:	ret	
F 0x411f93
0x411ee3:	and	al, 0x10
0x411ee6:	pop	r12
0x411ee8:	ret	
F 0x417588
0x417588:	add	byte ptr [rax], al
0x41758a:	mov	qword ptr [rdi], rbx
0x41758d:	jmp	0x417516
F 0x417699
0x417699:	add	al, 0
0x41769b:	add	byte ptr [rax - 0x77], cl
0x41769e:	ret	0x2948
F 0x40ea48
0x40ea48:	nop	dword ptr [rax + rax]
0x40ea50:	lea	rax, [rip + 0x10dd3]
0x40ea57:	ret	
F 0x40d324
0x40d324:	add	byte ptr [rax], al
0x40d326:	add	rsp, 8
0x40d32a:	mov	rax, r12
0x40d32d:	pop	rbp
0x40d32e:	pop	r12
0x40d330:	ret	
F 0x410621
0x410621:	test	bh, bh
0x410623:	sete	al
0x410626:	cmovne	eax, edx
0x410629:	ret	
F 0x419eb7
0x419a64:	ret	0x4818
F 0x40e9c0
0x40e9c0:	lea	rax, [rip + 0x10c52]
0x40e9c7:	ret	
F 0x416819
0x404ed4:	pop	rdi
0x404ed5:	ret	
F 0x412611
0x404016:	ret	
F 0x4152fa
0x4152fa:	lea	eax, [rax + rdx*8]
0x4152fd:	pop	r12
0x4152ff:	pop	r13
0x415301:	ret	
F 0x411ac2
0x411ac2:	psubsb	mm5, qword ptr [rax + 0x5b00008c]
0x411ac9:	mov	rax, r14
0x411acc:	pop	rbp
0x411acd:	pop	r12
0x411acf:	pop	r13
0x411ad1:	pop	r14
0x411ad3:	ret	
F 0x415a62
0x415a62:	add	dword ptr [rax], eax
0x415a64:	mov	qword ptr [rip + 0x1e79d], rax
0x415a6b:	add	rsp, 8
0x415a6f:	ret	
F 0x40889e
0x40889e:	mov	qword ptr [rsi], r8
0x4088a1:	ret	
F 0x40d60a
0x40d60a:	add	dword ptr [rax], eax
0x40d60c:	mov	dword ptr [rax + 8], 5
0x40d613:	mov	dword ptr [rax], 0x4d
0x40d619:	pop	rbx
0x40d61a:	ret	
F 0x409cc4
0x404016:	ret	
F 0x40e771
0x40e771:	mov	edi, 0x83481042
0x40e776:	ret	0x6610
F 0x4138b6
0x4138b6:	mov	dword ptr [rax], edx
0x4138b8:	mov	dword ptr [rax + 0xc], esi
0x4138bb:	mov	qword ptr [rip + 0x13c3e], rax
0x4138c2:	add	rsp, 8
0x4138c6:	pop	rbx
0x4138c7:	pop	rbp
0x4138c8:	ret	
F 0x40ec59
0x404ecd:	pop	r12
0x404ecf:	pop	r13
0x404ed1:	pop	r14
0x404ed3:	pop	r15
0x404ed5:	ret	
F 0x4196d1
0x40d7e0:	dec	dword ptr [rax - 0x7d]
0x40d7e3:	ret	
F 0x41758d
0x41758d:	jmp	0x417516
F 0x40e9ed
0x40e9ed:	add	byte ptr [rax], al
0x40e9ef:	add	byte ptr [rax - 0x73], cl
0x40e9f2:	add	eax, 0x111bf
0x40e9f7:	ret	
F 0x4142e6
0x404ed2:	pop	rsi
0x404ed3:	pop	r15
0x404ed5:	ret	
F 0x4175c0
0x4175c0:	jmp	0x417516
F 0x40f9dd
0x40f9dd:	mov	word ptr [rbx], ax
0x40f9e0:	add	rsp, 8
0x40f9e4:	pop	rbx
0x40f9e5:	pop	rbp
0x40f9e6:	ret	
F 0x417372
0x417372:	shl	edx, cl
0x417374:	mov	ecx, esi
0x417376:	shl	eax, cl
0x417378:	sub	edx, eax
0x41737a:	or	byte ptr [r11], dl
0x41737d:	ret	
F 0x417b1b
0x417b1b:	add	al, 0x24
0x417b1d:	mov	qword ptr [rbp], rdx
0x417b21:	pop	rbp
0x417b22:	pop	r12
0x417b24:	ret	
F 0x41c6f8
0x409c3f:	pop	rbp
0x409c40:	pop	r12
0x409c42:	pop	r13
0x409c44:	pop	r14
0x409c46:	ret	
F 0x407a9c
0x404012:	add	rsp, 8
0x404016:	ret	
F 0x417da4
0x404016:	ret	
F 0x41a726
0x41a726:	not	byte ptr [rdi]
0x41a728:	add	dword ptr [rax], eax
0x41a72a:	add	rsp, 0x18
0x41a72e:	pop	rbx
0x41a72f:	pop	rbp
0x41a730:	ret	
F 0x4101a2
0x4101a2:	add	byte ptr [rax], al
0x4101a4:	add	rsp, 0x10
0x4101a8:	pop	rbx
0x4101a9:	pop	rbp
0x4101aa:	pop	r12
0x4101ac:	ret	
F 0x40e3ae
0x40e3ae:	add	byte ptr [rax], al
0x40e3b0:	add	byte ptr [rbp + 0xb], dh
0x40e3b3:	add	rsp, 0xd8
0x40e3ba:	pop	rbp
0x40e3bb:	pop	r12
0x40e3bd:	ret	
F 0x411d7f
0x404ed0:	pop	rbp
0x404ed1:	pop	r14
0x404ed3:	pop	r15
0x404ed5:	ret	
F 0x411edb
0x411edb:	dec	dword ptr [rcx + rcx*4 - 0x20]
0x411edf:	movsd	qword ptr [r12 + 0x10], xmm0
0x411ee6:	pop	r12
0x411ee8:	ret	
F 0x40e9d6
0x40e9d6:	add	bl, al
0x40e9d8:	nop	dword ptr [rax + rax]
0x40e9e0:	lea	rax, [rip + 0x11192]
0x40e9e7:	ret	
F 0x40ff95
0x40fd2b:	add	dword ptr [rax], eax
0x40fd2d:	add	byte ptr [rbx + 0x5d], bl
0x40fd30:	ret	
F 0x417751
0x404016:	ret	
F 0x418963
0x404016:	ret	
F 0x40e9a8
0x40e9a8:	nop	dword ptr [rax + rax]
0x40e9b0:	lea	rax, [rip + 0x111ba]
0x40e9b7:	ret	
F 0x41c03a
0x41c03a:	nop	word ptr [rax + rax]
0x41c040:	mov	eax, 0xffffffff
0x41c045:	ret	
F 0x415191
0x415191:	add	dword ptr [rax + 8], 1
0x415195:	add	rsp, 8
0x415199:	ret	
F 0x414035
0x404ecf:	pop	r13
0x404ed1:	pop	r14
0x404ed3:	pop	r15
0x404ed5:	ret	
F 0x416f1d
0x404016:	ret	
F 0x40b191
0x404016:	ret	
F 0x41a8c6
0x404016:	ret	
F 0x40e154
0x404016:	ret	
F 0x4166c6
0x4166c6:	mov	dword ptr [rbx], 0
0x4166cc:	xor	eax, eax
0x4166ce:	pop	rbx
0x4166cf:	pop	rbp
0x4166d0:	pop	r12
0x4166d2:	ret	
F 0x417deb
0x404016:	ret	
F 0x416a90
0x404016:	ret	
F 0x417bc3
0x404016:	ret	
F 0x418001
0x418001:	add	rsp, 0x48
0x418005:	pop	rbx
0x418006:	pop	rbp
0x418007:	pop	r12
0x418009:	pop	r13
0x41800b:	pop	r14
0x41800d:	pop	r15
0x41800f:	ret	
F 0x4126ae
0x404ed1:	pop	r14
0x404ed3:	pop	r15
0x404ed5:	ret	
F 0x411f11
0x411ee1:	movups	xmmword ptr [rsp + 0x10], xmm0
0x411ee6:	pop	r12
0x411ee8:	ret	
F 0x40ed51
0x40ed51:	xchg	eax, edi
0x40ed52:	rcr	byte ptr [rax + rax], 0x84
0x40ed56:	sal	byte ptr [rbp + 7], 0x5d
0x40ed5a:	ret	
F 0x412fbb
0x404ed3:	pop	r15
0x404ed5:	ret	
F 0x418c77
0x407ab7:	add	al, ch
0x407ab9:	ret	
F 0x4142e0
0x404ecc:	pop	rbp
0x404ecd:	pop	r12
0x404ecf:	pop	r13
0x404ed1:	pop	r14
0x404ed3:	pop	r15
0x404ed5:	ret	
F 0x40ec53
0x40819a:	add	rsp, 0x28
0x40819e:	pop	rbx
0x40819f:	pop	rbp
0x4081a0:	pop	r12
0x4081a2:	pop	r13
0x4081a4:	pop	r14
0x4081a6:	pop	r15
0x4081a8:	ret	
F 0x41a78d
0x41a78d:	ror	byte ptr [rax - 0x77], 1
0x41a790:	cmp	al, 0xd0
0x41a792:	mov	qword ptr [rdi], rcx
0x41a795:	ret	
F 0x409f2a
0x404016:	ret	
F 0x41019d
0x41019d:	add	byte ptr [rdi], cl
0x41019f:	test	dword ptr [rsi + 1], ecx
0x4101a2:	add	byte ptr [rax], al
0x4101a4:	add	rsp, 0x10
0x4101a8:	pop	rbx
0x4101a9:	pop	rbp
0x4101aa:	pop	r12
0x4101ac:	ret	
F 0x411b60
0x409c43:	pop	rbp
0x409c44:	pop	r14
0x409c46:	ret	
F 0x409ab5
0x404016:	ret	
F 0x41b74a
0x404016:	ret	
F 0x4122bc
0x4122bc:	mov	rax, r12
0x4122bf:	movsd	qword ptr [r12 + 0x10], xmm0
0x4122c6:	add	rsp, 8
0x4122ca:	pop	rbx
0x4122cb:	pop	r12
0x4122cd:	ret	
F 0x416c5e
0x404016:	ret	
F 0x418e79
0x418e79:	sal	byte ptr [rbp + rdi + 0x48], 0x83
0x418e7e:	ret	
F 0x417d27
0x404ed1:	pop	r14
0x404ed3:	pop	r15
0x404ed5:	ret	
F 0x40a051
0x40460d:	pop	rbp
0x40460e:	pop	r12
0x404610:	ret	
F 0x40e152
0x407c4a:	add	dword ptr [rax], eax
0x407c4c:	ret	
F 0x41175c
0x41175c:	or	byte ptr [rcx + rcx*4 - 0x20], cl
0x411760:	pop	rbx
0x411761:	pop	rbp
0x411762:	pop	r12
0x411764:	pop	r13
0x411766:	pop	r14
0x411768:	pop	r15
0x41176a:	ret	
F 0x417516
0x417516:	mov	eax, r12d
0x417519:	pop	rbx
0x41751a:	pop	rbp
0x41751b:	pop	r12
0x41751d:	ret	
F 0x41049e
0x41049e:	nop	
0x4104a0:	mov	eax, 0x80000001
0x4104a5:	ret	
F 0x407bd1
0x407bd1:	nop	dword ptr [rax]
0x407bd8:	xor	r8d, r8d
0x407bdb:	jmp	0x407bbe
F 0x40862b
0x40862b:	pop	rbx
0x40862c:	pop	rbp
0x40862d:	ret	
F 0x4127d2
0x404ed3:	pop	r15
0x404ed5:	ret	
F 0x40f497
0x40f497:	add	byte ptr [rax + 0x63], cl
0x40f49a:	ret	
F 0x4113d2
0x404016:	ret	
F 0x417746
0x40819d:	sub	byte ptr [rbx + 0x5d], bl
0x4081a0:	pop	r12
0x4081a2:	pop	r13
0x4081a4:	pop	r14
0x4081a6:	pop	r15
0x4081a8:	ret	
F 0x408a2c
0x404ecf:	pop	r13
0x404ed1:	pop	r14
0x404ed3:	pop	r15
0x404ed5:	ret	
F 0x418ea8
0x418ea8:	mov	qword ptr [r13], rbp
0x418eac:	mov	qword ptr [r13 + 8], rbx
0x418eb0:	pop	rbx
0x418eb1:	pop	rbp
0x418eb2:	pop	r12
0x418eb4:	pop	r13
0x418eb6:	pop	r14
0x418eb8:	ret	
F 0x417e83
0x417e83:	mov	eax, dword ptr [rbx]
0x417e85:	pop	rbx
0x417e86:	ret	
F 0x416ed1
0x404016:	ret	
F 0x41ad30
0x41ad30:	xor	eax, eax
0x41ad32:	pop	rbp
0x41ad33:	ret	
F 0x418cb1
0x404ed1:	pop	r14
0x404ed3:	pop	r15
0x404ed5:	ret	
F 0x40a314
0x404016:	ret	
F 0x409b10
0x409b10:	add	byte ptr [rcx + rcx*4 - 0x20], cl
0x409b14:	pop	rbx
0x409b15:	pop	rbp
0x409b16:	pop	r12
0x409b18:	ret	
F 0x417491
0x417491:	add	byte ptr [rax], al
0x417493:	movsxd	rbx, ebx
0x417496:	movsx	eax, byte ptr [rax + rbx]
0x41749a:	test	eax, eax
0x41749c:	cmove	eax, edx
0x41749f:	pop	rbx
0x4174a0:	ret	
F 0x417370
0x417370:	mov	edx, eax
0x417372:	shl	edx, cl
0x417374:	mov	ecx, esi
0x417376:	shl	eax, cl
0x417378:	sub	edx, eax
0x41737a:	or	byte ptr [r11], dl
0x41737d:	ret	
F 0x416d90
0x404016:	ret	
F 0x41b879
0x409b12:	mov	eax, esp
0x409b14:	pop	rbx
0x409b15:	pop	rbp
0x409b16:	pop	r12
0x409b18:	ret	
F 0x41c6f6
0x41c6f6:	add	dword ptr [rax], eax
0x41c6f8:	pop	rbp
0x41c6f9:	pop	r12
0x41c6fb:	pop	r13
0x41c6fd:	pop	r14
0x41c6ff:	ret	
F 0x40a117
0x40a117:	add	rsp, 0x10
0x40a11b:	pop	rbx
0x40a11c:	pop	rbp
0x40a11d:	pop	r12
0x40a11f:	pop	r13
0x40a121:	pop	r14
0x40a123:	ret	
F 0x417e94
0x417e94:	mov	dword ptr [rdi], ebx
0x417e96:	pop	rbx
0x417e97:	ret	
F 0x4152a2
0x4152a2:	sar	rax, 3
0x4152a6:	imul	edx, edi, 0xaaaaaaab
0x4152ac:	shl	eax, 0xa
0x4152af:	add	eax, edx
0x4152b1:	ret	
F 0x417d2a
0x404ed4:	pop	rdi
0x404ed5:	ret	
F 0x40ea02
0x40ea02:	add	eax, 0x11198
0x40ea07:	ret	
F 0x4049c5
0x40499d:	mov	eax, esp
0x40499f:	pop	r12
0x4049a1:	ret	
F 0x40481d
0x40466f:	jmp	rax
F 0x40fd2c
0x40fd2c:	add	byte ptr [rax], al
0x40fd2e:	pop	rbx
0x40fd2f:	pop	rbp
0x40fd30:	ret	
F 0x416d87
0x416d87:	mov	rax, qword ptr [rax + 0x10]
0x416d8b:	add	rax, 0xc
0x416d8f:	ret	
F 0x40f49a
0x404016:	ret	
F 0x40e9aa
0x40e9aa:	test	byte ptr [rax], al
0x40e9ac:	add	byte ptr [rax], al
0x40e9ae:	add	byte ptr [rax], al
0x40e9b0:	lea	rax, [rip + 0x111ba]
0x40e9b7:	ret	
F 0x4144ac
0x4144ac:	add	byte ptr [rax], al
0x4144ae:	add	rsp, 0x130
0x4144b5:	pop	rbp
0x4144b6:	pop	r12
0x4144b8:	pop	r13
0x4144ba:	ret	
F 0x4161bf
0x4161bf:	add	byte ptr [rcx + 0xf], cl
0x4161c2:	movabs	dword ptr [0xf00000254830fc7], eax
0x4161cb:	mov	dh, 0x43
0x4161cd:	add	dword ptr [rax - 0x7d], ecx
0x4161d0:	ret	
F 0x40e1c8
0x40e1c8:	mov	bh, 0x5b
0x40e1ca:	pop	rbp
0x40e1cb:	pop	r12
0x40e1cd:	ret	
F 0x404aa0
0x404016:	ret	
F 0x4175ee
0x4175ee:	add	byte ptr [rax], al
0x4175f0:	add	rbx, 1
0x4175f4:	mov	qword ptr [rbp], rbx
0x4175f8:	movzx	r12d, r12b
0x4175fc:	jmp	0x417516
F 0x407a54
0x407a54:	mov	byte ptr [rdx + rax], 0xa
0x407a58:	mov	byte ptr [rdx + rax + 1], 0
0x407a5d:	add	rsp, 8
0x407a61:	ret	
F 0x411f68
0x411f68:	add	rsp, 8
0x411f6c:	pop	rbx
0x411f6d:	pop	r12
0x411f6f:	ret	
F 0x41c8e9
0x404ed2:	pop	rsi
0x404ed3:	pop	r15
0x404ed5:	ret	
F 0x4138c8
0x404016:	ret	
F 0x408709
0x408709:	sub	r8d, eax
0x40870c:	mov	qword ptr [rsi], r8
0x40870f:	pop	rbx
0x408710:	pop	rbp
0x408711:	ret	
F 0x408647
0x408647:	sub	rax, 1
0x40864b:	mov	qword ptr [rip + 0x1ec5e], rax
0x408652:	add	rsp, 8
0x408656:	pop	rbx
0x408657:	pop	rbp
0x408658:	ret	
F 0x4192ca
0x40862b:	pop	rbx
0x40862c:	pop	rbp
0x40862d:	ret	
F 0x419017
0x404ec9:	add	byte ptr [rax], al
0x404ecb:	pop	rbx
0x404ecc:	pop	rbp
0x404ecd:	pop	r12
0x404ecf:	pop	r13
0x404ed1:	pop	r14
0x404ed3:	pop	r15
0x404ed5:	ret	
F 0x41735b
0x41735b:	rol	byte ptr [rdx + 8], 1
0x41735e:	add	al, 0xf
0x417360:	ret	
F 0x4106fc
0x408627:	add	rsp, 8
0x40862b:	pop	rbx
0x40862c:	pop	rbp
0x40862d:	ret	
F 0x41917e
0x404012:	add	rsp, 8
0x404016:	ret	
F 0x40a27e
0x40862b:	pop	rbx
0x40862c:	pop	rbp
0x40862d:	ret	
F 0x40f98f
0x40f98f:	add	byte ptr [rcx + 0x5c], al
0x40f992:	mov	word ptr [rip + 0x24786], r8w
0x40f99a:	ret	
F 0x418da1
0x404ed1:	pop	r14
0x404ed3:	pop	r15
0x404ed5:	ret	
F 0x419e48
0x419e48:	add	byte ptr [rcx - 0x7d], cl
0x419e4b:	ret	0x4c18
F 0x41750c
0x41750c:	add	ebx, 3
0x41750f:	add	r12d, eax
0x417512:	mov	qword ptr [rbp], rbx
0x417516:	mov	eax, r12d
0x417519:	pop	rbx
0x41751a:	pop	rbp
0x41751b:	pop	r12
0x41751d:	ret	
F 0x41751d
0x404016:	ret	
F 0x41a71e
0x41a71e:	or	eax, 0x11805
0x41a723:	mov	qword ptr [rip + 0x117f6], rdx
0x41a72a:	add	rsp, 0x18
0x41a72e:	pop	rbx
0x41a72f:	pop	rbp
0x41a730:	ret	
F 0x41049b
0x41049b:	sub	al, 0xc0
0x41049d:	ret	
F 0x410599
0x410599:	add	dword ptr [rax], eax
0x41059b:	add	byte ptr [rax], al
0x41059d:	pop	rbx
0x41059e:	ret	
F 0x417496
0x417496:	movsx	eax, byte ptr [rax + rbx]
0x41749a:	test	eax, eax
0x41749c:	cmove	eax, edx
0x41749f:	pop	rbx
0x4174a0:	ret	
F 0x41922f
0x41922f:	pop	rbp
0x419230:	adc	byte ptr [rdx], al
0x419232:	add	byte ptr [rax - 0x77], cl
0x419235:	adc	eax, 0x2106e
0x41923a:	add	rsp, 8
0x41923e:	pop	rbx
0x41923f:	pop	rbp
0x419240:	ret	
F 0x404999
0x404999:	mov	qword ptr [rsi], rax
0x40499c:	mov	rax, r12
0x40499f:	pop	r12
0x4049a1:	ret	
F 0x4129d5
0x404016:	ret	
F 0x418cb4
0x404ed4:	pop	rdi
0x404ed5:	ret	
F 0x40f9e3
0x40862a:	or	byte ptr [rbx + 0x5d], bl
0x40862d:	ret	
F 0x417d28
0x404ed2:	pop	rsi
0x404ed3:	pop	r15
0x404ed5:	ret	
F 0x412297
0x404016:	ret	
F 0x40a11b
0x409c3e:	pop	rbx
0x409c3f:	pop	rbp
0x409c40:	pop	r12
0x409c42:	pop	r13
0x409c44:	pop	r14
0x409c46:	ret	
F 0x40ea55
0x407c4a:	add	dword ptr [rax], eax
0x407c4c:	ret	
F 0x415efb
0x415efb:	add	al, byte ptr [rax]
0x415efd:	add	byte ptr [rbx + 0x5d], bl
0x415f00:	pop	r12
0x415f02:	pop	r13
0x415f04:	pop	r14
0x415f06:	pop	r15
0x415f08:	ret	
F 0x410598
0x410598:	mov	eax, 1
0x41059d:	pop	rbx
0x41059e:	ret	
F 0x40e99d
0x40e99d:	add	byte ptr [rax], al
0x40e99f:	add	byte ptr [rax - 0x73], cl
0x40e9a2:	add	eax, 0x111fe
0x40e9a7:	ret	
F 0x40a2a6
0x40a2a6:	or	byte ptr [rdi], cl
0x40a2a8:	mov	dh, 0xc0
0x40a2aa:	pop	rbx
0x40a2ab:	pop	rbp
0x40a2ac:	ret	
F 0x41ac91
0x407a5b:	add	dword ptr [rax], eax
0x407a5d:	add	rsp, 8
0x407a61:	ret	
F 0x412345
0x409b14:	pop	rbx
0x409b15:	pop	rbp
0x409b16:	pop	r12
0x409b18:	ret	
F 0x417606
0x417606:	add	byte ptr [rax], al
0x417608:	add	rbx, 2
0x41760c:	jmp	0x417512
F 0x4115eb
0x404016:	ret	
F 0x415713
0x414e2b:	or	byte ptr [rax - 0x7d], cl
0x414e2e:	ret	
F 0x411446
0x404ecd:	pop	r12
0x404ecf:	pop	r13
0x404ed1:	pop	r14
0x404ed3:	pop	r15
0x404ed5:	ret	
F 0x407bc0
0x407bc0:	rol	byte ptr [rcx], 0x48
0x407bc3:	mov	dword ptr [rip + 0x1f6e7], eax
0x407bc9:	mov	eax, r8d
0x407bcc:	add	rsp, 8
0x407bd0:	ret	
F 0x40d419
0x40d419:	mov	dword ptr [rax], 0x58
0x40d41f:	add	rsp, 8
0x40d423:	ret	
F 0x419021
0x404ed3:	pop	r15
0x404ed5:	ret	
F 0x419d7d
0x419c12:	ret	0xe918
F 0x41a136
0x419a64:	ret	0x4818
F 0x40a26d
0x407bbd:	ret	0x8348
F 0x40ea0c
0x40ea0c:	add	byte ptr [rax], al
0x40ea0e:	add	byte ptr [rax], al
0x40ea10:	lea	rax, [rip + 0x11179]
0x40ea17:	ret	
F 0x40e151
0x40e151:	xchg	eax, ebx
0x40e152:	add	dword ptr [rax], eax
0x40e154:	ret	
F 0x418e20
0x418e20:	mov	qword ptr [rbp + 8], rax
0x418e24:	add	rsp, 8
0x418e28:	pop	rbx
0x418e29:	pop	rbp
0x418e2a:	pop	r12
0x418e2c:	pop	r13
0x418e2e:	pop	r14
0x418e30:	pop	r15
0x418e32:	ret	
F 0x40e9ba
0x40e9ba:	test	byte ptr [rax], al
0x40e9bc:	add	byte ptr [rax], al
0x40e9be:	add	byte ptr [rax], al
0x40e9c0:	lea	rax, [rip + 0x10c52]
0x40e9c7:	ret	
F 0x4081a4
0x404ed1:	pop	r14
0x404ed3:	pop	r15
0x404ed5:	ret	
F 0x407be5
0x407be5:	mov	qword ptr [rip + 0x1f6c4], rax
0x407bec:	mov	eax, r8d
0x407bef:	ret	
F 0x411b7f
0x409c42:	pop	r13
0x409c44:	pop	r14
0x409c46:	ret	
F 0x414e60
0x404016:	ret	
F 0x404995
0x404995:	mov	qword ptr [rax + 0x18], r12
0x404999:	mov	qword ptr [rsi], rax
0x40499c:	mov	rax, r12
0x40499f:	pop	r12
0x4049a1:	ret	
F 0x409e45
0x404ecc:	pop	rbp
0x404ecd:	pop	r12
0x404ecf:	pop	r13
0x404ed1:	pop	r14
0x404ed3:	pop	r15
0x404ed5:	ret	
F 0x4104d3
0x41049b:	sub	al, 0xc0
0x41049d:	ret	
F 0x407e52
0x404ed1:	pop	r14
0x404ed3:	pop	r15
0x404ed5:	ret	
F 0x4108bc
0x4108bc:	mov	eax, esi
0x4108be:	pop	rbx
0x4108bf:	pop	rbp
0x4108c0:	pop	r12
0x4108c2:	pop	r13
0x4108c4:	pop	r14
0x4108c6:	pop	r15
0x4108c8:	ret	
F 0x4166c5
0x4166c5:	mov	qword ptr [rbx], 0
0x4166cc:	xor	eax, eax
0x4166ce:	pop	rbx
0x4166cf:	pop	rbp
0x4166d0:	pop	r12
0x4166d2:	ret	
F 0x417560
0x417560:	add	byte ptr [rax], al
0x417562:	add	rbx, 1
0x417566:	mov	r12d, 7
0x41756c:	mov	qword ptr [rdi], rbx
0x41756f:	jmp	0x417516
F 0x40a120
0x409c43:	pop	rbp
0x409c44:	pop	r14
0x409c46:	ret	
F 0x41748d
0x41748d:	add	byte ptr [rdx + 0x10], bh
0x417493:	movsxd	rbx, ebx
0x417496:	movsx	eax, byte ptr [rax + rbx]
0x41749a:	test	eax, eax
0x41749c:	cmove	eax, edx
0x41749f:	pop	rbx
0x4174a0:	ret	
F 0x409b0b
0x409b0b:	mov	byte ptr [r12 + rbx + 0xc], 0
0x409b11:	mov	rax, r12
0x409b14:	pop	rbx
0x409b15:	pop	rbp
0x409b16:	pop	r12
0x409b18:	ret	
F 0x412099
0x412057:	orps	xmm0, xmm3
0x41205a:	movsd	qword ptr [r12 + 0x10], xmm0
0x412061:	pop	r12
0x412063:	ret	
F 0x40473e
0x404016:	ret	
F 0x40d3b6
0x40d3b6:	add	eax, 0x26cfd
0x40d3bb:	add	rsp, 8
0x40d3bf:	pop	rbx
0x40d3c0:	pop	rbp
0x40d3c1:	ret	
F 0x4187e7
0x4187e7:	sbb	al, ch
0x4187e9:	ret	
F 0x41c6f3
0x41c6f3:	add	eax, 0x1dbd8
0x41c6f8:	pop	rbp
0x41c6f9:	pop	r12
0x41c6fb:	pop	r13
0x41c6fd:	pop	r14
0x41c6ff:	ret	
F 0x41a6c6
0x41a6c6:	mov	dword ptr [rdx + rcx*8], esi
0x41a6c9:	add	rsp, 0x18
0x41a6cd:	pop	rbx
0x41a6ce:	pop	rbp
0x41a6cf:	ret	
F 0x41bbf4
0x404ed0:	pop	rbp
0x404ed1:	pop	r14
0x404ed3:	pop	r15
0x404ed5:	ret	
F 0x41377d
0x41377d:	mov	rax, r8
0x413780:	ret	
F 0x414f7a
0x404016:	ret	
F 0x413b4a
0x404016:	ret	
F 0x408297
0x408297:	ret	0x8d48
F 0x41ac8e
0x41ac8e:	add	eax, 0x1f635
0x41ac93:	add	rsp, 8
0x41ac97:	ret	
F 0x416404
0x4161cb:	mov	dh, 0x43
0x4161cd:	add	dword ptr [rax - 0x7d], ecx
0x4161d0:	ret	
F 0x41afef
0x409c45:	pop	rsi
0x409c46:	ret	
F 0x41376a
0x41376a:	adc	byte ptr [rax - 0x7d], cl
0x41376e:	ret	0x4d10
F 0x404607
0x404607:	add	rsp, 8
0x40460b:	xor	eax, eax
0x40460d:	pop	rbp
0x40460e:	pop	r12
0x404610:	ret	
F 0x41c0a8
0x41c0a8:	test	dword ptr [rdx], edx
0x41c0ab:	add	byte ptr [rsi - 0x77], ah
0x41c0ae:	push	rax
0x41c0af:	adc	byte ptr [rax - 0x77], cl
0x41c0b2:	ret	
F 0x41219c
0x41219c:	sbb	byte ptr [rcx + rcx*4 - 0x20], cl
0x4121a0:	pop	rbx
0x4121a1:	pop	r12
0x4121a3:	ret	
F 0x40d738
0x40d738:	add	al, byte ptr [rax]
0x40d73a:	add	rsp, 8
0x40d73e:	ret	
F 0x40d734
0x40d734:	adc	dword ptr [rip + 0x26976], ebx
0x40d73a:	add	rsp, 8
0x40d73e:	ret	
F 0x413804
0x413804:	mov	qword ptr [rbx], rax
0x413807:	add	rsp, 8
0x41380b:	pop	rbx
0x41380c:	pop	rbp
0x41380d:	ret	
F 0x40a14b
0x40a14b:	seta	al
0x40a14e:	add	rsp, 0x10
0x40a152:	pop	rbx
0x40a153:	neg	eax
0x40a155:	pop	rbp
0x40a156:	pop	r12
0x40a158:	pop	r13
0x40a15a:	pop	r14
0x40a15c:	ret	
F 0x417e85
0x4083d0:	pop	rbx
0x4083d1:	ret	
F 0x409adc
0x40460e:	pop	r12
0x404610:	ret	
F 0x415524
0x40d99d:	pop	r12
0x40d99f:	pop	r13
0x40d9a1:	ret	
F 0x411b5f
0x409c42:	pop	r13
0x409c44:	pop	r14
0x409c46:	ret	
F 0x411f13
0x411ee3:	and	al, 0x10
0x411ee6:	pop	r12
0x411ee8:	ret	
F 0x40861f
0x40861f:	adc	byte ptr [rax - 0x77], cl
0x408622:	add	eax, 0x1ec89
0x408627:	add	rsp, 8
0x40862b:	pop	rbx
0x40862c:	pop	rbp
0x40862d:	ret	
F 0x409b0c
0x409b0c:	mov	byte ptr [rsp + rbx + 0xc], 0
0x409b11:	mov	rax, r12
0x409b14:	pop	rbx
0x409b15:	pop	rbp
0x409b16:	pop	r12
0x409b18:	ret	
F 0x41205d
0x411ee2:	adc	dword ptr [rsp + 0x10], eax
0x411ee6:	pop	r12
0x411ee8:	ret	
F 0x407bca
0x407bca:	mov	eax, eax
0x407bcc:	add	rsp, 8
0x407bd0:	ret	
F 0x41b87c
0x40460d:	pop	rbp
0x40460e:	pop	r12
0x404610:	ret	
F 0x417b19
0x417b19:	mov	qword ptr [r12], rax
0x417b1d:	mov	qword ptr [rbp], rdx
0x417b21:	pop	rbp
0x417b22:	pop	r12
0x417b24:	ret	
F 0x411b76
0x411ac6:	add	byte ptr [rax], al
0x411ac8:	pop	rbx
0x411ac9:	mov	rax, r14
0x411acc:	pop	rbp
0x411acd:	pop	r12
0x411acf:	pop	r13
0x411ad1:	pop	r14
0x411ad3:	ret	
F 0x415b89
0x404016:	ret	
F 0x40d32d
0x40460d:	pop	rbp
0x40460e:	pop	r12
0x404610:	ret	
F 0x411bdd
0x411bdd:	lea	eax, [rbx + 0x18]
0x411be0:	pop	rbx
0x411be1:	ret	
F 0x40680a
0x40680a:	ret	0x10e8
F 0x414176
0x414176:	sub	byte ptr [rcx + rcx*4 - 8], cl
0x41417a:	pop	rbx
0x41417b:	pop	rbp
0x41417c:	pop	r12
0x41417e:	pop	r13
0x414180:	pop	r14
0x414182:	pop	r15
0x414184:	ret	
F 0x413b46
0x413b46:	add	byte ptr [rax + 0x29], cl
0x413b4a:	ret	
F 0x41c0ab
0x41c0ab:	add	byte ptr [rsi - 0x77], ah
0x41c0ae:	push	rax
0x41c0af:	adc	byte ptr [rax - 0x77], cl
0x41c0b2:	ret	
F 0x417eaf
0x4083d0:	pop	rbx
0x4083d1:	ret	
F 0x407bef
0x404016:	ret	
F 0x40d307
0x40d307:	ret	0x2948
F 0x40e237
0x40460d:	pop	rbp
0x40460e:	pop	r12
0x404610:	ret	
F 0x411b53
0x411aa3:	add	al, 0x85
0x411aa5:	sal	byte ptr [rax + rdx + 0x5b], 0x4c
0x411aaa:	mov	eax, esi
0x411aac:	pop	rbp
0x411aad:	pop	r12
0x411aaf:	pop	r13
0x411ab1:	pop	r14
0x411ab3:	ret	
F 0x41bbf9
0x404016:	ret	
F 0x41b20d
0x41b20d:	mov	byte ptr [rbp], 0
0x41b211:	add	rsp, 8
0x41b215:	pop	rbx
0x41b216:	pop	rbp
0x41b217:	pop	r12
0x41b219:	pop	r13
0x41b21b:	ret	
F 0x40e9d2
0x40e9d2:	add	eax, 0x111e5
0x40e9d7:	ret	
F 0x414766
0x409e43:	or	byte ptr [rbx + 0x5d], bl
0x409e46:	pop	r12
0x409e48:	pop	r13
0x409e4a:	pop	r14
0x409e4c:	pop	r15
0x409e4e:	ret	
F 0x414033
0x404ecd:	pop	r12
0x404ecf:	pop	r13
0x404ed1:	pop	r14
0x404ed3:	pop	r15
0x404ed5:	ret	
F 0x41a034
0x419e4b:	ret	0x4c18
F 0x4133f1
0x404016:	ret	
F 0x40a30f
0x40499c:	mov	rax, r12
0x40499f:	pop	r12
0x4049a1:	ret	
F 0x40ec9c
0x40ec9c:	sete	al
0x40ec9f:	add	rsp, 8
0x40eca3:	movzx	eax, al
0x40eca6:	ret	
F 0x416b40
0x409b6c:	dec	dword ptr [rcx + rcx*4 - 0x20]
0x409b70:	pop	rbx
0x409b71:	pop	rbp
0x409b72:	pop	r12
0x409b74:	ret	
F 0x40e9f1
0x40e9f1:	lea	eax, [rip + 0x111bf]
0x40e9f7:	ret	
F 0x409e48
0x404ecf:	pop	r13
0x404ed1:	pop	r14
0x404ed3:	pop	r15
0x404ed5:	ret	
F 0x40ed56
0x40ed56:	sal	byte ptr [rbp + 7], 0x5d
0x40ed5a:	ret	
F 0x41c68e
0x409c43:	pop	rbp
0x409c44:	pop	r14
0x409c46:	ret	
F 0x4175de
0x4175de:	add	byte ptr [rax], al
0x4175e0:	mov	r12d, 0x5c
0x4175e6:	jmp	0x417516
F 0x41c8e2
0x404ecb:	pop	rbx
0x404ecc:	pop	rbp
0x404ecd:	pop	r12
0x404ecf:	pop	r13
0x404ed1:	pop	r14
0x404ed3:	pop	r15
0x404ed5:	ret	
F 0x408454
0x408454:	add	byte ptr [rsi - 0x77], ah
0x408457:	add	eax, 0x1eccf
0x40845c:	mov	byte ptr [rip + 0x1ecca], 0x22
0x408463:	add	rsp, 8
0x408467:	ret	
F 0x41c0ae
0x41c0ae:	push	rax
0x41c0af:	adc	byte ptr [rax - 0x77], cl
0x41c0b2:	ret	
F 0x40a353
0x40499d:	mov	eax, esp
0x40499f:	pop	r12
0x4049a1:	ret	
F 0x41049f
0x41049f:	nop	
0x4104a0:	mov	eax, 0x80000001
0x4104a5:	ret	
F 0x407bed
0x407bed:	mov	eax, eax
0x407bef:	ret	
F 0x406916
0x406916:	or	al, bpl
0x406919:	ret	
F 0x41492a
0x41492a:	or	cl, ch
0x41492c:	movabs	al, byte ptr [0x8948d18948000002]
0x414935:	ret	0x8b48
F 0x4166cf
0x40460d:	pop	rbp
0x40460e:	pop	r12
0x404610:	ret	
F 0x416677
0x404ed3:	pop	r15
0x404ed5:	ret	
F 0x410815
0x40862b:	pop	rbx
0x40862c:	pop	rbp
0x40862d:	ret	
F 0x4123f8
0x4122ba:	add	al, 0x24
0x4122bc:	mov	rax, r12
0x4122bf:	movsd	qword ptr [r12 + 0x10], xmm0
0x4122c6:	add	rsp, 8
0x4122ca:	pop	rbx
0x4122cb:	pop	r12
0x4122cd:	ret	
F 0x41756a
0x41756a:	add	byte ptr [rax], al
0x41756c:	mov	qword ptr [rdi], rbx
0x41756f:	jmp	0x417516
F 0x41c11e
0x404676:	add	byte ptr [rax], al
0x404678:	ret	
F 0x415a61
0x415a61:	adc	eax, 0x89480001
0x415a66:	add	eax, 0x1e79d
0x415a6b:	add	rsp, 8
0x415a6f:	ret	
F 0x408448
0x408448:	ret	0x588
F 0x411aaf
0x409c42:	pop	r13
0x409c44:	pop	r14
0x409c46:	ret	
F 0x412fae
0x412fae:	add	byte ptr [rax], al
0x412fb0:	mov	rax, r14
0x412fb3:	pop	rbx
0x412fb4:	pop	rbp
0x412fb5:	pop	r12
0x412fb7:	pop	r13
0x412fb9:	pop	r14
0x412fbb:	pop	r15
0x412fbd:	ret	
F 0x408657
0x4046ef:	pop	rbp
0x4046f0:	ret	
F 0x414f74
0x414f74:	or	byte ptr [rbx - 1], cl
0x414f77:	dec	dword ptr [rax - 0x77]
0x414f7a:	ret	
F 0x407e51
0x404ed0:	pop	rbp
0x404ed1:	pop	r14
0x404ed3:	pop	r15
0x404ed5:	ret	
F 0x413b92
0x409c3f:	pop	rbp
0x409c40:	pop	r12
0x409c42:	pop	r13
0x409c44:	pop	r14
0x409c46:	ret	
F 0x41b217
0x40d99d:	pop	r12
0x40d99f:	pop	r13
0x40d9a1:	ret	
F 0x411fc3
0x411ee3:	and	al, 0x10
0x411ee6:	pop	r12
0x411ee8:	ret	
F 0x40f6b7
0x40d7e0:	dec	dword ptr [rax - 0x7d]
0x40d7e3:	ret	
F 0x416a8b
0x404ed2:	pop	rsi
0x404ed3:	pop	r15
0x404ed5:	ret	
F 0x410bab
0x410bab:	cwde	
0x410bac:	add	byte ptr [rax], al
0x410bae:	add	byte ptr [rbx + 0x5d], bl
0x410bb1:	pop	r12
0x410bb3:	pop	r13
0x410bb5:	pop	r14
0x410bb7:	pop	r15
0x410bb9:	ret	
F 0x411aa7
0x411aa7:	adc	byte ptr [rbx + 0x4c], bl
0x411aaa:	mov	eax, esi
0x411aac:	pop	rbp
0x411aad:	pop	r12
0x411aaf:	pop	r13
0x411ab1:	pop	r14
0x411ab3:	ret	
F 0x414761
0x414761:	and	al, 0x10
0x414763:	add	rsp, 8
0x414767:	pop	rbx
0x414768:	pop	rbp
0x414769:	pop	r12
0x41476b:	pop	r13
0x41476d:	pop	r14
0x41476f:	pop	r15
0x414771:	ret	
F 0x417e81
0x417e81:	or	al, 0x48
0x417e83:	mov	eax, dword ptr [rbx]
0x417e85:	pop	rbx
0x417e86:	ret	
F 0x40d418
0x40d418:	add	bh, al
0x40d41a:	add	byte ptr [rax], bl
0x40d41d:	add	byte ptr [rax], al
0x40d41f:	add	rsp, 8
0x40d423:	ret	
F 0x41a33a
0x41a33a:	mov	rax, qword ptr [rdi + 0x10]
0x41a33e:	ret	
F 0x40e9e0
0x40e9e0:	lea	rax, [rip + 0x11192]
0x40e9e7:	ret	
F 0x40ec0c
0x404016:	ret	
F 0x40ea04
0x40ea04:	adc	dword ptr [rcx], eax
0x40ea06:	add	bl, al
0x40ea08:	nop	dword ptr [rax + rax]
0x40ea10:	lea	rax, [rip + 0x11179]
0x40ea17:	ret	
F 0x412262
0x412262:	add	eax, 0xd359
0x412267:	movsd	qword ptr [rbx + 0x28], xmm0
0x41226c:	pop	rbx
0x41226d:	ret	
F 0x417740
0x417740:	and	al, 8
0x417743:	add	rsp, 0x28
0x417747:	pop	rbx
0x417748:	pop	rbp
0x417749:	pop	r12
0x41774b:	pop	r13
0x41774d:	pop	r14
0x41774f:	pop	r15
0x417751:	ret	
F 0x41366f
0x41366f:	push	rax
0x413670:	add	rsp, 0xc8
0x413677:	pop	rbx
0x413678:	pop	rbp
0x413679:	pop	r12
0x41367b:	pop	r13
0x41367d:	pop	r14
0x41367f:	pop	r15
0x413681:	ret	
F 0x40f9af
0x404016:	ret	
F 0x413a6b
0x409e40:	add	rsp, 8
0x409e44:	pop	rbx
0x409e45:	pop	rbp
0x409e46:	pop	r12
0x409e48:	pop	r13
0x409e4a:	pop	r14
0x409e4c:	pop	r15
0x409e4e:	ret	
F 0x41476d
0x404ed1:	pop	r14
0x404ed3:	pop	r15
0x404ed5:	ret	
F 0x4122c2
0x4122c2:	adc	dword ptr [rsp + 0x10], eax
0x4122c6:	add	rsp, 8
0x4122ca:	pop	rbx
0x4122cb:	pop	r12
0x4122cd:	ret	
F 0x40f88d
0x404ed2:	pop	rsi
0x404ed3:	pop	r15
0x404ed5:	ret	
F 0x412095
0x412095:	addps	xmm0, xmm2
0x412098:	orpd	xmm0, xmm3
0x41209c:	movsd	qword ptr [r12 + 0x10], xmm0
0x4120a3:	pop	r12
0x4120a5:	ret	
F 0x41233a
0x41233a:	and	al, 0x10
0x41233d:	mov	word ptr [r12], ax
0x412342:	mov	rax, r12
0x412345:	pop	rbx
0x412346:	pop	rbp
0x412347:	pop	r12
0x412349:	ret	
F 0x4160e6
0x404016:	ret	
F 0x41a370
0x41a370:	add	byte ptr [rdi], cl
0x41a372:	mov	dh, 0xd2
0x41a374:	mov	rax, qword ptr [rax + rdx*8]
0x41a378:	ret	
F 0x41c040
0x41c040:	mov	eax, 0xffffffff
0x41c045:	ret	
F 0x41b91a
0x409c40:	pop	r12
0x409c42:	pop	r13
0x409c44:	pop	r14
0x409c46:	ret	
F 0x41b777
0x404016:	ret	
F 0x41a787
0x41a787:	sub	edx, 1
0x41a78a:	mov	rcx, qword ptr [rax + rdx*8]
0x41a78e:	mov	qword ptr [rax + rdx*8], rdi
0x41a792:	mov	qword ptr [rdi], rcx
0x41a795:	ret	
F 0x4117e6
0x4117e6:	mov	eax, esp
0x4117e8:	pop	rbx
0x4117e9:	pop	r12
0x4117eb:	ret	
F 0x40ec5c
0x404ed0:	pop	rbp
0x404ed1:	pop	r14
0x404ed3:	pop	r15
0x404ed5:	ret	
F 0x41749c
0x41749c:	cmove	eax, edx
0x41749f:	pop	rbx
0x4174a0:	ret	
F 0x40e697
0x40e697:	add	byte ptr [rax], al
0x40e699:	add	byte ptr [rbp + 0xa], dh
0x40e69c:	add	rsp, 0xd0
0x40e6a3:	pop	r12
0x40e6a5:	ret	
F 0x40e699
0x40e699:	add	byte ptr [rbp + 0xa], dh
0x40e69c:	add	rsp, 0xd0
0x40e6a3:	pop	r12
0x40e6a5:	ret	
F 0x418c61
0x418c61:	mov	dword ptr [rbx + 0x10], eax
0x418c64:	add	rsp, 0x28
0x418c68:	pop	rbx
0x418c69:	pop	rbp
0x418c6a:	pop	r12
0x418c6c:	pop	r13
0x418c6e:	pop	r14
0x418c70:	pop	r15
0x418c72:	ret	
F 0x41403a
0x404ed4:	pop	rdi
0x404ed5:	ret	
F 0x413a78
0x404ed4:	pop	rdi
0x404ed5:	ret	
F 0x416e42
0x416e42:	add	rsp, 8
0x416e46:	pop	rbx
0x416e47:	pop	rbp
0x416e48:	pop	r12
0x416e4a:	pop	r13
0x416e4c:	ret	
F 0x40d41d
0x40d41d:	add	byte ptr [rax], al
0x40d41f:	add	rsp, 8
0x40d423:	ret	
F 0x41ba4a
0x404ecf:	pop	r13
0x404ed1:	pop	r14
0x404ed3:	pop	r15
0x404ed5:	ret	
F 0x40f172
0x40f172:	mov	eax, 0x5b000000
0x40f177:	pop	rbp
0x40f178:	pop	r12
0x40f17a:	pop	r13
0x40f17c:	pop	r14
0x40f17e:	pop	r15
0x40f180:	ret	
F 0x41b708
0x41b708:	add	byte ptr [rax], al
0x41b70a:	add	byte ptr [rbp + 0x17], dh
0x41b70d:	add	rsp, 0x20
0x41b711:	pop	rbp
0x41b712:	ret	
F 0x40a49b
0x40a49b:	add	rsp, 0x58
0x40a49f:	pop	rbx
0x40a4a0:	pop	rbp
0x40a4a1:	pop	r12
0x40a4a3:	pop	r13
0x40a4a5:	pop	r14
0x40a4a7:	pop	r15
0x40a4a9:	ret	
F 0x410617
0x410617:	cmp	dh, byte ptr [rcx]
0x410619:	sar	byte ptr [rdx], 0x5b
0x410620:	test	dil, dil
0x410623:	sete	al
0x410626:	cmovne	eax, edx
0x410629:	ret	
F 0x41240b
0x404016:	ret	
F 0x407e50
0x404ecf:	pop	r13
0x404ed1:	pop	r14
0x404ed3:	pop	r15
0x404ed5:	ret	
F 0x419a64
0x419a64:	ret	0x4818
F 0x411769
0x404ed4:	pop	rdi
0x404ed5:	ret	
F 0x410bb5
0x404ed1:	pop	r14
0x404ed3:	pop	r15
0x404ed5:	ret	
F 0x418c6c
0x404ecf:	pop	r13
0x404ed1:	pop	r14
0x404ed3:	pop	r15
0x404ed5:	ret	
F 0x4120dc
0x4120dc:	adc	edx, esi
0x4120de:	movups	xmmword ptr [r12 + 0x10], xmm1
0x4120e4:	add	rsp, 0x10
0x4120e8:	mov	rax, r12
0x4120eb:	pop	r12
0x4120ed:	ret	
F 0x40a30c
0x40a30c:	and	al, 8
0x40a30f:	mov	rax, r12
0x40a312:	pop	r12
0x40a314:	ret	
F 0x41697e
0x404676:	add	byte ptr [rax], al
0x404678:	ret	
F 0x415d96
0x415d96:	ror	byte ptr [rdi], 0x88
0x415d99:	ret	
F 0x40f890
0x404016:	ret	
F 0x414181
0x404ed2:	pop	rsi
0x404ed3:	pop	r15
0x404ed5:	ret	
F 0x41b773
0x40499d:	mov	eax, esp
0x40499f:	pop	r12
0x4049a1:	ret	
F 0x419eb2
0x419eb2:	add	eax, dword ptr [rax]
0x419eb4:	add	byte ptr [rcx - 0x7d], cl
0x419eb7:	ret	0x4818
F 0x4049b8
0x4049b8:	adc	byte ptr [rcx + rcx*4 + 0x60], cl
0x4049bc:	sbb	byte ptr [rax - 0x77], cl
0x4049bf:	add	eax, 0x228c4
0x4049c4:	mov	rax, r12
0x4049c7:	pop	r12
0x4049c9:	ret	
F 0x40d613
0x40d613:	mov	dword ptr [rax], 0x4d
0x40d619:	pop	rbx
0x40d61a:	ret	
F 0x407ab9
0x404016:	ret	
F 0x41bf81
0x404016:	ret	
F 0x41bbeb
0x411440:	add	rsp, 0x18
0x411444:	pop	rbx
0x411445:	pop	rbp
0x411446:	pop	r12
0x411448:	pop	r13
0x41144a:	pop	r14
0x41144c:	pop	r15
0x41144e:	ret	
F 0x416d80
0x416d80:	cmovs	edi, dword ptr [rcx]
0x416d83:	push	rax
0x416d84:	or	byte ptr [rbp - 0xf], dh
0x416d87:	mov	rax, qword ptr [rax + 0x10]
0x416d8b:	add	rax, 0xc
0x416d8f:	ret	
F 0x416976
0x404676:	add	byte ptr [rax], al
0x404678:	ret	
F 0x40ec95
0x40ec95:	not	dword ptr [rdi + rdi*8 - 1]
0x40ec99:	test	rax, rax
0x40ec9c:	sete	al
0x40ec9f:	add	rsp, 8
0x40eca3:	movzx	eax, al
0x40eca6:	ret	
F 0x41c5eb
0x41c5eb:	add	byte ptr [rax], al
0x41c5ed:	add	byte ptr [rbp + 0xb], dh
0x41c5f0:	add	rsp, 0x48
0x41c5f4:	pop	rbx
0x41c5f5:	pop	rbp
0x41c5f6:	pop	r12
0x41c5f8:	pop	r13
0x41c5fa:	ret	
F 0x4192c6
0x408627:	add	rsp, 8
0x40862b:	pop	rbx
0x40862c:	pop	rbp
0x40862d:	ret	
F 0x41739a
0x407bbd:	ret	0x8348
F 0x41a78f
0x41a78f:	mov	dword ptr [rax + rdx*8], edi
0x41a792:	mov	qword ptr [rdi], rcx
0x41a795:	ret	
F 0x404a94
0x404a94:	movups	xmmword ptr [rax], xmm0
0x404a97:	movups	xmmword ptr [rax + 0x10], xmm0
0x404a9b:	mov	qword ptr [rbp + 0x10], rax
0x404a9f:	pop	rbp
0x404aa0:	ret	
F 0x41144e
0x404016:	ret	
F 0x415749
0x404016:	ret	
F 0x40ea57
0x404016:	ret	
F 0x4108c3
0x404ed0:	pop	rbp
0x404ed1:	pop	r14
0x404ed3:	pop	r15
0x404ed5:	ret	
F 0x417bb4
0x417bb4:	mov	qword ptr [rax], 0
0x417bbb:	mov	qword ptr [rax + 8], rcx
0x417bbf:	add	rsp, 8
0x417bc3:	ret	
F 0x4115dd
0x4115dd:	lea	rax, [rbp - 0x18]
0x4115e1:	pop	rbx
0x4115e2:	pop	rbp
0x4115e3:	pop	r12
0x4115e5:	pop	r13
0x4115e7:	pop	r14
0x4115e9:	pop	r15
0x4115eb:	ret	
F 0x41c8e8
0x404ed1:	pop	r14
0x404ed3:	pop	r15
0x404ed5:	ret	
F 0x40d72e
0x40d72e:	movdqu	xmm3, xmmword ptr [rax + 0x10]
0x40d733:	movups	xmmword ptr [rip + 0x26976], xmm3
0x40d73a:	add	rsp, 8
0x40d73e:	ret	
F 0x41c113
0x41c113:	nop	dword ptr [rax + rax]
0x41c11b:	nop	dword ptr [rax + rax]
0x41c120:	ret	
F 0x4198e8
0x40f7e4:	dec	dword ptr [rax - 0x77]
0x40f7e7:	ret	
F 0x408569
0x404016:	ret	
F 0x40d979
0x404016:	ret	
F 0x41ab4a
0x41ab4a:	add	byte ptr [rcx - 0x77], cl
0x41ab4d:	and	al, 8
0x41ab50:	mov	rax, r12
0x41ab53:	pop	rbx
0x41ab54:	pop	rbp
0x41ab55:	pop	r12
0x41ab57:	ret	
F 0x409ad2
0x409ad2:	add	eax, 0x1d550
0x409ad7:	add	dword ptr [rcx + rcx*4 - 0x20], ecx
0x409adb:	pop	rbp
0x409adc:	pop	r12
0x409ade:	ret	
F 0x4175f7
0x4175f7:	add	byte ptr [rbp + 0xf], al
0x4175fa:	mov	dh, 0xe4
0x4175fc:	jmp	0x417516
F 0x418c67
0x40819d:	sub	byte ptr [rbx + 0x5d], bl
0x4081a0:	pop	r12
0x4081a2:	pop	r13
0x4081a4:	pop	r14
0x4081a6:	pop	r15
0x4081a8:	ret	
F 0x416814
0x404ecf:	pop	r13
0x404ed1:	pop	r14
0x404ed3:	pop	r15
0x404ed5:	ret	
F 0x4049bd
0x4049bd:	mov	qword ptr [rip + 0x228c4], rax
0x4049c4:	mov	rax, r12
0x4049c7:	pop	r12
0x4049c9:	ret	
F 0x411f5f
0x411f5f:	dec	dword ptr [rcx + rcx*4 - 0x20]
0x411f63:	movsd	qword ptr [rbx - 8], xmm0
0x411f68:	add	rsp, 8
0x411f6c:	pop	rbx
0x411f6d:	pop	r12
0x411f6f:	ret	
F 0x40ff98
0x40862b:	pop	rbx
0x40862c:	pop	rbp
0x40862d:	ret	
F 0x409b14
0x409b14:	pop	rbx
0x409b15:	pop	rbp
0x409b16:	pop	r12
0x409b18:	ret	
F 0x418c70
0x404ed3:	pop	r15
0x404ed5:	ret	
F 0x4152fb
0x4152fb:	add	al, 0xd0
0x4152fd:	pop	r12
0x4152ff:	pop	r13
0x415301:	ret	
F 0x4175e4
0x4175e4:	add	byte ptr [rax], al
0x4175e6:	jmp	0x417516
F 0x40a173
0x409c3f:	pop	rbp
0x409c40:	pop	r12
0x409c42:	pop	r13
0x409c44:	pop	r14
0x409c46:	ret	
F 0x41ad2b
0x41ad2b:	nop	dword ptr [rax + rax]
0x41ad30:	xor	eax, eax
0x41ad32:	pop	rbp
0x41ad33:	ret	
F 0x4149bd
0x4144ac:	add	byte ptr [rax], al
0x4144ae:	add	rsp, 0x130
0x4144b5:	pop	rbp
0x4144b6:	pop	r12
0x4144b8:	pop	r13
0x4144ba:	ret	
F 0x404a98
0x404a98:	adc	dword ptr [rax + 0x10], eax
0x404a9b:	mov	qword ptr [rbp + 0x10], rax
0x404a9f:	pop	rbp
0x404aa0:	ret	
F 0x407be4
0x407be4:	ret	0x8948
F 0x4101a7
0x4101a7:	adc	byte ptr [rbx + 0x5d], bl
0x4101aa:	pop	r12
0x4101ac:	ret	
F 0x40a11c
0x409c3f:	pop	rbp
0x409c40:	pop	r12
0x409c42:	pop	r13
0x409c44:	pop	r14
0x409c46:	ret	
F 0x4066c3
0x4066c3:	ret	0x8b48
F 0x411993
0x411993:	add	byte ptr [rax], al
0x411995:	add	rsp, 8
0x411999:	mov	rax, r12
0x41199c:	pop	rbx
0x41199d:	pop	rbp
0x41199e:	pop	r12
0x4119a0:	pop	r13
0x4119a2:	pop	r14
0x4119a4:	pop	r15
0x4119a6:	ret	
F 0x416ca7
0x404016:	ret	
F 0x41b4b0
0x404ecb:	pop	rbx
0x404ecc:	pop	rbp
0x404ecd:	pop	r12
0x404ecf:	pop	r13
0x404ed1:	pop	r14
0x404ed3:	pop	r15
0x404ed5:	ret	
F 0x409e40
0x409e40:	add	rsp, 8
0x409e44:	pop	rbx
0x409e45:	pop	rbp
0x409e46:	pop	r12
0x409e48:	pop	r13
0x409e4a:	pop	r14
0x409e4c:	pop	r15
0x409e4e:	ret	
F 0x407bd8
0x407bd8:	xor	r8d, r8d
0x407bdb:	jmp	0x407bbe
F 0x4046b5
0x4046b5:	add	byte ptr [rax], r8b
0x4046b8:	ret	
F 0x41502e
0x41502e:	add	esi, ebx
0x415030:	stosq	qword ptr [rdi], rax
0x415032:	mov	rax, qword ptr [rip + 0x25247]
0x415039:	mov	qword ptr [rax], rdx
0x41503c:	add	rsp, 8
0x415040:	ret	
F 0x408461
0x408461:	add	byte ptr [rdx], ah
0x408463:	add	rsp, 8
0x408467:	ret	
F 0x4152ee
0x4152ee:	cwde	
0x4152ef:	mov	rax, qword ptr [rcx + rax*8]
0x4152f3:	add	rsp, 8
0x4152f7:	pop	rbx
0x4152f8:	pop	rbp
0x4152f9:	lea	rax, [rax + rdx*8]
0x4152fd:	pop	r12
0x4152ff:	pop	r13
0x415301:	ret	
F 0x416cf0
0x404ecc:	pop	rbp
0x404ecd:	pop	r12
0x404ecf:	pop	r13
0x404ed1:	pop	r14
0x404ed3:	pop	r15
0x404ed5:	ret	
F 0x414f3b
0x404ecb:	pop	rbx
0x404ecc:	pop	rbp
0x404ecd:	pop	r12
0x404ecf:	pop	r13
0x404ed1:	pop	r14
0x404ed3:	pop	r15
0x404ed5:	ret	
F 0x411f61
0x411f61:	mov	eax, esp
0x411f63:	movsd	qword ptr [rbx - 8], xmm0
0x411f68:	add	rsp, 8
0x411f6c:	pop	rbx
0x411f6d:	pop	r12
0x411f6f:	ret	
F 0x4115e6
0x404ed0:	pop	rbp
0x404ed1:	pop	r14
0x404ed3:	pop	r15
0x404ed5:	ret	
F 0x40a351
0x4049c3:	add	byte ptr [rcx + rcx*4 - 0x20], cl
0x4049c7:	pop	r12
0x4049c9:	ret	
F 0x409acb
0x409acb:	and	eax, 0x1d550
0x409ad0:	pop	rbx
0x409ad1:	add	dword ptr [rip + 0x1d550], 1
0x409ad8:	mov	rax, r12
0x409adb:	pop	rbp
0x409adc:	pop	r12
0x409ade:	ret	
F 0x417443
0x417443:	lea	eax, [rax + rax*2]
0x417446:	shl	eax, 2
0x417449:	sub	edx, eax
0x41744b:	cmp	edx, 0xa
0x41744e:	sete	r8b
0x417452:	jmp	0x4173ca
F 0x416977
0x416977:	add	bl, al
0x416979:	nop	dword ptr [rax]
0x416980:	ret	
F 0x4081a3
0x404ed0:	pop	rbp
0x404ed1:	pop	r14
0x404ed3:	pop	r15
0x404ed5:	ret	
F 0x41ac90
0x41ac90:	test	byte ptr [rcx], 0
0x41ac93:	add	rsp, 8
0x41ac97:	ret	
F 0x415034
0x415034:	add	eax, 0x25247
0x415039:	mov	qword ptr [rax], rdx
0x41503c:	add	rsp, 8
0x415040:	ret	
F 0x41a782
0x41a782:	add	eax, 0x117b9
0x41a787:	sub	edx, 1
0x41a78a:	mov	rcx, qword ptr [rax + rdx*8]
0x41a78e:	mov	qword ptr [rax + rdx*8], rdi
0x41a792:	mov	qword ptr [rdi], rcx
0x41a795:	ret	
F 0x41417a
0x404ecb:	pop	rbx
0x404ecc:	pop	rbp
0x404ecd:	pop	r12
0x404ecf:	pop	r13
0x404ed1:	pop	r14
0x404ed3:	pop	r15
0x404ed5:	ret	
F 0x40d2ae
0x40d2ae:	add	byte ptr [rbx + 0x48], bl
0x40d2b1:	mov	dword ptr [rip + 0x26e01], eax
0x40d2b7:	pop	rbp
0x40d2b8:	pop	r12
0x40d2ba:	ret	
F 0x414182
0x404ed3:	pop	r15
0x404ed5:	ret	
F 0x40a29d
0x40a29d:	cmp	dword ptr [rax], 0
0x40a2a0:	setne	al
0x40a2a3:	add	rsp, 8
0x40a2a7:	movzx	eax, al
0x40a2aa:	pop	rbx
0x40a2ab:	pop	rbp
0x40a2ac:	ret	
F 0x40e776
0x40e776:	ret	0x6610
F 0x40a172
0x409c3e:	pop	rbx
0x409c3f:	pop	rbp
0x409c40:	pop	r12
0x409c42:	pop	r13
0x409c44:	pop	r14
0x409c46:	ret	
F 0x41a728
0x41a728:	add	dword ptr [rax], eax
0x41a72a:	add	rsp, 0x18
0x41a72e:	pop	rbx
0x41a72f:	pop	rbp
0x41a730:	ret	
F 0x41380f
0x40481f:	nop	
0x404820:	ret	
F 0x410700
0x40862b:	pop	rbx
0x40862c:	pop	rbp
0x40862d:	ret	
F 0x419a5f
0x419a5f:	add	byte ptr [rax], al
0x419a61:	add	byte ptr [rcx - 0x7d], cl
0x419a64:	ret	0x4818
F 0x41bf7d
0x409c42:	pop	r13
0x409c44:	pop	r14
0x409c46:	ret	
F 0x415a5d
0x415a5d:	lea	rax, [rip + 0x115bc]
0x415a64:	mov	qword ptr [rip + 0x1e79d], rax
0x415a6b:	add	rsp, 8
0x415a6f:	ret	
F 0x418913
0x404016:	ret	
F 0x41c8e6
0x404ecf:	pop	r13
0x404ed1:	pop	r14
0x404ed3:	pop	r15
0x404ed5:	ret	
F 0x40eca7
0x40eca7:	nop	word ptr [rax + rax]
0x40ecb0:	xor	eax, eax
0x40ecb2:	ret	
F 0x41afe0
0x41afe0:	lea	eax, [rcx]
0x41afe2:	add	byte ptr [rax], al
0x41afe4:	add	rsp, 0x60
0x41afe8:	pop	rbx
0x41afe9:	pop	rbp
0x41afea:	pop	r12
0x41afec:	pop	r13
0x41afee:	pop	r14
0x41aff0:	ret	
F 0x415a63
0x415a63:	add	byte ptr [rax - 0x77], cl
0x415a66:	add	eax, 0x1e79d
0x415a6b:	add	rsp, 8
0x415a6f:	ret	
F 0x40870a
0x40870a:	sub	eax, eax
0x40870c:	mov	qword ptr [rsi], r8
0x40870f:	pop	rbx
0x408710:	pop	rbp
0x408711:	ret	
F 0x41407f
0x41407f:	add	byte ptr [rax], al
0x414081:	add	byte ptr [rax - 0x77], cl
0x414084:	ret	0xc748
F 0x409b2f
0x409b2f:	add	byte ptr [rbx - 0x7d], bl
0x409b32:	add	eax, 0x1d4f0
0x409b37:	add	dword ptr [rcx + rcx*4 - 0x20], ecx
0x409b3b:	pop	rbp
0x409b3c:	pop	r12
0x409b3e:	ret	
F 0x411ad2
0x409c45:	pop	rsi
0x409c46:	ret	
F 0x409f0c
0x40460d:	pop	rbp
0x40460e:	pop	r12
0x404610:	ret	
F 0x4175b4
0x4175b4:	add	ebx, 1
0x4175b7:	mov	r12d, 9
0x4175bd:	mov	qword ptr [rdi], rbx
0x4175c0:	jmp	0x417516
F 0x412266
0x412266:	add	dl, dh
0x412268:	movups	xmmword ptr [rbx + 0x28], xmm0
0x41226c:	pop	rbx
0x41226d:	ret	
F 0x409ab2
0x409ab2:	or	al, 0
0x409ab4:	pop	rbx
0x409ab5:	ret	
F 0x412058
0x412058:	push	rsi
0x412059:	ret	
F 0x4171bd
0x4117e8:	pop	rbx
0x4117e9:	pop	r12
0x4117eb:	ret	
F 0x41bd74
0x41bd74:	add	rsp, 0x30
0x41bd78:	mov	eax, 0xffffffff
0x41bd7d:	pop	rbx
0x41bd7e:	pop	rbp
0x41bd7f:	pop	r12
0x41bd81:	pop	r13
0x41bd83:	pop	r14
0x41bd85:	ret	
F 0x40a336
0x40499d:	mov	eax, esp
0x40499f:	pop	r12
0x4049a1:	ret	
F 0x407a56
0x407a56:	add	cl, byte ptr [rdx]
0x407a58:	mov	byte ptr [rdx + rax + 1], 0
0x407a5d:	add	rsp, 8
0x407a61:	ret	
F 0x412fb8
0x404ed0:	pop	rbp
0x404ed1:	pop	r14
0x404ed3:	pop	r15
0x404ed5:	ret	
F 0x413f11
0x404016:	ret	
F 0x41ad72
0x41ad72:	mov	dword ptr [rbx + 0x18], ebp
0x41ad75:	mov	qword ptr [rbx + 0x10], rbp
0x41ad79:	mov	qword ptr [rbx + 0x20], rbp
0x41ad7d:	add	rsp, 8
0x41ad81:	pop	rbx
0x41ad82:	pop	rbp
0x41ad83:	ret	
F 0x41c8ec
0x404016:	ret	
F 0x41734e
0x41734e:	mov	edx, eax
0x417350:	shl	edx, cl
0x417352:	mov	ecx, r8d
0x417355:	or	byte ptr [r11], dl
0x417358:	shl	eax, cl
0x41735a:	not	eax
0x41735c:	or	byte ptr [rdi + r9], al
0x417360:	ret	
F 0x4171bb
0x4117e6:	mov	eax, esp
0x4117e8:	pop	rbx
0x4117e9:	pop	r12
0x4117eb:	ret	
F 0x40819d
0x40819d:	sub	byte ptr [rbx + 0x5d], bl
0x4081a0:	pop	r12
0x4081a2:	pop	r13
0x4081a4:	pop	r14
0x4081a6:	pop	r15
0x4081a8:	ret	
F 0x41a842
0x41a842:	mov	rax, r12
0x41a845:	mov	qword ptr [r13], rcx
0x41a849:	add	rsp, 8
0x41a84d:	pop	rbx
0x41a84e:	pop	rbp
0x41a84f:	pop	r12
0x41a851:	pop	r13
0x41a853:	ret	
F 0x417356
0x417356:	or	byte ptr [rbx], dl
0x417358:	shl	eax, cl
0x41735a:	not	eax
0x41735c:	or	byte ptr [rdi + r9], al
0x417360:	ret	
F 0x41bef1
0x41b916:	mov	eax, r12d
0x41b919:	pop	rbp
0x41b91a:	pop	r12
0x41b91c:	pop	r13
0x41b91e:	pop	r14
0x41b920:	ret	
F 0x41680e
0x41175e:	mov	eax, esp
0x411760:	pop	rbx
0x411761:	pop	rbp
0x411762:	pop	r12
0x411764:	pop	r13
0x411766:	pop	r14
0x411768:	pop	r15
0x41176a:	ret	
F 0x417b1a
0x417b1a:	mov	dword ptr [rsp], eax
0x417b1d:	mov	qword ptr [rbp], rdx
0x417b21:	pop	rbp
0x417b22:	pop	r12
0x417b24:	ret	
F 0x416b44
0x409b14:	pop	rbx
0x409b15:	pop	rbp
0x409b16:	pop	r12
0x409b18:	ret	
F 0x41b825
0x41b825:	add	byte ptr [rcx], al
0x41b827:	add	byte ptr [rax], al
0x41b829:	cmp	dl, 1
0x41b82c:	cmovg	eax, edi
0x41b82f:	ret	
F 0x4172bc
0x4172bc:	sbb	byte ptr [rcx + rcx*4 - 0x20], cl
0x4172c0:	pop	rbx
0x4172c1:	pop	rbp
0x4172c2:	pop	r12
0x4172c4:	pop	r13
0x4172c6:	pop	r14
0x4172c8:	pop	r15
0x4172ca:	ret	
F 0x4175f1
0x4175f1:	add	ebx, 1
0x4175f4:	mov	qword ptr [rbp], rbx
0x4175f8:	movzx	r12d, r12b
0x4175fc:	jmp	0x417516
F 0x41aff0
0x404016:	ret	
F 0x40a054
0x404016:	ret	
F 0x404734
0x404734:	mov	dword ptr [rip + 0x22b5a], 0
0x40473e:	ret	
F 0x41c112
0x41c112:	nop	dword ptr cs:[rax + rax]
0x41c11b:	nop	dword ptr [rax + rax]
0x41c120:	ret	
F 0x416353
0x4161cd:	add	dword ptr [rax - 0x7d], ecx
0x4161d0:	ret	
F 0x4122cd
0x404016:	ret	
F 0x409b0e
0x409b0e:	sbb	al, 0xc
0x409b10:	add	byte ptr [rcx + rcx*4 - 0x20], cl
0x409b14:	pop	rbx
0x409b15:	pop	rbp
0x409b16:	pop	r12
0x409b18:	ret	
F 0x412343
0x409b12:	mov	eax, esp
0x409b14:	pop	rbx
0x409b15:	pop	rbp
0x409b16:	pop	r12
0x409b18:	ret	
F 0x40a280
0x404016:	ret	
F 0x414032
0x404ecc:	pop	rbp
0x404ecd:	pop	r12
0x404ecf:	pop	r13
0x404ed1:	pop	r14
0x404ed3:	pop	r15
0x404ed5:	ret	
F 0x417e97
0x404016:	ret	
F 0x410813
0x410813:	add	al, 0x2b
0x410815:	pop	rbx
0x410816:	pop	rbp
0x410817:	ret	
F 0x409e6d
0x404016:	ret	
F 0x41758a
0x41758a:	mov	qword ptr [rdi], rbx
0x41758d:	jmp	0x417516
F 0x40a29a
0x40a29a:	or	byte ptr [r8 - 0x7d], cl
0x40a29e:	cmp	byte ptr [rax], al
0x40a2a0:	setne	al
0x40a2a3:	add	rsp, 8
0x40a2a7:	movzx	eax, al
0x40a2aa:	pop	rbx
0x40a2ab:	pop	rbp
0x40a2ac:	ret	
F 0x41bef2
0x41b917:	mov	eax, esp
0x41b919:	pop	rbp
0x41b91a:	pop	r12
0x41b91c:	pop	r13
0x41b91e:	pop	r14
0x41b920:	ret	
F 0x409e4c
0x404ed3:	pop	r15
0x404ed5:	ret	
F 0x412016
0x411edf:	movsd	qword ptr [r12 + 0x10], xmm0
0x411ee6:	pop	r12
0x411ee8:	ret	
F 0x4161cc
0x4161cc:	add	dword ptr [r8 - 0x7d], ecx
0x4161d0:	ret	
F 0x41176a
0x404016:	ret	
F 0x4117e4
0x4117e4:	or	byte ptr [rcx + rcx*4 - 0x20], cl
0x4117e8:	pop	rbx
0x4117e9:	pop	r12
0x4117eb:	ret	
F 0x4138c5
0x40862a:	or	byte ptr [rbx + 0x5d], bl
0x40862d:	ret	
F 0x412060
0x40a324:	adc	byte ptr [rcx + 0x5c], al
0x40a327:	ret	
F 0x40df99
0x404016:	ret	
F 0x40e9ac
0x40e9ac:	add	byte ptr [rax], al
0x40e9ae:	add	byte ptr [rax], al
0x40e9b0:	lea	rax, [rip + 0x111ba]
0x40e9b7:	ret	
F 0x41b20e
0x41b20e:	add	byte ptr [r8], r8b
0x41b211:	add	rsp, 8
0x41b215:	pop	rbx
0x41b216:	pop	rbp
0x41b217:	pop	r12
0x41b219:	pop	r13
0x41b21b:	ret	
F 0x41b4ae
0x41175e:	mov	eax, esp
0x411760:	pop	rbx
0x411761:	pop	rbp
0x411762:	pop	r12
0x411764:	pop	r13
0x411766:	pop	r14
0x411768:	pop	r15
0x41176a:	ret	
F 0x40e9ce
0x40e9ce:	add	byte ptr [rax], al
0x40e9d0:	lea	rax, [rip + 0x111e5]
0x40e9d7:	ret	
F 0x41254c
0x40f7e4:	dec	dword ptr [rax - 0x77]
0x40f7e7:	ret	
F 0x40e9b1
0x40e9b1:	lea	eax, [rip + 0x111ba]
0x40e9b7:	ret	
F 0x41c6ed
0x41c6ed:	mov	dword ptr [rax + 0x30], ecx
0x41c6f0:	pop	rbx
0x41c6f1:	mov	qword ptr [rip + 0x1dbd8], rax
0x41c6f8:	pop	rbp
0x41c6f9:	pop	r12
0x41c6fb:	pop	r13
0x41c6fd:	pop	r14
0x41c6ff:	ret	
F 0x419182
0x404016:	ret	
F 0x4083d0
0x4083d0:	pop	rbx
0x4083d1:	ret	
F 0x418629
0x404016:	ret	
F 0x413a69
0x413a69:	add	dword ptr [rax], eax
0x413a6b:	add	rsp, 8
0x413a6f:	pop	rbx
0x413a70:	pop	rbp
0x413a71:	pop	r12
0x413a73:	pop	r13
0x413a75:	pop	r14
0x413a77:	pop	r15
0x413a79:	ret	
F 0x418e2a
0x404ecd:	pop	r12
0x404ecf:	pop	r13
0x404ed1:	pop	r14
0x404ed3:	pop	r15
0x404ed5:	ret	
F 0x416f18
0x416f18:	sal	byte ptr [rbp + rax*2 + 0x48], 0x89
0x416f1d:	ret	
F 0x40c3b6
0x40466f:	jmp	rax
F 0x407a96
0x407a96:	add	byte ptr [rbx + 0x1c74fff8], al
0x407a9c:	add	rsp, 8
0x407aa0:	ret	
F 0x404ec9
0x404ec9:	add	byte ptr [rax], al
0x404ecb:	pop	rbx
0x404ecc:	pop	rbp
0x404ecd:	pop	r12
0x404ecf:	pop	r13
0x404ed1:	pop	r14
0x404ed3:	pop	r15
0x404ed5:	ret	
F 0x409e10
0x409e10:	add	byte ptr [rax - 0x77], cl
0x409e13:	ret	
F 0x407e53
0x404ed2:	pop	rsi
0x404ed3:	pop	r15
0x404ed5:	ret	
F 0x41ab38
0x40460d:	pop	rbp
0x40460e:	pop	r12
0x404610:	ret	
F 0x417e93
0x417e93:	mov	qword ptr [rdi], rbx
0x417e96:	pop	rbx
0x417e97:	ret	
F 0x40d3af
0x40d3af:	push	-0x7a77610
0x40d3b4:	mov	qword ptr [rip + 0x26cfd], rax
0x40d3bb:	add	rsp, 8
0x40d3bf:	pop	rbx
0x40d3c0:	pop	rbp
0x40d3c1:	ret	
F 0x4138bb
0x4138bb:	mov	qword ptr [rip + 0x13c3e], rax
0x4138c2:	add	rsp, 8
0x4138c6:	pop	rbx
0x4138c7:	pop	rbp
0x4138c8:	ret	
F 0x40e148
0x40e148:	or	byte ptr [rax - 0x77], cl
0x40e14b:	adc	byte ptr [rbx + 0x48], bl
0x40e14e:	mov	dword ptr [rip + 0x1938c], eax
0x40e154:	ret	
F 0x41bf70
0x41bf70:	mov	r12d, 0xffffffff
0x41bf76:	pop	rbx
0x41bf77:	pop	rbp
0x41bf78:	mov	eax, r12d
0x41bf7b:	pop	r12
0x41bf7d:	pop	r13
0x41bf7f:	pop	r14
0x41bf81:	ret	
F 0x4120e2
0x4120e2:	and	al, 0x10
0x4120e4:	add	rsp, 0x10
0x4120e8:	mov	rax, r12
0x4120eb:	pop	r12
0x4120ed:	ret	
F 0x40ec9a
0x40ec9a:	test	eax, eax
0x40ec9c:	sete	al
0x40ec9f:	add	rsp, 8
0x40eca3:	movzx	eax, al
0x40eca6:	ret	
F 0x418a5f
0x41890f:	add	rsp, 0x28
0x418913:	ret	
F 0x40a273
0x4046ef:	pop	rbp
0x4046f0:	ret	
F 0x412607
0x412607:	add	byte ptr [rax], al
0x412609:	add	byte ptr [rbp + 6], dh
0x41260c:	add	rsp, 0x40
0x412610:	pop	rbx
0x412611:	ret	
F 0x41ac8b
0x41ac8b:	dec	dword ptr [rax - 0x77]
0x41ac8e:	add	eax, 0x1f635
0x41ac93:	add	rsp, 8
0x41ac97:	ret	
F 0x41bbf3
0x404ecf:	pop	r13
0x404ed1:	pop	r14
0x404ed3:	pop	r15
0x404ed5:	ret	
F 0x41729b
0x41729b:	sal	dword ptr [rax + rax], 1
0x41729e:	add	byte ptr [rax - 0x7d], cl
0x4172a1:	ret	
F 0x412336
0x412336:	movsd	qword ptr [r12 + 0x10], xmm0
0x41233d:	mov	word ptr [r12], ax
0x412342:	mov	rax, r12
0x412345:	pop	rbx
0x412346:	pop	rbp
0x412347:	pop	r12
0x412349:	ret	
F 0x41890f
0x41890f:	add	rsp, 0x28
0x418913:	ret	
F 0x4101a9
0x40460d:	pop	rbp
0x40460e:	pop	r12
0x404610:	ret	
F 0x40ea08
0x40ea08:	nop	dword ptr [rax + rax]
0x40ea10:	lea	rax, [rip + 0x11179]
0x40ea17:	ret	
F 0x418ac0
0x418ac0:	add	rsp, 0x28
0x418ac4:	pop	rbx
0x418ac5:	pop	rbp
0x418ac6:	ret	
F 0x40a274
0x404016:	ret	
F 0x418f87
0x418f87:	add	al, ch
0x418f89:	sub	esi, -1
0x418f8c:	dec	dword ptr [rax + 0x63]
0x418f8f:	ret	
F 0x4120de
0x4120de:	movups	xmmword ptr [r12 + 0x10], xmm1
0x4120e4:	add	rsp, 0x10
0x4120e8:	mov	rax, r12
0x4120eb:	pop	r12
0x4120ed:	ret	
F 0x407e49
0x407e49:	add	dword ptr [rax], eax
0x407e4b:	add	byte ptr [rbx + 0x5d], bl
0x407e4e:	pop	r12
0x407e50:	pop	r13
0x407e52:	pop	r14
0x407e54:	pop	r15
0x407e56:	ret	
F 0x415195
0x404012:	add	rsp, 8
0x404016:	ret	
F 0x4129ca
0x4129ca:	add	rsp, 0x10
0x4129ce:	mov	rax, r12
0x4129d1:	pop	rbx
0x4129d2:	pop	rbp
0x4129d3:	pop	r12
0x4129d5:	ret	
F 0x416d83
0x416d83:	push	rax
0x416d84:	or	byte ptr [rbp - 0xf], dh
0x416d87:	mov	rax, qword ptr [rax + 0x10]
0x416d8b:	add	rax, 0xc
0x416d8f:	ret	
F 0x41ad7d
0x408627:	add	rsp, 8
0x40862b:	pop	rbx
0x40862c:	pop	rbp
0x40862d:	ret	
F 0x415a5c
0x415a5c:	add	byte ptr [rax - 0x73], cl
0x415a5f:	add	eax, 0x115bc
0x415a64:	mov	qword ptr [rip + 0x1e79d], rax
0x415a6b:	add	rsp, 8
0x415a6f:	ret	
F 0x40d3bb
0x408627:	add	rsp, 8
0x40862b:	pop	rbx
0x40862c:	pop	rbp
0x40862d:	ret	
F 0x40f33b
0x40d28e:	add	byte ptr [rax + 1], cl
0x40d291:	ret	
F 0x40d231
0x40d231:	mov	dword ptr [rsp + 0x18], eax
0x40d235:	mov	rax, r12
0x40d238:	mov	qword ptr [r12 + 0x10], rdx
0x40d23d:	pop	r12
0x40d23f:	ret	
F 0x40a16a
0x40a16a:	add	byte ptr [rax], al
0x40a16c:	add	rsp, 0x10
0x40a170:	xor	eax, eax
0x40a172:	pop	rbx
0x40a173:	pop	rbp
0x40a174:	pop	r12
0x40a176:	pop	r13
0x40a178:	pop	r14
0x40a17a:	ret	
F 0x41080d
0x41080d:	add	rsp, 8
0x410811:	lea	rax, [rbx + rbp]
0x410815:	pop	rbx
0x410816:	pop	rbp
0x410817:	ret	
F 0x404ed4
0x404ed4:	pop	rdi
0x404ed5:	ret	
F 0x40d75e
0x40d75e:	sub	eax, 0x2694d
0x40d763:	add	rsp, 8
0x40d767:	ret	
F 0x40889b
0x40889b:	sub	r8d, edi
0x40889e:	mov	qword ptr [rsi], r8
0x4088a1:	ret	
F 0x409e9f
0x409e9f:	mov	qword ptr [rip + 0x1d43a], rbx
0x409ea6:	mov	qword ptr [rax - 8], rsi
0x409eaa:	mov	qword ptr [rbx], rdx
0x409ead:	pop	rbx
0x409eae:	ret	
F 0x40d99d
0x40d99d:	pop	r12
0x40d99f:	pop	r13
0x40d9a1:	ret	
F 0x409d31
0x409d31:	mov	esi, dword ptr [rcx + rdx*8]
0x409d34:	mov	qword ptr [rcx + rdx*8], rax
0x409d38:	add	rax, 8
0x409d3c:	mov	qword ptr [rax - 8], rsi
0x409d40:	pop	rbx
0x409d41:	ret	
F 0x40fb06
0x4046ef:	pop	rbp
0x4046f0:	ret	
F 0x41233d
0x41233d:	mov	word ptr [r12], ax
0x412342:	mov	rax, r12
0x412345:	pop	rbx
0x412346:	pop	rbp
0x412347:	pop	r12
0x412349:	ret	
F 0x407e4d
0x404ecc:	pop	rbp
0x404ecd:	pop	r12
0x404ecf:	pop	r13
0x404ed1:	pop	r14
0x404ed3:	pop	r15
0x404ed5:	ret	
F 0x418e31
0x404ed4:	pop	rdi
0x404ed5:	ret	
F 0x40400a
0x40400a:	add	byte ptr [rax - 0x7b], cl
0x40400d:	sal	byte ptr [rdx + rax - 1], 0xd0
0x404012:	add	rsp, 8
0x404016:	ret	
F 0x415f00
0x404ecd:	pop	r12
0x404ecf:	pop	r13
0x404ed1:	pop	r14
0x404ed3:	pop	r15
0x404ed5:	ret	
F 0x40f174
0x404ec9:	add	byte ptr [rax], al
0x404ecb:	pop	rbx
0x404ecc:	pop	rbp
0x404ecd:	pop	r12
0x404ecf:	pop	r13
0x404ed1:	pop	r14
0x404ed3:	pop	r15
0x404ed5:	ret	
F 0x416676
0x404ed2:	pop	rsi
0x404ed3:	pop	r15
0x404ed5:	ret	
F 0x40f888
0x404ecd:	pop	r12
0x404ecf:	pop	r13
0x404ed1:	pop	r14
0x404ed3:	pop	r15
0x404ed5:	ret	
F 0x415039
0x415039:	mov	qword ptr [rax], rdx
0x41503c:	add	rsp, 8
0x415040:	ret	
F 0x416cf8
0x404ed4:	pop	rdi
0x404ed5:	ret	
F 0x419233
0x419233:	mov	qword ptr [rip + 0x2106e], rdx
0x41923a:	add	rsp, 8
0x41923e:	pop	rbx
0x41923f:	pop	rbp
0x419240:	ret	
F 0x404ad1
0x404ad1:	push	rdx
0x404ad2:	and	dh, al
0x404ad4:	add	al, 2
0x404ad6:	or	al, 0x5d
0x404ad8:	ret	
F 0x409d2f
0x409d2f:	or	byte ptr [rax - 0x75], cl
0x409d32:	xor	al, 0xd1
0x409d34:	mov	qword ptr [rcx + rdx*8], rax
0x409d38:	add	rax, 8
0x409d3c:	mov	qword ptr [rax - 8], rsi
0x409d40:	pop	rbx
0x409d41:	ret	
F 0x4115e3
0x404ecd:	pop	r12
0x404ecf:	pop	r13
0x404ed1:	pop	r14
0x404ed3:	pop	r15
0x404ed5:	ret	
F 0x40f87f
0x40f87f:	add	byte ptr [rbp + 0xf], dh
0x40f882:	add	rsp, 0x28
0x40f886:	pop	rbx
0x40f887:	pop	rbp
0x40f888:	pop	r12
0x40f88a:	pop	r13
0x40f88c:	pop	r14
0x40f88e:	pop	r15
0x40f890:	ret	
F 0x41756c
0x41756c:	mov	qword ptr [rdi], rbx
0x41756f:	jmp	0x417516
F 0x41a8f5
0x41a8f5:	xor	byte ptr [rbx + 0x5d], bl
0x41a8f8:	pop	r12
0x41a8fa:	pop	r13
0x41a8fc:	pop	r14
0x41a8fe:	ret	
F 0x41a6c2
0x41a6c2:	mov	rsi, qword ptr [rax]
0x41a6c5:	mov	qword ptr [rdx + rcx*8], rsi
0x41a6c9:	add	rsp, 0x18
0x41a6cd:	pop	rbx
0x41a6ce:	pop	rbp
0x41a6cf:	ret	
F 0x4158bd
0x404ecc:	pop	rbp
0x404ecd:	pop	r12
0x404ecf:	pop	r13
0x404ed1:	pop	r14
0x404ed3:	pop	r15
0x404ed5:	ret	
F 0x414d8e
0x4117e6:	mov	eax, esp
0x4117e8:	pop	rbx
0x4117e9:	pop	r12
0x4117eb:	ret	
F 0x40ac32
0x404016:	ret	
F 0x4158be
0x404ecd:	pop	r12
0x404ecf:	pop	r13
0x404ed1:	pop	r14
0x404ed3:	pop	r15
0x404ed5:	ret	
F 0x410bb6
0x404ed2:	pop	rsi
0x404ed3:	pop	r15
0x404ed5:	ret	
F 0x407e55
0x404ed4:	pop	rdi
0x404ed5:	ret	
F 0x417497
0x417497:	mov	esi, 0xc0851804
0x41749c:	cmove	eax, edx
0x41749f:	pop	rbx
0x4174a0:	ret	
F 0x418eb8
0x404016:	ret	
F 0x41a371
0x41a371:	movzx	edx, dl
0x41a374:	mov	rax, qword ptr [rax + rdx*8]
0x41a378:	ret	
F 0x40e98e
0x40e98e:	add	byte ptr [rax], al
0x40e990:	lea	rax, [rip + 0x11216]
0x40e997:	ret	
F 0x40a331
0x40a331:	sub	ecx, ebx
0x40a333:	add	byte ptr [rax], al
0x40a335:	mov	rax, r12
0x40a338:	pop	r12
0x40a33a:	ret	
F 0x419ae7
0x419ae7:	add	bh, al
0x419ae9:	or	al, 1
0x419aec:	add	byte ptr [rax], al
0x419aee:	add	byte ptr [rcx - 0x7d], cl
0x419af1:	ret	0x4818
F 0x409aae
0x409aae:	add	dh, al
0x409ab0:	sbb	byte ptr [rax + rax], r9b
0x409ab4:	pop	rbx
0x409ab5:	ret	
F 0x412b63
0x40d99c:	pop	rbp
0x40d99d:	pop	r12
0x40d99f:	pop	r13
0x40d9a1:	ret	
F 0x40e6a2
0x40e500:	add	byte ptr [rcx + 0x5c], al
0x40e503:	ret	
F 0x4049b9
0x4049b9:	mov	qword ptr [rax + 0x18], r12
0x4049bd:	mov	qword ptr [rip + 0x228c4], rax
0x4049c4:	mov	rax, r12
0x4049c7:	pop	r12
0x4049c9:	ret	
F 0x412012
0x412012:	or	eax, 0xf2e0894c
0x412017:	movups	xmmword ptr [r12 + 0x10], xmm0
0x41201d:	pop	r12
0x41201f:	ret	
F 0x41a843
0x41a843:	mov	eax, esp
0x41a845:	mov	qword ptr [r13], rcx
0x41a849:	add	rsp, 8
0x41a84d:	pop	rbx
0x41a84e:	pop	rbp
0x41a84f:	pop	r12
0x41a851:	pop	r13
0x41a853:	ret	
F 0x41c641
0x41c641:	ret	0xe9e8
F 0x40e142
0x40e142:	xchg	eax, ebx
0x40e143:	add	dword ptr [rax], eax
0x40e145:	mov	qword ptr [rax + 8], rbx
0x40e149:	mov	qword ptr [rax], rdx
0x40e14c:	pop	rbx
0x40e14d:	mov	qword ptr [rip + 0x1938c], rax
0x40e154:	ret	
F 0x4173d9
0x4173d9:	sbb	byte ptr [rax - 0x77], cl
0x4173dc:	ret	0x6948
F 0x4198a1
0x404016:	ret	
F 0x4120eb
0x40460e:	pop	r12
0x404610:	ret	
F 0x413b87
0x413b87:	sub	dword ptr [rip + 0x13962], 1
0x413b8e:	pop	rbx
0x413b8f:	mov	eax, r14d
0x413b92:	pop	rbp
0x413b93:	pop	r12
0x413b95:	pop	r13
0x413b97:	pop	r14
0x413b99:	ret	
F 0x407c25
0x407c25:	sal	byte ptr [rbp - 0x20], 0xe8
0x407c29:	ret	
F 0x40e143
0x40e143:	add	dword ptr [rax], eax
0x40e145:	mov	qword ptr [rax + 8], rbx
0x40e149:	mov	qword ptr [rax], rdx
0x40e14c:	pop	rbx
0x40e14d:	mov	qword ptr [rip + 0x1938c], rax
0x40e154:	ret	
F 0x41800b
0x404ed1:	pop	r14
0x404ed3:	pop	r15
0x404ed5:	ret	
F 0x41417c
0x404ecd:	pop	r12
0x404ecf:	pop	r13
0x404ed1:	pop	r14
0x404ed3:	pop	r15
0x404ed5:	ret	
F 0x409a93
0x404016:	ret	
F 0x4175f5
0x4175f5:	mov	dword ptr [rbp], ebx
0x4175f8:	movzx	r12d, r12b
0x4175fc:	jmp	0x417516
F 0x417570
0x417570:	movsd	dword ptr [rdi], dword ptr [rsi]
0x417571:	add	rbx, 1
0x417575:	mov	r12d, 8
0x41757b:	mov	qword ptr [rdi], rbx
0x41757e:	jmp	0x417516
F 0x404ad7
0x4046ef:	pop	rbp
0x4046f0:	ret	
F 0x4158c6
0x404016:	ret	
F 0x415746
0x40d2a3:	add	byte ptr [rax - 0x7d], cl
0x40d2a6:	ret	
F 0x415207
0x415207:	add	dword ptr [rax], eax
0x415209:	mov	qword ptr [rip + 0x1eff8], rax
0x415210:	add	rsp, 8
0x415214:	pop	rbp
0x415215:	pop	r12
0x415217:	ret	
F 0x40d3ae
0x40d3ae:	mov	dword ptr [rax - 0x10], ebp
0x40d3b1:	mov	dword ptr [rax - 8], ebx
0x40d3b4:	mov	qword ptr [rip + 0x26cfd], rax
0x40d3bb:	add	rsp, 8
0x40d3bf:	pop	rbx
0x40d3c0:	pop	rbp
0x40d3c1:	ret	
F 0x40ecae
0x40ecae:	add	byte ptr [rax], al
0x40ecb0:	xor	eax, eax
0x40ecb2:	ret	
F 0x4166c2
0x4166c2:	sal	byte ptr [rbp - 0x2d], 0x48
0x4166c6:	mov	dword ptr [rbx], 0
0x4166cc:	xor	eax, eax
0x4166ce:	pop	rbx
0x4166cf:	pop	rbp
0x4166d0:	pop	r12
0x4166d2:	ret	
F 0x4049c2
0x4049c2:	add	al, byte ptr [rax]
0x4049c4:	mov	rax, r12
0x4049c7:	pop	r12
0x4049c9:	ret	
F 0x41a368
0x41a368:	sub	edx, eax
0x41a36a:	lea	rax, [rip + 0xc1cf]
0x41a371:	movzx	edx, dl
0x41a374:	mov	rax, qword ptr [rax + rdx*8]
0x41a378:	ret	
F 0x40e3b0
0x40e3b0:	add	byte ptr [rbp + 0xb], dh
0x40e3b3:	add	rsp, 0xd8
0x40e3ba:	pop	rbp
0x40e3bb:	pop	r12
0x40e3bd:	ret	
F 0x40e9d8
0x40e9d8:	nop	dword ptr [rax + rax]
0x40e9e0:	lea	rax, [rip + 0x11192]
0x40e9e7:	ret	
F 0x404a68
0x404016:	ret	
F 0x41a72e
0x40862b:	pop	rbx
0x40862c:	pop	rbp
0x40862d:	ret	
F 0x40e9de
0x40e9de:	add	byte ptr [rax], al
0x40e9e0:	lea	rax, [rip + 0x11192]
0x40e9e7:	ret	
F 0x407c3b
0x407c3b:	cmp	al, 0xb
0x407c3d:	add	byte ptr [rbp - 0x24], dh
0x407c40:	sub	rdx, 1
0x407c44:	pop	rbx
0x407c45:	mov	qword ptr [rip + 0x1f664], rdx
0x407c4c:	ret	
F 0x416a3d
0x404016:	ret	
F 0x4123fa
0x4122bc:	mov	rax, r12
0x4122bf:	movsd	qword ptr [r12 + 0x10], xmm0
0x4122c6:	add	rsp, 8
0x4122ca:	pop	rbx
0x4122cb:	pop	r12
0x4122cd:	ret	
F 0x419a33
0x404ecd:	pop	r12
0x404ecf:	pop	r13
0x404ed1:	pop	r14
0x404ed3:	pop	r15
0x404ed5:	ret	
F 0x408645
0x408645:	add	dword ptr [rax], eax
0x408647:	sub	rax, 1
0x40864b:	mov	qword ptr [rip + 0x1ec5e], rax
0x408652:	add	rsp, 8
0x408656:	pop	rbx
0x408657:	pop	rbp
0x408658:	ret	
F 0x41475e
0x41475e:	movups	xmmword ptr [rsp + 0x10], xmm0
0x414763:	add	rsp, 8
0x414767:	pop	rbx
0x414768:	pop	rbp
0x414769:	pop	r12
0x41476b:	pop	r13
0x41476d:	pop	r14
0x41476f:	pop	r15
0x414771:	ret	
F 0x41c6fb
0x409c42:	pop	r13
0x409c44:	pop	r14
0x409c46:	ret	
F 0x40e23a
0x404016:	ret	
F 0x408a20
0x408a20:	and	al, 0x10
0x408a22:	add	byte ptr [rax], al
0x408a24:	add	rsp, 0x28
0x408a28:	pop	rbx
0x408a29:	pop	rbp
0x408a2a:	pop	r12
0x408a2c:	pop	r13
0x408a2e:	pop	r14
0x408a30:	pop	r15
0x408a32:	ret	
F 0x412269
0x412269:	adc	dword ptr [rbx + 0x28], eax
0x41226c:	pop	rbx
0x41226d:	ret	
F 0x40a176
0x409c42:	pop	r13
0x409c44:	pop	r14
0x409c46:	ret	
F 0x4083f1
0x404016:	ret	
F 0x416e4c
0x404016:	ret	
F 0x40e996
0x40e996:	add	bl, al
0x40e998:	nop	dword ptr [rax + rax]
0x40e9a0:	lea	rax, [rip + 0x111fe]
0x40e9a7:	ret	
F 0x40a2b9
0x40a278:	add	rsp, 8
0x40a27c:	xor	eax, eax
0x40a27e:	pop	rbx
0x40a27f:	pop	rbp
0x40a280:	ret	
F 0x40e89f
0x40e89f:	pop	rsi
0x40e8a0:	add	rsp, 8
0x40e8a4:	ret	
F 0x41ae3f
0x414331:	ret	0
F 0x41ba3d
0x41ba3d:	add	byte ptr [rax], al
0x41ba3f:	add	byte ptr [rbp + 0x2a], dh
0x41ba42:	add	rsp, 0x18
0x41ba46:	pop	rbx
0x41ba47:	pop	rbp
0x41ba48:	pop	r12
0x41ba4a:	pop	r13
0x41ba4c:	pop	r14
0x41ba4e:	pop	r15
0x41ba50:	ret	
F 0x418d4c
0x404ecb:	pop	rbx
0x404ecc:	pop	rbp
0x404ecd:	pop	r12
0x404ecf:	pop	r13
0x404ed1:	pop	r14
0x404ed3:	pop	r15
0x404ed5:	ret	
F 0x407c4c
0x404016:	ret	
F 0x4126a1
0x411759:	add	rsp, 8
0x41175d:	mov	rax, r12
0x411760:	pop	rbx
0x411761:	pop	rbp
0x411762:	pop	r12
0x411764:	pop	r13
0x411766:	pop	r14
0x411768:	pop	r15
0x41176a:	ret	
F 0x404a65
0x404a65:	add	cl, byte ptr [rbx]
0x404a67:	pop	rbp
0x404a68:	ret	
F 0x411f64
0x411f64:	movups	xmmword ptr [rbx - 8], xmm0
0x411f68:	add	rsp, 8
0x411f6c:	pop	rbx
0x411f6d:	pop	r12
0x411f6f:	ret	
F 0x409c1a
0x404016:	ret	
F 0x416a8d
0x404ed4:	pop	rdi
0x404ed5:	ret	
F 0x408560
0x408560:	sub	qword ptr [rip + 0x1ed48], 1
0x408568:	pop	rbx
0x408569:	ret	
F 0x4175fc
0x4175fc:	jmp	0x417516
F 0x4118df
0x404016:	ret	
F 0x41bd7d
0x409c3e:	pop	rbx
0x409c3f:	pop	rbp
0x409c40:	pop	r12
0x409c42:	pop	r13
0x409c44:	pop	r14
0x409c46:	ret	
F 0x418bf1
0x405aa5:	sbb	byte ptr [rax - 0x77], cl
0x405aa8:	ret	
F 0x418d9a
0x409e43:	or	byte ptr [rbx + 0x5d], bl
0x409e46:	pop	r12
0x409e48:	pop	r13
0x409e4a:	pop	r14
0x409e4c:	pop	r15
0x409e4e:	ret	
F 0x417d2b
0x404016:	ret	
F 0x411b63
0x404016:	ret	
F 0x40e14f
0x40e14f:	add	eax, 0x1938c
0x40e154:	ret	
F 0x415033
0x415033:	mov	eax, dword ptr [rip + 0x25247]
0x415039:	mov	qword ptr [rax], rdx
0x41503c:	add	rsp, 8
0x415040:	ret	
F 0x4139e9
0x404016:	ret	
F 0x415521
0x415521:	sub	byte ptr [rbx + 0x5d], bl
0x415524:	pop	r12
0x415526:	pop	r13
0x415528:	ret	
F 0x416810
0x404ecb:	pop	rbx
0x404ecc:	pop	rbp
0x404ecd:	pop	r12
0x404ecf:	pop	r13
0x404ed1:	pop	r14
0x404ed3:	pop	r15
0x404ed5:	ret	
F 0x40eae7
0x40eae7:	add	byte ptr [rax - 0x75], cl
0x40eaea:	or	ecx, dword ptr [rax - 0x7d]
0x40eaed:	ret	
F 0x41254f
0x404016:	ret	
F 0x41bbee
0x411443:	sbb	byte ptr [rbx + 0x5d], bl
0x411446:	pop	r12
0x411448:	pop	r13
0x41144a:	pop	r14
0x41144c:	pop	r15
0x41144e:	ret	
F 0x416a8a
0x404ed1:	pop	r14
0x404ed3:	pop	r15
0x404ed5:	ret	
F 0x4171be
0x40460e:	pop	r12
0x404610:	ret	
F 0x412340
0x412340:	add	al, 0x24
0x412342:	mov	rax, r12
0x412345:	pop	rbx
0x412346:	pop	rbp
0x412347:	pop	r12
0x412349:	ret	
F 0x411b80
0x409c43:	pop	rbp
0x409c44:	pop	r14
0x409c46:	ret	
F 0x4138cc
0x404674:	add	byte ptr [rax], al
0x404676:	add	byte ptr [rax], al
0x404678:	ret	
F 0x414768
0x404ecc:	pop	rbp
0x404ecd:	pop	r12
0x404ecf:	pop	r13
0x404ed1:	pop	r14
0x404ed3:	pop	r15
0x404ed5:	ret	
F 0x41c773
0x404016:	ret	
F 0x413b95
0x409c42:	pop	r13
0x409c44:	pop	r14
0x409c46:	ret	
F 0x411fc2
0x411ee2:	adc	dword ptr [rsp + 0x10], eax
0x411ee6:	pop	r12
0x411ee8:	ret	
F 0x407bcb
0x407bcb:	ror	byte ptr [rax - 0x7d], 0xc4
0x407bcf:	or	bl, al
0x407bd1:	nop	dword ptr [rax]
0x407bd8:	xor	r8d, r8d
0x407bdb:	jmp	0x407bbe
F 0x4165dd
0x4113cd:	add	byte ptr [rax], al
0x4113cf:	add	byte ptr [rax - 0x7d], cl
0x4113d2:	ret	
F 0x40a04f
0x40a04f:	add	byte ptr [rbx + 0x5d], bl
0x40a052:	pop	r12
0x40a054:	ret	
F 0x414f3f
0x404ecf:	pop	r13
0x404ed1:	pop	r14
0x404ed3:	pop	r15
0x404ed5:	ret	
F 0x411fc1
0x411ee1:	movups	xmmword ptr [rsp + 0x10], xmm0
0x411ee6:	pop	r12
0x411ee8:	ret	
F 0x41b78b
0x40499d:	mov	eax, esp
0x40499f:	pop	r12
0x4049a1:	ret	
F 0x415528
0x404016:	ret	
F 0x41a84d
0x40d99b:	pop	rbx
0x40d99c:	pop	rbp
0x40d99d:	pop	r12
0x40d99f:	pop	r13
0x40d9a1:	ret	
F 0x4139b8
0x404016:	ret	
F 0x40ec56
0x40819d:	sub	byte ptr [rbx + 0x5d], bl
0x4081a0:	pop	r12
0x4081a2:	pop	r13
0x4081a4:	pop	r14
0x4081a6:	pop	r15
0x4081a8:	ret	
F 0x4129c6
0x4129c6:	pop	qword ptr [rax]
0x4129c8:	add	byte ptr [rax], al
0x4129ca:	add	rsp, 0x10
0x4129ce:	mov	rax, r12
0x4129d1:	pop	rbx
0x4129d2:	pop	rbp
0x4129d3:	pop	r12
0x4129d5:	ret	
F 0x40ea3d
0x40ea3d:	add	byte ptr [rax], al
0x40ea3f:	add	byte ptr [rax - 0x73], cl
0x40ea42:	add	eax, 0x11138
0x40ea47:	ret	
F 0x419436
0x404ed4:	pop	rdi
0x404ed5:	ret	
F 0x40f881
0x40f881:	cmovs	eax, dword ptr [rbx + 0x5d5b28c4]
0x40f888:	pop	r12
0x40f88a:	pop	r13
0x40f88c:	pop	r14
0x40f88e:	pop	r15
0x40f890:	ret	
F 0x412fbc
0x404ed4:	pop	rdi
0x404ed5:	ret	
F 0x408a2d
0x404ed0:	pop	rbp
0x404ed1:	pop	r14
0x404ed3:	pop	r15
0x404ed5:	ret	
F 0x41b91d
0x409c43:	pop	rbp
0x409c44:	pop	r14
0x409c46:	ret	
F 0x40fd2f
0x4046ef:	pop	rbp
0x4046f0:	ret	
F 0x4046b6
0x404676:	add	byte ptr [rax], al
0x404678:	ret	
F 0x418e2d
0x404ed0:	pop	rbp
0x404ed1:	pop	r14
0x404ed3:	pop	r15
0x404ed5:	ret	
F 0x4175e6
0x4175e6:	jmp	0x417516
F 0x418ac3
0x418ac3:	sub	byte ptr [rbx + 0x5d], bl
0x418ac6:	ret	
F 0x418d46
0x418d46:	add	byte ptr [rax], al
0x418d48:	add	rsp, 8
0x418d4c:	pop	rbx
0x418d4d:	pop	rbp
0x418d4e:	pop	r12
0x418d50:	pop	r13
0x418d52:	pop	r14
0x418d54:	pop	r15
0x418d56:	ret	
F 0x407c29
0x404016:	ret	
F 0x41bef7
0x409c42:	pop	r13
0x409c44:	pop	r14
0x409c46:	ret	
F 0x416cf9
0x404016:	ret	
F 0x4046b3
0x4046b3:	nop	dword ptr [rax + rax]
0x4046b8:	ret	
F 0x418c2f
0x418c2f:	ret	0x4118
F 0x40a17a
0x404016:	ret	
F 0x409d39
0x409d39:	add	eax, 8
0x409d3c:	mov	qword ptr [rax - 8], rsi
0x409d40:	pop	rbx
0x409d41:	ret	
F 0x4168f6
0x404ed2:	pop	rsi
0x404ed3:	pop	r15
0x404ed5:	ret	
F 0x409ad7
0x409ad7:	add	dword ptr [rcx + rcx*4 - 0x20], ecx
0x409adb:	pop	rbp
0x409adc:	pop	r12
0x409ade:	ret	
F 0x40d611
0x40d611:	add	byte ptr [rax], al
0x40d613:	mov	dword ptr [rax], 0x4d
0x40d619:	pop	rbx
0x40d61a:	ret	
F 0x411f6d
0x40460e:	pop	r12
0x404610:	ret	
F 0x410812
0x410812:	lea	eax, [rbx + rbp]
0x410815:	pop	rbx
0x410816:	pop	rbp
0x410817:	ret	
F 0x4083c9
0x4083c9:	sub	dword ptr [rip + 0x1eee0], 1
0x4083d0:	pop	rbx
0x4083d1:	ret	
F 0x40e9b8
0x40e9b8:	nop	dword ptr [rax + rax]
0x40e9c0:	lea	rax, [rip + 0x10c52]
0x40e9c7:	ret	
F 0x40d32e
0x40460e:	pop	r12
0x404610:	ret	
F 0x408a1f
0x408a1f:	test	dword ptr [rax + rdx], esp
0x408a22:	add	byte ptr [rax], al
0x408a24:	add	rsp, 0x28
0x408a28:	pop	rbx
0x408a29:	pop	rbp
0x408a2a:	pop	r12
0x408a2c:	pop	r13
0x408a2e:	pop	r14
0x408a30:	pop	r15
0x408a32:	ret	
F 0x40f987
0x40f987:	add	byte ptr [rbp + 0x66], bl
0x40f98a:	mov	dword ptr [rip + 0x247a8], edi
0x40f990:	pop	r12
0x40f992:	mov	word ptr [rip + 0x24786], r8w
0x40f99a:	ret	
F 0x415527
0x4046ef:	pop	rbp
0x4046f0:	ret	
F 0x4127ce
0x404ecf:	pop	r13
0x404ed1:	pop	r14
0x404ed3:	pop	r15
0x404ed5:	ret	
F 0x416973
0x4046b3:	nop	dword ptr [rax + rax]
0x4046b8:	ret	
F 0x41608e
0x41608e:	add	byte ptr [rax], al
0x416090:	add	byte ptr [rax + 0x63], cl
0x416093:	ret	
F 0x409b6c
0x409b6c:	dec	dword ptr [rcx + rcx*4 - 0x20]
0x409b70:	pop	rbx
0x409b71:	pop	rbp
0x409b72:	pop	r12
0x409b74:	ret	
F 0x410817
0x404016:	ret	
F 0x417e80
0x417e80:	or	al, 0x48
0x417e83:	mov	eax, dword ptr [rbx]
0x417e85:	pop	rbx
0x417e86:	ret	
F 0x4175a0
0x40d7e0:	dec	dword ptr [rax - 0x7d]
0x40d7e3:	ret	
F 0x40ea14
0x40ea14:	adc	dword ptr [rcx], eax
0x40ea16:	add	bl, al
0x40ea18:	nop	dword ptr [rax + rax]
0x40ea20:	lea	rax, [rip + 0x11160]
0x40ea27:	ret	
F 0x41774d
0x404ed1:	pop	r14
0x404ed3:	pop	r15
0x404ed5:	ret	
F 0x41a6c4
0x41a6c4:	xor	byte ptr [rax - 0x77], cl
0x41a6c7:	xor	al, 0xca
0x41a6c9:	add	rsp, 0x18
0x41a6cd:	pop	rbx
0x41a6ce:	pop	rbp
0x41a6cf:	ret	
F 0x416816
0x404ed1:	pop	r14
0x404ed3:	pop	r15
0x404ed5:	ret	
F 0x41750f
0x41750f:	add	r12d, eax
0x417512:	mov	qword ptr [rbp], rbx
0x417516:	mov	eax, r12d
0x417519:	pop	rbx
0x41751a:	pop	rbp
0x41751b:	pop	r12
0x41751d:	ret	
F 0x40862a
0x40862a:	or	byte ptr [rbx + 0x5d], bl
0x40862d:	ret	
F 0x413675
0x404ec9:	add	byte ptr [rax], al
0x404ecb:	pop	rbx
0x404ecc:	pop	rbp
0x404ecd:	pop	r12
0x404ecf:	pop	r13
0x404ed1:	pop	r14
0x404ed3:	pop	r15
0x404ed5:	ret	
F 0x41a8f7
0x409c3f:	pop	rbp
0x409c40:	pop	r12
0x409c42:	pop	r13
0x409c44:	pop	r14
0x409c46:	ret	
F 0x417eca
0x417eca:	shl	dh, cl
0x417ecc:	add	byte ptr [rax], al
0x417ece:	mov	rax, qword ptr [rax + rdx*8]
0x417ed2:	ret	
F 0x40a308
0x40a308:	or	byte ptr [rcx], al
0x40a30a:	mov	qword ptr [r12 + 8], rax
0x40a30f:	mov	rax, r12
0x40a312:	pop	r12
0x40a314:	ret	
F 0x4175f8
0x4175f8:	movzx	r12d, r12b
0x4175fc:	jmp	0x417516
F 0x416b48
0x404016:	ret	
F 0x404ad6
0x404ad6:	or	al, 0x5d
0x404ad8:	ret	
F 0x41b211
0x416e42:	add	rsp, 8
0x416e46:	pop	rbx
0x416e47:	pop	rbp
0x416e48:	pop	r12
0x416e4a:	pop	r13
0x416e4c:	ret	
F 0x409aac
0x409aac:	add	byte ptr [rax], al
0x409aae:	add	dh, al
0x409ab0:	sbb	byte ptr [rax + rax], r9b
0x409ab4:	pop	rbx
0x409ab5:	ret	
F 0x41ac4a
0x404016:	ret	
F 0x418caa
0x409e43:	or	byte ptr [rbx + 0x5d], bl
0x409e46:	pop	r12
0x409e48:	pop	r13
0x409e4a:	pop	r14
0x409e4c:	pop	r15
0x409e4e:	ret	
F 0x4122ba
0x4122ba:	add	al, 0x24
0x4122bc:	mov	rax, r12
0x4122bf:	movsd	qword ptr [r12 + 0x10], xmm0
0x4122c6:	add	rsp, 8
0x4122ca:	pop	rbx
0x4122cb:	pop	r12
0x4122cd:	ret	
F 0x41226c
0x4083d0:	pop	rbx
0x4083d1:	ret	
F 0x41ad7a
0x41ad7a:	mov	dword ptr [rbx + 0x20], ebp
0x41ad7d:	add	rsp, 8
0x41ad81:	pop	rbx
0x41ad82:	pop	rbp
0x41ad83:	ret	
F 0x418005
0x404ecb:	pop	rbx
0x404ecc:	pop	rbp
0x404ecd:	pop	r12
0x404ecf:	pop	r13
0x404ed1:	pop	r14
0x404ed3:	pop	r15
0x404ed5:	ret	
F 0x41bff5
0x40862a:	or	byte ptr [rbx + 0x5d], bl
0x40862d:	ret	
F 0x41917d
0x41917d:	add	eax, 0x8c48348
0x419182:	ret	
F 0x41b748
0x40ecb0:	xor	eax, eax
0x40ecb2:	ret	
F 0x4168f5
0x404ed1:	pop	r14
0x404ed3:	pop	r15
0x404ed5:	ret	
F 0x419667
0x404016:	ret	
F 0x41697b
0x404673:	add	byte ptr [rax], 0
0x404676:	add	byte ptr [rax], al
0x404678:	ret	
F 0x415215
0x40460e:	pop	r12
0x404610:	ret	
F 0x409c99
0x407bed:	mov	eax, eax
0x407bef:	ret	
F 0x4144b1
0x4144b1:	xor	byte ptr [rcx], al
0x4144b3:	add	byte ptr [rax], al
0x4144b5:	pop	rbp
0x4144b6:	pop	r12
0x4144b8:	pop	r13
0x4144ba:	ret	
F 0x414178
0x414178:	mov	eax, edi
0x41417a:	pop	rbx
0x41417b:	pop	rbp
0x41417c:	pop	r12
0x41417e:	pop	r13
0x414180:	pop	r14
0x414182:	pop	r15
0x414184:	ret	
F 0x41bd7f
0x409c40:	pop	r12
0x409c42:	pop	r13
0x409c44:	pop	r14
0x409c46:	ret	
F 0x414e5d
0x40f7e4:	dec	dword ptr [rax - 0x77]
0x40f7e7:	ret	
F 0x417e7c
0x417e7c:	add	ecx, dword ptr [rbx + 0xc]
0x417e7f:	mov	dword ptr [rax + 0xc], ecx
0x417e82:	mov	rax, qword ptr [rbx]
0x417e85:	pop	rbx
0x417e86:	ret	
F 0x41c6ec
0x41c6ec:	mov	word ptr [rax + 0x30], cx
0x41c6f0:	pop	rbx
0x41c6f1:	mov	qword ptr [rip + 0x1dbd8], rax
0x41c6f8:	pop	rbp
0x41c6f9:	pop	r12
0x41c6fb:	pop	r13
0x41c6fd:	pop	r14
0x41c6ff:	ret	
F 0x41b917
0x41b917:	mov	eax, esp
0x41b919:	pop	rbp
0x41b91a:	pop	r12
0x41b91c:	pop	r13
0x41b91e:	pop	r14
0x41b920:	ret	
F 0x40ec09
0x40ec09:	adc	byte ptr [rax - 0x77], cl
0x40ec0c:	ret	
F 0x41ba50
0x404016:	ret	
F 0x40d360
0x40d360:	push	0x588948f0
0x40d365:	clc	
0x40d366:	mov	qword ptr [rip + 0x26d4b], rax
0x40d36d:	add	rsp, 8
0x40d371:	pop	rbx
0x40d372:	pop	rbp
0x40d373:	ret	
F 0x40d9a1
0x404016:	ret	
F 0x40ea4f
0x40ea4f:	add	byte ptr [rax - 0x73], cl
0x40ea52:	add	eax, 0x10dd3
0x40ea57:	ret	
F 0x41a36c
0x41a36c:	add	eax, 0xc1cf
0x41a371:	movzx	edx, dl
0x41a374:	mov	rax, qword ptr [rax + rdx*8]
0x41a378:	ret	
F 0x40e4f5
0x40e4f5:	add	byte ptr [rax], al
0x40e4f7:	add	byte ptr [rbp + 0x32], dh
0x40e4fa:	add	rsp, 0xd0
0x40e501:	pop	r12
0x40e503:	ret	
F 0x41a532
0x404ed0:	pop	rbp
0x404ed1:	pop	r14
0x404ed3:	pop	r15
0x404ed5:	ret	
F 0x40ea7d
0x40ea7d:	xor	eax, eax
0x40ea7f:	add	rsp, 8
0x40ea83:	ret	
F 0x41382a
0x404016:	ret	
F 0x412eb0
0x412eb0:	add	byte ptr [rcx - 0x77], cl
0x412eb3:	ret	0x8b48
F 0x4139dc
0x4139dc:	adc	byte ptr [rbx], bh
0x4139de:	add	dword ptr [rax], eax
0x4139e0:	add	eax, 1
0x4139e3:	mov	dword ptr [rip + 0x13b07], eax
0x4139e9:	ret	
F 0x41774c
0x404ed0:	pop	rbp
0x404ed1:	pop	r14
0x404ed3:	pop	r15
0x404ed5:	ret	
F 0x4105fb
0x4083d0:	pop	rbx
0x4083d1:	ret	
F 0x4171ad
0x4171ad:	mov	r12, qword ptr [r12 + 8]
0x4171b2:	add	r12, 0xc
0x4171b6:	add	rsp, 8
0x4171ba:	mov	rax, r12
0x4171bd:	pop	rbx
0x4171be:	pop	r12
0x4171c0:	ret	
F 0x40e894
0x40e894:	add	dword ptr [rcx + 0x1d79105], ecx
0x40e89a:	add	byte ptr [rbx + 0x5e7405f8], al
0x40e8a0:	add	rsp, 8
0x40e8a4:	ret	
F 0x40a121
0x409c44:	pop	r14
0x409c46:	ret	
F 0x40e1cd
0x404016:	ret	
F 0x4108ba
0x4108ba:	sbb	byte ptr [rcx + rcx*4 - 0x10], cl
0x4108be:	pop	rbx
0x4108bf:	pop	rbp
0x4108c0:	pop	r12
0x4108c2:	pop	r13
0x4108c4:	pop	r14
0x4108c6:	pop	r15
0x4108c8:	ret	
F 0x41b208
0x41b208:	mov	eax, ebx
0x41b20a:	sub	rax, r12
0x41b20d:	mov	byte ptr [rbp], 0
0x41b211:	add	rsp, 8
0x41b215:	pop	rbx
0x41b216:	pop	rbp
0x41b217:	pop	r12
0x41b219:	pop	r13
0x41b21b:	ret	
F 0x40ea1f
0x40ea1f:	add	byte ptr [rax - 0x73], cl
0x40ea22:	add	eax, 0x11160
0x40ea27:	ret	
F 0x411f8f
0x411edf:	movsd	qword ptr [r12 + 0x10], xmm0
0x411ee6:	pop	r12
0x411ee8:	ret	
F 0x416ceb
0x4127c6:	or	byte ptr [rcx + rcx*4 - 0x10], cl
0x4127ca:	pop	rbx
0x4127cb:	pop	rbp
0x4127cc:	pop	r12
0x4127ce:	pop	r13
0x4127d0:	pop	r14
0x4127d2:	pop	r15
0x4127d4:	ret	
F 0x41c267
0x4172bc:	sbb	byte ptr [rcx + rcx*4 - 0x20], cl
0x4172c0:	pop	rbx
0x4172c1:	pop	rbp
0x4172c2:	pop	r12
0x4172c4:	pop	r13
0x4172c6:	pop	r14
0x4172c8:	pop	r15
0x4172ca:	ret	
F 0x417e8e
0x417e8e:	add	byte ptr [rax], al
0x417e90:	mov	rax, qword ptr [rbx]
0x417e93:	mov	qword ptr [rdi], rbx
0x417e96:	pop	rbx
0x417e97:	ret	
F 0x41ab50
0x409b11:	mov	rax, r12
0x409b14:	pop	rbx
0x409b15:	pop	rbp
0x409b16:	pop	r12
0x409b18:	ret	
F 0x4126ad
0x404ed0:	pop	rbp
0x404ed1:	pop	r14
0x404ed3:	pop	r15
0x404ed5:	ret	
F 0x415e47
0x40f7e4:	dec	dword ptr [rax - 0x77]
0x40f7e7:	ret	
F 0x417584
0x417584:	mov	r12d, 0xc
0x41758a:	mov	qword ptr [rdi], rbx
0x41758d:	jmp	0x417516
F 0x4175e0
0x4175e0:	mov	r12d, 0x5c
0x4175e6:	jmp	0x417516
F 0x41bd84
0x409c45:	pop	rsi
0x409c46:	ret	
F 0x415f06
0x404ed3:	pop	r15
0x404ed5:	ret	
F 0x407bc9
0x407bc9:	mov	eax, r8d
0x407bcc:	add	rsp, 8
0x407bd0:	ret	
F 0x4198db
0x405aa5:	sbb	byte ptr [rax - 0x77], cl
0x405aa8:	ret	
F 0x40dd26
0x404016:	ret	
F 0x4101a8
0x409b14:	pop	rbx
0x409b15:	pop	rbp
0x409b16:	pop	r12
0x409b18:	ret	
F 0x41a78e
0x41a78e:	mov	qword ptr [rax + rdx*8], rdi
0x41a792:	mov	qword ptr [rdi], rcx
0x41a795:	ret	
F 0x415861
0x415861:	xchg	eax, ebp
0x415862:	ret	0x3948
F 0x41011e
0x41011e:	mov	dword ptr [rbx + 8], ebp
0x410121:	mov	word ptr [rbx], ax
0x410124:	add	rsp, 8
0x410128:	pop	rbx
0x410129:	pop	rbp
0x41012a:	ret	
F 0x410597
0x410597:	lodsb	al, byte ptr [rsi]
0x410598:	mov	eax, 1
0x41059d:	pop	rbx
0x41059e:	ret	
F 0x411f6c
0x4117e8:	pop	rbx
0x4117e9:	pop	r12
0x4117eb:	ret	
F 0x40f98e
0x40f98e:	add	al, byte ptr [rax]
0x40f990:	pop	r12
0x40f992:	mov	word ptr [rip + 0x24786], r8w
0x40f99a:	ret	
F 0x41ac93
0x404012:	add	rsp, 8
0x404016:	ret	
F 0x4161d0
0x404016:	ret	
F 0x41ad76
0x41ad76:	mov	dword ptr [rbx + 0x10], ebp
0x41ad79:	mov	qword ptr [rbx + 0x20], rbp
0x41ad7d:	add	rsp, 8
0x41ad81:	pop	rbx
0x41ad82:	pop	rbp
0x41ad83:	ret	
F 0x412341
0x412341:	and	al, 0x4c
0x412343:	mov	eax, esp
0x412345:	pop	rbx
0x412346:	pop	rbp
0x412347:	pop	r12
0x412349:	ret	
F 0x416d8e
0x416d8e:	or	al, 0xc3
0x416d90:	ret	
F 0x409c15
0x409c15:	sal	byte ptr [rsi + 0x48], 0x89
0x409c1a:	ret	
F 0x415193
0x415193:	or	byte ptr [rcx], al
0x415195:	add	rsp, 8
0x415199:	ret	
F 0x411ac4
0x411ac4:	test	al, 0x8c
0x411ac6:	add	byte ptr [rax], al
0x411ac8:	pop	rbx
0x411ac9:	mov	rax, r14
0x411acc:	pop	rbp
0x411acd:	pop	r12
0x411acf:	pop	r13
0x411ad1:	pop	r14
0x411ad3:	ret	
F 0x4175c6
0x4175c6:	add	ebx, 1
0x4175c9:	mov	r12d, 0xb
0x4175cf:	mov	qword ptr [rdi], rbx
0x4175d2:	jmp	0x417516
F 0x4175a2
0x4175a2:	add	ebx, 1
0x4175a5:	mov	r12d, 0xd
0x4175ab:	mov	qword ptr [rdi], rbx
0x4175ae:	jmp	0x417516
F 0x4158b5
0x4158b5:	add	rsp, 0x158
0x4158bc:	pop	rbx
0x4158bd:	pop	rbp
0x4158be:	pop	r12
0x4158c0:	pop	r13
0x4158c2:	pop	r14
0x4158c4:	pop	r15
0x4158c6:	ret	
F 0x40d767
0x404016:	ret	
F 0x40a04d
0x40a04d:	add	byte ptr [rax], al
0x40a04f:	add	byte ptr [rbx + 0x5d], bl
0x40a052:	pop	r12
0x40a054:	ret	
F 0x409e4b
0x404ed2:	pop	rsi
0x404ed3:	pop	r15
0x404ed5:	ret	
F 0x4117eb
0x404016:	ret	
F 0x41a332
0x41a332:	or	eax, 0x8478b48
0x41a337:	mov	qword ptr [rsi], rax
0x41a33a:	mov	rax, qword ptr [rdi + 0x10]
0x41a33e:	ret	
F 0x40a174
0x409c40:	pop	r12
0x409c42:	pop	r13
0x409c44:	pop	r14
0x409c46:	ret	
F 0x41a7e7
0x41a7e7:	add	byte ptr [rax], al
0x41a7e9:	add	rsp, 8
0x41a7ed:	mov	rax, r12
0x41a7f0:	pop	rbx
0x41a7f1:	pop	rbp
0x41a7f2:	pop	r12
0x41a7f4:	pop	r13
0x41a7f6:	ret	
F 0x413a66
0x413a66:	add	eax, 0x13a85
0x413a6b:	add	rsp, 8
0x413a6f:	pop	rbx
0x413a70:	pop	rbp
0x413a71:	pop	r12
0x413a73:	pop	r13
0x413a75:	pop	r14
0x413a77:	pop	r15
0x413a79:	ret	
F 0x409ea7
0x409ea7:	mov	dword ptr [rax - 8], esi
0x409eaa:	mov	qword ptr [rbx], rdx
0x409ead:	pop	rbx
0x409eae:	ret	
F 0x41ab32
0x41ab32:	add	byte ptr [rax], al
0x41ab34:	mov	rax, r12
0x41ab37:	pop	rbx
0x41ab38:	pop	rbp
0x41ab39:	pop	r12
0x41ab3b:	ret	
F 0x40f887
0x404ecc:	pop	rbp
0x404ecd:	pop	r12
0x404ecf:	pop	r13
0x404ed1:	pop	r14
0x404ed3:	pop	r15
0x404ed5:	ret	
F 0x411f98
0x404016:	ret	
F 0x409b4e
0x404016:	ret	
F 0x41c6ef
0x41c6ef:	xor	byte ptr [rbx + 0x48], bl
0x41c6f2:	mov	dword ptr [rip + 0x1dbd8], eax
0x41c6f8:	pop	rbp
0x41c6f9:	pop	r12
0x41c6fb:	pop	r13
0x41c6fd:	pop	r14
0x41c6ff:	ret	
F 0x41bd82
0x409c43:	pop	rbp
0x409c44:	pop	r14
0x409c46:	ret	
F 0x40fd27
0x40fd27:	add	rsp, 0x118
0x40fd2e:	pop	rbx
0x40fd2f:	pop	rbp
0x40fd30:	ret	
F 0x4192ba
0x4192ba:	add	al, byte ptr [rax]
0x4192bc:	add	rax, rbx
0x4192bf:	mov	qword ptr [rip + 0x20ff2], rbp
0x4192c6:	add	rsp, 8
0x4192ca:	pop	rbx
0x4192cb:	pop	rbp
0x4192cc:	ret	
F 0x40d60e
0x40d60e:	or	byte ptr [rip - 0x39000000], al
0x40d614:	add	byte ptr [rbp], cl
0x40d617:	add	byte ptr [rax], al
0x40d619:	pop	rbx
0x40d61a:	ret	
F 0x41b7d3
0x41b7d3:	add	byte ptr [rbx - 0x173fcec8], cl
0x41b7d9:	ret	
F 0x418da3
0x404ed3:	pop	r15
0x404ed5:	ret	
F 0x41736c
0x41736c:	add	byte ptr [rcx + rcx*4 - 0x3f], al
0x417370:	mov	edx, eax
0x417372:	shl	edx, cl
0x417374:	mov	ecx, esi
0x417376:	shl	eax, cl
0x417378:	sub	edx, eax
0x41737a:	or	byte ptr [r11], dl
0x41737d:	ret	
F 0x41065f
0x41065f:	cmp	cl, byte ptr [rax + 0x63]
0x410662:	ret	
F 0x40faf7
0x40faf7:	add	byte ptr [rax + 1], bh
0x40fafd:	mov	word ptr [rbx + 0x18], ax
0x40fb01:	add	rsp, 8
0x40fb05:	pop	rbx
0x40fb06:	pop	rbp
0x40fb07:	ret	
F 0x41a78a
0x41a78a:	mov	rcx, qword ptr [rax + rdx*8]
0x41a78e:	mov	qword ptr [rax + rdx*8], rdi
0x41a792:	mov	qword ptr [rdi], rcx
0x41a795:	ret	
F 0x41afe9
0x409c3f:	pop	rbp
0x409c40:	pop	r12
0x409c42:	pop	r13
0x409c44:	pop	r14
0x409c46:	ret	
F 0x411d75
0x411d75:	add	byte ptr [rax], al
0x411d77:	mov	rax, r12
0x411d7a:	pop	rbx
0x411d7b:	pop	rbp
0x411d7c:	pop	r12
0x411d7e:	pop	r13
0x411d80:	pop	r14
0x411d82:	pop	r15
0x411d84:	ret	
F 0x404605
0x404605:	add	byte ptr [rax], al
0x404607:	add	rsp, 8
0x40460b:	xor	eax, eax
0x40460d:	pop	rbp
0x40460e:	pop	r12
0x404610:	ret	
F 0x4152f6
0x4152f6:	or	byte ptr [rbx + 0x5d], bl
0x4152f9:	lea	rax, [rax + rdx*8]
0x4152fd:	pop	r12
0x4152ff:	pop	r13
0x415301:	ret	
F 0x40f33e
0x404016:	ret	
F 0x404ecf
0x404ecf:	pop	r13
0x404ed1:	pop	r14
0x404ed3:	pop	r15
0x404ed5:	ret	
F 0x4046f4
0x404674:	add	byte ptr [rax], al
0x404676:	add	byte ptr [rax], al
0x404678:	ret	
F 0x405aa5
0x405aa5:	sbb	byte ptr [rax - 0x77], cl
0x405aa8:	ret	
F 0x407bd0
0x404016:	ret	
F 0x417ebf
0x417ebf:	add	byte ptr [rax + 0x63], cl
0x417ec2:	adc	eax, 0x223c1
0x417ec7:	lea	rax, [rip + 0xe6d2]
0x417ece:	mov	rax, qword ptr [rax + rdx*8]
0x417ed2:	ret	
F 0x40ecb2
0x404016:	ret	
F 0x41a373
0x41a373:	ror	byte ptr [rax - 0x75], cl
0x41a376:	add	al, 0xd0
0x41a378:	ret	
F 0x40ff8f
0x40fd25:	add	byte ptr [rax], al
0x40fd27:	add	rsp, 0x118
0x40fd2e:	pop	rbx
0x40fd2f:	pop	rbp
0x40fd30:	ret	
F 0x414d5a
0x414d5a:	adc	bl, ch
0x414d5c:	ret	
F 0x407f29
0x407bbd:	ret	0x8348
F 0x41757b
0x41757b:	mov	qword ptr [rdi], rbx
0x41757e:	jmp	0x417516
F 0x4172b7
0x4172b7:	add	byte ptr [rax], al
0x4172b9:	add	rsp, 0x18
0x4172bd:	mov	rax, r12
0x4172c0:	pop	rbx
0x4172c1:	pop	rbp
0x4172c2:	pop	r12
0x4172c4:	pop	r13
0x4172c6:	pop	r14
0x4172c8:	pop	r15
0x4172ca:	ret	
F 0x412525
0x404016:	ret	
F 0x415319
0x40d2a3:	add	byte ptr [rax - 0x7d], cl
0x40d2a6:	ret	
F 0x40ea35
0x407c4a:	add	dword ptr [rax], eax
0x407c4c:	ret	
F 0x409e49
0x404ed0:	pop	rbp
0x404ed1:	pop	r14
0x404ed3:	pop	r15
0x404ed5:	ret	
F 0x417b22
0x40460e:	pop	r12
0x404610:	ret	
F 0x416cf7
0x404ed3:	pop	r15
0x404ed5:	ret	
F 0x4046f0
0x404016:	ret	
F 0x41bfbd
0x404016:	ret	
F 0x41551e
0x41551e:	add	rsp, 0x28
0x415522:	pop	rbx
0x415523:	pop	rbp
0x415524:	pop	r12
0x415526:	pop	r13
0x415528:	ret	
F 0x41658a
0x404016:	ret	
F 0x409c4d
0x409c4d:	add	byte ptr [rax], al
0x409c4f:	add	byte ptr [rbx - 0x77], cl
0x409c52:	add	al, 0xe6
0x409c54:	mov	rax, rbx
0x409c57:	pop	rbx
0x409c58:	pop	rbp
0x409c59:	pop	r12
0x409c5b:	pop	r13
0x409c5d:	pop	r14
0x409c5f:	ret	
F 0x404820
0x404016:	ret	
F 0x416f55
0x404ecd:	pop	r12
0x404ecf:	pop	r13
0x404ed1:	pop	r14
0x404ed3:	pop	r15
0x404ed5:	ret	
F 0x404110
0x404110:	jmp	qword ptr [rip + 0x22cc2]
F 0x41b70d
0x41b70d:	add	rsp, 0x20
0x41b711:	pop	rbp
0x41b712:	ret	
F 0x415522
0x40d99b:	pop	rbx
0x40d99c:	pop	rbp
0x40d99d:	pop	r12
0x40d99f:	pop	r13
0x40d9a1:	ret	
F 0x41372e
0x41372e:	add	byte ptr [rax - 0x9a6418], dl
0x413734:	dec	dword ptr [rax - 0x7d]
0x413737:	ret	
F 0x412fba
0x404ed2:	pop	rsi
0x404ed3:	pop	r15
0x404ed5:	ret	
F 0x4126b0
0x404ed3:	pop	r15
0x404ed5:	ret	
F 0x4085fa
0x4085fa:	add	byte ptr [rax], al
0x4085fc:	add	byte ptr [rax - 0x77], cl
0x4085ff:	ret	0x8b48
F 0x4172c0
0x404ecb:	pop	rbx
0x404ecc:	pop	rbp
0x404ecd:	pop	r12
0x404ecf:	pop	r13
0x404ed1:	pop	r14
0x404ed3:	pop	r15
0x404ed5:	ret	
F 0x4105f9
0x4105f9:	xor	eax, eax
0x4105fb:	pop	rbx
0x4105fc:	ret	
F 0x404aac
0x4046ef:	pop	rbp
0x4046f0:	ret	
F 0x417593
0x417593:	mov	r12d, 0xa
0x417599:	mov	qword ptr [rdi], rbx
0x41759c:	jmp	0x417516
F 0x413f06
0x404eca:	add	byte ptr [rbx + 0x5d], bl
0x404ecd:	pop	r12
0x404ecf:	pop	r13
0x404ed1:	pop	r14
0x404ed3:	pop	r15
0x404ed5:	ret	
F 0x4119a2
0x404ed1:	pop	r14
0x404ed3:	pop	r15
0x404ed5:	ret	
F 0x418006
0x404ecc:	pop	rbp
0x404ecd:	pop	r12
0x404ecf:	pop	r13
0x404ed1:	pop	r14
0x404ed3:	pop	r15
0x404ed5:	ret	
F 0x4175f2
0x404016:	ret	
F 0x416ca4
0x40ec09:	adc	byte ptr [rax - 0x77], cl
0x40ec0c:	ret	
F 0x40ff99
0x4046ef:	pop	rbp
0x4046f0:	ret	
F 0x40d22e
0x40d22e:	add	byte ptr [rax], al
0x40d230:	mov	qword ptr [r12 + 0x18], rax
0x40d235:	mov	rax, r12
0x40d238:	mov	qword ptr [r12 + 0x10], rdx
0x40d23d:	pop	r12
0x40d23f:	ret	
F 0x419ca9
0x419c0f:	or	byte ptr [rcx - 0x7d], cl
0x419c12:	ret	0xe918
F 0x410701
0x4046ef:	pop	rbp
0x4046f0:	ret	
F 0x4168e6
0x4168e6:	add	byte ptr [rax], al
0x4168e8:	add	rsp, 8
0x4168ec:	mov	rax, r15
0x4168ef:	pop	rbx
0x4168f0:	pop	rbp
0x4168f1:	pop	r12
0x4168f3:	pop	r13
0x4168f5:	pop	r14
0x4168f7:	pop	r15
0x4168f9:	ret	
F 0x408658
0x404016:	ret	
F 0x406b6e
0x406b6e:	ret	0x1ce8
F 0x4139db
0x4139db:	add	eax, 0x13b10
0x4139e0:	add	eax, 1
0x4139e3:	mov	dword ptr [rip + 0x13b07], eax
0x4139e9:	ret	
F 0x40f98c
0x40f98c:	test	al, 0x47
0x40f98e:	add	al, byte ptr [rax]
0x40f990:	pop	r12
0x40f992:	mov	word ptr [rip + 0x24786], r8w
0x40f99a:	ret	
F 0x40fafe
0x40fafe:	mov	dword ptr [rbx + 0x18], eax
0x40fb01:	add	rsp, 8
0x40fb05:	pop	rbx
0x40fb06:	pop	rbp
0x40fb07:	ret	
F 0x416e48
0x40d99d:	pop	r12
0x40d99f:	pop	r13
0x40d9a1:	ret	
F 0x41c274
0x404ed4:	pop	rdi
0x404ed5:	ret	
F 0x4198c4
0x40f7e4:	dec	dword ptr [rax - 0x77]
0x40f7e7:	ret	
F 0x4134ba
0x404016:	ret	
F 0x4115ea
0x404ed4:	pop	rdi
0x404ed5:	ret	
F 0x418e30
0x404ed3:	pop	r15
0x404ed5:	ret	
F 0x41c5f4
0x40d99b:	pop	rbx
0x40d99c:	pop	rbp
0x40d99d:	pop	r12
0x40d99f:	pop	r13
0x40d9a1:	ret	
F 0x4138b8
0x4138b8:	mov	dword ptr [rax + 0xc], esi
0x4138bb:	mov	qword ptr [rip + 0x13c3e], rax
0x4138c2:	add	rsp, 8
0x4138c6:	pop	rbx
0x4138c7:	pop	rbp
0x4138c8:	ret	
F 0x411b61
0x409c44:	pop	r14
0x409c46:	ret	
F 0x40d234
0x40d234:	sbb	byte ptr [rcx + rcx*4 - 0x20], cl
0x40d238:	mov	qword ptr [r12 + 0x10], rdx
0x40d23d:	pop	r12
0x40d23f:	ret	
F 0x407c43
0x407c43:	add	dword ptr [rbx + 0x48], ebx
0x407c46:	mov	dword ptr [rip + 0x1f664], edx
0x407c4c:	ret	
F 0x415716
0x404016:	ret	
F 0x40870f
0x40862b:	pop	rbx
0x40862c:	pop	rbp
0x40862d:	ret	
F 0x416f5c
0x404ed4:	pop	rdi
0x404ed5:	ret	
F 0x417b21
0x40460d:	pop	rbp
0x40460e:	pop	r12
0x404610:	ret	
F 0x409c54
0x409c3b:	mov	rax, rbx
0x409c3e:	pop	rbx
0x409c3f:	pop	rbp
0x409c40:	pop	r12
0x409c42:	pop	r13
0x409c44:	pop	r14
0x409c46:	ret	
F 0x40a334
0x4049c3:	add	byte ptr [rcx + rcx*4 - 0x20], cl
0x4049c7:	pop	r12
0x4049c9:	ret	
F 0x41c8e1
0x409e43:	or	byte ptr [rbx + 0x5d], bl
0x409e46:	pop	r12
0x409e48:	pop	r13
0x409e4a:	pop	r14
0x409e4c:	pop	r15
0x409e4e:	ret	
F 0x41a081
0x419c12:	ret	0xe918
F 0x409f79
0x409f79:	mov	eax, dword ptr [rax + 8]
0x409f7c:	ret	
F 0x4178f9
0x404016:	ret	
F 0x40e9ef
0x40e9ef:	add	byte ptr [rax - 0x73], cl
0x40e9f2:	add	eax, 0x111bf
0x40e9f7:	ret	
F 0x40f8d7
0x404016:	ret	
F 0x419a2f
0x41666d:	mov	eax, ebp
0x41666f:	pop	rbx
0x416670:	pop	rbp
0x416671:	pop	r12
0x416673:	pop	r13
0x416675:	pop	r14
0x416677:	pop	r15
0x416679:	ret	
F 0x4189aa
0x41890a:	add	byte ptr [rax], al
0x41890c:	add	byte ptr [rbp + 5], dh
0x41890f:	add	rsp, 0x28
0x418913:	ret	
F 0x41a529
0x40819a:	add	rsp, 0x28
0x40819e:	pop	rbx
0x40819f:	pop	rbp
0x4081a0:	pop	r12
0x4081a2:	pop	r13
0x4081a4:	pop	r14
0x4081a6:	pop	r15
0x4081a8:	ret	
F 0x411f0d
0x411edd:	mov	eax, esp
0x411edf:	movsd	qword ptr [r12 + 0x10], xmm0
0x411ee6:	pop	r12
0x411ee8:	ret	
F 0x416ce8
0x4127c3:	add	rsp, 8
0x4127c7:	mov	rax, r14
0x4127ca:	pop	rbx
0x4127cb:	pop	rbp
0x4127cc:	pop	r12
0x4127ce:	pop	r13
0x4127d0:	pop	r14
0x4127d2:	pop	r15
0x4127d4:	ret	
F 0x40f88a
0x404ecf:	pop	r13
0x404ed1:	pop	r14
0x404ed3:	pop	r15
0x404ed5:	ret	
F 0x4192cb
0x4046ef:	pop	rbp
0x4046f0:	ret	
F 0x416926
0x407be4:	ret	0x8948
F 0x40f7e4
0x40f7e4:	dec	dword ptr [rax - 0x77]
0x40f7e7:	ret	
F 0x41260c
0x41260c:	add	rsp, 0x40
0x412610:	pop	rbx
0x412611:	ret	
F 0x410619
0x410619:	sar	byte ptr [rdx], 0x5b
0x410620:	test	dil, dil
0x410623:	sete	al
0x410626:	cmovne	eax, edx
0x410629:	ret	
F 0x417350
0x417350:	shl	edx, cl
0x417352:	mov	ecx, r8d
0x417355:	or	byte ptr [r11], dl
0x417358:	shl	eax, cl
0x41735a:	not	eax
0x41735c:	or	byte ptr [rdi + r9], al
0x417360:	ret	
F 0x416b42
0x409b12:	mov	eax, esp
0x409b14:	pop	rbx
0x409b15:	pop	rbp
0x409b16:	pop	r12
0x409b18:	ret	
F 0x409c3e
0x409c3e:	pop	rbx
0x409c3f:	pop	rbp
0x409c40:	pop	r12
0x409c42:	pop	r13
0x409c44:	pop	r14
0x409c46:	ret	
F 0x40acf3
0x40acf3:	ret	
F 0x418c6f
0x404ed2:	pop	rsi
0x404ed3:	pop	r15
0x404ed5:	ret	
F 0x4142dc
0x407e49:	add	dword ptr [rax], eax
0x407e4b:	add	byte ptr [rbx + 0x5d], bl
0x407e4e:	pop	r12
0x407e50:	pop	r13
0x407e52:	pop	r14
0x407e54:	pop	r15
0x407e56:	ret	
F 0x405ce7
0x405ce7:	cmp	al, ch
0x405ce9:	ret	
F 0x40e9a7
0x404016:	ret	
F 0x4171b9
0x4117e4:	or	byte ptr [rcx + rcx*4 - 0x20], cl
0x4117e8:	pop	rbx
0x4117e9:	pop	r12
0x4117eb:	ret	
F 0x41a05c
0x419a61:	add	byte ptr [rcx - 0x7d], cl
0x419a64:	ret	0x4818
F 0x41a6f6
0x407be4:	ret	0x8948
F 0x417399
0x417399:	scasd	eax, dword ptr [rdi]
0x41739a:	ret	0x8348
F 0x416cf1
0x404ecd:	pop	r12
0x404ecf:	pop	r13
0x404ed1:	pop	r14
0x404ed3:	pop	r15
0x404ed5:	ret	
F 0x40e76d
0x40e76d:	add	byte ptr [rax], al
0x40e76f:	add	byte ptr [rdi], cl
0x40e771:	mov	edi, 0x83481042
0x40e776:	ret	0x6610
F 0x417ec8
0x417ec8:	lea	eax, [rip + 0xe6d2]
0x417ece:	mov	rax, qword ptr [rax + rdx*8]
0x417ed2:	ret	
F 0x409ad5
0x409ad5:	add	dword ptr [rax], eax
0x409ad7:	add	dword ptr [rcx + rcx*4 - 0x20], ecx
0x409adb:	pop	rbp
0x409adc:	pop	r12
0x409ade:	ret	
F 0x408a2a
0x404ecd:	pop	r12
0x404ecf:	pop	r13
0x404ed1:	pop	r14
0x404ed3:	pop	r15
0x404ed5:	ret	
F 0x409b37
0x409ad7:	add	dword ptr [rcx + rcx*4 - 0x20], ecx
0x409adb:	pop	rbp
0x409adc:	pop	r12
0x409ade:	ret	
F 0x41c8ea
0x404ed3:	pop	r15
0x404ed5:	ret	
F 0x41575c
0x404016:	ret	
F 0x4122c3
0x4122c3:	and	al, 0x10
0x4122c6:	add	rsp, 8
0x4122ca:	pop	rbx
0x4122cb:	pop	r12
0x4122cd:	ret	
F 0x4158bc
0x404ecb:	pop	rbx
0x404ecc:	pop	rbp
0x404ecd:	pop	r12
0x404ecf:	pop	r13
0x404ed1:	pop	r14
0x404ed3:	pop	r15
0x404ed5:	ret	
F 0x40ea34
0x40ea34:	sbb	dword ptr [rcx], eax
0x40ea36:	add	bl, al
0x40ea38:	nop	dword ptr [rax + rax]
0x40ea40:	lea	rax, [rip + 0x11138]
0x40ea47:	ret	
F 0x41012a
0x404016:	ret	
F 0x417360
0x404016:	ret	
F 0x417609
0x417609:	add	ebx, 2
0x41760c:	jmp	0x417512
F 0x4165e2
0x404016:	ret	
F 0x416679
0x404016:	ret	
F 0x40a31e
0x40a31e:	mov	eax, esp
0x40a320:	movsd	qword ptr [rdi + 0x10], xmm0
0x40a325:	pop	r12
0x40a327:	ret	
F 0x4138bc
0x4138bc:	mov	dword ptr [rip + 0x13c3e], eax
0x4138c2:	add	rsp, 8
0x4138c6:	pop	rbx
0x4138c7:	pop	rbp
0x4138c8:	ret	
F 0x41c10e
0x40862b:	pop	rbx
0x40862c:	pop	rbp
0x40862d:	ret	
F 0x4198eb
0x404016:	ret	
F 0x417e82
0x417e82:	mov	rax, qword ptr [rbx]
0x417e85:	pop	rbx
0x417e86:	ret	
F 0x41bd78
0x41bd78:	mov	eax, 0xffffffff
0x41bd7d:	pop	rbx
0x41bd7e:	pop	rbp
0x41bd7f:	pop	r12
0x41bd81:	pop	r13
0x41bd83:	pop	r14
0x41bd85:	ret	
F 0x40e9d0
0x40e9d0:	lea	rax, [rip + 0x111e5]
0x40e9d7:	ret	
F 0x41503a
0x41503a:	mov	dword ptr [rax], edx
0x41503c:	add	rsp, 8
0x415040:	ret	
F 0x40b15b
0x404016:	ret	
F 0x406787
0x406787:	ret	0x3948
F 0x41922d
0x41922d:	mov	dword ptr [rip + 0x2105d], ebp
0x419233:	mov	qword ptr [rip + 0x2106e], rdx
0x41923a:	add	rsp, 8
0x41923e:	pop	rbx
0x41923f:	pop	rbp
0x419240:	ret	
F 0x418dd3
0x418dd3:	mov	r13b, 0xfe
0x418dd6:	dec	dword ptr [rax - 0x77]
0x418dd9:	ret	
F 0x40ec57
0x404ecb:	pop	rbx
0x404ecc:	pop	rbp
0x404ecd:	pop	r12
0x404ecf:	pop	r13
0x404ed1:	pop	r14
0x404ed3:	pop	r15
0x404ed5:	ret	
F 0x416b45
0x40460d:	pop	rbp
0x40460e:	pop	r12
0x404610:	ret	
F 0x417ed0
0x417ed0:	add	al, 0xd0
0x417ed2:	ret	
F 0x4158c2
0x404ed1:	pop	r14
0x404ed3:	pop	r15
0x404ed5:	ret	
F 0x40870b
0x40870b:	ror	byte ptr [rcx + rcx*4 + 6], 0x5b
0x408710:	pop	rbp
0x408711:	ret	
F 0x41774e
0x404ed2:	pop	rsi
0x404ed3:	pop	r15
0x404ed5:	ret	
F 0x40a04a
0x40a04a:	test	byte ptr [rax], al
0x40a04c:	add	byte ptr [rax], al
0x40a04e:	add	byte ptr [rax], al
0x40a050:	pop	rbx
0x40a051:	pop	rbp
0x40a052:	pop	r12
0x40a054:	ret	
F 0x413810
0x404016:	ret	
F 0x4119a6
0x404016:	ret	
F 0x409c46
0x404016:	ret	
F 0x4129d2
0x40460d:	pop	rbp
0x40460e:	pop	r12
0x404610:	ret	
F 0x40819e
0x404ecb:	pop	rbx
0x404ecc:	pop	rbp
0x404ecd:	pop	r12
0x404ecf:	pop	r13
0x404ed1:	pop	r14
0x404ed3:	pop	r15
0x404ed5:	ret	
F 0x40a047
0x40a047:	nop	word ptr [rax + rax]
0x40a050:	pop	rbx
0x40a051:	pop	rbp
0x40a052:	pop	r12
0x40a054:	ret	
F 0x4138b7
0x4138b7:	adc	byte ptr [rcx - 0x76b7f390], cl
0x4138bd:	add	eax, 0x13c3e
0x4138c2:	add	rsp, 8
0x4138c6:	pop	rbx
0x4138c7:	pop	rbp
0x4138c8:	ret	
F 0x41a846
0x41a846:	mov	dword ptr [rbp], ecx
0x41a849:	add	rsp, 8
0x41a84d:	pop	rbx
0x41a84e:	pop	rbp
0x41a84f:	pop	r12
0x41a851:	pop	r13
0x41a853:	ret	
F 0x40e9cc
0x40e9cc:	add	byte ptr [rax], al
0x40e9ce:	add	byte ptr [rax], al
0x40e9d0:	lea	rax, [rip + 0x111e5]
0x40e9d7:	ret	
F 0x417e5b
0x404016:	ret	
F 0x41a852
0x4046ef:	pop	rbp
0x4046f0:	ret	
F 0x41064f
0x41064f:	jmp	0x410598
F 0x40a2ac
0x404016:	ret	
F 0x40f988
0x40f988:	pop	rbp
0x40f989:	mov	word ptr [rip + 0x247a8], di
0x40f990:	pop	r12
0x40f992:	mov	word ptr [rip + 0x24786], r8w
0x40f99a:	ret	
F 0x41201d
0x40460e:	pop	r12
0x404610:	ret	
F 0x418c71
0x404ed4:	pop	rdi
0x404ed5:	ret	
F 0x411edc
0x411edc:	mov	rax, r12
0x411edf:	movsd	qword ptr [r12 + 0x10], xmm0
0x411ee6:	pop	r12
0x411ee8:	ret	
F 0x41ba42
0x411440:	add	rsp, 0x18
0x411444:	pop	rbx
0x411445:	pop	rbp
0x411446:	pop	r12
0x411448:	pop	r13
0x41144a:	pop	r14
0x41144c:	pop	r15
0x41144e:	ret	
F 0x41ab31
0x41ab31:	add	byte ptr [rax], al
0x41ab33:	add	byte ptr [rcx + rcx*4 - 0x20], cl
0x41ab37:	pop	rbx
0x41ab38:	pop	rbp
0x41ab39:	pop	r12
0x41ab3b:	ret	
F 0x419c12
0x419c12:	ret	0xe918
F 0x40ea17
0x404016:	ret	
F 0x415217
0x404016:	ret	
F 0x41ab34
0x409b11:	mov	rax, r12
0x409b14:	pop	rbx
0x409b15:	pop	rbp
0x409b16:	pop	r12
0x409b18:	ret	
F 0x4120e1
0x4120e1:	and	al, 0x10
0x4120e4:	add	rsp, 0x10
0x4120e8:	mov	rax, r12
0x4120eb:	pop	r12
0x4120ed:	ret	
F 0x408942
0x408942:	add	eax, ebp
0x408944:	jmp	rax
F 0x40e89a
0x40e89a:	add	byte ptr [rbx + 0x5e7405f8], al
0x40e8a0:	add	rsp, 8
0x40e8a4:	ret	
F 0x41463f
0x414081:	add	byte ptr [rax - 0x77], cl
0x414084:	ret	0xc748
F 0x41b818
0x41b818:	mov	dh, 0xc4
0x41b81a:	ret	
F 0x41735a
0x41735a:	not	eax
0x41735c:	or	byte ptr [rdi + r9], al
0x417360:	ret	
F 0x414f45
0x404016:	ret	
F 0x40e9f8
0x40e9f8:	nop	dword ptr [rax + rax]
0x40ea00:	lea	rax, [rip + 0x11198]
0x40ea07:	ret	
F 0x41c67f
0x41c67f:	mov	dword ptr [rax + 0x28], esp
0x41c682:	mov	qword ptr [rip + 0x1dc47], rax
0x41c689:	pop	rbx
0x41c68a:	pop	rbp
0x41c68b:	pop	r12
0x41c68d:	pop	r13
0x41c68f:	pop	r14
0x41c691:	ret	
F 0x41a786
0x41a786:	add	byte ptr [rbx - 0x74b7fe16], al
0x41a78c:	or	al, 0xd0
0x41a78e:	mov	qword ptr [rax + rdx*8], rdi
0x41a792:	mov	qword ptr [rdi], rcx
0x41a795:	ret	
F 0x409f0d
0x40460e:	pop	r12
0x404610:	ret	
F 0x4175ae
0x4175ae:	jmp	0x417516
F 0x417f3f
0x404016:	ret	
F 0x41ad2d
0x41ad2d:	add	byte ptr [rax], r8b
0x41ad30:	xor	eax, eax
0x41ad32:	pop	rbp
0x41ad33:	ret	
F 0x409b3b
0x40460d:	pop	rbp
0x40460e:	pop	r12
0x404610:	ret	
F 0x419cac
0x419c12:	ret	0xe918
F 0x417e90
0x417e90:	mov	rax, qword ptr [rbx]
0x417e93:	mov	qword ptr [rdi], rbx
0x417e96:	pop	rbx
0x417e97:	ret	
F 0x412017
0x411ee0:	movups	xmmword ptr [r12 + 0x10], xmm0
0x411ee6:	pop	r12
0x411ee8:	ret	
F 0x4175a3
0x404016:	ret	
F 0x410595
0x410595:	push	qword ptr [rbp - 0x54]
0x410598:	mov	eax, 1
0x41059d:	pop	rbx
0x41059e:	ret	
F 0x410616
0x410616:	mov	dh, 0x3a
0x410618:	xor	eax, eax
0x41061a:	mov	edx, 0
0x41061f:	pop	rbx
0x410620:	test	dil, dil
0x410623:	sete	al
0x410626:	cmovne	eax, edx
0x410629:	ret	
F 0x40a159
0x409c43:	pop	rbp
0x409c44:	pop	r14
0x409c46:	ret	
F 0x414081
0x414081:	add	byte ptr [rax - 0x77], cl
0x414084:	ret	0xc748
F 0x41ab2e
0x41ab2e:	and	al, 8
0x41ab30:	add	byte ptr [rax], al
0x41ab32:	add	byte ptr [rax], al
0x41ab34:	mov	rax, r12
0x41ab37:	pop	rbx
0x41ab38:	pop	rbp
0x41ab39:	pop	r12
0x41ab3b:	ret	
F 0x4142e1
0x404ecd:	pop	r12
0x404ecf:	pop	r13
0x404ed1:	pop	r14
0x404ed3:	pop	r15
0x404ed5:	ret	
F 0x41ae73
0x414331:	ret	0
F 0x41a5c5
0x404016:	ret	
F 0x41b7d9
0x404016:	ret	
F 0x409a85
0x409a85:	add	dword ptr [rip + 0x1d59c], 1
0x409a8c:	lea	rax, [rip + 0x1d58d]
0x409a93:	ret	
F 0x411ad3
0x404016:	ret	
F 0x41059e
0x404016:	ret	
F 0x41a534
0x404ed2:	pop	rsi
0x404ed3:	pop	r15
0x404ed5:	ret	
F 0x418ac5
0x4046ef:	pop	rbp
0x4046f0:	ret	
F 0x41376e
0x41376e:	ret	0x4d10
F 0x411ab3
0x404016:	ret	
F 0x40a879
0x404016:	ret	
F 0x408446
0x408446:	add	byte ptr [rdi], cl
0x408448:	ret	0x588
F 0x40ea41
0x40ea41:	lea	eax, [rip + 0x11138]
0x40ea47:	ret	
F 0x41a101
0x419c12:	ret	0xe918
F 0x40d73e
0x404016:	ret	
F 0x40a49f
0x404ecb:	pop	rbx
0x404ecc:	pop	rbp
0x404ecd:	pop	r12
0x404ecf:	pop	r13
0x404ed1:	pop	r14
0x404ed3:	pop	r15
0x404ed5:	ret	
F 0x413b41
0x413b41:	add	eax, 0x1f0f0002
0x413b46:	add	byte ptr [rax + 0x29], cl
0x413b4a:	ret	
F 0x40b17c
0x40b17c:	ret	
F 0x40ea26
0x40ea26:	add	bl, al
0x40ea28:	nop	dword ptr [rax + rax]
0x40ea30:	lea	rax, [rip + 0x11974]
0x40ea37:	ret	
F 0x4139e0
0x4139e0:	add	eax, 1
0x4139e3:	mov	dword ptr [rip + 0x13b07], eax
0x4139e9:	ret	
F 0x412b62
0x40d99b:	pop	rbx
0x40d99c:	pop	rbp
0x40d99d:	pop	r12
0x40d99f:	pop	r13
0x40d9a1:	ret	
F 0x40a26b
0x40a26b:	cmovne	eax, edx
0x40a26e:	add	rsp, 8
0x40a272:	pop	rbx
0x40a273:	pop	rbp
0x40a274:	ret	
F 0x417b16
0x417b16:	add	byte ptr [rax], al
0x417b18:	pop	rbx
0x417b19:	mov	qword ptr [r12], rax
0x417b1d:	mov	qword ptr [rbp], rdx
0x417b21:	pop	rbp
0x417b22:	pop	r12
0x417b24:	ret	
F 0x4158ba
0x404ec9:	add	byte ptr [rax], al
0x404ecb:	pop	rbx
0x404ecc:	pop	rbp
0x404ecd:	pop	r12
0x404ecf:	pop	r13
0x404ed1:	pop	r14
0x404ed3:	pop	r15
0x404ed5:	ret	
F 0x410bb8
0x404ed4:	pop	rdi
0x404ed5:	ret	
F 0x41c264
0x4172b9:	add	rsp, 0x18
0x4172bd:	mov	rax, r12
0x4172c0:	pop	rbx
0x4172c1:	pop	rbp
0x4172c2:	pop	r12
0x4172c4:	pop	r13
0x4172c6:	pop	r14
0x4172c8:	pop	r15
0x4172ca:	ret	
F 0x4081a2
0x404ecf:	pop	r13
0x404ed1:	pop	r14
0x404ed3:	pop	r15
0x404ed5:	ret	
F 0x419bb0
0x419bb0:	add	byte ptr [rcx - 0x7d], cl
0x419bb3:	ret	0xb918
F 0x410816
0x4046ef:	pop	rbp
0x4046f0:	ret	
F 0x41ae37
0x414331:	ret	0
F 0x418a0f
0x4083d0:	pop	rbx
0x4083d1:	ret	
F 0x41396c
0x404016:	ret	
F 0x40e994
0x40e994:	adc	al, byte ptr [rcx]
0x40e996:	add	bl, al
0x40e998:	nop	dword ptr [rax + rax]
0x40e9a0:	lea	rax, [rip + 0x111fe]
0x40e9a7:	ret	
F 0x40d36b
0x40d36b:	add	al, byte ptr [rax]
0x40d36d:	add	rsp, 8
0x40d371:	pop	rbx
0x40d372:	pop	rbp
0x40d373:	ret	
F 0x417d1b
0x417d1b:	cmp	byte ptr [rax + 0xe], bh
0x417d21:	pop	rbx
0x417d22:	pop	rbp
0x417d23:	pop	r12
0x417d25:	pop	r13
0x417d27:	pop	r14
0x417d29:	pop	r15
0x417d2b:	ret	
F 0x41befa
0x409c45:	pop	rsi
0x409c46:	ret	
F 0x40498f
0x40498f:	mov	dword ptr [rax + 0xa], ecx
0x404992:	mov	dword ptr [rax + 0x10], edi
0x404995:	mov	qword ptr [rax + 0x18], r12
0x404999:	mov	qword ptr [rsi], rax
0x40499c:	mov	rax, r12
0x40499f:	pop	r12
0x4049a1:	ret	
F 0x41ad74
0x41ad74:	sbb	byte ptr [rax - 0x77], cl
0x41ad77:	imul	edx, dword ptr [rax], 0x48
0x41ad7a:	mov	dword ptr [rbx + 0x20], ebp
0x41ad7d:	add	rsp, 8
0x41ad81:	pop	rbx
0x41ad82:	pop	rbp
0x41ad83:	ret	
F 0x411f6f
0x404016:	ret	
F 0x40ea15
0x407c4a:	add	dword ptr [rax], eax
0x407c4c:	ret	
F 0x41ad77
0x41ad77:	imul	edx, dword ptr [rax], 0x48
0x41ad7a:	mov	dword ptr [rbx + 0x20], ebp
0x41ad7d:	add	rsp, 8
0x41ad81:	pop	rbx
0x41ad82:	pop	rbp
0x41ad83:	ret	
F 0x40d7e3
0x404016:	ret	
F 0x40d2b2
0x40d2b2:	add	eax, 0x26e01
0x40d2b7:	pop	rbp
0x40d2b8:	pop	r12
0x40d2ba:	ret	
F 0x408455
0x408455:	mov	word ptr [rip + 0x1eccf], ax
0x40845c:	mov	byte ptr [rip + 0x1ecca], 0x22
0x408463:	add	rsp, 8
0x408467:	ret	
F 0x419a28
0x419a28:	add	byte ptr [rax], al
0x419a2a:	add	rsp, 0x58
0x419a2e:	mov	rax, r13
0x419a31:	pop	rbx
0x419a32:	pop	rbp
0x419a33:	pop	r12
0x419a35:	pop	r13
0x419a37:	pop	r14
0x419a39:	pop	r15
0x419a3b:	ret	
F 0x407be2
0x407be2:	movzx	eax, dl
0x407be5:	mov	qword ptr [rip + 0x1f6c4], rax
0x407bec:	mov	eax, r8d
0x407bef:	ret	
F 0x413678
0x404ecc:	pop	rbp
0x404ecd:	pop	r12
0x404ecf:	pop	r13
0x404ed1:	pop	r14
0x404ed3:	pop	r15
0x404ed5:	ret	
F 0x40e6a1
0x40e4ff:	add	byte ptr [rax], al
0x40e501:	pop	r12
0x40e503:	ret	
F 0x41a344
0x404674:	add	byte ptr [rax], al
0x404676:	add	byte ptr [rax], al
0x404678:	ret	
F 0x40e9e6
0x40e9e6:	add	bl, al
0x40e9e8:	nop	dword ptr [rax + rax]
0x40e9f0:	lea	rax, [rip + 0x111bf]
0x40e9f7:	ret	
F 0x41011c
0x41011c:	add	byte ptr [rax - 0x77], cl
0x41011f:	imul	ecx, dword ptr [rax], 0x66
0x410122:	mov	dword ptr [rbx], eax
0x410124:	add	rsp, 8
0x410128:	pop	rbx
0x410129:	pop	rbp
0x41012a:	ret	
F 0x41c691
0x404016:	ret	
F 0x418c5f
0x418c5f:	add	byte ptr [rax], al
0x418c61:	mov	dword ptr [rbx + 0x10], eax
0x418c64:	add	rsp, 0x28
0x418c68:	pop	rbx
0x418c69:	pop	rbp
0x418c6a:	pop	r12
0x418c6c:	pop	r13
0x418c6e:	pop	r14
0x418c70:	pop	r15
0x418c72:	ret	
F 0x4152fc
0x4152fc:	rol	byte ptr [rcx + 0x5c], 1
0x4152ff:	pop	r13
0x415301:	ret	
F 0x418cb2
0x404ed2:	pop	rsi
0x404ed3:	pop	r15
0x404ed5:	ret	
F 0x41c681
0x41c681:	sub	byte ptr [rax - 0x77], cl
0x41c684:	add	eax, 0x1dc47
0x41c689:	pop	rbx
0x41c68a:	pop	rbp
0x41c68b:	pop	r12
0x41c68d:	pop	r13
0x41c68f:	pop	r14
0x41c691:	ret	
F 0x417493
0x417493:	movsxd	rbx, ebx
0x417496:	movsx	eax, byte ptr [rax + rbx]
0x41749a:	test	eax, eax
0x41749c:	cmove	eax, edx
0x41749f:	pop	rbx
0x4174a0:	ret	
F 0x40f99a
0x404016:	ret	
F 0x41922e
0x41922e:	sub	eax, 0x2105d
0x419233:	mov	qword ptr [rip + 0x2106e], rdx
0x41923a:	add	rsp, 8
0x41923e:	pop	rbx
0x41923f:	pop	rbp
0x419240:	ret	
F 0x418009
0x404ecf:	pop	r13
0x404ed1:	pop	r14
0x404ed3:	pop	r15
0x404ed5:	ret	
F 0x40e997
0x404016:	ret	
F 0x417d25
0x404ecf:	pop	r13
0x404ed1:	pop	r14
0x404ed3:	pop	r15
0x404ed5:	ret	
F 0x418fe2
0x404016:	ret	
F 0x41bda2
0x41bda2:	or	al, 0x89
0x41bda4:	ret	
F 0x4117d9
0x404016:	ret	
F 0x410119
0x410119:	add	eax, 0x48000000
0x41011e:	mov	dword ptr [rbx + 8], ebp
0x410121:	mov	word ptr [rbx], ax
0x410124:	add	rsp, 8
0x410128:	pop	rbx
0x410129:	pop	rbp
0x41012a:	ret	
F 0x4138c9
0x404671:	nop	dword ptr [rax]
0x404678:	ret	
F 0x40893e
0x40893e:	test	dword ptr [rax], r8d
0x408941:	add	rax, rbp
0x408944:	jmp	rax
F 0x410118
0x410118:	mov	eax, 5
0x41011d:	mov	qword ptr [rbx + 8], rbp
0x410121:	mov	word ptr [rbx], ax
0x410124:	add	rsp, 8
0x410128:	pop	rbx
0x410129:	pop	rbp
0x41012a:	ret	
F 0x415c97
0x40d2a3:	add	byte ptr [rax - 0x7d], cl
0x40d2a6:	ret	
F 0x41529e
0x41529e:	sar	rdi, 3
0x4152a2:	sar	rax, 3
0x4152a6:	imul	edx, edi, 0xaaaaaaab
0x4152ac:	shl	eax, 0xa
0x4152af:	add	eax, edx
0x4152b1:	ret	
F 0x40a050
0x409b14:	pop	rbx
0x409b15:	pop	rbp
0x409b16:	pop	r12
0x409b18:	ret	
F 0x40d73a
0x404012:	add	rsp, 8
0x404016:	ret	
F 0x411bd8
0x411bd8:	add	rsp, 0x10
0x411bdc:	lea	rax, [rbx + 0x18]
0x411be0:	pop	rbx
0x411be1:	ret	
F 0x41890a
0x41890a:	add	byte ptr [rax], al
0x41890c:	add	byte ptr [rbp + 5], dh
0x41890f:	add	rsp, 0x28
0x418913:	ret	
F 0x41380d
0x404016:	ret	
F 0x40d60d
0x40d60d:	or	byte ptr [rip - 0x39000000], al
0x40d614:	add	byte ptr [rbp], cl
0x40d617:	add	byte ptr [rax], al
0x40d619:	pop	rbx
0x40d61a:	ret	
F 0x4138c7
0x4046ef:	pop	rbp
0x4046f0:	ret	
F 0x40d233
0x40d233:	and	al, 0x18
0x40d235:	mov	rax, r12
0x40d238:	mov	qword ptr [r12 + 0x10], rdx
0x40d23d:	pop	r12
0x40d23f:	ret	
F 0x41697c
0x404674:	add	byte ptr [rax], al
0x404676:	add	byte ptr [rax], al
0x404678:	ret	
F 0x41c8e7
0x404ed0:	pop	rbp
0x404ed1:	pop	r14
0x404ed3:	pop	r15
0x404ed5:	ret	
F 0x413737
0x404016:	ret	
F 0x413f0e
0x404ed2:	pop	rsi
0x404ed3:	pop	r15
0x404ed5:	ret	
F 0x40870d
0x40870d:	mov	dword ptr [rsi], eax
0x40870f:	pop	rbx
0x408710:	pop	rbp
0x408711:	ret	
F 0x4120ed
0x404016:	ret	
F 0x409155
0x404016:	ret	
F 0x417617
0x40d2a3:	add	byte ptr [rax - 0x7d], cl
0x40d2a6:	ret	
F 0x41485f
0x41485f:	add	byte ptr [rbp - 0x76b7febd], cl
0x414865:	ret	
F 0x41b827
0x41b827:	add	byte ptr [rax], al
0x41b829:	cmp	dl, 1
0x41b82c:	cmovg	eax, edi
0x41b82f:	ret	
F 0x40a499
0x40a499:	add	byte ptr [rax], al
0x40a49b:	add	rsp, 0x58
0x40a49f:	pop	rbx
0x40a4a0:	pop	rbp
0x40a4a1:	pop	r12
0x40a4a3:	pop	r13
0x40a4a5:	pop	r14
0x40a4a7:	pop	r15
0x40a4a9:	ret	
F 0x40a123
0x404016:	ret	
F 0x40fb2d
0x40fb2d:	sub	byte ptr [r11 + 0x7501086d], al
0x40fb34:	ret	
F 0x40d3be
0x40862a:	or	byte ptr [rbx + 0x5d], bl
0x40862d:	ret	
F 0x419230
0x419230:	adc	byte ptr [rdx], al
0x419232:	add	byte ptr [rax - 0x77], cl
0x419235:	adc	eax, 0x2106e
0x41923a:	add	rsp, 8
0x41923e:	pop	rbx
0x41923f:	pop	rbp
0x419240:	ret	
F 0x404a31
0x404a31:	add	dword ptr [rbp + 0x10], esi
0x404a34:	pop	rbp
0x404a35:	ret	
F 0x416f4a
0x416f4a:	add	dword ptr [rax], eax
0x416f4c:	add	rsp, 0x18
0x416f50:	mov	rax, r14
0x416f53:	pop	rbx
0x416f54:	pop	rbp
0x416f55:	pop	r12
0x416f57:	pop	r13
0x416f59:	pop	r14
0x416f5b:	pop	r15
0x416f5d:	ret	
F 0x413a79
0x404016:	ret	
F 0x412fb1
0x4108bc:	mov	eax, esi
0x4108be:	pop	rbx
0x4108bf:	pop	rbp
0x4108c0:	pop	r12
0x4108c2:	pop	r13
0x4108c4:	pop	r14
0x4108c6:	pop	r15
0x4108c8:	ret	
F 0x41a7f6
0x404016:	ret	
F 0x41ad75
0x41ad75:	mov	qword ptr [rbx + 0x10], rbp
0x41ad79:	mov	qword ptr [rbx + 0x20], rbp
0x41ad7d:	add	rsp, 8
0x41ad81:	pop	rbx
0x41ad82:	pop	rbp
0x41ad83:	ret	
F 0x411b83
0x404016:	ret	
F 0x409aa1
0x409aa1:	jmp	0x409aae
F 0x419437
0x404016:	ret	
F 0x40e9fe
0x40e9fe:	add	byte ptr [rax], al
0x40ea00:	lea	rax, [rip + 0x11198]
0x40ea07:	ret	
F 0x40ea16
0x40ea16:	add	bl, al
0x40ea18:	nop	dword ptr [rax + rax]
0x40ea20:	lea	rax, [rip + 0x11160]
0x40ea27:	ret	
F 0x41761c
0x41761c:	lea	r12d, [rax + r12*8 - 0x30]
0x417621:	jmp	0x4175f4
F 0x4189af
0x41890f:	add	rsp, 0x28
0x418913:	ret	
F 0x4120e7
0x4120e7:	adc	byte ptr [rcx + rcx*4 - 0x20], cl
0x4120eb:	pop	r12
0x4120ed:	ret	
F 0x4134b5
0x4113cd:	add	byte ptr [rax], al
0x4113cf:	add	byte ptr [rax - 0x7d], cl
0x4113d2:	ret	
F 0x40f17e
0x404ed3:	pop	r15
0x404ed5:	ret	
F 0x41a02d
0x41a02d:	test	al, al
0x41a02f:	add	dword ptr [rax], eax
0x41a031:	add	byte ptr [rcx - 0x7d], cl
0x41a034:	ret	0x4c18
F 0x408a22
0x408198:	add	byte ptr [rax], al
0x40819a:	add	rsp, 0x28
0x40819e:	pop	rbx
0x40819f:	pop	rbp
0x4081a0:	pop	r12
0x4081a2:	pop	r13
0x4081a4:	pop	r14
0x4081a6:	pop	r15
0x4081a8:	ret	
F 0x41800c
0x404ed2:	pop	rsi
0x404ed3:	pop	r15
0x404ed5:	ret	
F 0x414d5c
0x404016:	ret	
F 0x4126a4
0x41175c:	or	byte ptr [rcx + rcx*4 - 0x20], cl
0x411760:	pop	rbx
0x411761:	pop	rbp
0x411762:	pop	r12
0x411764:	pop	r13
0x411766:	pop	r14
0x411768:	pop	r15
0x41176a:	ret	
F 0x416815
0x404ed0:	pop	rbp
0x404ed1:	pop	r14
0x404ed3:	pop	r15
0x404ed5:	ret	
F 0x411ac7
0x411ac7:	add	byte ptr [rbx + 0x4c], bl
0x411aca:	mov	eax, esi
0x411acc:	pop	rbp
0x411acd:	pop	r12
0x411acf:	pop	r13
0x411ad1:	pop	r14
0x411ad3:	ret	
F 0x41757c
0x41757c:	mov	dword ptr [rdi], ebx
0x41757e:	jmp	0x417516
F 0x41c26b
0x404ecb:	pop	rbx
0x404ecc:	pop	rbp
0x404ecd:	pop	r12
0x404ecf:	pop	r13
0x404ed1:	pop	r14
0x404ed3:	pop	r15
0x404ed5:	ret	
F 0x40864d
0x40864d:	add	eax, 0x1ec5e
0x408652:	add	rsp, 8
0x408656:	pop	rbx
0x408657:	pop	rbp
0x408658:	ret	
F 0x404ad3
0x404ad3:	mov	byte ptr [rdx + rax], 0xc
0x404ad7:	pop	rbp
0x404ad8:	ret	
F 0x4108c6
0x404ed3:	pop	r15
0x404ed5:	ret	
F 0x4127cb
0x404ecc:	pop	rbp
0x404ecd:	pop	r12
0x404ecf:	pop	r13
0x404ed1:	pop	r14
0x404ed3:	pop	r15
0x404ed5:	ret	
F 0x41c03b
0x41c03b:	nop	dword ptr [rax + rax]
0x41c040:	mov	eax, 0xffffffff
0x41c045:	ret	
F 0x414f3d
0x404ecd:	pop	r12
0x404ecf:	pop	r13
0x404ed1:	pop	r14
0x404ed3:	pop	r15
0x404ed5:	ret	
F 0x41901f
0x404ed1:	pop	r14
0x404ed3:	pop	r15
0x404ed5:	ret	
F 0x413b93
0x409c40:	pop	r12
0x409c42:	pop	r13
0x409c44:	pop	r14
0x409c46:	ret	
F 0x41233e
0x41233e:	mov	dword ptr [r12], eax
0x412342:	mov	rax, r12
0x412345:	pop	rbx
0x412346:	pop	rbp
0x412347:	pop	r12
0x412349:	ret	
F 0x40e9ad
0x40e9ad:	add	byte ptr [rax], al
0x40e9af:	add	byte ptr [rax - 0x73], cl
0x40e9b2:	add	eax, 0x111ba
0x40e9b7:	ret	
F 0x41bd7e
0x409c3f:	pop	rbp
0x409c40:	pop	r12
0x409c42:	pop	r13
0x409c44:	pop	r14
0x409c46:	ret	
F 0x4175ac
0x4175ac:	mov	dword ptr [rdi], ebx
0x4175ae:	jmp	0x417516
F 0x40d60f
0x40d60f:	add	eax, 0xc7000000
0x40d614:	add	byte ptr [rbp], cl
0x40d617:	add	byte ptr [rax], al
0x40d619:	pop	rbx
0x40d61a:	ret	
F 0x416ec3
0x416ec3:	ret	0x4808
F 0x40ba69
0x404016:	ret	
F 0x419433
0x404ed1:	pop	r14
0x404ed3:	pop	r15
0x404ed5:	ret	
F 0x409c95
0x409c95:	sal	byte ptr [rbp - 0x18], cl
0x409c98:	mov	eax, r8d
0x409c9b:	ret	
F 0x4158b3
0x4158b3:	add	byte ptr [rax], al
0x4158b5:	add	rsp, 0x158
0x4158bc:	pop	rbx
0x4158bd:	pop	rbp
0x4158be:	pop	r12
0x4158c0:	pop	r13
0x4158c2:	pop	r14
0x4158c4:	pop	r15
0x4158c6:	ret	
F 0x418caf
0x404ecf:	pop	r13
0x404ed1:	pop	r14
0x404ed3:	pop	r15
0x404ed5:	ret	
F 0x4049c1
0x4049c1:	sub	byte ptr [rdx], al
0x4049c3:	add	byte ptr [rcx + rcx*4 - 0x20], cl
0x4049c7:	pop	r12
0x4049c9:	ret	
F 0x40d72f
0x40d72f:	movq	mm3, qword ptr [rax + 0x10]
0x40d733:	movups	xmmword ptr [rip + 0x26976], xmm3
0x40d73a:	add	rsp, 8
0x40d73e:	ret	
F 0x4152ef
0x4152ef:	mov	rax, qword ptr [rcx + rax*8]
0x4152f3:	add	rsp, 8
0x4152f7:	pop	rbx
0x4152f8:	pop	rbp
0x4152f9:	lea	rax, [rax + rdx*8]
0x4152fd:	pop	r12
0x4152ff:	pop	r13
0x415301:	ret	
F 0x41b87b
0x409b14:	pop	rbx
0x409b15:	pop	rbp
0x409b16:	pop	r12
0x409b18:	ret	
F 0x407bdd
0x407bdd:	add	rax, 1
0x407be1:	movzx	r8d, dl
0x407be5:	mov	qword ptr [rip + 0x1f6c4], rax
0x407bec:	mov	eax, r8d
0x407bef:	ret	
F 0x411d82
0x404ed3:	pop	r15
0x404ed5:	ret	
F 0x41a6c3
0x41a6c3:	mov	esi, dword ptr [rax]
0x41a6c5:	mov	qword ptr [rdx + rcx*8], rsi
0x41a6c9:	add	rsp, 0x18
0x41a6cd:	pop	rbx
0x41a6ce:	pop	rbp
0x41a6cf:	ret	
F 0x409f9e
0x407c4a:	add	dword ptr [rax], eax
0x407c4c:	ret	
F 0x416f6b
0x416f6b:	add	byte ptr [rcx + rcx*4 + 0x60], cl
0x416f6f:	or	byte ptr [rax - 0x77], cl
0x416f72:	ret	
F 0x412fb9
0x404ed1:	pop	r14
0x404ed3:	pop	r15
0x404ed5:	ret	
F 0x410448
0x40460d:	pop	rbp
0x40460e:	pop	r12
0x404610:	ret	
F 0x415efd
0x404eca:	add	byte ptr [rbx + 0x5d], bl
0x404ecd:	pop	r12
0x404ecf:	pop	r13
0x404ed1:	pop	r14
0x404ed3:	pop	r15
0x404ed5:	ret	
F 0x41729c
0x41729c:	xor	al, 0
0x41729e:	add	byte ptr [rax - 0x7d], cl
0x4172a1:	ret	
F 0x41380a
0x40862a:	or	byte ptr [rbx + 0x5d], bl
0x40862d:	ret	
F 0x41c271
0x404ed1:	pop	r14
0x404ed3:	pop	r15
0x404ed5:	ret	
F 0x40a31c
0x40a31c:	adc	byte ptr [rcx + rcx*4 - 0x20], cl
0x40a320:	movsd	qword ptr [rdi + 0x10], xmm0
0x40a325:	pop	r12
0x40a327:	ret	
F 0x414d8c
0x4117e4:	or	byte ptr [rcx + rcx*4 - 0x20], cl
0x4117e8:	pop	rbx
0x4117e9:	pop	r12
0x4117eb:	ret	
F 0x411ee5
0x40a324:	adc	byte ptr [rcx + 0x5c], al
0x40a327:	ret	
F 0x411f0b
0x411edb:	dec	dword ptr [rcx + rcx*4 - 0x20]
0x411edf:	movsd	qword ptr [r12 + 0x10], xmm0
0x411ee6:	pop	r12
0x411ee8:	ret	
F 0x411fbb
0x411edb:	dec	dword ptr [rcx + rcx*4 - 0x20]
0x411edf:	movsd	qword ptr [r12 + 0x10], xmm0
0x411ee6:	pop	r12
0x411ee8:	ret	
F 0x4171b2
0x4171b2:	add	r12, 0xc
0x4171b6:	add	rsp, 8
0x4171ba:	mov	rax, r12
0x4171bd:	pop	rbx
0x4171be:	pop	r12
0x4171c0:	ret	
F 0x418a08
0x418a08:	add	byte ptr [rbp + 6], dh
0x418a0b:	add	rsp, 0x20
0x418a0f:	pop	rbx
0x418a10:	ret	
F 0x41754f
0x41754f:	rol	byte ptr [rax - 0x79f0f806], 1
0x417555:	mov	edi, 0x48000000
0x41755a:	add	ebx, 2
0x41755d:	jmp	0x4175f4
F 0x412fb5
0x404ecd:	pop	r12
0x404ecf:	pop	r13
0x404ed1:	pop	r14
0x404ed3:	pop	r15
0x404ed5:	ret	
F 0x40ac54
0x404016:	ret	
F 0x4123fe
0x4122c0:	movups	xmmword ptr [r12 + 0x10], xmm0
0x4122c6:	add	rsp, 8
0x4122ca:	pop	rbx
0x4122cb:	pop	r12
0x4122cd:	ret	
F 0x41367c
0x404ed0:	pop	rbp
0x404ed1:	pop	r14
0x404ed3:	pop	r15
0x404ed5:	ret	
F 0x412056
0x412056:	orpd	xmm0, xmm3
0x41205a:	movsd	qword ptr [r12 + 0x10], xmm0
0x412061:	pop	r12
0x412063:	ret	
F 0x417ed2
0x404016:	ret	
F 0x40e8a4
0x404016:	ret	
F 0x41402f
0x404ec9:	add	byte ptr [rax], al
0x404ecb:	pop	rbx
0x404ecc:	pop	rbp
0x404ecd:	pop	r12
0x404ecf:	pop	r13
0x404ed1:	pop	r14
0x404ed3:	pop	r15
0x404ed5:	ret	
F 0x4115e2
0x404ecc:	pop	rbp
0x404ecd:	pop	r12
0x404ecf:	pop	r13
0x404ed1:	pop	r14
0x404ed3:	pop	r15
0x404ed5:	ret	
F 0x417ec9
0x417ec9:	add	eax, 0xe6d2
0x417ece:	mov	rax, qword ptr [rax + rdx*8]
0x417ed2:	ret	
F 0x40fafd
0x40fafd:	mov	word ptr [rbx + 0x18], ax
0x40fb01:	add	rsp, 8
0x40fb05:	pop	rbx
0x40fb06:	pop	rbp
0x40fb07:	ret	
F 0x40ea0d
0x40ea0d:	add	byte ptr [rax], al
0x40ea0f:	add	byte ptr [rax - 0x73], cl
0x40ea12:	add	eax, 0x11179
0x40ea17:	ret	
F 0x40f6ba
0x404016:	ret	
F 0x41199e
0x404ecd:	pop	r12
0x404ecf:	pop	r13
0x404ed1:	pop	r14
0x404ed3:	pop	r15
0x404ed5:	ret	
F 0x40e3bb
0x40460e:	pop	r12
0x404610:	ret	
F 0x416ecb
0x409b12:	mov	eax, esp
0x409b14:	pop	rbx
0x409b15:	pop	rbp
0x409b16:	pop	r12
0x409b18:	ret	
F 0x40d23f
0x404016:	ret	
F 0x41923f
0x4046ef:	pop	rbp
0x4046f0:	ret	
F 0x41b4b5
0x404ed0:	pop	rbp
0x404ed1:	pop	r14
0x404ed3:	pop	r15
0x404ed5:	ret	
F 0x410ba6
0x410ba6:	add	byte ptr [rax], al
0x410ba8:	add	rsp, 0x98
0x410baf:	pop	rbx
0x410bb0:	pop	rbp
0x410bb1:	pop	r12
0x410bb3:	pop	r13
0x410bb5:	pop	r14
0x410bb7:	pop	r15
0x410bb9:	ret	
F 0x407aa7
0x407aa7:	add	bh, al
0x407aa9:	add	eax, 0x1f7fa
0x407aae:	add	byte ptr [rax], al
0x407ab0:	add	byte ptr [rax], al
0x407ab2:	ret	
F 0x40df97
0x406917:	or	al, ch
0x406919:	ret	
F 0x41ad82
0x4046ef:	pop	rbp
0x4046f0:	ret	
F 0x417ccf
0x404016:	ret	
F 0x4175b2
0x40d7e0:	dec	dword ptr [rax - 0x7d]
0x40d7e3:	ret	
F 0x40ed52
0x40ed52:	rcr	byte ptr [rax + rax], 0x84
0x40ed56:	sal	byte ptr [rbp + 7], 0x5d
0x40ed5a:	ret	
F 0x411767
0x404ed2:	pop	rsi
0x404ed3:	pop	r15
0x404ed5:	ret	
F 0x416f5a
0x404ed2:	pop	rsi
0x404ed3:	pop	r15
0x404ed5:	ret	
F 0x40e9fd
0x40e9fd:	add	byte ptr [rax], al
0x40e9ff:	add	byte ptr [rax - 0x73], cl
0x40ea02:	add	eax, 0x11198
0x40ea07:	ret	
F 0x40e99a
0x40e99a:	test	byte ptr [rax], al
0x40e99c:	add	byte ptr [rax], al
0x40e99e:	add	byte ptr [rax], al
0x40e9a0:	lea	rax, [rip + 0x111fe]
0x40e9a7:	ret	
F 0x40a4a6
0x404ed2:	pop	rsi
0x404ed3:	pop	r15
0x404ed5:	ret	
F 0x40a34f
0x40a34f:	add	byte ptr [r8], al
0x40a352:	mov	rax, r12
0x40a355:	pop	r12
0x40a357:	ret	
F 0x412404
0x411f68:	add	rsp, 8
0x411f6c:	pop	rbx
0x411f6d:	pop	r12
0x411f6f:	ret	
F 0x418e21
0x418e21:	mov	dword ptr [rbp + 8], eax
0x418e24:	add	rsp, 8
0x418e28:	pop	rbx
0x418e29:	pop	rbp
0x418e2a:	pop	r12
0x418e2c:	pop	r13
0x418e2e:	pop	r14
0x418e30:	pop	r15
0x418e32:	ret	
F 0x410702
0x404016:	ret	
F 0x417f3a
0x417f3a:	or	eax, 0x8c48348
0x417f3f:	ret	
F 0x4126a9
0x404ecc:	pop	rbp
0x404ecd:	pop	r12
0x404ecf:	pop	r13
0x404ed1:	pop	r14
0x404ed3:	pop	r15
0x404ed5:	ret	
F 0x40a04c
0x40a04c:	add	byte ptr [rax], al
0x40a04e:	add	byte ptr [rax], al
0x40a050:	pop	rbx
0x40a051:	pop	rbp
0x40a052:	pop	r12
0x40a054:	ret	
F 0x4168f9
0x404016:	ret	
F 0x418d50
0x404ecf:	pop	r13
0x404ed1:	pop	r14
0x404ed3:	pop	r15
0x404ed5:	ret	
F 0x407bd4
0x407bd4:	add	byte ptr [rax], al
0x407bd6:	add	byte ptr [rax], al
0x407bd8:	xor	r8d, r8d
0x407bdb:	jmp	0x407bbe
F 0x409ad9
0x409ad9:	mov	eax, esp
0x409adb:	pop	rbp
0x409adc:	pop	r12
0x409ade:	ret	
F 0x4115e8
0x404ed2:	pop	rsi
0x404ed3:	pop	r15
0x404ed5:	ret	
F 0x412610
0x4083d0:	pop	rbx
0x4083d1:	ret	
F 0x40ea83
0x404016:	ret	
F 0x41049d
0x404016:	ret	
F 0x40e9c4
0x40e9c4:	or	al, 1
0x40e9c6:	add	bl, al
0x40e9c8:	nop	dword ptr [rax + rax]
0x40e9d0:	lea	rax, [rip + 0x111e5]
0x40e9d7:	ret	
F 0x40ea2e
0x40ea2e:	add	byte ptr [rax], al
0x40ea30:	lea	rax, [rip + 0x11974]
0x40ea37:	ret	
F 0x418d9b
0x404ecb:	pop	rbx
0x404ecc:	pop	rbp
0x404ecd:	pop	r12
0x404ecf:	pop	r13
0x404ed1:	pop	r14
0x404ed3:	pop	r15
0x404ed5:	ret	
F 0x41754e
0x41754e:	push	rax
0x41754f:	rol	byte ptr [rax - 0x79f0f806], 1
0x417555:	mov	edi, 0x48000000
0x41755a:	add	ebx, 2
0x41755d:	jmp	0x4175f4
F 0x417561
0x40d2a3:	add	byte ptr [rax - 0x7d], cl
0x40d2a6:	ret	
F 0x4108bf
0x404ecc:	pop	rbp
0x404ecd:	pop	r12
0x404ecf:	pop	r13
0x404ed1:	pop	r14
0x404ed3:	pop	r15
0x404ed5:	ret	
F 0x416a80
0x409e40:	add	rsp, 8
0x409e44:	pop	rbx
0x409e45:	pop	rbp
0x409e46:	pop	r12
0x409e48:	pop	r13
0x409e4a:	pop	r14
0x409e4c:	pop	r15
0x409e4e:	ret	
F 0x4105b3
0x404676:	add	byte ptr [rax], al
0x404678:	ret	
F 0x409c3b
0x409c3b:	mov	rax, rbx
0x409c3e:	pop	rbx
0x409c3f:	pop	rbp
0x409c40:	pop	r12
0x409c42:	pop	r13
0x409c44:	pop	r14
0x409c46:	ret	
F 0x40acf4
0x404016:	ret	
F 0x40a309
0x40a309:	add	dword ptr [rcx - 0x77], ecx
0x40a30c:	and	al, 8
0x40a30f:	mov	rax, r12
0x40a312:	pop	r12
0x40a314:	ret	
F 0x41a367
0x41a367:	add	ch, byte ptr [rcx]
0x41a369:	ret	0x8d48
F 0x41bf76
0x41bf76:	pop	rbx
0x41bf77:	pop	rbp
0x41bf78:	mov	eax, r12d
0x41bf7b:	pop	r12
0x41bf7d:	pop	r13
0x41bf7f:	pop	r14
0x41bf81:	ret	
F 0x417621
0x417621:	jmp	0x4175f4
F 0x407e4c
0x404ecb:	pop	rbx
0x404ecc:	pop	rbp
0x404ecd:	pop	r12
0x404ecf:	pop	r13
0x404ed1:	pop	r14
0x404ed3:	pop	r15
0x404ed5:	ret	
F 0x4161cd
0x4161cd:	add	dword ptr [rax - 0x7d], ecx
0x4161d0:	ret	
F 0x417e7f
0x417e7f:	mov	dword ptr [rax + 0xc], ecx
0x417e82:	mov	rax, qword ptr [rbx]
0x417e85:	pop	rbx
0x417e86:	ret	
F 0x415e4a
0x404016:	ret	
F 0x417374
0x417374:	mov	ecx, esi
0x417376:	shl	eax, cl
0x417378:	sub	edx, eax
0x41737a:	or	byte ptr [r11], dl
0x41737d:	ret	
F 0x41529f
0x41529f:	sar	edi, 3
0x4152a2:	sar	rax, 3
0x4152a6:	imul	edx, edi, 0xaaaaaaab
0x4152ac:	shl	eax, 0xa
0x4152af:	add	eax, edx
0x4152b1:	ret	
F 0x4175ed
0x4175ed:	add	byte ptr [rax], r8b
0x4175f0:	add	rbx, 1
0x4175f4:	mov	qword ptr [rbp], rbx
0x4175f8:	movzx	r12d, r12b
0x4175fc:	jmp	0x417516
F 0x409ad1
0x409ad1:	add	dword ptr [rip + 0x1d550], 1
0x409ad8:	mov	rax, r12
0x409adb:	pop	rbp
0x409adc:	pop	r12
0x409ade:	ret	
F 0x419a61
0x419a61:	add	byte ptr [rcx - 0x7d], cl
0x419a64:	ret	0x4818
F 0x40ea50
0x40ea50:	lea	rax, [rip + 0x10dd3]
0x40ea57:	ret	
F 0x411f60
0x411f60:	mov	rax, r12
0x411f63:	movsd	qword ptr [rbx - 8], xmm0
0x411f68:	add	rsp, 8
0x411f6c:	pop	rbx
0x411f6d:	pop	r12
0x411f6f:	ret	
F 0x407a5d
0x404012:	add	rsp, 8
0x404016:	ret	
F 0x41a333
0x41a333:	mov	rax, qword ptr [rdi + 8]
0x41a337:	mov	qword ptr [rsi], rax
0x41a33a:	mov	rax, qword ptr [rdi + 0x10]
0x41a33e:	ret	
F 0x40a169
0x40a169:	add	byte ptr [r8], al
0x40a16c:	add	rsp, 0x10
0x40a170:	xor	eax, eax
0x40a172:	pop	rbx
0x40a173:	pop	rbp
0x40a174:	pop	r12
0x40a176:	pop	r13
0x40a178:	pop	r14
0x40a17a:	ret	
F 0x414763
0x409e40:	add	rsp, 8
0x409e44:	pop	rbx
0x409e45:	pop	rbp
0x409e46:	pop	r12
0x409e48:	pop	r13
0x409e4a:	pop	r14
0x409e4c:	pop	r15
0x409e4e:	ret	
F 0x4152f7
0x4152f7:	pop	rbx
0x4152f8:	pop	rbp
0x4152f9:	lea	rax, [rax + rdx*8]
0x4152fd:	pop	r12
0x4152ff:	pop	r13
0x415301:	ret	
F 0x4115e1
0x404ecb:	pop	rbx
0x404ecc:	pop	rbp
0x404ecd:	pop	r12
0x404ecf:	pop	r13
0x404ed1:	pop	r14
0x404ed3:	pop	r15
0x404ed5:	ret	
F 0x414760
0x414760:	and	al, 0x10
0x414763:	add	rsp, 8
0x414767:	pop	rbx
0x414768:	pop	rbp
0x414769:	pop	r12
0x41476b:	pop	r13
0x41476d:	pop	r14
0x41476f:	pop	r15
0x414771:	ret	
F 0x40ff97
0x40fd2d:	add	byte ptr [rbx + 0x5d], bl
0x40fd30:	ret	
F 0x418d4b
0x409e43:	or	byte ptr [rbx + 0x5d], bl
0x409e46:	pop	r12
0x409e48:	pop	r13
0x409e4a:	pop	r14
0x409e4c:	pop	r15
0x409e4e:	ret	
F 0x41c8f0
0x404016:	ret	
F 0x41bf7e
0x409c43:	pop	rbp
0x409c44:	pop	r14
0x409c46:	ret	
F 0x407ea3
0x407ea3:	ret	0xfa80
F 0x418ea9
0x418ea9:	mov	dword ptr [rbp], ebp
0x418eac:	mov	qword ptr [r13 + 8], rbx
0x418eb0:	pop	rbx
0x418eb1:	pop	rbp
0x418eb2:	pop	r12
0x418eb4:	pop	r13
0x418eb6:	pop	r14
0x418eb8:	ret	
F 0x411f89
0x411f89:	and	bh, bh
0x411f8b:	dec	dword ptr [rcx + rcx*4 - 0x20]
0x411f8f:	movsd	qword ptr [r12 + 0x10], xmm0
0x411f96:	pop	r12
0x411f98:	ret	
F 0x41380e
0x41380e:	nop	
0x413810:	ret	
F 0x40d423
0x404016:	ret	
F 0x414b1f
0x404016:	ret	
F 0x413a6f
0x404ecb:	pop	rbx
0x404ecc:	pop	rbp
0x404ecd:	pop	r12
0x404ecf:	pop	r13
0x404ed1:	pop	r14
0x404ed3:	pop	r15
0x404ed5:	ret	
F 0x41b20b
0x41b20b:	sub	eax, esp
0x41b20d:	mov	byte ptr [rbp], 0
0x41b211:	add	rsp, 8
0x41b215:	pop	rbx
0x41b216:	pop	rbp
0x41b217:	pop	r12
0x41b219:	pop	r13
0x41b21b:	ret	
F 0x41c111
0x41c111:	nop	word ptr cs:[rax + rax]
0x41c11b:	nop	dword ptr [rax + rax]
0x41c120:	ret	
F 0x40ea45
0x407c4a:	add	dword ptr [rax], eax
0x407c4c:	ret	
F 0x4178f7
0x407ab7:	add	al, ch
0x407ab9:	ret	
F 0x40ea22
0x40ea22:	add	eax, 0x11160
0x40ea27:	ret	
F 0x411aca
0x411aaa:	mov	eax, esi
0x411aac:	pop	rbp
0x411aad:	pop	r12
0x411aaf:	pop	r13
0x411ab1:	pop	r14
0x411ab3:	ret	
F 0x411762
0x404ecd:	pop	r12
0x404ecf:	pop	r13
0x404ed1:	pop	r14
0x404ed3:	pop	r15
0x404ed5:	ret	
F 0x41367e
0x404ed2:	pop	rsi
0x404ed3:	pop	r15
0x404ed5:	ret	
F 0x408457
0x408457:	add	eax, 0x1eccf
0x40845c:	mov	byte ptr [rip + 0x1ecca], 0x22
0x408463:	add	rsp, 8
0x408467:	ret	
F 0x41a8fa
0x409c42:	pop	r13
0x409c44:	pop	r14
0x409c46:	ret	
F 0x41769b
0x41769b:	add	byte ptr [rax - 0x77], cl
0x41769e:	ret	0x2948
F 0x41c5f9
0x4046ef:	pop	rbp
0x4046f0:	ret	
F 0x411bd5
0x411bd5:	add	byte ptr [rbp + 0xa], dh
0x411bd8:	add	rsp, 0x10
0x411bdc:	lea	rax, [rbx + 0x18]
0x411be0:	pop	rbx
0x411be1:	ret	
F 0x4152b1
0x404016:	ret	
F 0x41c682
0x41c682:	mov	qword ptr [rip + 0x1dc47], rax
0x41c689:	pop	rbx
0x41c68a:	pop	rbp
0x41c68b:	pop	r12
0x41c68d:	pop	r13
0x41c68f:	pop	r14
0x41c691:	ret	
F 0x417ca9
0x404016:	ret	
F 0x41c03f
0x41c03f:	add	byte ptr [rax - 1], bh
0x41c045:	ret	
F 0x41417e
0x404ecf:	pop	r13
0x404ed1:	pop	r14
0x404ed3:	pop	r15
0x404ed5:	ret	
F 0x417d20
0x404eca:	add	byte ptr [rbx + 0x5d], bl
0x404ecd:	pop	r12
0x404ecf:	pop	r13
0x404ed1:	pop	r14
0x404ed3:	pop	r15
0x404ed5:	ret	
F 0x411edf
0x411edf:	movsd	qword ptr [r12 + 0x10], xmm0
0x411ee6:	pop	r12
0x411ee8:	ret	
F 0x40d609
0x40d609:	sahf	
0x40d60a:	add	dword ptr [rax], eax
0x40d60c:	mov	dword ptr [rax + 8], 5
0x40d613:	mov	dword ptr [rax], 0x4d
0x40d619:	pop	rbx
0x40d61a:	ret	
F 0x409eae
0x404016:	ret	
F 0x41755d
0x41755d:	jmp	0x4175f4
F 0x412059
0x404016:	ret	
F 0x40d377
0x407ab7:	add	al, ch
0x407ab9:	ret	
F 0x416817
0x404ed2:	pop	rsi
0x404ed3:	pop	r15
0x404ed5:	ret	
F 0x412337
0x412337:	movups	xmmword ptr [r12 + 0x10], xmm0
0x41233d:	mov	word ptr [r12], ax
0x412342:	mov	rax, r12
0x412345:	pop	rbx
0x412346:	pop	rbp
0x412347:	pop	r12
0x412349:	ret	
F 0x408a32
0x404016:	ret	
F 0x412342
0x409b11:	mov	rax, r12
0x409b14:	pop	rbx
0x409b15:	pop	rbp
0x409b16:	pop	r12
0x409b18:	ret	
F 0x40d366
0x40d366:	mov	qword ptr [rip + 0x26d4b], rax
0x40d36d:	add	rsp, 8
0x40d371:	pop	rbx
0x40d372:	pop	rbp
0x40d373:	ret	
F 0x417580
0x417580:	add	rbx, 1
0x417584:	mov	r12d, 0xc
0x41758a:	mov	qword ptr [rdi], rbx
0x41758d:	jmp	0x417516
F 0x409b36
0x409ad6:	add	byte ptr [rcx], al
0x409ad8:	mov	rax, r12
0x409adb:	pop	rbp
0x409adc:	pop	r12
0x409ade:	ret	
F 0x40a16c
0x40a16c:	add	rsp, 0x10
0x40a170:	xor	eax, eax
0x40a172:	pop	rbx
0x40a173:	pop	rbp
0x40a174:	pop	r12
0x40a176:	pop	r13
0x40a178:	pop	r14
0x40a17a:	ret	
F 0x40f249
0x404016:	ret	
F 0x409b71
0x40460d:	pop	rbp
0x40460e:	pop	r12
0x404610:	ret	
F 0x417b58
0x417b58:	xor	al, 0x27
0x417b5a:	add	al, byte ptr [rax]
0x417b5c:	mov	qword ptr [rip + 0x22745], rax
0x417b63:	add	rsp, 8
0x417b67:	ret	
F 0x4142e8
0x404ed4:	pop	rdi
0x404ed5:	ret	
F 0x4196d4
0x404016:	ret	
F 0x4046b0
0x40466f:	jmp	rax
F 0x40d999
0x40d999:	mov	eax, ebp
0x40d99b:	pop	rbx
0x40d99c:	pop	rbp
0x40d99d:	pop	r12
0x40d99f:	pop	r13
0x40d9a1:	ret	
F 0x40d372
0x4046ef:	pop	rbp
0x4046f0:	ret	
F 0x40e9f6
0x40e9f6:	add	bl, al
0x40e9f8:	nop	dword ptr [rax + rax]
0x40ea00:	lea	rax, [rip + 0x11198]
0x40ea07:	ret	
F 0x4142d8
0x4142d8:	add	rsp, 0x128
0x4142df:	pop	rbx
0x4142e0:	pop	rbp
0x4142e1:	pop	r12
0x4142e3:	pop	r13
0x4142e5:	pop	r14
0x4142e7:	pop	r15
0x4142e9:	ret	
F 0x408652
0x408627:	add	rsp, 8
0x40862b:	pop	rbx
0x40862c:	pop	rbp
0x40862d:	ret	
F 0x4166d2
0x404016:	ret	
F 0x417499
0x417499:	sbb	byte ptr [rbp - 0x3dbbf040], al
0x41749f:	pop	rbx
0x4174a0:	ret	
F 0x40a32d
0x40a32d:	add	byte ptr [rax], al
0x40a32f:	add	al, ch
0x40a331:	sub	ecx, ebx
0x40a333:	add	byte ptr [rax], al
0x40a335:	mov	rax, r12
0x40a338:	pop	r12
0x40a33a:	ret	
F 0x407bc1
0x407bc1:	add	dword ptr [rax - 0x77], ecx
0x407bc4:	add	eax, 0x1f6e7
0x407bc9:	mov	eax, r8d
0x407bcc:	add	rsp, 8
0x407bd0:	ret	
F 0x41a7f5
0x4046ef:	pop	rbp
0x4046f0:	ret	
F 0x4173cd
0x404016:	ret	
F 0x4117d8
0x4117d8:	sub	al, bl
0x4117da:	movsd	qword ptr [r12 + 0x10], xmm0
0x4117e1:	add	rsp, 8
0x4117e5:	mov	rax, r12
0x4117e8:	pop	rbx
0x4117e9:	pop	r12
0x4117eb:	ret	
F 0x40819a
0x40819a:	add	rsp, 0x28
0x40819e:	pop	rbx
0x40819f:	pop	rbp
0x4081a0:	pop	r12
0x4081a2:	pop	r13
0x4081a4:	pop	r14
0x4081a6:	pop	r15
0x4081a8:	ret	
F 0x40ea3a
0x40ea3a:	test	byte ptr [rax], al
0x40ea3c:	add	byte ptr [rax], al
0x40ea3e:	add	byte ptr [rax], al
0x40ea40:	lea	rax, [rip + 0x11138]
0x40ea47:	ret	
F 0x40d735
0x40d735:	sbb	eax, 0x26976
0x40d73a:	add	rsp, 8
0x40d73e:	ret	
F 0x411764
0x404ecf:	pop	r13
0x404ed1:	pop	r14
0x404ed3:	pop	r15
0x404ed5:	ret	
F 0x418eb4
0x409c42:	pop	r13
0x409c44:	pop	r14
0x409c46:	ret	
F 0x4119a1
0x404ed0:	pop	rbp
0x404ed1:	pop	r14
0x404ed3:	pop	r15
0x404ed5:	ret	
F 0x4168f0
0x404ecc:	pop	rbp
0x404ecd:	pop	r12
0x404ecf:	pop	r13
0x404ed1:	pop	r14
0x404ed3:	pop	r15
0x404ed5:	ret	
F 0x4172c7
0x404ed2:	pop	rsi
0x404ed3:	pop	r15
0x404ed5:	ret	
F 0x410bb1
0x404ecd:	pop	r12
0x404ecf:	pop	r13
0x404ed1:	pop	r14
0x404ed3:	pop	r15
0x404ed5:	ret	
F 0x407bbf
0x407bbf:	add	eax, 1
0x407bc2:	mov	qword ptr [rip + 0x1f6e7], rax
0x407bc9:	mov	eax, r8d
0x407bcc:	add	rsp, 8
0x407bd0:	ret	
F 0x404674
0x404674:	add	byte ptr [rax], al
0x404676:	add	byte ptr [rax], al
0x404678:	ret	
F 0x4149cb
0x404016:	ret	
F 0x417e96
0x4083d0:	pop	rbx
0x4083d1:	ret	
F 0x41890c
0x41890c:	add	byte ptr [rbp + 5], dh
0x41890f:	add	rsp, 0x28
0x418913:	ret	
F 0x41233b
0x41233b:	and	al, 0x10
0x41233d:	mov	word ptr [r12], ax
0x412342:	mov	rax, r12
0x412345:	pop	rbx
0x412346:	pop	rbp
0x412347:	pop	r12
0x412349:	ret	
F 0x40ea28
0x40ea28:	nop	dword ptr [rax + rax]
0x40ea30:	lea	rax, [rip + 0x11974]
0x40ea37:	ret	
F 0x404ad8
0x404016:	ret	
F 0x414769
0x404ecd:	pop	r12
0x404ecf:	pop	r13
0x404ed1:	pop	r14
0x404ed3:	pop	r15
0x404ed5:	ret	
F 0x41bf78
0x41bf78:	mov	eax, r12d
0x41bf7b:	pop	r12
0x41bf7d:	pop	r13
0x41bf7f:	pop	r14
0x41bf81:	ret	
F 0x40c155
0x40c155:	mov	bl, 1
0x40c157:	add	al, ch
0x40c159:	ret	
F 0x41b817
0x41b817:	movzx	eax, ah
0x41b81a:	ret	
F 0x409c55
0x409c3c:	mov	eax, ebx
0x409c3e:	pop	rbx
0x409c3f:	pop	rbp
0x409c40:	pop	r12
0x409c42:	pop	r13
0x409c44:	pop	r14
0x409c46:	ret	
F 0x407bb9
0x407bb9:	rol	dword ptr [rdi + rcx - 0x4a], 1
0x407bbd:	ret	0x8348
F 0x419019
0x404ecb:	pop	rbx
0x404ecc:	pop	rbp
0x404ecd:	pop	r12
0x404ecf:	pop	r13
0x404ed1:	pop	r14
0x404ed3:	pop	r15
0x404ed5:	ret	
F 0x412b67
0x4046ef:	pop	rbp
0x4046f0:	ret	
F 0x40d763
0x404012:	add	rsp, 8
0x404016:	ret	
F 0x407bcc
0x404012:	add	rsp, 8
0x404016:	ret	
F 0x409e3e
0x409e3e:	sbb	al, 0xee
0x409e40:	add	rsp, 8
0x409e44:	pop	rbx
0x409e45:	pop	rbp
0x409e46:	pop	r12
0x409e48:	pop	r13
0x409e4a:	pop	r14
0x409e4c:	pop	r15
0x409e4e:	ret	
F 0x40e6a0
0x40e4fe:	add	byte ptr [rax], al
0x40e500:	add	byte ptr [rcx + 0x5c], al
0x40e503:	ret	
F 0x410127
0x40862a:	or	byte ptr [rbx + 0x5d], bl
0x40862d:	ret	
F 0x40e99e
0x40e99e:	add	byte ptr [rax], al
0x40e9a0:	lea	rax, [rip + 0x111fe]
0x40e9a7:	ret	
F 0x418da5
0x404016:	ret	
F 0x415f07
0x404ed4:	pop	rdi
0x404ed5:	ret	
F 0x415526
0x40d99f:	pop	r13
0x40d9a1:	ret	
F 0x409e4e
0x404016:	ret	
F 0x409d3f
0x409d3f:	clc	
0x409d40:	pop	rbx
0x409d41:	ret	
F 0x416356
0x404016:	ret	
F 0x41b4b6
0x404ed1:	pop	r14
0x404ed3:	pop	r15
0x404ed5:	ret	
F 0x409c51
0x409c51:	mov	dword ptr [rsi], eax
0x409c54:	mov	rax, rbx
0x409c57:	pop	rbx
0x409c58:	pop	rbp
0x409c59:	pop	r12
0x409c5b:	pop	r13
0x409c5d:	pop	r14
0x409c5f:	ret	
F 0x415eff
0x404ecc:	pop	rbp
0x404ecd:	pop	r12
0x404ecf:	pop	r13
0x404ed1:	pop	r14
0x404ed3:	pop	r15
0x404ed5:	ret	
F 0x407be7
0x407be7:	add	eax, 0x1f6c4
0x407bec:	mov	eax, r8d
0x407bef:	ret	
F 0x41c26f
0x404ecf:	pop	r13
0x404ed1:	pop	r14
0x404ed3:	pop	r15
0x404ed5:	ret	
F 0x411998
0x41175c:	or	byte ptr [rcx + rcx*4 - 0x20], cl
0x411760:	pop	rbx
0x411761:	pop	rbp
0x411762:	pop	r12
0x411764:	pop	r13
0x411766:	pop	r14
0x411768:	pop	r15
0x41176a:	ret	
F 0x412018
0x411ee1:	movups	xmmword ptr [rsp + 0x10], xmm0
0x411ee6:	pop	r12
0x411ee8:	ret	
F 0x41a33e
0x404016:	ret	
F 0x4142dd
0x404ec9:	add	byte ptr [rax], al
0x404ecb:	pop	rbx
0x404ecc:	pop	rbp
0x404ecd:	pop	r12
0x404ecf:	pop	r13
0x404ed1:	pop	r14
0x404ed3:	pop	r15
0x404ed5:	ret	
F 0x417b1d
0x417b1d:	mov	qword ptr [rbp], rdx
0x417b21:	pop	rbp
0x417b22:	pop	r12
0x417b24:	ret	
F 0x41a6cc
0x41a6cc:	sbb	byte ptr [rbx + 0x5d], bl
0x41a6cf:	ret	
F 0x41ba4c
0x404ed1:	pop	r14
0x404ed3:	pop	r15
0x404ed5:	ret	
F 0x4161c2
0x4161c2:	movabs	dword ptr [0xf00000254830fc7], eax
0x4161cb:	mov	dh, 0x43
0x4161cd:	add	dword ptr [rax - 0x7d], ecx
0x4161d0:	ret	
F 0x409eaa
0x409eaa:	mov	qword ptr [rbx], rdx
0x409ead:	pop	rbx
0x409eae:	ret	
F 0x40faf8
0x40faf8:	mov	eax, 1
0x40fafd:	mov	word ptr [rbx + 0x18], ax
0x40fb01:	add	rsp, 8
0x40fb05:	pop	rbx
0x40fb06:	pop	rbp
0x40fb07:	ret	
F 0x40e4ff
0x40e4ff:	add	byte ptr [rax], al
0x40e501:	pop	r12
0x40e503:	ret	
F 0x4194d7
0x404016:	ret	
F 0x40e4fd
0x40e4fd:	rol	byte ptr [rax], 1
0x40e4ff:	add	byte ptr [rax], al
0x40e501:	pop	r12
0x40e503:	ret	
F 0x40e9c1
0x40e9c1:	lea	eax, [rip + 0x10c52]
0x40e9c7:	ret	
F 0x417ecf
0x417ecf:	mov	eax, dword ptr [rax + rdx*8]
0x417ed2:	ret	
F 0x40eca4
0x40eca4:	mov	dh, 0xc0
0x40eca6:	ret	
F 0x412ea4
0x409e10:	add	byte ptr [rax - 0x77], cl
0x409e13:	ret	
F 0x419238
0x40d36b:	add	al, byte ptr [rax]
0x40d36d:	add	rsp, 8
0x40d371:	pop	rbx
0x40d372:	pop	rbp
0x40d373:	ret	
F 0x419427
0x419427:	add	byte ptr [rax], al
0x419429:	add	rsp, 0x38
0x41942d:	pop	rbx
0x41942e:	pop	rbp
0x41942f:	pop	r12
0x419431:	pop	r13
0x419433:	pop	r14
0x419435:	pop	r15
0x419437:	ret	
F 0x411ab2
0x409c45:	pop	rsi
0x409c46:	ret	
F 0x41a845
0x41a845:	mov	qword ptr [r13], rcx
0x41a849:	add	rsp, 8
0x41a84d:	pop	rbx
0x41a84e:	pop	rbp
0x41a84f:	pop	r12
0x41a851:	pop	r13
0x41a853:	ret	
F 0x41c772
0x41c772:	lodsd	eax, dword ptr [rsi]
0x41c773:	ret	
F 0x40a319
0x40a319:	movups	xmm0, xmmword ptr [rsi + 0x10]
0x40a31d:	mov	rax, r12
0x40a320:	movsd	qword ptr [rdi + 0x10], xmm0
0x40a325:	pop	r12
0x40a327:	ret	
F 0x411aa5
0x411aa5:	sal	byte ptr [rax + rdx + 0x5b], 0x4c
0x411aaa:	mov	eax, esi
0x411aac:	pop	rbp
0x411aad:	pop	r12
0x411aaf:	pop	r13
0x411ab1:	pop	r14
0x411ab3:	ret	
F 0x414f3c
0x404ecc:	pop	rbp
0x404ecd:	pop	r12
0x404ecf:	pop	r13
0x404ed1:	pop	r14
0x404ed3:	pop	r15
0x404ed5:	ret	
F 0x40e9d4
0x40e9d4:	adc	dword ptr [rcx], eax
0x40e9d6:	add	bl, al
0x40e9d8:	nop	dword ptr [rax + rax]
0x40e9e0:	lea	rax, [rip + 0x11192]
0x40e9e7:	ret	
F 0x41c6fc
0x409c43:	pop	rbp
0x409c44:	pop	r14
0x409c46:	ret	
F 0x40ea20
0x40ea20:	lea	rax, [rip + 0x11160]
0x40ea27:	ret	
F 0x40e14e
0x40e14e:	mov	dword ptr [rip + 0x1938c], eax
0x40e154:	ret	
F 0x409b0d
0x409b0d:	sbb	al, 0xc
0x409b10:	add	byte ptr [rcx + rcx*4 - 0x20], cl
0x409b14:	pop	rbx
0x409b15:	pop	rbp
0x409b16:	pop	r12
0x409b18:	ret	
F 0x41bff7
0x4046ef:	pop	rbp
0x4046f0:	ret	
F 0x404a1e
0x404a1e:	add	dword ptr [rax], eax
0x404a20:	xor	edx, edx
0x404a22:	mov	qword ptr [rbp + 0x10], rax
0x404a26:	mov	word ptr [rax], dx
0x404a29:	pop	rbp
0x404a2a:	ret	
F 0x41a537
0x404016:	ret	
F 0x40d992
0x40d992:	add	byte ptr [rax], al
0x40d994:	add	rsp, 0x18
0x40d998:	mov	rax, r13
0x40d99b:	pop	rbx
0x40d99c:	pop	rbp
0x40d99d:	pop	r12
0x40d99f:	pop	r13
0x40d9a1:	ret	
F 0x411fc8
0x404016:	ret	
F 0x41175e
0x41175e:	mov	eax, esp
0x411760:	pop	rbx
0x411761:	pop	rbp
0x411762:	pop	r12
0x411764:	pop	r13
0x411766:	pop	r14
0x411768:	pop	r15
0x41176a:	ret	
F 0x40d3b3
0x40d3b3:	clc	
0x40d3b4:	mov	qword ptr [rip + 0x26cfd], rax
0x40d3bb:	add	rsp, 8
0x40d3bf:	pop	rbx
0x40d3c0:	pop	rbp
0x40d3c1:	ret	
F 0x41bff2
0x408627:	add	rsp, 8
0x40862b:	pop	rbx
0x40862c:	pop	rbp
0x40862d:	ret	
F 0x4121a1
0x40460e:	pop	r12
0x404610:	ret	
F 0x40ea0e
0x40ea0e:	add	byte ptr [rax], al
0x40ea10:	lea	rax, [rip + 0x11179]
0x40ea17:	ret	
F 0x4104cb
0x404016:	ret	
F 0x406919
0x404016:	ret	
F 0x41666f
0x404ecb:	pop	rbx
0x404ecc:	pop	rbp
0x404ecd:	pop	r12
0x404ecf:	pop	r13
0x404ed1:	pop	r14
0x404ed3:	pop	r15
0x404ed5:	ret	
F 0x40a323
0x40a323:	adc	byte ptr [r9 + 0x5c], r8b
0x40a327:	ret	
F 0x40f17c
0x404ed1:	pop	r14
0x404ed3:	pop	r15
0x404ed5:	ret	
F 0x415c96
0x415c96:	add	byte ptr [rax - 0x7d], cl
0x415c9a:	ret	
F 0x416975
0x4046b5:	add	byte ptr [rax], r8b
0x4046b8:	ret	
F 0x409a8e
0x409a8e:	add	eax, 0x1d58d
0x409a93:	ret	
F 0x41ab3b
0x404016:	ret	
F 0x415f04
0x404ed1:	pop	r14
0x404ed3:	pop	r15
0x404ed5:	ret	
F 0x41a8c3
0x4161cd:	add	dword ptr [rax - 0x7d], ecx
0x4161d0:	ret	
F 0x418e27
0x409e43:	or	byte ptr [rbx + 0x5d], bl
0x409e46:	pop	r12
0x409e48:	pop	r13
0x409e4a:	pop	r14
0x409e4c:	pop	r15
0x409e4e:	ret	
F 0x41a84c
0x416e45:	or	byte ptr [rbx + 0x5d], bl
0x416e48:	pop	r12
0x416e4a:	pop	r13
0x416e4c:	ret	
F 0x410c63
0x404016:	ret	
F 0x408a28
0x404ecb:	pop	rbx
0x404ecc:	pop	rbp
0x404ecd:	pop	r12
0x404ecf:	pop	r13
0x404ed1:	pop	r14
0x404ed3:	pop	r15
0x404ed5:	ret	
F 0x40d757
0x40d757:	movdqu	xmm5, xmmword ptr [rax + 0x10]
0x40d75c:	movups	xmmword ptr [rip + 0x2694d], xmm5
0x40d763:	add	rsp, 8
0x40d767:	ret	
F 0x4168f8
0x404ed4:	pop	rdi
0x404ed5:	ret	
F 0x4081a7
0x404ed4:	pop	rdi
0x404ed5:	ret	
F 0x417629
0x417629:	add	ebx, 1
0x41762c:	mov	r12d, 0x78
0x417632:	mov	qword ptr [rbp], rbx
0x417636:	jmp	0x417516
F 0x4192c4
0x40d36b:	add	al, byte ptr [rax]
0x40d36d:	add	rsp, 8
0x40d371:	pop	rbx
0x40d372:	pop	rbp
0x40d373:	ret	
F 0x40eaea
0x40eaea:	or	ecx, dword ptr [rax - 0x7d]
0x40eaed:	ret	
F 0x4103b8
0x40d99c:	pop	rbp
0x40d99d:	pop	r12
0x40d99f:	pop	r13
0x40d9a1:	ret	
F 0x4138cb
0x404673:	add	byte ptr [rax], 0
0x404676:	add	byte ptr [rax], al
0x404678:	ret	
F 0x41c110
0x404016:	ret	
F 0x409b0a
0x409b0a:	inc	dword ptr [rcx - 0x3a]
0x409b0d:	sbb	al, 0xc
0x409b10:	add	byte ptr [rcx + rcx*4 - 0x20], cl
0x409b14:	pop	rbx
0x409b15:	pop	rbp
0x409b16:	pop	r12
0x409b18:	ret	
F 0x4122bd
0x4122bd:	mov	eax, esp
0x4122bf:	movsd	qword ptr [r12 + 0x10], xmm0
0x4122c6:	add	rsp, 8
0x4122ca:	pop	rbx
0x4122cb:	pop	r12
0x4122cd:	ret	
F 0x40f98a
0x40f98a:	mov	dword ptr [rip + 0x247a8], edi
0x40f990:	pop	r12
0x40f992:	mov	word ptr [rip + 0x24786], r8w
0x40f99a:	ret	
F 0x4194d4
0x40d7e0:	dec	dword ptr [rax - 0x7d]
0x40d7e3:	ret	
F 0x417514
0x417514:	pop	rbp
0x417515:	add	byte ptr [rcx + rcx*4 - 0x20], al
0x417519:	pop	rbx
0x41751a:	pop	rbp
0x41751b:	pop	r12
0x41751d:	ret	
F 0x417d1f
0x404ec9:	add	byte ptr [rax], al
0x404ecb:	pop	rbx
0x404ecc:	pop	rbp
0x404ecd:	pop	r12
0x404ecf:	pop	r13
0x404ed1:	pop	r14
0x404ed3:	pop	r15
0x404ed5:	ret	
F 0x40ea38
0x40ea38:	nop	dword ptr [rax + rax]
0x40ea40:	lea	rax, [rip + 0x11138]
0x40ea47:	ret	
F 0x417611
0x417611:	nop	dword ptr [rax]
0x417618:	add	rbx, 3
0x41761c:	lea	r12d, [rax + r12*8 - 0x30]
0x417621:	jmp	0x4175f4
F 0x409b35
0x409ad5:	add	dword ptr [rax], eax
0x409ad7:	add	dword ptr [rcx + rcx*4 - 0x20], ecx
0x409adb:	pop	rbp
0x409adc:	pop	r12
0x409ade:	ret	
F 0x41c683
0x41c683:	mov	dword ptr [rip + 0x1dc47], eax
0x41c689:	pop	rbx
0x41c68a:	pop	rbp
0x41c68b:	pop	r12
0x41c68d:	pop	r13
0x41c68f:	pop	r14
0x41c691:	ret	
F 0x413f04
0x40f173:	add	byte ptr [rax], al
0x40f175:	add	byte ptr [rbx + 0x5d], bl
0x40f178:	pop	r12
0x40f17a:	pop	r13
0x40f17c:	pop	r14
0x40f17e:	pop	r15
0x40f180:	ret	
F 0x4168eb
0x4168eb:	or	byte ptr [rcx + rcx*4 - 8], cl
0x4168ef:	pop	rbx
0x4168f0:	pop	rbp
0x4168f1:	pop	r12
0x4168f3:	pop	r13
0x4168f5:	pop	r14
0x4168f7:	pop	r15
0x4168f9:	ret	
F 0x411f5d
0x411f5d:	and	al, 0xff
0x411f5f:	dec	dword ptr [rcx + rcx*4 - 0x20]
0x411f63:	movsd	qword ptr [rbx - 8], xmm0
0x411f68:	add	rsp, 8
0x411f6c:	pop	rbx
0x411f6d:	pop	r12
0x411f6f:	ret	
F 0x41a340
0x404016:	ret	
F 0x41bef5
0x409c40:	pop	r12
0x409c42:	pop	r13
0x409c44:	pop	r14
0x409c46:	ret	
F 0x417591
0x404016:	ret	
F 0x4152f0
0x4152f0:	mov	eax, dword ptr [rcx + rax*8]
0x4152f3:	add	rsp, 8
0x4152f7:	pop	rbx
0x4152f8:	pop	rbp
0x4152f9:	lea	rax, [rax + rdx*8]
0x4152fd:	pop	r12
0x4152ff:	pop	r13
0x415301:	ret	
F 0x40d612
0x40d612:	add	bh, al
0x40d614:	add	byte ptr [rbp], cl
0x40d617:	add	byte ptr [rax], al
0x40d619:	pop	rbx
0x40d61a:	ret	
F 0x407ab0
0x404676:	add	byte ptr [rax], al
0x404678:	ret	
F 0x41201f
0x404016:	ret	
F 0x411c47
0x404016:	ret	
F 0x413f03
0x410bab:	cwde	
0x410bac:	add	byte ptr [rax], al
0x410bae:	add	byte ptr [rbx + 0x5d], bl
0x410bb1:	pop	r12
0x410bb3:	pop	r13
0x410bb5:	pop	r14
0x410bb7:	pop	r15
0x410bb9:	ret	
F 0x41b70a
0x41b70a:	add	byte ptr [rbp + 0x17], dh
0x41b70d:	add	rsp, 0x20
0x41b711:	pop	rbp
0x41b712:	ret	
F 0x418e7e
0x404016:	ret	
F 0x418d48
0x409e40:	add	rsp, 8
0x409e44:	pop	rbx
0x409e45:	pop	rbp
0x409e46:	pop	r12
0x409e48:	pop	r13
0x409e4a:	pop	r14
0x409e4c:	pop	r15
0x409e4e:	ret	
F 0x417608
0x417608:	add	rbx, 2
0x41760c:	jmp	0x417512
F 0x41a78b
0x41a78b:	mov	ecx, dword ptr [rax + rdx*8]
0x41a78e:	mov	qword ptr [rax + rdx*8], rdi
0x41a792:	mov	qword ptr [rdi], rcx
0x41a795:	ret	
F 0x41492c
0x41492c:	movabs	al, byte ptr [0x8948d18948000002]
0x414935:	ret	0x8b48
F 0x40e4fa
0x40e4fa:	add	rsp, 0xd0
0x40e501:	pop	r12
0x40e503:	ret	
F 0x416eca
0x409b11:	mov	rax, r12
0x409b14:	pop	rbx
0x409b15:	pop	rbp
0x409b16:	pop	r12
0x409b18:	ret	
F 0x40d99c
0x40d99c:	pop	rbp
0x40d99d:	pop	r12
0x40d99f:	pop	r13
0x40d9a1:	ret	
F 0x416cf4
0x404ed0:	pop	rbp
0x404ed1:	pop	r14
0x404ed3:	pop	r15
0x404ed5:	ret	
F 0x40d2a3
0x40d2a3:	add	byte ptr [rax - 0x7d], cl
0x40d2a6:	ret	
F 0x416818
0x404ed3:	pop	r15
0x404ed5:	ret	
F 0x40460d
0x40460d:	pop	rbp
0x40460e:	pop	r12
0x404610:	ret	
F 0x418c75
0x418625:	add	byte ptr [rax], al
0x418627:	add	al, ch
0x418629:	ret	
F 0x4108be
0x404ecb:	pop	rbx
0x404ecc:	pop	rbp
0x404ecd:	pop	r12
0x404ecf:	pop	r13
0x404ed1:	pop	r14
0x404ed3:	pop	r15
0x404ed5:	ret	
F 0x409e6a
0x409e10:	add	byte ptr [rax - 0x77], cl
0x409e13:	ret	
F 0x41a365
0x41a365:	shl	eax, 2
0x41a368:	sub	edx, eax
0x41a36a:	lea	rax, [rip + 0xc1cf]
0x41a371:	movzx	edx, dl
0x41a374:	mov	rax, qword ptr [rax + rdx*8]
0x41a378:	ret	
F 0x40e9bd
0x40e9bd:	add	byte ptr [rax], al
0x40e9bf:	add	byte ptr [rax - 0x73], cl
0x40e9c2:	add	eax, 0x10c52
0x40e9c7:	ret	
F 0x4103b2
0x4103b2:	add	rsp, 0x18
0x4103b7:	pop	rbx
0x4103b8:	pop	rbp
0x4103b9:	pop	r12
0x4103bb:	pop	r13
0x4103bd:	ret	
F 0x41afec
0x409c42:	pop	r13
0x409c44:	pop	r14
0x409c46:	ret	
F 0x409c3f
0x409c3f:	pop	rbp
0x409c40:	pop	r12
0x409c42:	pop	r13
0x409c44:	pop	r14
0x409c46:	ret	
F 0x41209b
0x404016:	ret	
F 0x417446
0x417446:	shl	eax, 2
0x417449:	sub	edx, eax
0x41744b:	cmp	edx, 0xa
0x41744e:	sete	r8b
0x417452:	jmp	0x4173ca
F 0x41750b
0x41750b:	add	rbx, 3
0x41750f:	add	r12d, eax
0x417512:	mov	qword ptr [rbp], rbx
0x417516:	mov	eax, r12d
0x417519:	pop	rbx
0x41751a:	pop	rbp
0x41751b:	pop	r12
0x41751d:	ret	
F 0x40f7e7
0x404016:	ret	
F 0x409f75
0x409f75:	sbb	byte ptr [rbp - 0x20], dh
0x409f78:	mov	rax, qword ptr [rax + 8]
0x409f7c:	ret	
F 0x4079e8
0x404012:	add	rsp, 8
0x404016:	ret	
F 0x413801
0x413801:	mov	dword ptr [rbx + 8], edx
0x413804:	mov	qword ptr [rbx], rax
0x413807:	add	rsp, 8
0x41380b:	pop	rbx
0x41380c:	pop	rbp
0x41380d:	ret	
F 0x41a02e
0x41a02e:	rol	byte ptr [rcx], 0
0x41a031:	add	byte ptr [rcx - 0x7d], cl
0x41a034:	ret	0x4c18
F 0x40ea36
0x40ea36:	add	bl, al
0x40ea38:	nop	dword ptr [rax + rax]
0x40ea40:	lea	rax, [rip + 0x11138]
0x40ea47:	ret	
F 0x40c157
0x407ab7:	add	al, ch
0x407ab9:	ret	
F 0x41377e
0x407bed:	mov	eax, eax
0x407bef:	ret	
F 0x413c90
0x413c90:	add	byte ptr [rcx - 0x77], cl
0x413c93:	add	byte ptr [r8 - 0x77], r9b
0x413c97:	ret	
F 0x41a841
0x41a841:	ror	byte ptr [rcx + rcx*4 - 0x20], 1
0x41a845:	mov	qword ptr [r13], rcx
0x41a849:	add	rsp, 8
0x41a84d:	pop	rbx
0x41a84e:	pop	rbp
0x41a84f:	pop	r12
0x41a851:	pop	r13
0x41a853:	ret	
F 0x40ec5b
0x404ecf:	pop	r13
0x404ed1:	pop	r14
0x404ed3:	pop	r15
0x404ed5:	ret	
F 0x404ed1
0x404ed1:	pop	r14
0x404ed3:	pop	r15
0x404ed5:	ret	
F 0x40e9b6
0x40e9b6:	add	bl, al
0x40e9b8:	nop	dword ptr [rax + rax]
0x40e9c0:	lea	rax, [rip + 0x10c52]
0x40e9c7:	ret	
F 0x415a64
0x415a64:	mov	qword ptr [rip + 0x1e79d], rax
0x415a6b:	add	rsp, 8
0x415a6f:	ret	
F 0x404a34
0x4046ef:	pop	rbp
0x4046f0:	ret	
F 0x40e69f
0x40e4fd:	rol	byte ptr [rax], 1
0x40e4ff:	add	byte ptr [rax], al
0x40e501:	pop	r12
0x40e503:	ret	
F 0x414038
0x404ed2:	pop	rsi
0x404ed3:	pop	r15
0x404ed5:	ret	
F 0x40e9f2
0x40e9f2:	add	eax, 0x111bf
0x40e9f7:	ret	
F 0x4103b9
0x40d99d:	pop	r12
0x40d99f:	pop	r13
0x40d9a1:	ret	
F 0x4126aa
0x404ecd:	pop	r12
0x404ecf:	pop	r13
0x404ed1:	pop	r14
0x404ed3:	pop	r15
0x404ed5:	ret	
F 0x40ea31
0x40ea31:	lea	eax, [rip + 0x11974]
0x40ea37:	ret	
F 0x41c104
0x41c104:	add	byte ptr [rax], al
0x41c106:	mov	qword ptr [rbp + 8], rax
0x41c10a:	add	rsp, 8
0x41c10e:	pop	rbx
0x41c10f:	pop	rbp
0x41c110:	ret	
F 0x41c275
0x404016:	ret	
F 0x418d56
0x404016:	ret	
F 0x416978
0x404016:	ret	
F 0x4123f9
0x4122bb:	and	al, 0x4c
0x4122bd:	mov	eax, esp
0x4122bf:	movsd	qword ptr [r12 + 0x10], xmm0
0x4122c6:	add	rsp, 8
0x4122ca:	pop	rbx
0x4122cb:	pop	r12
0x4122cd:	ret	
F 0x4144b9
0x4046ef:	pop	rbp
0x4046f0:	ret	
F 0x41ab35
0x409b12:	mov	eax, esp
0x409b14:	pop	rbx
0x409b15:	pop	rbp
0x409b16:	pop	r12
0x409b18:	ret	
F 0x41ab44
0x41ab44:	mov	rax, qword ptr [rip + 0xc6e5]
0x41ab4b:	mov	qword ptr [r12 + 8], rax
0x41ab50:	mov	rax, r12
0x41ab53:	pop	rbx
0x41ab54:	pop	rbp
0x41ab55:	pop	r12
0x41ab57:	ret	
F 0x40e3b3
0x40e3b3:	add	rsp, 0xd8
0x40e3ba:	pop	rbp
0x40e3bb:	pop	r12
0x40e3bd:	ret	
F 0x4175c4
0x40d7e0:	dec	dword ptr [rax - 0x7d]
0x40d7e3:	ret	
F 0x409b12
0x409b12:	mov	eax, esp
0x409b14:	pop	rbx
0x409b15:	pop	rbp
0x409b16:	pop	r12
0x409b18:	ret	
F 0x41a7f1
0x40d99c:	pop	rbp
0x40d99d:	pop	r12
0x40d99f:	pop	r13
0x40d9a1:	ret	
F 0x418a5a
0x41890a:	add	byte ptr [rax], al
0x41890c:	add	byte ptr [rbp + 5], dh
0x41890f:	add	rsp, 0x28
0x418913:	ret	
F 0x40ecac
0x40ecac:	add	byte ptr [rax], al
0x40ecae:	add	byte ptr [rax], al
0x40ecb0:	xor	eax, eax
0x40ecb2:	ret	
F 0x4129d1
0x409b14:	pop	rbx
0x409b15:	pop	rbp
0x409b16:	pop	r12
0x409b18:	ret	
F 0x4101ac
0x404016:	ret	
F 0x41800e
0x404ed4:	pop	rdi
0x404ed5:	ret	
F 0x413a70
0x404ecc:	pop	rbp
0x404ecd:	pop	r12
0x404ecf:	pop	r13
0x404ed1:	pop	r14
0x404ed3:	pop	r15
0x404ed5:	ret	
F 0x4103b0
0x4103b0:	add	byte ptr [rbp + 0x44], dh
0x4103b3:	add	rsp, 0x18
0x4103b7:	pop	rbx
0x4103b8:	pop	rbp
0x4103b9:	pop	r12
0x4103bb:	pop	r13
0x4103bd:	ret	
F 0x40864c
0x40864c:	mov	dword ptr [rip + 0x1ec5e], eax
0x408652:	add	rsp, 8
0x408656:	pop	rbx
0x408657:	pop	rbp
0x408658:	ret	
F 0x417b5c
0x417b5c:	mov	qword ptr [rip + 0x22745], rax
0x417b63:	add	rsp, 8
0x417b67:	ret	
F 0x40f16f
0x40f16f:	add	rsp, 0xb8
0x40f176:	pop	rbx
0x40f177:	pop	rbp
0x40f178:	pop	r12
0x40f17a:	pop	r13
0x40f17c:	pop	r14
0x40f17e:	pop	r15
0x40f180:	ret	
F 0x412ea7
0x404016:	ret	
F 0x415744
0x415744:	sbb	byte ptr [rcx], al
0x415746:	add	byte ptr [rax - 0x7d], cl
0x415749:	ret	
F 0x4175f0
0x4175f0:	add	rbx, 1
0x4175f4:	mov	qword ptr [rbp], rbx
0x4175f8:	movzx	r12d, r12b
0x4175fc:	jmp	0x417516
F 0x417713
0x4066c3:	ret	0x8b48
F 0x418c6e
0x404ed1:	pop	r14
0x404ed3:	pop	r15
0x404ed5:	ret	
F 0x4178cb
0x404016:	ret	
F 0x41c5f6
0x40d99d:	pop	r12
0x40d99f:	pop	r13
0x40d9a1:	ret	
F 0x41a6bf
0x41a6bf:	sal	byte ptr [rsi + rcx + 0x48], 0x8b
0x41a6c4:	xor	byte ptr [rax - 0x77], cl
0x41a6c7:	xor	al, 0xca
0x41a6c9:	add	rsp, 0x18
0x41a6cd:	pop	rbx
0x41a6ce:	pop	rbp
0x41a6cf:	ret	
F 0x41735d
0x41735d:	or	byte ptr [rdi + rcx], al
0x417360:	ret	
F 0x40f998
0x40f998:	add	al, byte ptr [rax]
0x40f99a:	ret	
F 0x41b76d
0x41b76d:	inc	dword ptr [rbp + 0x4c0e75c0]
0x41b773:	mov	eax, esp
0x41b775:	pop	r12
0x41b777:	ret	
F 0x418f89
0x418f89:	sub	esi, -1
0x418f8c:	dec	dword ptr [rax + 0x63]
0x418f8f:	ret	
F 0x41736e
0x41736e:	mov	ecx, eax
0x417370:	mov	edx, eax
0x417372:	shl	edx, cl
0x417374:	mov	ecx, esi
0x417376:	shl	eax, cl
0x417378:	sub	edx, eax
0x41737a:	or	byte ptr [r11], dl
0x41737d:	ret	
F 0x4083c4
0x4083c4:	clc	
0x4083c5:	cmp	esi, dword ptr [rax + rcx + 0x48]
0x4083c9:	sub	dword ptr [rip + 0x1eee0], 1
0x4083d0:	pop	rbx
0x4083d1:	ret	
F 0x40ff91
0x40fd27:	add	rsp, 0x118
0x40fd2e:	pop	rbx
0x40fd2f:	pop	rbp
0x40fd30:	ret	
F 0x40e14d
0x40e14d:	mov	qword ptr [rip + 0x1938c], rax
0x40e154:	ret	
F 0x415a65
0x415a65:	mov	dword ptr [rip + 0x1e79d], eax
0x415a6b:	add	rsp, 8
0x415a6f:	ret	
F 0x40d22f
0x40d22f:	add	byte ptr [rcx - 0x77], cl
0x40d232:	and	al, 0x18
0x40d235:	mov	rax, r12
0x40d238:	mov	qword ptr [r12 + 0x10], rdx
0x40d23d:	pop	r12
0x40d23f:	ret	
F 0x41b4b8
0x404ed3:	pop	r15
0x404ed5:	ret	
F 0x417395
0x417395:	clc	
0x417396:	add	ecx, dword ptr [rax + 0xf]
0x417399:	scasd	eax, dword ptr [rdi]
0x41739a:	ret	0x8348
F 0x417618
0x417618:	add	rbx, 3
0x41761c:	lea	r12d, [rax + r12*8 - 0x30]
0x417621:	jmp	0x4175f4
F 0x409c38
0x409c38:	mov	dword ptr [rbp], eax
0x409c3b:	mov	rax, rbx
0x409c3e:	pop	rbx
0x409c3f:	pop	rbp
0x409c40:	pop	r12
0x409c42:	pop	r13
0x409c44:	pop	r14
0x409c46:	ret	
F 0x4125cb
0x404016:	ret	
F 0x41ab4b
0x41ab4b:	mov	qword ptr [r12 + 8], rax
0x41ab50:	mov	rax, r12
0x41ab53:	pop	rbx
0x41ab54:	pop	rbp
0x41ab55:	pop	r12
0x41ab57:	ret	
F 0x405aa8
0x404016:	ret	
F 0x411f90
0x411ee0:	movups	xmmword ptr [r12 + 0x10], xmm0
0x411ee6:	pop	r12
0x411ee8:	ret	
F 0x4117da
0x4117da:	movsd	qword ptr [r12 + 0x10], xmm0
0x4117e1:	add	rsp, 8
0x4117e5:	mov	rax, r12
0x4117e8:	pop	rbx
0x4117e9:	pop	r12
0x4117eb:	ret	
F 0x40fd2e
0x40862b:	pop	rbx
0x40862c:	pop	rbp
0x40862d:	ret	
F 0x414036
0x404ed0:	pop	rbp
0x404ed1:	pop	r14
0x404ed3:	pop	r15
0x404ed5:	ret	
F 0x413f10
0x404ed4:	pop	rdi
0x404ed5:	ret	
F 0x404732
0x404732:	add	byte ptr [rax], al
0x404734:	mov	dword ptr [rip + 0x22b5a], 0
0x40473e:	ret	
F 0x409fa0
0x404016:	ret	
F 0x409c59
0x409c40:	pop	r12
0x409c42:	pop	r13
0x409c44:	pop	r14
0x409c46:	ret	
F 0x409c5e
0x409c45:	pop	rsi
0x409c46:	ret	
F 0x4049be
0x4049be:	mov	dword ptr [rip + 0x228c4], eax
0x4049c4:	mov	rax, r12
0x4049c7:	pop	r12
0x4049c9:	ret	
F 0x40e99f
0x40e99f:	add	byte ptr [rax - 0x73], cl
0x40e9a2:	add	eax, 0x111fe
0x40e9a7:	ret	
F 0x412b68
0x404016:	ret	
F 0x407be6
0x407be6:	mov	dword ptr [rip + 0x1f6c4], eax
0x407bec:	mov	eax, r8d
0x407bef:	ret	
F 0x41a6c7
0x41a6c7:	xor	al, 0xca
0x41a6c9:	add	rsp, 0x18
0x41a6cd:	pop	rbx
0x41a6ce:	pop	rbp
0x41a6cf:	ret	
F 0x40473c
0x404676:	add	byte ptr [rax], al
0x404678:	ret	
F 0x4192cc
0x404016:	ret	
F 0x40861d
0x40861d:	add	byte ptr [rax + rdx + 0x48], dh
0x408621:	mov	dword ptr [rip + 0x1ec89], eax
0x408627:	add	rsp, 8
0x40862b:	pop	rbx
0x40862c:	pop	rbp
0x40862d:	ret	
F 0x40f997
0x40f997:	add	r8b, byte ptr [r8]
0x40f99a:	ret	
F 0x415a5f
0x415a5f:	add	eax, 0x115bc
0x415a64:	mov	qword ptr [rip + 0x1e79d], rax
0x415a6b:	add	rsp, 8
0x415a6f:	ret	
F 0x41233c
0x41233c:	adc	byte ptr [rsi + 0x41], ah
0x41233f:	mov	dword ptr [rsp], eax
0x412342:	mov	rax, r12
0x412345:	pop	rbx
0x412346:	pop	rbp
0x412347:	pop	r12
0x412349:	ret	
F 0x40d2af
0x40d2af:	pop	rbx
0x40d2b0:	mov	qword ptr [rip + 0x26e01], rax
0x40d2b7:	pop	rbp
0x40d2b8:	pop	r12
0x40d2ba:	ret	
F 0x409f0b
0x409b14:	pop	rbx
0x409b15:	pop	rbp
0x409b16:	pop	r12
0x409b18:	ret	
F 0x40e9c8
0x40e9c8:	nop	dword ptr [rax + rax]
0x40e9d0:	lea	rax, [rip + 0x111e5]
0x40e9d7:	ret	
F 0x40fb2e
0x40fb2e:	sub	byte ptr [rbx + 0x7501086d], al
0x40fb34:	ret	
F 0x41ab37
0x409b14:	pop	rbx
0x409b15:	pop	rbp
0x409b16:	pop	r12
0x409b18:	ret	
F 0x40af19
0x404016:	ret	
F 0x414e2b
0x414e2b:	or	byte ptr [rax - 0x7d], cl
0x414e2e:	ret	
F 0x4122bb
0x4122bb:	and	al, 0x4c
0x4122bd:	mov	eax, esp
0x4122bf:	movsd	qword ptr [r12 + 0x10], xmm0
0x4122c6:	add	rsp, 8
0x4122ca:	pop	rbx
0x4122cb:	pop	r12
0x4122cd:	ret	
F 0x417de8
0x40d7e0:	dec	dword ptr [rax - 0x7d]
0x40d7e3:	ret	
F 0x41c03e
0x41c03e:	add	byte ptr [rax], al
0x41c040:	mov	eax, 0xffffffff
0x41c045:	ret	
F 0x419a32
0x404ecc:	pop	rbp
0x404ecd:	pop	r12
0x404ecf:	pop	r13
0x404ed1:	pop	r14
0x404ed3:	pop	r15
0x404ed5:	ret	
F 0x404ec8
0x404ec8:	or	byte ptr [rax], al
0x404eca:	add	byte ptr [rbx + 0x5d], bl
0x404ecd:	pop	r12
0x404ecf:	pop	r13
0x404ed1:	pop	r14
0x404ed3:	pop	r15
0x404ed5:	ret	
F 0x409ad6
0x409ad6:	add	byte ptr [rcx], al
0x409ad8:	mov	rax, r12
0x409adb:	pop	rbp
0x409adc:	pop	r12
0x409ade:	ret	
F 0x4083c0
0x4083c0:	add	dword ptr [rcx - 0x7d], esi
0x4083c4:	clc	
0x4083c5:	cmp	esi, dword ptr [rax + rcx + 0x48]
0x4083c9:	sub	dword ptr [rip + 0x1eee0], 1
0x4083d0:	pop	rbx
0x4083d1:	ret	
F 0x410bb0
0x404ecc:	pop	rbp
0x404ecd:	pop	r12
0x404ecf:	pop	r13
0x404ed1:	pop	r14
0x404ed3:	pop	r15
0x404ed5:	ret	
F 0x4142e7
0x404ed3:	pop	r15
0x404ed5:	ret	
F 0x409b32
0x409b32:	add	eax, 0x1d4f0
0x409b37:	add	dword ptr [rcx + rcx*4 - 0x20], ecx
0x409b3b:	pop	rbp
0x409b3c:	pop	r12
0x409b3e:	ret	
F 0x417607
0x40d2a3:	add	byte ptr [rax - 0x7d], cl
0x40d2a6:	ret	
F 0x41774f
0x404ed3:	pop	r15
0x404ed5:	ret	
F 0x418cac
0x404ecc:	pop	rbp
0x404ecd:	pop	r12
0x404ecf:	pop	r13
0x404ed1:	pop	r14
0x404ed3:	pop	r15
0x404ed5:	ret	
F 0x41c270
0x404ed0:	pop	rbp
0x404ed1:	pop	r14
0x404ed3:	pop	r15
0x404ed5:	ret	
F 0x41ba48
0x404ecd:	pop	r12
0x404ecf:	pop	r13
0x404ed1:	pop	r14
0x404ed3:	pop	r15
0x404ed5:	ret	
F 0x40ec9e
0x40ec9e:	ror	byte ptr [rax - 0x7d], 0xc4
0x40eca2:	or	byte ptr [rdi], cl
0x40eca4:	mov	dh, 0xc0
0x40eca6:	ret	
F 0x407aa4
0x407aa4:	add	byte ptr [rax], al
0x407aa6:	add	byte ptr [rax], al
0x407aa8:	mov	dword ptr [rip + 0x1f7fa], 0
0x407ab2:	ret	
F 0x4104a5
0x404016:	ret	
F 0x40a278
0x40a278:	add	rsp, 8
0x40a27c:	xor	eax, eax
0x40a27e:	pop	rbx
0x40a27f:	pop	rbp
0x40a280:	ret	
F 0x408198
0x408198:	add	byte ptr [rax], al
0x40819a:	add	rsp, 0x28
0x40819e:	pop	rbx
0x40819f:	pop	rbp
0x4081a0:	pop	r12
0x4081a2:	pop	r13
0x4081a4:	pop	r14
0x4081a6:	pop	r15
0x4081a8:	ret	
F 0x40a4a0
0x404ecc:	pop	rbp
0x404ecd:	pop	r12
0x404ecf:	pop	r13
0x404ed1:	pop	r14
0x404ed3:	pop	r15
0x404ed5:	ret	
F 0x418e28
0x404ecb:	pop	rbx
0x404ecc:	pop	rbp
0x404ecd:	pop	r12
0x404ecf:	pop	r13
0x404ed1:	pop	r14
0x404ed3:	pop	r15
0x404ed5:	ret	
F 0x41a793
0x41a793:	mov	dword ptr [rdi], ecx
0x41a795:	ret	
F 0x412264
0x412264:	rol	dword ptr [rax], cl
0x412266:	add	dl, dh
0x412268:	movups	xmmword ptr [rbx + 0x28], xmm0
0x41226c:	pop	rbx
0x41226d:	ret	
F 0x416979
0x404671:	nop	dword ptr [rax]
0x404678:	ret	
F 0x407c47
0x407c47:	adc	eax, 0x1f664
0x407c4c:	ret	
F 0x40819f
0x404ecc:	pop	rbp
0x404ecd:	pop	r12
0x404ecf:	pop	r13
0x404ed1:	pop	r14
0x404ed3:	pop	r15
0x404ed5:	ret	
F 0x4152f3
0x4152f3:	add	rsp, 8
0x4152f7:	pop	rbx
0x4152f8:	pop	rbp
0x4152f9:	lea	rax, [rax + rdx*8]
0x4152fd:	pop	r12
0x4152ff:	pop	r13
0x415301:	ret	
F 0x41c100
0x41c100:	mov	dword ptr [rip + 0xfeca], ebp
0x41c106:	mov	qword ptr [rbp + 8], rax
0x41c10a:	add	rsp, 8
0x41c10e:	pop	rbx
0x41c10f:	pop	rbp
0x41c110:	ret	
F 0x417d23
0x404ecd:	pop	r12
0x404ecf:	pop	r13
0x404ed1:	pop	r14
0x404ed3:	pop	r15
0x404ed5:	ret	
F 0x409b2e
0x409b2e:	add	dword ptr [rax], eax
0x409b30:	pop	rbx
0x409b31:	add	dword ptr [rip + 0x1d4f0], 1
0x409b38:	mov	rax, r12
0x409b3b:	pop	rbp
0x409b3c:	pop	r12
0x409b3e:	ret	
F 0x41ad2e
0x41ad2e:	add	byte ptr [rax], al
0x41ad30:	xor	eax, eax
0x41ad32:	pop	rbp
0x41ad33:	ret	
F 0x418eac
0x418eac:	mov	qword ptr [r13 + 8], rbx
0x418eb0:	pop	rbx
0x418eb1:	pop	rbp
0x418eb2:	pop	r12
0x418eb4:	pop	r13
0x418eb6:	pop	r14
0x418eb8:	ret	
F 0x4049bc
0x4049bc:	sbb	byte ptr [rax - 0x77], cl
0x4049bf:	add	eax, 0x228c4
0x4049c4:	mov	rax, r12
0x4049c7:	pop	r12
0x4049c9:	ret	
F 0x40ec93
0x40ec93:	add	al, ch
0x40ec95:	not	dword ptr [rdi + rdi*8 - 1]
0x40ec99:	test	rax, rax
0x40ec9c:	sete	al
0x40ec9f:	add	rsp, 8
0x40eca3:	movzx	eax, al
0x40eca6:	ret	
F 0x409b70
0x409b14:	pop	rbx
0x409b15:	pop	rbp
0x409b16:	pop	r12
0x409b18:	ret	
F 0x40ea06
0x40ea06:	add	bl, al
0x40ea08:	nop	dword ptr [rax + rax]
0x40ea10:	lea	rax, [rip + 0x11179]
0x40ea17:	ret	
F 0x41143c
0x41143c:	mov	eax, dword ptr [rsp + 8]
0x411440:	add	rsp, 0x18
0x411444:	pop	rbx
0x411445:	pop	rbp
0x411446:	pop	r12
0x411448:	pop	r13
0x41144a:	pop	r14
0x41144c:	pop	r15
0x41144e:	ret	
F 0x408444
0x408444:	add	byte ptr [rax], al
0x408446:	add	byte ptr [rdi], cl
0x408448:	ret	0x588
F 0x419a36
0x404ed0:	pop	rbp
0x404ed1:	pop	r14
0x404ed3:	pop	r15
0x404ed5:	ret	
F 0x419aea
0x419aea:	or	al, 1
0x419aec:	add	byte ptr [rax], al
0x419aee:	add	byte ptr [rcx - 0x7d], cl
0x419af1:	ret	0x4818
F 0x41a33c
0x41a33c:	adc	r11b, r8b
0x41a33f:	nop	
0x41a340:	ret	
F 0x407e46
0x407e46:	sbb	byte ptr [rax + 0x132], bh
0x407e4c:	pop	rbx
0x407e4d:	pop	rbp
0x407e4e:	pop	r12
0x407e50:	pop	r13
0x407e52:	pop	r14
0x407e54:	pop	r15
0x407e56:	ret	
F 0x4149bf
0x4144ae:	add	rsp, 0x130
0x4144b5:	pop	rbp
0x4144b6:	pop	r12
0x4144b8:	pop	r13
0x4144ba:	ret	
F 0x4049ba
0x4049ba:	mov	dword ptr [rax + 0x18], esp
0x4049bd:	mov	qword ptr [rip + 0x228c4], rax
0x4049c4:	mov	rax, r12
0x4049c7:	pop	r12
0x4049c9:	ret	
F 0x416405
0x4161cc:	add	dword ptr [r8 - 0x7d], ecx
0x4161d0:	ret	
F 0x40d230
0x40d230:	mov	qword ptr [r12 + 0x18], rax
0x40d235:	mov	rax, r12
0x40d238:	mov	qword ptr [r12 + 0x10], rdx
0x40d23d:	pop	r12
0x40d23f:	ret	
F 0x40a318
0x40a318:	movsd	xmm0, qword ptr [rsi + 0x10]
0x40a31d:	mov	rax, r12
0x40a320:	movsd	qword ptr [rdi + 0x10], xmm0
0x40a325:	pop	r12
0x40a327:	ret	
F 0x418ead
0x418ead:	mov	dword ptr [rbp + 8], ebx
0x418eb0:	pop	rbx
0x418eb1:	pop	rbp
0x418eb2:	pop	r12
0x418eb4:	pop	r13
0x418eb6:	pop	r14
0x418eb8:	ret	
F 0x40a2a0
0x40a2a0:	setne	al
0x40a2a3:	add	rsp, 8
0x40a2a7:	movzx	eax, al
0x40a2aa:	pop	rbx
0x40a2ab:	pop	rbp
0x40a2ac:	ret	
F 0x4119a0
0x404ecf:	pop	r13
0x404ed1:	pop	r14
0x404ed3:	pop	r15
0x404ed5:	ret	
F 0x409ace
0x409ace:	add	dword ptr [rax], eax
0x409ad0:	pop	rbx
0x409ad1:	add	dword ptr [rip + 0x1d550], 1
0x409ad8:	mov	rax, r12
0x409adb:	pop	rbp
0x409adc:	pop	r12
0x409ade:	ret	
F 0x41518d
0x41518d:	mov	edi, 0x83000250
0x415192:	or	byte ptr [rcx], al
0x415195:	add	rsp, 8
0x415199:	ret	
F 0x416d8f
0x404016:	ret	
F 0x40a158
0x409c42:	pop	r13
0x409c44:	pop	r14
0x409c46:	ret	
F 0x412517
0x412517:	add	byte ptr [rbp + 0x5f], dh
0x41251a:	add	rsp, 0x40
0x41251e:	mov	rax, r12
0x412521:	pop	rbx
0x412522:	pop	rbp
0x412523:	pop	r12
0x412525:	ret	
F 0x41491d
0x4066c3:	ret	0x8b48
F 0x417e86
0x404016:	ret	
F 0x4122b6
0x404016:	ret	
F 0x4172c9
0x404ed4:	pop	rdi
0x404ed5:	ret	
F 0x40d3b4
0x40d3b4:	mov	qword ptr [rip + 0x26cfd], rax
0x40d3bb:	add	rsp, 8
0x40d3bf:	pop	rbx
0x40d3c0:	pop	rbp
0x40d3c1:	ret	
F 0x41b76f
0x41b76f:	sal	byte ptr [rbp + 0xe], 0x4c
0x41b773:	mov	eax, esp
0x41b775:	pop	r12
0x41b777:	ret	
F 0x409c58
0x409c3f:	pop	rbp
0x409c40:	pop	r12
0x409c42:	pop	r13
0x409c44:	pop	r14
0x409c46:	ret	
F 0x418c6d
0x404ed0:	pop	rbp
0x404ed1:	pop	r14
0x404ed3:	pop	r15
0x404ed5:	ret	
F 0x416f58
0x404ed0:	pop	rbp
0x404ed1:	pop	r14
0x404ed3:	pop	r15
0x404ed5:	ret	
F 0x416e45
0x416e45:	or	byte ptr [rbx + 0x5d], bl
0x416e48:	pop	r12
0x416e4a:	pop	r13
0x416e4c:	ret	
F 0x418f8f
0x404016:	ret	
F 0x417d1e
0x40f173:	add	byte ptr [rax], al
0x40f175:	add	byte ptr [rbx + 0x5d], bl
0x40f178:	pop	r12
0x40f17a:	pop	r13
0x40f17c:	pop	r14
0x40f17e:	pop	r15
0x40f180:	ret	
F 0x4175bb
0x4175bb:	add	byte ptr [rax], al
0x4175bd:	mov	qword ptr [rdi], rbx
0x4175c0:	jmp	0x417516
F 0x411b57
0x411aa7:	adc	byte ptr [rbx + 0x4c], bl
0x411aaa:	mov	eax, esi
0x411aac:	pop	rbp
0x411aad:	pop	r12
0x411aaf:	pop	r13
0x411ab1:	pop	r14
0x411ab3:	ret	
F 0x41380b
0x40862b:	pop	rbx
0x40862c:	pop	rbp
0x40862d:	ret	
F 0x40f8d4
0x40f8d4:	sbb	byte ptr [rax - 0x7d], cl
0x40f8d7:	ret	
F 0x4049c4
0x40499c:	mov	rax, r12
0x40499f:	pop	r12
0x4049a1:	ret	
F 0x41bbf8
0x404ed4:	pop	rdi
0x404ed5:	ret	
F 0x41bd72
0x41bd72:	add	byte ptr [rax], al
0x41bd74:	add	rsp, 0x30
0x41bd78:	mov	eax, 0xffffffff
0x41bd7d:	pop	rbx
0x41bd7e:	pop	rbp
0x41bd7f:	pop	r12
0x41bd81:	pop	r13
0x41bd83:	pop	r14
0x41bd85:	ret	
F 0x407c46
0x407c46:	mov	dword ptr [rip + 0x1f664], edx
0x407c4c:	ret	
F 0x40f995
0x40f995:	add	eax, 0x24786
0x40f99a:	ret	
F 0x40e1c9
0x409b14:	pop	rbx
0x409b15:	pop	rbp
0x409b16:	pop	r12
0x409b18:	ret	
F 0x418c74
0x418c74:	add	eax, 0xe8000000
0x418c79:	ret	
F 0x4081a6
0x404ed3:	pop	r15
0x404ed5:	ret	
F 0x413b8d
0x413b8d:	add	dword ptr [rbx + 0x44], ebx
0x413b90:	mov	eax, esi
0x413b92:	pop	rbp
0x413b93:	pop	r12
0x413b95:	pop	r13
0x413b97:	pop	r14
0x413b99:	ret	
F 0x41373e
0x41373e:	mov	edi, 0x8b48f853
0x413743:	cmp	ecx, dword ptr [rcx - 0x7ab7efb0]
0x413749:	push	qword ptr [rbp - 0x1c]
0x41374c:	pop	rbx
0x41374d:	ret	
F 0x41ba47
0x404ecc:	pop	rbp
0x404ecd:	pop	r12
0x404ecf:	pop	r13
0x404ed1:	pop	r14
0x404ed3:	pop	r15
0x404ed5:	ret	
F 0x409b72
0x40460e:	pop	r12
0x404610:	ret	
F 0x41b787
0x41b787:	mov	esi, edi
0x41b789:	dec	dword ptr [rcx + rcx*4 - 0x20]
0x41b78d:	pop	r12
0x41b78f:	ret	
F 0x40ec4e
0x40ec4e:	add	byte ptr [rax], al
0x40ec50:	add	byte ptr [rbp + 0x23], dh
0x40ec53:	add	rsp, 0x28
0x40ec57:	pop	rbx
0x40ec58:	pop	rbp
0x40ec59:	pop	r12
0x40ec5b:	pop	r13
0x40ec5d:	pop	r14
0x40ec5f:	pop	r15
0x40ec61:	ret	
F 0x40f9db
0x40f9db:	add	byte ptr [rax], al
0x40f9dd:	mov	word ptr [rbx], ax
0x40f9e0:	add	rsp, 8
0x40f9e4:	pop	rbx
0x40f9e5:	pop	rbp
0x40f9e6:	ret	
F 0x417b5d
0x417b5d:	mov	dword ptr [rip + 0x22745], eax
0x417b63:	add	rsp, 8
0x417b67:	ret	
F 0x41a8fd
0x409c45:	pop	rsi
0x409c46:	ret	
F 0x40e9ec
0x40e9ec:	add	byte ptr [rax], al
0x40e9ee:	add	byte ptr [rax], al
0x40e9f0:	lea	rax, [rip + 0x111bf]
0x40e9f7:	ret	
F 0x412eae
0x412eae:	add	dword ptr [rax], eax
0x412eb0:	add	byte ptr [rcx - 0x77], cl
0x412eb3:	ret	0x8b48
F 0x419a31
0x404ecb:	pop	rbx
0x404ecc:	pop	rbp
0x404ecd:	pop	r12
0x404ecf:	pop	r13
0x404ed1:	pop	r14
0x404ed3:	pop	r15
0x404ed5:	ret	
F 0x406913
0x406913:	adc	byte ptr [rax - 0x77], cl
0x406916:	or	al, bpl
0x406919:	ret	
F 0x41a72d
0x41a6cc:	sbb	byte ptr [rbx + 0x5d], bl
0x41a6cf:	ret	
F 0x407be9
0x407be9:	test	byte ptr [rcx], 0
0x407bec:	mov	eax, r8d
0x407bef:	ret	
F 0x40a177
0x409c43:	pop	rbp
0x409c44:	pop	r14
0x409c46:	ret	
F 0x41b87f
0x404016:	ret	
F 0x4046b2
0x4046b2:	nop	word ptr [rax + rax]
0x4046b8:	ret	
F 0x41b76b
0x41b76b:	mov	esi, edi
0x41b76d:	inc	dword ptr [rbp + 0x4c0e75c0]
0x41b773:	mov	eax, esp
0x41b775:	pop	r12
0x41b777:	ret	
F 0x41895f
0x41890f:	add	rsp, 0x28
0x418913:	ret	
F 0x418d4d
0x404ecc:	pop	rbp
0x404ecd:	pop	r12
0x404ecf:	pop	r13
0x404ed1:	pop	r14
0x404ed3:	pop	r15
0x404ed5:	ret	
F 0x41061f
0x41061f:	pop	rbx
0x410620:	test	dil, dil
0x410623:	sete	al
0x410626:	cmovne	eax, edx
0x410629:	ret	
F 0x41737b
0x41737b:	or	byte ptr [rbx], dl
0x41737d:	ret	
F 0x40ea46
0x40ea46:	add	bl, al
0x40ea48:	nop	dword ptr [rax + rax]
0x40ea50:	lea	rax, [rip + 0x10dd3]
0x40ea57:	ret	
F 0x419aec
0x419a5f:	add	byte ptr [rax], al
0x419a61:	add	byte ptr [rcx - 0x7d], cl
0x419a64:	ret	0x4818
F 0x4127d0
0x404ed1:	pop	r14
0x404ed3:	pop	r15
0x404ed5:	ret	
F 0x4046eb
0x4046eb:	sub	eax, dword ptr [rdx]
0x4046ed:	add	byte ptr [rcx], al
0x4046ef:	pop	rbp
0x4046f0:	ret	
F 0x41b4ba
0x404016:	ret	
F 0x4120dd
0x4120dd:	movsd	qword ptr [r12 + 0x10], xmm1
0x4120e4:	add	rsp, 0x10
0x4120e8:	mov	rax, r12
0x4120eb:	pop	r12
0x4120ed:	ret	
F 0x41c68b
0x409c40:	pop	r12
0x409c42:	pop	r13
0x409c44:	pop	r14
0x409c46:	ret	
F 0x40ecb0
0x40ecb0:	xor	eax, eax
0x40ecb2:	ret	
F 0x404a2a
0x404016:	ret	
F 0x4152a3
0x4152a3:	sar	eax, 3
0x4152a6:	imul	edx, edi, 0xaaaaaaab
0x4152ac:	shl	eax, 0xa
0x4152af:	add	eax, edx
0x4152b1:	ret	
F 0x411edd
0x411edd:	mov	eax, esp
0x411edf:	movsd	qword ptr [r12 + 0x10], xmm0
0x411ee6:	pop	r12
0x411ee8:	ret	
F 0x41205b
0x411ee0:	movups	xmmword ptr [r12 + 0x10], xmm0
0x411ee6:	pop	r12
0x411ee8:	ret	
F 0x415199
0x404016:	ret	
F 0x4198de
0x404016:	ret	
F 0x41a8f6
0x409c3e:	pop	rbx
0x409c3f:	pop	rbp
0x409c40:	pop	r12
0x409c42:	pop	r13
0x409c44:	pop	r14
0x409c46:	ret	
F 0x419429
0x419429:	add	rsp, 0x38
0x41942d:	pop	rbx
0x41942e:	pop	rbp
0x41942f:	pop	r12
0x419431:	pop	r13
0x419433:	pop	r14
0x419435:	pop	r15
0x419437:	ret	
F 0x410620
0x410620:	test	dil, dil
0x410623:	sete	al
0x410626:	cmovne	eax, edx
0x410629:	ret	
F 0x4172c1
0x404ecc:	pop	rbp
0x404ecd:	pop	r12
0x404ecf:	pop	r13
0x404ed1:	pop	r14
0x404ed3:	pop	r15
0x404ed5:	ret	
F 0x409eab
0x409eab:	mov	dword ptr [rbx], edx
0x409ead:	pop	rbx
0x409eae:	ret	
F 0x41174f
0x40d2a3:	add	byte ptr [rax - 0x7d], cl
0x40d2a6:	ret	
F 0x41a720
0x41a720:	sbb	byte ptr [rcx], al
0x41a722:	add	byte ptr [rax - 0x77], cl
0x41a725:	adc	eax, 0x117f6
0x41a72a:	add	rsp, 0x18
0x41a72e:	pop	rbx
0x41a72f:	pop	rbp
0x41a730:	ret	
F 0x411b72
0x411b72:	psubsb	mm7, mm0
0x411b75:	mov	eax, dword ptr [rax]
0x411b77:	add	byte ptr [rbx + 0x4c], bl
0x411b7a:	mov	eax, esi
0x411b7c:	pop	rbp
0x411b7d:	pop	r12
0x411b7f:	pop	r13
0x411b81:	pop	r14
0x411b83:	ret	
F 0x41c6f9
0x409c40:	pop	r12
0x409c42:	pop	r13
0x409c44:	pop	r14
0x409c46:	ret	
F 0x419eb0
0x419eb0:	test	byte ptr [rsi], ah
0x419eb2:	add	eax, dword ptr [rax]
0x419eb4:	add	byte ptr [rcx - 0x7d], cl
0x419eb7:	ret	0x4818
F 0x41ab2b
0x41ab2b:	mov	qword ptr [r12 + 8], 0
0x41ab34:	mov	rax, r12
0x41ab37:	pop	rbx
0x41ab38:	pop	rbp
0x41ab39:	pop	r12
0x41ab3b:	ret	
F 0x4167a0
0x404016:	ret	
F 0x40a15b
0x409c45:	pop	rsi
0x409c46:	ret	
F 0x4193ab
0x404016:	ret	
F 0x40d756
0x40d756:	add	bl, dh
0x40d758:	movq	mm5, qword ptr [rax + 0x10]
0x40d75c:	movups	xmmword ptr [rip + 0x2694d], xmm5
0x40d763:	add	rsp, 8
0x40d767:	ret	
F 0x40d607
0x40d607:	add	eax, 0x19ec4
0x40d60c:	mov	dword ptr [rax + 8], 5
0x40d613:	mov	dword ptr [rax], 0x4d
0x40d619:	pop	rbx
0x40d61a:	ret	
F 0x413745
0x413745:	push	rax
0x413746:	adc	byte ptr [rax - 0x7b], cl
0x413749:	push	qword ptr [rbp - 0x1c]
0x41374c:	pop	rbx
0x41374d:	ret	
F 0x41ba4e
0x404ed3:	pop	r15
0x404ed5:	ret	
F 0x41251d
0x41251d:	mov	rax, r12
0x412521:	pop	rbx
0x412522:	pop	rbp
0x412523:	pop	r12
0x412525:	ret	
F 0x41729e
0x40d2a3:	add	byte ptr [rax - 0x7d], cl
0x40d2a6:	ret	
F 0x41a792
0x41a792:	mov	qword ptr [rdi], rcx
0x41a795:	ret	
F 0x416673
0x404ecf:	pop	r13
0x404ed1:	pop	r14
0x404ed3:	pop	r15
0x404ed5:	ret	
F 0x41890e
0x41890e:	add	eax, 0x28c48348
0x418913:	ret	
F 0x414771
0x404016:	ret	
F 0x4127c3
0x4127c3:	add	rsp, 8
0x4127c7:	mov	rax, r14
0x4127ca:	pop	rbx
0x4127cb:	pop	rbp
0x4127cc:	pop	r12
0x4127ce:	pop	r13
0x4127d0:	pop	r14
0x4127d2:	pop	r15
0x4127d4:	ret	
F 0x41b712
0x404016:	ret	
F 0x40d9a0
0x4046ef:	pop	rbp
0x4046f0:	ret	
F 0x41b820
0x41b820:	lea	edx, [rdi + 1]
0x41b823:	add	edi, 0x100
0x41b829:	cmp	dl, 1
0x41b82c:	cmovg	eax, edi
0x41b82f:	ret	
F 0x412051
0x412051:	shl	byte ptr [rsi + 0xf], 1
0x412054:	sub	dl, al
0x412056:	orpd	xmm0, xmm3
0x41205a:	movsd	qword ptr [r12 + 0x10], xmm0
0x412061:	pop	r12
0x412063:	ret	
F 0x4173ff
0x4173ff:	ror	byte ptr [rax - 0x77], 1
0x417402:	ret	0x6948
F 0x41ab2d
0x41ab2d:	and	al, 8
0x41ab30:	add	byte ptr [rax], al
0x41ab32:	add	byte ptr [rax], al
0x41ab34:	mov	rax, r12
0x41ab37:	pop	rbx
0x41ab38:	pop	rbp
0x41ab39:	pop	r12
0x41ab3b:	ret	
F 0x4149c7
0x40d99d:	pop	r12
0x40d99f:	pop	r13
0x40d9a1:	ret	
F 0x409ad0
0x409ad0:	pop	rbx
0x409ad1:	add	dword ptr [rip + 0x1d550], 1
0x409ad8:	mov	rax, r12
0x409adb:	pop	rbp
0x409adc:	pop	r12
0x409ade:	ret	
F 0x419234
0x419234:	mov	dword ptr [rip + 0x2106e], edx
0x41923a:	add	rsp, 8
0x41923e:	pop	rbx
0x41923f:	pop	rbp
0x419240:	ret	
F 0x40d617
0x40d617:	add	byte ptr [rax], al
0x40d619:	pop	rbx
0x40d61a:	ret	
F 0x416a88
0x404ecf:	pop	r13
0x404ed1:	pop	r14
0x404ed3:	pop	r15
0x404ed5:	ret	
F 0x41a334
0x41a334:	mov	eax, dword ptr [rdi + 8]
0x41a337:	mov	qword ptr [rsi], rax
0x41a33a:	mov	rax, qword ptr [rdi + 0x10]
0x41a33e:	ret	
F 0x41061b
0x41061b:	add	byte ptr [rax], al
0x41061d:	add	byte ptr [rax], al
0x41061f:	pop	rbx
0x410620:	test	dil, dil
0x410623:	sete	al
0x410626:	cmovne	eax, edx
0x410629:	ret	
F 0x41ab30
0x41ab30:	add	byte ptr [rax], al
0x41ab32:	add	byte ptr [rax], al
0x41ab34:	mov	rax, r12
0x41ab37:	pop	rbx
0x41ab38:	pop	rbp
0x41ab39:	pop	r12
0x41ab3b:	ret	
F 0x4175b5
0x404016:	ret	
F 0x409b11
0x409b11:	mov	rax, r12
0x409b14:	pop	rbx
0x409b15:	pop	rbp
0x409b16:	pop	r12
0x409b18:	ret	
F 0x40eca3
0x40eca3:	movzx	eax, al
0x40eca6:	ret	
F 0x41b823
0x41b823:	add	edi, 0x100
0x41b829:	cmp	dl, 1
0x41b82c:	cmovg	eax, edi
0x41b82f:	ret	
F 0x40e76f
0x40e76f:	add	byte ptr [rdi], cl
0x40e771:	mov	edi, 0x83481042
0x40e776:	ret	0x6610
F 0x419af1
0x419a64:	ret	0x4818
F 0x41ba4b
0x404ed0:	pop	rbp
0x404ed1:	pop	r14
0x404ed3:	pop	r15
0x404ed5:	ret	
F 0x417b5e
0x417b5e:	add	eax, 0x22745
0x417b63:	add	rsp, 8
0x417b67:	ret	
F 0x40460a
0x40460a:	or	byte ptr [rcx], dh
0x40460c:	rcr	byte ptr [rbp + 0x41], 0x5c
0x404610:	ret	
F 0x4103b3
0x4103b3:	add	rsp, 0x18
0x4103b7:	pop	rbx
0x4103b8:	pop	rbp
0x4103b9:	pop	r12
0x4103bb:	pop	r13
0x4103bd:	ret	
F 0x40e9fa
0x40e9fa:	test	byte ptr [rax], al
0x40e9fc:	add	byte ptr [rax], al
0x40e9fe:	add	byte ptr [rax], al
0x40ea00:	lea	rax, [rip + 0x11198]
0x40ea07:	ret	
F 0x41011d
0x41011d:	mov	qword ptr [rbx + 8], rbp
0x410121:	mov	word ptr [rbx], ax
0x410124:	add	rsp, 8
0x410128:	pop	rbx
0x410129:	pop	rbp
0x41012a:	ret	
F 0x40d373
0x404016:	ret	
F 0x41a52c
0x40819d:	sub	byte ptr [rbx + 0x5d], bl
0x4081a0:	pop	r12
0x4081a2:	pop	r13
0x4081a4:	pop	r14
0x4081a6:	pop	r15
0x4081a8:	ret	
F 0x409e13
0x404016:	ret	
F 0x404733
0x404733:	add	bh, al
0x404735:	add	eax, 0x22b5a
0x40473a:	add	byte ptr [rax], al
0x40473c:	add	byte ptr [rax], al
0x40473e:	ret	
F 0x41c0ff
0x41c0ff:	mov	qword ptr [rip + 0xfeca], rbp
0x41c106:	mov	qword ptr [rbp + 8], rax
0x41c10a:	add	rsp, 8
0x41c10e:	pop	rbx
0x41c10f:	pop	rbp
0x41c110:	ret	
F 0x40e500
0x40e500:	add	byte ptr [rcx + 0x5c], al
0x40e503:	ret	
F 0x417299
0x417299:	psubsb	mm2, mm1
0x41729c:	xor	al, 0
0x41729e:	add	byte ptr [rax - 0x7d], cl
0x4172a1:	ret	
F 0x407ab7
0x407ab7:	add	al, ch
0x407ab9:	ret	
F 0x41a374
0x417ece:	mov	rax, qword ptr [rax + rdx*8]
0x417ed2:	ret	
F 0x409c4e
0x409c4e:	add	byte ptr [rax], al
0x409c50:	mov	qword ptr [r14 + r12*8], rax
0x409c54:	mov	rax, rbx
0x409c57:	pop	rbx
0x409c58:	pop	rbp
0x409c59:	pop	r12
0x409c5b:	pop	r13
0x409c5d:	pop	r14
0x409c5f:	ret	
F 0x41402a
0x41402a:	add	rsp, 0x118
0x414031:	pop	rbx
0x414032:	pop	rbp
0x414033:	pop	r12
0x414035:	pop	r13
0x414037:	pop	r14
0x414039:	pop	r15
0x41403b:	ret	
F 0x41367d
0x404ed1:	pop	r14
0x404ed3:	pop	r15
0x404ed5:	ret	
F 0x417741
0x417741:	and	al, 8
0x417743:	add	rsp, 0x28
0x417747:	pop	rbx
0x417748:	pop	rbp
0x417749:	pop	r12
0x41774b:	pop	r13
0x41774d:	pop	r14
0x41774f:	pop	r15
0x417751:	ret	
F 0x4191a2
0x404016:	ret	
F 0x41923a
0x408627:	add	rsp, 8
0x40862b:	pop	rbx
0x40862c:	pop	rbp
0x40862d:	ret	
F 0x40a2a1
0x40a2a1:	xchg	eax, ebp
0x40a2a2:	ror	byte ptr [rax - 0x7d], 0xc4
0x40a2a6:	or	byte ptr [rdi], cl
0x40a2a8:	mov	dh, 0xc0
0x40a2aa:	pop	rbx
0x40a2ab:	pop	rbp
0x40a2ac:	ret	
F 0x41ab33
0x409b10:	add	byte ptr [rcx + rcx*4 - 0x20], cl
0x409b14:	pop	rbx
0x409b15:	pop	rbp
0x409b16:	pop	r12
0x409b18:	ret	
F 0x417e7d
0x417e7d:	or	al, 0x89
0x417e80:	or	al, 0x48
0x417e83:	mov	eax, dword ptr [rbx]
0x417e85:	pop	rbx
0x417e86:	ret	
F 0x41749f
0x4083d0:	pop	rbx
0x4083d1:	ret	
F 0x418c2c
0x418c2c:	add	byte ptr [rax - 0x7d], cl
0x418c2f:	ret	0x4118
F 0x41c273
0x404ed3:	pop	r15
0x404ed5:	ret	
F 0x404016
0x404016:	ret	
F 0x416406
0x4161cd:	add	dword ptr [rax - 0x7d], ecx
0x4161d0:	ret	
F 0x40ea12
0x40ea12:	add	eax, 0x11179
0x40ea17:	ret	
F 0x416ece
0x40460d:	pop	rbp
0x40460e:	pop	r12
0x404610:	ret	
F 0x41bbe9
0x41bbe9:	add	dword ptr [rax], eax
0x41bbeb:	add	rsp, 0x18
0x41bbef:	pop	rbx
0x41bbf0:	pop	rbp
0x41bbf1:	pop	r12
0x41bbf3:	pop	r13
0x41bbf5:	pop	r14
0x41bbf7:	pop	r15
0x41bbf9:	ret	
F 0x40a11f
0x409c42:	pop	r13
0x409c44:	pop	r14
0x409c46:	ret	
F 0x412054
0x412054:	sub	dl, al
0x412056:	orpd	xmm0, xmm3
0x41205a:	movsd	qword ptr [r12 + 0x10], xmm0
0x412061:	pop	r12
0x412063:	ret	
F 0x41750d
0x404016:	ret	
F 0x41b91f
0x409c45:	pop	rsi
0x409c46:	ret	
F 0x40eca8
0x40eca8:	nop	dword ptr [rax + rax]
0x40ecb0:	xor	eax, eax
0x40ecb2:	ret	
F 0x40472b
0x40472b:	add	eax, 0x22b5c
0x404730:	add	byte ptr [rax], al
0x404732:	add	byte ptr [rax], al
0x404734:	mov	dword ptr [rip + 0x22b5a], 0
0x40473e:	ret	
F 0x412fad
0x412fad:	add	byte ptr [rax], al
0x412faf:	add	byte ptr [rcx + rcx*4 - 0x10], cl
0x412fb3:	pop	rbx
0x412fb4:	pop	rbp
0x412fb5:	pop	r12
0x412fb7:	pop	r13
0x412fb9:	pop	r14
0x412fbb:	pop	r15
0x412fbd:	ret	
F 0x418e24
0x409e40:	add	rsp, 8
0x409e44:	pop	rbx
0x409e45:	pop	rbp
0x409e46:	pop	r12
0x409e48:	pop	r13
0x409e4a:	pop	r14
0x409e4c:	pop	r15
0x409e4e:	ret	
F 0x411aaa
0x411aaa:	mov	eax, esi
0x411aac:	pop	rbp
0x411aad:	pop	r12
0x411aaf:	pop	r13
0x411ab1:	pop	r14
0x411ab3:	ret	
F 0x4126a8
0x404ecb:	pop	rbx
0x404ecc:	pop	rbp
0x404ecd:	pop	r12
0x404ecf:	pop	r13
0x404ed1:	pop	r14
0x404ed3:	pop	r15
0x404ed5:	ret	
F 0x40e9b2
0x40e9b2:	add	eax, 0x111ba
0x40e9b7:	ret	
F 0x415209
0x415209:	mov	qword ptr [rip + 0x1eff8], rax
0x415210:	add	rsp, 8
0x415214:	pop	rbp
0x415215:	pop	r12
0x415217:	ret	
F 0x40a26c
0x40a26c:	ret	0x8348
F 0x40460b
0x40460b:	xor	eax, eax
0x40460d:	pop	rbp
0x40460e:	pop	r12
0x404610:	ret	
F 0x411ee3
0x411ee3:	and	al, 0x10
0x411ee6:	pop	r12
0x411ee8:	ret	
F 0x4133eb
0x4133eb:	shl	dword ptr [rsi - 1], 1
0x4133ee:	dec	dword ptr [rax - 0x77]
0x4133f1:	ret	
F 0x411f8b
0x411edb:	dec	dword ptr [rcx + rcx*4 - 0x20]
0x411edf:	movsd	qword ptr [r12 + 0x10], xmm0
0x411ee6:	pop	r12
0x411ee8:	ret	
F 0x409ea2
0x409ea2:	cmp	dl, ah
0x409ea4:	add	dword ptr [rax], eax
0x409ea6:	mov	qword ptr [rax - 8], rsi
0x409eaa:	mov	qword ptr [rbx], rdx
0x409ead:	pop	rbx
0x409eae:	ret	
F 0x41059b
0x40d617:	add	byte ptr [rax], al
0x40d619:	pop	rbx
0x40d61a:	ret	
F 0x417f22
0x404016:	ret	
F 0x418dd6
0x40f7e4:	dec	dword ptr [rax - 0x77]
0x40f7e7:	ret	
F 0x41c0fe
0x41c0fe:	dec	dword ptr [rax - 0x77]
0x41c101:	sub	eax, 0xfeca
0x41c106:	mov	qword ptr [rbp + 8], rax
0x41c10a:	add	rsp, 8
0x41c10e:	pop	rbx
0x41c10f:	pop	rbp
0x41c110:	ret	
F 0x4046ef
0x4046ef:	pop	rbp
0x4046f0:	ret	
F 0x412098
0x412056:	orpd	xmm0, xmm3
0x41205a:	movsd	qword ptr [r12 + 0x10], xmm0
0x412061:	pop	r12
0x412063:	ret	
F 0x41a05a
0x41a05a:	add	dword ptr [rax], eax
0x41a05c:	add	byte ptr [rcx - 0x7d], cl
0x41a05f:	ret	0x4818
F 0x408620
0x408620:	mov	qword ptr [rip + 0x1ec89], rax
0x408627:	add	rsp, 8
0x40862b:	pop	rbx
0x40862c:	pop	rbp
0x40862d:	ret	
F 0x41b78a
0x40499c:	mov	rax, r12
0x40499f:	pop	r12
0x4049a1:	ret	
F 0x418da2
0x404ed2:	pop	rsi
0x404ed3:	pop	r15
0x404ed5:	ret	
F 0x40e995
0x407c4a:	add	dword ptr [rax], eax
0x407c4c:	ret	
F 0x41a36a
0x41a36a:	lea	rax, [rip + 0xc1cf]
0x41a371:	movzx	edx, dl
0x41a374:	mov	rax, qword ptr [rax + rdx*8]
0x41a378:	ret	
F 0x41a531
0x404ecf:	pop	r13
0x404ed1:	pop	r14
0x404ed3:	pop	r15
0x404ed5:	ret	
F 0x4191ba
0x404016:	ret	
F 0x411f0c
0x411edc:	mov	rax, r12
0x411edf:	movsd	qword ptr [r12 + 0x10], xmm0
0x411ee6:	pop	r12
0x411ee8:	ret	
F 0x40ea7f
0x404012:	add	rsp, 8
0x404016:	ret	
F 0x409ab1
0x409ab1:	sbb	byte ptr [rax + rax], cl
0x409ab4:	pop	rbx
0x409ab5:	ret	
F 0x41463d
0x41407f:	add	byte ptr [rax], al
0x414081:	add	byte ptr [rax - 0x77], cl
0x414084:	ret	0xc748
F 0x41a338
0x41a338:	mov	dword ptr [rsi], eax
0x41a33a:	mov	rax, qword ptr [rdi + 0x10]
0x41a33e:	ret	
F 0x40a2aa
0x40862b:	pop	rbx
0x40862c:	pop	rbp
0x40862d:	ret	
F 0x416090
0x40f497:	add	byte ptr [rax + 0x63], cl
0x40f49a:	ret	
F 0x413a76
0x404ed2:	pop	rsi
0x404ed3:	pop	r15
0x404ed5:	ret	
F 0x4144b6
0x40d99d:	pop	r12
0x40d99f:	pop	r13
0x40d9a1:	ret	
F 0x41ab2c
0x41ab2c:	mov	dword ptr [rsp + 8], 0
0x41ab34:	mov	rax, r12
0x41ab37:	pop	rbx
0x41ab38:	pop	rbp
0x41ab39:	pop	r12
0x41ab3b:	ret	
F 0x4161cb
0x4161cb:	mov	dh, 0x43
0x4161cd:	add	dword ptr [rax - 0x7d], ecx
0x4161d0:	ret	
F 0x41174d
0x4113cd:	add	byte ptr [rax], al
0x4113cf:	add	byte ptr [rax - 0x7d], cl
0x4113d2:	ret	
F 0x4172b9
0x4172b9:	add	rsp, 0x18
0x4172bd:	mov	rax, r12
0x4172c0:	pop	rbx
0x4172c1:	pop	rbp
0x4172c2:	pop	r12
0x4172c4:	pop	r13
0x4172c6:	pop	r14
0x4172c8:	pop	r15
0x4172ca:	ret	
F 0x410bb4
0x404ed0:	pop	rbp
0x404ed1:	pop	r14
0x404ed3:	pop	r15
0x404ed5:	ret	
F 0x40e3b8
0x40e3b8:	add	byte ptr [rax], al
0x40e3ba:	pop	rbp
0x40e3bb:	pop	r12
0x40e3bd:	ret	
F 0x41c26d
0x404ecd:	pop	r12
0x404ecf:	pop	r13
0x404ed1:	pop	r14
0x404ed3:	pop	r15
0x404ed5:	ret	
F 0x40a306
0x40a306:	add	dword ptr [rax + 8], 1
0x40a30a:	mov	qword ptr [r12 + 8], rax
0x40a30f:	mov	rax, r12
0x40a312:	pop	r12
0x40a314:	ret	
F 0x40ea11
0x40ea11:	lea	eax, [rip + 0x11179]
0x40ea17:	ret	
F 0x417557
0x417557:	add	byte ptr [rax], al
0x417559:	add	rbx, 2
0x41755d:	jmp	0x4175f4
F 0x413f0f
0x404ed3:	pop	r15
0x404ed5:	ret	
F 0x407c40
0x407c40:	sub	rdx, 1
0x407c44:	pop	rbx
0x407c45:	mov	qword ptr [rip + 0x1f664], rdx
0x407c4c:	ret	
F 0x40a335
0x40499c:	mov	rax, r12
0x40499f:	pop	r12
0x4049a1:	ret	
F 0x414f39
0x4108bc:	mov	eax, esi
0x4108be:	pop	rbx
0x4108bf:	pop	rbp
0x4108c0:	pop	r12
0x4108c2:	pop	r13
0x4108c4:	pop	r14
0x4108c6:	pop	r15
0x4108c8:	ret	
F 0x41c689
0x409c3e:	pop	rbx
0x409c3f:	pop	rbp
0x409c40:	pop	r12
0x409c42:	pop	r13
0x409c44:	pop	r14
0x409c46:	ret	
F 0x40e9df
0x40e9df:	add	byte ptr [rax - 0x73], cl
0x40e9e2:	add	eax, 0x11192
0x40e9e7:	ret	
F 0x40864a
0x40864a:	add	dword ptr [rax - 0x77], ecx
0x40864d:	add	eax, 0x1ec5e
0x408652:	add	rsp, 8
0x408656:	pop	rbx
0x408657:	pop	rbp
0x408658:	ret	
F 0x409b6e
0x409b12:	mov	eax, esp
0x409b14:	pop	rbx
0x409b15:	pop	rbp
0x409b16:	pop	r12
0x409b18:	ret	
F 0x408711
0x404016:	ret	
F 0x411f09
0x411f09:	and	edi, edi
0x411f0b:	dec	dword ptr [rcx + rcx*4 - 0x20]
0x411f0f:	movsd	qword ptr [r12 + 0x10], xmm0
0x411f16:	pop	r12
0x411f18:	ret	
F 0x408568
0x4083d0:	pop	rbx
0x4083d1:	ret	
F 0x413f07
0x404ecb:	pop	rbx
0x404ecc:	pop	rbp
0x404ecd:	pop	r12
0x404ecf:	pop	r13
0x404ed1:	pop	r14
0x404ed3:	pop	r15
0x404ed5:	ret	
F 0x409aaf
0x409aaf:	mov	byte ptr [rax + rbx + 0xc], 0
0x409ab4:	pop	rbx
0x409ab5:	ret	
F 0x40a115
0x40a115:	add	byte ptr [rax], al
0x40a117:	add	rsp, 0x10
0x40a11b:	pop	rbx
0x40a11c:	pop	rbp
0x40a11d:	pop	r12
0x40a11f:	pop	r13
0x40a121:	pop	r14
0x40a123:	ret	
F 0x415210
0x410444:	add	rsp, 8
0x410448:	pop	rbp
0x410449:	pop	r12
0x41044b:	ret	
F 0x418c79
0x404016:	ret	
F 0x419bb3
0x419bb3:	ret	0xb918
F 0x414331
0x414331:	ret	0
F 0x41520b
0x41520b:	add	eax, 0x1eff8
0x415210:	add	rsp, 8
0x415214:	pop	rbp
0x415215:	pop	r12
0x415217:	ret	
F 0x407a5b
0x407a5b:	add	dword ptr [rax], eax
0x407a5d:	add	rsp, 8
0x407a61:	ret	
F 0x411443
0x411443:	sbb	byte ptr [rbx + 0x5d], bl
0x411446:	pop	r12
0x411448:	pop	r13
0x41144a:	pop	r14
0x41144c:	pop	r15
0x41144e:	ret	
F 0x40f17d
0x404ed2:	pop	rsi
0x404ed3:	pop	r15
0x404ed5:	ret	
F 0x4120a0
0x411ee3:	and	al, 0x10
0x411ee6:	pop	r12
0x411ee8:	ret	
F 0x41a8bf
0x4161c9:	add	byte ptr [rdi], cl
0x4161cb:	mov	dh, 0x43
0x4161cd:	add	dword ptr [rax - 0x7d], ecx
0x4161d0:	ret	
F 0x4175b7
0x4175b7:	mov	r12d, 9
0x4175bd:	mov	qword ptr [rdi], rbx
0x4175c0:	jmp	0x417516
F 0x41c8e3
0x404ecc:	pop	rbp
0x404ecd:	pop	r12
0x404ecf:	pop	r13
0x404ed1:	pop	r14
0x404ed3:	pop	r15
0x404ed5:	ret	
F 0x41a84e
0x40d99c:	pop	rbp
0x40d99d:	pop	r12
0x40d99f:	pop	r13
0x40d9a1:	ret	
F 0x41199d
0x404ecc:	pop	rbp
0x404ecd:	pop	r12
0x404ecf:	pop	r13
0x404ed1:	pop	r14
0x404ed3:	pop	r15
0x404ed5:	ret	
F 0x409b3c
0x40460e:	pop	r12
0x404610:	ret	
F 0x40f17a
0x404ecf:	pop	r13
0x404ed1:	pop	r14
0x404ed3:	pop	r15
0x404ed5:	ret	
F 0x40a27f
0x4046ef:	pop	rbp
0x4046f0:	ret	
F 0x404a9f
0x4046ef:	pop	rbp
0x4046f0:	ret	
F 0x40e69c
0x40e4fa:	add	rsp, 0xd0
0x40e501:	pop	r12
0x40e503:	ret	
F 0x41011f
0x41011f:	imul	ecx, dword ptr [rax], 0x66
0x410122:	mov	dword ptr [rbx], eax
0x410124:	add	rsp, 8
0x410128:	pop	rbx
0x410129:	pop	rbp
0x41012a:	ret	
F 0x41a795
0x404016:	ret	
F 0x41380c
0x4046ef:	pop	rbp
0x4046f0:	ret	
F 0x412014
0x411edd:	mov	eax, esp
0x411edf:	movsd	qword ptr [r12 + 0x10], xmm0
0x411ee6:	pop	r12
0x411ee8:	ret	
F 0x4139b5
0x4046b5:	add	byte ptr [rax], r8b
0x4046b8:	ret	
F 0x41ab48
0x41ab48:	mov	byte ptr [rax], 0
0x41ab4b:	mov	qword ptr [r12 + 8], rax
0x41ab50:	mov	rax, r12
0x41ab53:	pop	rbx
0x41ab54:	pop	rbp
0x41ab55:	pop	r12
0x41ab57:	ret	
F 0x41b789
0x41b789:	dec	dword ptr [rcx + rcx*4 - 0x20]
0x41b78d:	pop	r12
0x41b78f:	ret	
F 0x404671
0x404671:	nop	dword ptr [rax]
0x404678:	ret	
F 0x41c101
0x41c101:	sub	eax, 0xfeca
0x41c106:	mov	qword ptr [rbp + 8], rax
0x41c10a:	add	rsp, 8
0x41c10e:	pop	rbx
0x41c10f:	pop	rbp
0x41c110:	ret	
F 0x410662
0x404016:	ret	
F 0x416d88
0x416d88:	mov	eax, dword ptr [rax + 0x10]
0x416d8b:	add	rax, 0xc
0x416d8f:	ret	
F 0x411b7a
0x411aaa:	mov	eax, esi
0x411aac:	pop	rbp
0x411aad:	pop	r12
0x411aaf:	pop	r13
0x411ab1:	pop	r14
0x411ab3:	ret	
F 0x415a69
0x407a5b:	add	dword ptr [rax], eax
0x407a5d:	add	rsp, 8
0x407a61:	ret	
F 0x404603
0x404603:	pop	rcx
0x404604:	pop	rbp
0x404605:	add	byte ptr [rax], al
0x404607:	add	rsp, 8
0x40460b:	xor	eax, eax
0x40460d:	pop	rbp
0x40460e:	pop	r12
0x404610:	ret	
F 0x41901b
0x404ecd:	pop	r12
0x404ecf:	pop	r13
0x404ed1:	pop	r14
0x404ed3:	pop	r15
0x404ed5:	ret	
F 0x418f8c
0x418f8c:	dec	dword ptr [rax + 0x63]
0x418f8f:	ret	
F 0x40d238
0x40d238:	mov	qword ptr [r12 + 0x10], rdx
0x40d23d:	pop	r12
0x40d23f:	ret	
F 0x41a536
0x404ed4:	pop	rdi
0x404ed5:	ret	
F 0x4105e8
0x4105e8:	jmp	0x4105b0
F 0x417599
0x417599:	mov	qword ptr [rdi], rbx
0x41759c:	jmp	0x417516
F 0x41afe8
0x409c3e:	pop	rbx
0x409c3f:	pop	rbp
0x409c40:	pop	r12
0x409c42:	pop	r13
0x409c44:	pop	r14
0x409c46:	ret	
F 0x404669
0x404669:	add	byte ptr [rax - 0x7b], cl
0x40466c:	sal	byte ptr [rcx + rcx - 1], 0xe0
0x404671:	nop	dword ptr [rax]
0x404678:	ret	
F 0x4123bb
0x404016:	ret	
F 0x4142db
0x4142db:	sub	byte ptr [rcx], al
0x4142dd:	add	byte ptr [rax], al
0x4142df:	pop	rbx
0x4142e0:	pop	rbp
0x4142e1:	pop	r12
0x4142e3:	pop	r13
0x4142e5:	pop	r14
0x4142e7:	pop	r15
0x4142e9:	ret	
F 0x414932
0x414932:	ror	dword ptr [rax - 0x77], 1
0x414935:	ret	0x8b48
F 0x418e2e
0x404ed1:	pop	r14
0x404ed3:	pop	r15
0x404ed5:	ret	
F 0x413c94
0x409e10:	add	byte ptr [rax - 0x77], cl
0x409e13:	ret	
F 0x4090f5
0x407ea3:	ret	0xfa80
F 0x409e3d
0x409e3d:	mov	dword ptr [rsi + rbp*8], ebx
0x409e40:	add	rsp, 8
0x409e44:	pop	rbx
0x409e45:	pop	rbp
0x409e46:	pop	r12
0x409e48:	pop	r13
0x409e4a:	pop	r14
0x409e4c:	pop	r15
0x409e4e:	ret	
F 0x4152a9
0x4152a9:	stosb	byte ptr [rdi], al
0x4152aa:	stosb	byte ptr [rdi], al
0x4152ab:	stosb	byte ptr [rdi], al
0x4152ac:	shl	eax, 0xa
0x4152af:	add	eax, edx
0x4152b1:	ret	
F 0x417b1e
0x417b1e:	mov	dword ptr [rbp], edx
0x417b21:	pop	rbp
0x417b22:	pop	r12
0x417b24:	ret	
F 0x4174a0
0x404016:	ret	
F 0x40a048
0x40a048:	nop	dword ptr [rax + rax]
0x40a050:	pop	rbx
0x40a051:	pop	rbp
0x40a052:	pop	r12
0x40a054:	ret	
F 0x407e54
0x404ed3:	pop	r15
0x404ed5:	ret	
F 0x407c4a
0x407c4a:	add	dword ptr [rax], eax
0x407c4c:	ret	
F 0x413670
0x413670:	add	rsp, 0xc8
0x413677:	pop	rbx
0x413678:	pop	rbp
0x413679:	pop	r12
0x41367b:	pop	r13
0x41367d:	pop	r14
0x41367f:	pop	r15
0x413681:	ret	
F 0x415300
0x4046ef:	pop	rbp
0x4046f0:	ret	
F 0x40e9d1
0x40e9d1:	lea	eax, [rip + 0x111e5]
0x40e9d7:	ret	
F 0x41205a
0x411edf:	movsd	qword ptr [r12 + 0x10], xmm0
0x411ee6:	pop	r12
0x411ee8:	ret	
F 0x41a86d
0x404016:	ret	
F 0x409d40
0x4083d0:	pop	rbx
0x4083d1:	ret	
F 0x409c40
0x409c40:	pop	r12
0x409c42:	pop	r13
0x409c44:	pop	r14
0x409c46:	ret	
F 0x409c4f
0x409c4f:	add	byte ptr [rbx - 0x77], cl
0x409c52:	add	al, 0xe6
0x409c54:	mov	rax, rbx
0x409c57:	pop	rbx
0x409c58:	pop	rbp
0x409c59:	pop	r12
0x409c5b:	pop	r13
0x409c5d:	pop	r14
0x409c5f:	ret	
F 0x40e9b7
0x404016:	ret	
F 0x411ee2
0x411ee2:	adc	dword ptr [rsp + 0x10], eax
0x411ee6:	pop	r12
0x411ee8:	ret	
F 0x4139e7
0x407c4a:	add	dword ptr [rax], eax
0x407c4c:	ret	
F 0x4172c2
0x404ecd:	pop	r12
0x404ecf:	pop	r13
0x404ed1:	pop	r14
0x404ed3:	pop	r15
0x404ed5:	ret	
F 0x41c687
0x41c687:	add	dword ptr [rax], eax
0x41c689:	pop	rbx
0x41c68a:	pop	rbp
0x41c68b:	pop	r12
0x41c68d:	pop	r13
0x41c68f:	pop	r14
0x41c691:	ret	
F 0x4119a5
0x404ed4:	pop	rdi
0x404ed5:	ret	
F 0x40a4a5
0x404ed1:	pop	r14
0x404ed3:	pop	r15
0x404ed5:	ret	
F 0x409c5b
0x409c42:	pop	r13
0x409c44:	pop	r14
0x409c46:	ret	
F 0x40b15a
0x40b15a:	push	rdx
0x40b15b:	ret	
F 0x404a26
0x404a26:	mov	word ptr [rax], dx
0x404a29:	pop	rbp
0x404a2a:	ret	
F 0x40d330
0x404016:	ret	
F 0x41c10d
0x40862a:	or	byte ptr [rbx + 0x5d], bl
0x40862d:	ret	
F 0x41a02f
0x41a02f:	add	dword ptr [rax], eax
0x41a031:	add	byte ptr [rcx - 0x7d], cl
0x41a034:	ret	0x4c18
F 0x407c3d
0x407c3d:	add	byte ptr [rbp - 0x24], dh
0x407c40:	sub	rdx, 1
0x407c44:	pop	rbx
0x407c45:	mov	qword ptr [rip + 0x1f664], rdx
0x407c4c:	ret	
F 0x415f08
0x404016:	ret	
F 0x40e773
0x40e773:	adc	byte ptr [rax - 0x7d], cl
0x40e776:	ret	0x6610
F 0x417358
0x417358:	shl	eax, cl
0x41735a:	not	eax
0x41735c:	or	byte ptr [rdi + r9], al
0x417360:	ret	
F 0x41c5f3
0x41c5f3:	pop	rbx
0x41c5f5:	pop	rbp
0x41c5f6:	pop	r12
0x41c5f8:	pop	r13
0x41c5fa:	ret	
F 0x4104d5
0x404016:	ret	
F 0x413a75
0x404ed1:	pop	r14
0x404ed3:	pop	r15
0x404ed5:	ret	
F 0x409e3c
0x409e3c:	mov	qword ptr [r14 + rbp*8], rbx
0x409e40:	add	rsp, 8
0x409e44:	pop	rbx
0x409e45:	pop	rbp
0x409e46:	pop	r12
0x409e48:	pop	r13
0x409e4a:	pop	r14
0x409e4c:	pop	r15
0x409e4e:	ret	
F 0x40481f
0x40481f:	nop	
0x404820:	ret	
F 0x41ad33
0x404016:	ret	
F 0x417430
0x4173aa:	ret	0x6948
F 0x41989e
0x405aa5:	sbb	byte ptr [rax - 0x77], cl
0x405aa8:	ret	
F 0x408467
0x404016:	ret	
F 0x4172be
0x41175e:	mov	eax, esp
0x411760:	pop	rbx
0x411761:	pop	rbp
0x411762:	pop	r12
0x411764:	pop	r13
0x411766:	pop	r14
0x411768:	pop	r15
0x41176a:	ret	
F 0x416cf5
0x404ed1:	pop	r14
0x404ed3:	pop	r15
0x404ed5:	ret	
F 0x40ea43
0x40ea43:	cmp	byte ptr [rcx], dl
0x40ea45:	add	dword ptr [rax], eax
0x40ea47:	ret	
F 0x40e9ee
0x40e9ee:	add	byte ptr [rax], al
0x40e9f0:	lea	rax, [rip + 0x111bf]
0x40e9f7:	ret	
F 0x410bae
0x404eca:	add	byte ptr [rbx + 0x5d], bl
0x404ecd:	pop	r12
0x404ecf:	pop	r13
0x404ed1:	pop	r14
0x404ed3:	pop	r15
0x404ed5:	ret	
F 0x412063
0x404016:	ret	
F 0x40e9f4
0x40e9f4:	adc	dword ptr [rcx], eax
0x40e9f6:	add	bl, al
0x40e9f8:	nop	dword ptr [rax + rax]
0x40ea00:	lea	rax, [rip + 0x11198]
0x40ea07:	ret	
F 0x40f9e4
0x40862b:	pop	rbx
0x40862c:	pop	rbp
0x40862d:	ret	
F 0x404ed0
0x404ed0:	pop	rbp
0x404ed1:	pop	r14
0x404ed3:	pop	r15
0x404ed5:	ret	
F 0x413a77
0x404ed3:	pop	r15
0x404ed5:	ret	
F 0x416a86
0x404ecd:	pop	r12
0x404ecf:	pop	r13
0x404ed1:	pop	r14
0x404ed3:	pop	r15
0x404ed5:	ret	
F 0x417750
0x404ed4:	pop	rdi
0x404ed5:	ret	
F 0x41531c
0x404016:	ret	
F 0x418627
0x407ab7:	add	al, ch
0x407ab9:	ret	
F 0x407ab2
0x404016:	ret	
F 0x417449
0x417449:	sub	edx, eax
0x41744b:	cmp	edx, 0xa
0x41744e:	sete	r8b
0x417452:	jmp	0x4173ca
F 0x40d99b
0x40d99b:	pop	rbx
0x40d99c:	pop	rbp
0x40d99d:	pop	r12
0x40d99f:	pop	r13
0x40d9a1:	ret	
F 0x411fbf
0x411edf:	movsd	qword ptr [r12 + 0x10], xmm0
0x411ee6:	pop	r12
0x411ee8:	ret	
F 0x414f44
0x404ed4:	pop	rdi
0x404ed5:	ret	
F 0x40a152
0x40a152:	pop	rbx
0x40a153:	neg	eax
0x40a155:	pop	rbp
0x40a156:	pop	r12
0x40a158:	pop	r13
0x40a15a:	pop	r14
0x40a15c:	ret	
F 0x407e43
0x407e43:	add	rsp, 0x18
0x407e47:	mov	eax, 0x132
0x407e4c:	pop	rbx
0x407e4d:	pop	rbp
0x407e4e:	pop	r12
0x407e50:	pop	r13
0x407e52:	pop	r14
0x407e54:	pop	r15
0x407e56:	ret	
F 0x4046ee
0x4046ee:	add	dword ptr [rbp - 0x3d], ebx
0x4046f1:	nop	dword ptr [rax]
0x4046f8:	ret	
F 0x417b5a
0x417b5a:	add	al, byte ptr [rax]
0x417b5c:	mov	qword ptr [rip + 0x22745], rax
0x417b63:	add	rsp, 8
0x417b67:	ret	
F 0x41551c
0x41551c:	add	byte ptr [rax], al
0x41551e:	add	rsp, 0x28
0x415522:	pop	rbx
0x415523:	pop	rbp
0x415524:	pop	r12
0x415526:	pop	r13
0x415528:	ret	
F 0x416d8c
0x416d8c:	add	eax, 0xc
0x416d8f:	ret	
F 0x40a052
0x40460e:	pop	r12
0x404610:	ret	
F 0x41736b
0x41736b:	add	byte ptr [rax], al
0x41736d:	mov	ecx, r8d
0x417370:	mov	edx, eax
0x417372:	shl	edx, cl
0x417374:	mov	ecx, esi
0x417376:	shl	eax, cl
0x417378:	sub	edx, eax
0x41737a:	or	byte ptr [r11], dl
0x41737d:	ret	
F 0x41ba46
0x404ecb:	pop	rbx
0x404ecc:	pop	rbp
0x404ecd:	pop	r12
0x404ecf:	pop	r13
0x404ed1:	pop	r14
0x404ed3:	pop	r15
0x404ed5:	ret	
F 0x413f0c
0x404ed0:	pop	rbp
0x404ed1:	pop	r14
0x404ed3:	pop	r15
0x404ed5:	ret	
F 0x4127d3
0x404ed4:	pop	rdi
0x404ed5:	ret	
F 0x40a321
0x40a321:	movups	xmmword ptr [rdi + 0x10], xmm0
0x40a325:	pop	r12
0x40a327:	ret	
F 0x4105b1
0x4105b1:	add	dword ptr [rax], eax
0x4105b3:	add	byte ptr [rax], al
0x4105b5:	ret	
F 0x410ba8
0x410ba8:	add	rsp, 0x98
0x410baf:	pop	rbx
0x410bb0:	pop	rbp
0x410bb1:	pop	r12
0x410bb3:	pop	r13
0x410bb5:	pop	r14
0x410bb7:	pop	r15
0x410bb9:	ret	
F 0x4142e4
0x404ed0:	pop	rbp
0x404ed1:	pop	r14
0x404ed3:	pop	r15
0x404ed5:	ret	
F 0x413780
0x404016:	ret	
F 0x4175ef
0x40d2a3:	add	byte ptr [rax - 0x7d], cl
0x40d2a6:	ret	
F 0x409b30
0x409b30:	pop	rbx
0x409b31:	add	dword ptr [rip + 0x1d4f0], 1
0x409b38:	mov	rax, r12
0x409b3b:	pop	rbp
0x409b3c:	pop	r12
0x409b3e:	ret	
F 0x40d3b1
0x40d3b1:	mov	dword ptr [rax - 8], ebx
0x40d3b4:	mov	qword ptr [rip + 0x26cfd], rax
0x40d3bb:	add	rsp, 8
0x40d3bf:	pop	rbx
0x40d3c0:	pop	rbp
0x40d3c1:	ret	
F 0x410122
0x40f9de:	mov	dword ptr [rbx], eax
0x40f9e0:	add	rsp, 8
0x40f9e4:	pop	rbx
0x40f9e5:	pop	rbp
0x40f9e6:	ret	
F 0x417e91
0x417e91:	mov	eax, dword ptr [rbx]
0x417e93:	mov	qword ptr [rdi], rbx
0x417e96:	pop	rbx
0x417e97:	ret	
F 0x40a29c
0x40a29c:	cmp	qword ptr [rax], 0
0x40a2a0:	setne	al
0x40a2a3:	add	rsp, 8
0x40a2a7:	movzx	eax, al
0x40a2aa:	pop	rbx
0x40a2ab:	pop	rbp
0x40a2ac:	ret	
F 0x4049b6
0x4049b6:	mov	dword ptr [rax + 0x10], edi
0x4049b9:	mov	qword ptr [rax + 0x18], r12
0x4049bd:	mov	qword ptr [rip + 0x228c4], rax
0x4049c4:	mov	rax, r12
0x4049c7:	pop	r12
0x4049c9:	ret	
F 0x4127cc
0x404ecd:	pop	r12
0x404ecf:	pop	r13
0x404ed1:	pop	r14
0x404ed3:	pop	r15
0x404ed5:	ret	
F 0x413a74
0x404ed0:	pop	rbp
0x404ed1:	pop	r14
0x404ed3:	pop	r15
0x404ed5:	ret	
F 0x40e4f7
0x40e4f7:	add	byte ptr [rbp + 0x32], dh
0x40e4fa:	add	rsp, 0xd0
0x40e501:	pop	r12
0x40e503:	ret	
F 0x41a840
0x41a840:	sub	al, 0xd0
0x41a842:	mov	rax, r12
0x41a845:	mov	qword ptr [r13], rcx
0x41a849:	add	rsp, 8
0x41a84d:	pop	rbx
0x41a84e:	pop	rbp
0x41a84f:	pop	r12
0x41a851:	pop	r13
0x41a853:	ret	
F 0x4103ae
0x4103ae:	add	byte ptr [rax], al
0x4103b0:	add	byte ptr [rbp + 0x44], dh
0x4103b3:	add	rsp, 0x18
0x4103b7:	pop	rbx
0x4103b8:	pop	rbp
0x4103b9:	pop	r12
0x4103bb:	pop	r13
0x4103bd:	ret	
F 0x41475f
0x41475f:	adc	dword ptr [rsp + 0x10], eax
0x414763:	add	rsp, 8
0x414767:	pop	rbx
0x414768:	pop	rbp
0x414769:	pop	r12
0x41476b:	pop	r13
0x41476d:	pop	r14
0x41476f:	pop	r15
0x414771:	ret	
F 0x409d36
0x409d36:	add	al, 0xd1
0x409d38:	add	rax, 8
0x409d3c:	mov	qword ptr [rax - 8], rsi
0x409d40:	pop	rbx
0x409d41:	ret	
F 0x410592
0x410592:	cmp	al, byte ptr [rax - 0x7c]
0x410595:	push	qword ptr [rbp - 0x54]
0x410598:	mov	eax, 1
0x41059d:	pop	rbx
0x41059e:	ret	
F 0x4189ae
0x41890e:	add	eax, 0x28c48348
0x418913:	ret	
F 0x416a8f
0x40481f:	nop	
0x404820:	ret	
F 0x417605
0x4113cd:	add	byte ptr [rax], al
0x4113cf:	add	byte ptr [rax - 0x7d], cl
0x4113d2:	ret	
F 0x416d8b
0x416d8b:	add	rax, 0xc
0x416d8f:	ret	
F 0x411ad0
0x409c43:	pop	rbp
0x409c44:	pop	r14
0x409c46:	ret	
F 0x40f88b
0x404ed0:	pop	rbp
0x404ed1:	pop	r14
0x404ed3:	pop	r15
0x404ed5:	ret	
F 0x41bff6
0x40862b:	pop	rbx
0x40862c:	pop	rbp
0x40862d:	ret	
F 0x407c45
0x407c45:	mov	qword ptr [rip + 0x1f664], rdx
0x407c4c:	ret	
F 0x412f87
0x404016:	ret	
F 0x409a89
0x409a89:	add	dword ptr [rax], eax
0x409a8b:	add	dword ptr [rax - 0x73], ecx
0x409a8e:	add	eax, 0x1d58d
0x409a93:	ret	
F 0x412fac
0x412fac:	mov	byte ptr [rax], al
0x412fae:	add	byte ptr [rax], al
0x412fb0:	mov	rax, r14
0x412fb3:	pop	rbx
0x412fb4:	pop	rbp
0x412fb5:	pop	r12
0x412fb7:	pop	r13
0x412fb9:	pop	r14
0x412fbb:	pop	r15
0x412fbd:	ret	
F 0x40d326
0x40d326:	add	rsp, 8
0x40d32a:	mov	rax, r12
0x40d32d:	pop	rbp
0x40d32e:	pop	r12
0x40d330:	ret	
F 0x413c97
0x404016:	ret	
F 0x40e9f0
0x40e9f0:	lea	rax, [rip + 0x111bf]
0x40e9f7:	ret	
F 0x413b8e
0x413b8e:	pop	rbx
0x413b8f:	mov	eax, r14d
0x413b92:	pop	rbp
0x413b93:	pop	r12
0x413b95:	pop	r13
0x413b97:	pop	r14
0x413b99:	ret	
F 0x407be1
0x407be1:	movzx	r8d, dl
0x407be5:	mov	qword ptr [rip + 0x1f6c4], rax
0x407bec:	mov	eax, r8d
0x407bef:	ret	
F 0x41a8fb
0x409c43:	pop	rbp
0x409c44:	pop	r14
0x409c46:	ret	
F 0x40a355
0x40460e:	pop	r12
0x404610:	ret	
F 0x41a6ce
0x4046ef:	pop	rbp
0x4046f0:	ret	
F 0x404a20
0x404a20:	xor	edx, edx
0x404a22:	mov	qword ptr [rbp + 0x10], rax
0x404a26:	mov	word ptr [rax], dx
0x404a29:	pop	rbp
0x404a2a:	ret	
F 0x417e7b
0x417e7b:	and	al, 3
0x417e7d:	or	al, 0x89
0x417e80:	or	al, 0x48
0x417e83:	mov	eax, dword ptr [rbx]
0x417e85:	pop	rbx
0x417e86:	ret	
F 0x417b1c
0x417b1c:	and	al, 0x48
0x417b1e:	mov	dword ptr [rbp], edx
0x417b21:	pop	rbp
0x417b22:	pop	r12
0x417b24:	ret	
F 0x4158c4
0x404ed3:	pop	r15
0x404ed5:	ret	
F 0x40a333
0x40a333:	add	byte ptr [rax], al
0x40a335:	mov	rax, r12
0x40a338:	pop	r12
0x40a33a:	ret	
F 0x4081a0
0x404ecd:	pop	r12
0x404ecf:	pop	r13
0x404ed1:	pop	r14
0x404ed3:	pop	r15
0x404ed5:	ret	
F 0x416980
0x404016:	ret	
F 0x416e47
0x40d99c:	pop	rbp
0x40d99d:	pop	r12
0x40d99f:	pop	r13
0x40d9a1:	ret	
F 0x415032
0x415032:	mov	rax, qword ptr [rip + 0x25247]
0x415039:	mov	qword ptr [rax], rdx
0x41503c:	add	rsp, 8
0x415040:	ret	
F 0x4158b9
0x407e49:	add	dword ptr [rax], eax
0x407e4b:	add	byte ptr [rbx + 0x5d], bl
0x407e4e:	pop	r12
0x407e50:	pop	r13
0x407e52:	pop	r14
0x407e54:	pop	r15
0x407e56:	ret	
F 0x40a357
0x404016:	ret	
F 0x413f09
0x404ecd:	pop	r12
0x404ecf:	pop	r13
0x404ed1:	pop	r14
0x404ed3:	pop	r15
0x404ed5:	ret	
F 0x41a346
0x404676:	add	byte ptr [rax], al
0x404678:	ret	
F 0x41b816
0x41b816:	or	dword ptr [rdi], ecx
0x41b818:	mov	dh, 0xc4
0x41b81a:	ret	
F 0x41bf6e
0x41bf6e:	add	byte ptr [rax], al
0x41bf70:	mov	r12d, 0xffffffff
0x41bf76:	pop	rbx
0x41bf77:	pop	rbp
0x41bf78:	mov	eax, r12d
0x41bf7b:	pop	r12
0x41bf7d:	pop	r13
0x41bf7f:	pop	r14
0x41bf81:	ret	
F 0x408561
0x408561:	sub	dword ptr [rip + 0x1ed48], 1
0x408568:	pop	rbx
0x408569:	ret	
F 0x41680c
0x41680c:	cmp	byte ptr [rcx + rcx*4 - 0x20], cl
0x416810:	pop	rbx
0x416811:	pop	rbp
0x416812:	pop	r12
0x416814:	pop	r13
0x416816:	pop	r14
0x416818:	pop	r15
0x41681a:	ret	
F 0x40d2ab
0x40d2ab:	add	dword ptr [rsi + 2], ebp
0x40d2ae:	add	byte ptr [rbx + 0x48], bl
0x40d2b1:	mov	dword ptr [rip + 0x26e01], eax
0x40d2b7:	pop	rbp
0x40d2b8:	pop	r12
0x40d2ba:	ret	
F 0x411f10
0x411ee0:	movups	xmmword ptr [r12 + 0x10], xmm0
0x411ee6:	pop	r12
0x411ee8:	ret	
F 0x41b772
0x40499c:	mov	rax, r12
0x40499f:	pop	r12
0x4049a1:	ret	
F 0x404ecb
0x404ecb:	pop	rbx
0x404ecc:	pop	rbp
0x404ecd:	pop	r12
0x404ecf:	pop	r13
0x404ed1:	pop	r14
0x404ed3:	pop	r15
0x404ed5:	ret	
F 0x41c115
0x41c115:	test	byte ptr [rax], al
0x41c117:	add	byte ptr [rax], al
0x41c119:	add	byte ptr [rax], al
0x41c11b:	nop	dword ptr [rax + rax]
0x41c120:	ret	
F 0x41233f
0x41233f:	mov	dword ptr [rsp], eax
0x412342:	mov	rax, r12
0x412345:	pop	rbx
0x412346:	pop	rbp
0x412347:	pop	r12
0x412349:	ret	
F 0x40d2b7
0x40460d:	pop	rbp
0x40460e:	pop	r12
0x404610:	ret	
F 0x40d72d
0x40d72d:	add	bl, dh
0x40d72f:	movq	mm3, qword ptr [rax + 0x10]
0x40d733:	movups	xmmword ptr [rip + 0x26976], xmm3
0x40d73a:	add	rsp, 8
0x40d73e:	ret	
F 0x40e9bc
0x40e9bc:	add	byte ptr [rax], al
0x40e9be:	add	byte ptr [rax], al
0x40e9c0:	lea	rax, [rip + 0x10c52]
0x40e9c7:	ret	
F 0x419431
0x404ecf:	pop	r13
0x404ed1:	pop	r14
0x404ed3:	pop	r15
0x404ed5:	ret	
F 0x411ee6
0x40460e:	pop	r12
0x404610:	ret	
F 0x41a72a
0x41a6c9:	add	rsp, 0x18
0x41a6cd:	pop	rbx
0x41a6ce:	pop	rbp
0x41a6cf:	ret	
F 0x41a376
0x417ed0:	add	al, 0xd0
0x417ed2:	ret	
F 0x41736f
0x41736f:	ror	dword ptr [rcx - 0x761d2c3e], 0xf1
0x417376:	shl	eax, cl
0x417378:	sub	edx, eax
0x41737a:	or	byte ptr [r11], dl
0x41737d:	ret	
F 0x4192bd
0x4192bd:	add	eax, ebx
0x4192bf:	mov	qword ptr [rip + 0x20ff2], rbp
0x4192c6:	add	rsp, 8
0x4192ca:	pop	rbx
0x4192cb:	pop	rbp
0x4192cc:	ret	
F 0x41a533
0x404ed1:	pop	r14
0x404ed3:	pop	r15
0x404ed5:	ret	
F 0x40a31b
0x40a31b:	adc	byte ptr [rcx + r9*4 - 0x20], r9b
0x40a320:	movsd	qword ptr [rdi + 0x10], xmm0
0x40a325:	pop	r12
0x40a327:	ret	
F 0x40d365
0x40d365:	clc	
0x40d366:	mov	qword ptr [rip + 0x26d4b], rax
0x40d36d:	add	rsp, 8
0x40d371:	pop	rbx
0x40d372:	pop	rbp
0x40d373:	ret	
F 0x416589
0x4083d0:	pop	rbx
0x4083d1:	ret	
F 0x41919d
0x41917d:	add	eax, 0x8c48348
0x419182:	ret	
F 0x41011b
0x41011b:	add	byte ptr [rax], al
0x41011d:	mov	qword ptr [rbx + 8], rbp
0x410121:	mov	word ptr [rbx], ax
0x410124:	add	rsp, 8
0x410128:	pop	rbx
0x410129:	pop	rbp
0x41012a:	ret	
F 0x412408
0x4117e8:	pop	rbx
0x4117e9:	pop	r12
0x4117eb:	ret	
F 0x41a33d
0x41a33d:	adc	bl, al
0x41a33f:	nop	
0x41a340:	ret	
F 0x40a14e
0x40a14e:	add	rsp, 0x10
0x40a152:	pop	rbx
0x40a153:	neg	eax
0x40a155:	pop	rbp
0x40a156:	pop	r12
0x40a158:	pop	r13
0x40a15a:	pop	r14
0x40a15c:	ret	
F 0x40d2aa
0x40d2aa:	sbb	eax, 0x26e01
0x40d2af:	pop	rbx
0x40d2b0:	mov	qword ptr [rip + 0x26e01], rax
0x40d2b7:	pop	rbp
0x40d2b8:	pop	r12
0x40d2ba:	ret	
F 0x404a9b
0x404a9b:	mov	qword ptr [rbp + 0x10], rax
0x404a9f:	pop	rbp
0x404aa0:	ret	
F 0x417517
0x409b12:	mov	eax, esp
0x409b14:	pop	rbx
0x409b15:	pop	rbp
0x409b16:	pop	r12
0x409b18:	ret	
F 0x41a372
0x41a372:	mov	dh, 0xd2
0x41a374:	mov	rax, qword ptr [rax + rdx*8]
0x41a378:	ret	
F 0x41520a
0x41520a:	mov	dword ptr [rip + 0x1eff8], eax
0x415210:	add	rsp, 8
0x415214:	pop	rbp
0x415215:	pop	r12
0x415217:	ret	
F 0x418c2a
0x418c2a:	add	byte ptr [rax], al
0x418c2c:	add	byte ptr [rax - 0x7d], cl
0x418c2f:	ret	0x4118
F 0x409ea9
0x409ea9:	clc	
0x409eaa:	mov	qword ptr [rbx], rdx
0x409ead:	pop	rbx
0x409eae:	ret	
F 0x41774b
0x404ecf:	pop	r13
0x404ed1:	pop	r14
0x404ed3:	pop	r15
0x404ed5:	ret	
F 0x417d22
0x404ecc:	pop	rbp
0x404ecd:	pop	r12
0x404ecf:	pop	r13
0x404ed1:	pop	r14
0x404ed3:	pop	r15
0x404ed5:	ret	
F 0x41ab54
0x40460d:	pop	rbp
0x40460e:	pop	r12
0x404610:	ret	
F 0x418a10
0x404016:	ret	
F 0x40a325
0x40460e:	pop	r12
0x404610:	ret	
F 0x418c72
0x404016:	ret	
F 0x415a6f
0x404016:	ret	
F 0x4117de
0x4117de:	and	al, 0x10
0x4117e1:	add	rsp, 8
0x4117e5:	mov	rax, r12
0x4117e8:	pop	rbx
0x4117e9:	pop	r12
0x4117eb:	ret	
F 0x413b98
0x409c45:	pop	rsi
0x409c46:	ret	
F 0x404676
0x404676:	add	byte ptr [rax], al
0x404678:	ret	
F 0x413b47
0x413b47:	add	byte ptr [rax + 0x29], cl
0x413b4a:	ret	
F 0x40d732
0x40d732:	adc	byte ptr [rdi], cl
0x40d734:	adc	dword ptr [rip + 0x26976], ebx
0x40d73a:	add	rsp, 8
0x40d73e:	ret	
F 0x407beb
0x407beb:	add	byte ptr [rcx + rcx*4 - 0x40], al
0x407bef:	ret	
F 0x4139b0
0x4139b0:	add	byte ptr [rax], al
0x4139b2:	nop	word ptr [rax + rax]
0x4139b8:	ret	
F 0x417519
0x409b14:	pop	rbx
0x409b15:	pop	rbp
0x409b16:	pop	r12
0x409b18:	ret	
F 0x41a84f
0x40d99d:	pop	r12
0x40d99f:	pop	r13
0x40d9a1:	ret	
F 0x41209e
0x411ee1:	movups	xmmword ptr [rsp + 0x10], xmm0
0x411ee6:	pop	r12
0x411ee8:	ret	
F 0x40e9f7
0x404016:	ret	
F 0x41c107
0x41c107:	mov	dword ptr [rbp + 8], eax
0x41c10a:	add	rsp, 8
0x41c10e:	pop	rbx
0x41c10f:	pop	rbp
0x41c110:	ret	
F 0x40d232
0x40d232:	and	al, 0x18
0x40d235:	mov	rax, r12
0x40d238:	mov	qword ptr [r12 + 0x10], rdx
0x40d23d:	pop	r12
0x40d23f:	ret	
F 0x411acd
0x409c40:	pop	r12
0x409c42:	pop	r13
0x409c44:	pop	r14
0x409c46:	ret	
F 0x4138ba
0x4138ba:	or	al, 0x48
0x4138bc:	mov	dword ptr [rip + 0x13c3e], eax
0x4138c2:	add	rsp, 8
0x4138c6:	pop	rbx
0x4138c7:	pop	rbp
0x4138c8:	ret	
F 0x4106fb
0x4106fb:	add	rsp, 8
0x410700:	pop	rbx
0x410701:	pop	rbp
0x410702:	ret	
F 0x4120e4
0x4120e4:	add	rsp, 0x10
0x4120e8:	mov	rax, r12
0x4120eb:	pop	r12
0x4120ed:	ret	
F 0x4173d2
0x4173d2:	adc	byte ptr [rsi*2 + 0x476348f4], al
0x4173d9:	sbb	byte ptr [rax - 0x77], cl
0x4173dc:	ret	0x6948
F 0x40498e
0x40498e:	mov	word ptr [rax + 0xa], cx
0x404992:	mov	dword ptr [rax + 0x10], edi
0x404995:	mov	qword ptr [rax + 0x18], r12
0x404999:	mov	qword ptr [rsi], rax
0x40499c:	mov	rax, r12
0x40499f:	pop	r12
0x4049a1:	ret	
F 0x413c93
0x413c93:	add	byte ptr [r8 - 0x77], r9b
0x413c97:	ret	
F 0x41c5f5
0x40d99c:	pop	rbp
0x40d99d:	pop	r12
0x40d99f:	pop	r13
0x40d9a1:	ret	
F 0x412265
0x412265:	add	byte ptr [rax], al
0x412267:	movsd	qword ptr [rbx + 0x28], xmm0
0x41226c:	pop	rbx
0x41226d:	ret	
F 0x41a851
0x40d99f:	pop	r13
0x40d9a1:	ret	
F 0x4127d4
0x404016:	ret	
F 0x417d18
0x417d18:	add	rsp, 0x38
0x417d1c:	mov	eax, 0xe
0x417d21:	pop	rbx
0x417d22:	pop	rbp
0x417d23:	pop	r12
0x417d25:	pop	r13
0x417d27:	pop	r14
0x417d29:	pop	r15
0x417d2b:	ret	
F 0x40ea79
0x40ea79:	add	esi, dword ptr [rcx - 0x3fce0001]
0x40ea7f:	add	rsp, 8
0x40ea83:	ret	
F 0x40e9c6
0x40e9c6:	add	bl, al
0x40e9c8:	nop	dword ptr [rax + rax]
0x40e9d0:	lea	rax, [rip + 0x111e5]
0x40e9d7:	ret	
F 0x4173aa
0x4173aa:	ret	0x6948
F 0x418e76
0x418e76:	dec	dword ptr [rax - 0x7b]
0x418e79:	sal	byte ptr [rbp + rdi + 0x48], 0x83
0x418e7e:	ret	
F 0x41c5fa
0x404016:	ret	
F 0x411940
0x404016:	ret	
F 0x413746
0x413746:	adc	byte ptr [rax - 0x7b], cl
0x413749:	push	qword ptr [rbp - 0x1c]
0x41374c:	pop	rbx
0x41374d:	ret	
F 0x40ec60
0x404ed4:	pop	rdi
0x404ed5:	ret	
F 0x40a26e
0x408627:	add	rsp, 8
0x40862b:	pop	rbx
0x40862c:	pop	rbp
0x40862d:	ret	
F 0x409b0f
0x409b0f:	or	al, 0
0x409b11:	mov	rax, r12
0x409b14:	pop	rbx
0x409b15:	pop	rbp
0x409b16:	pop	r12
0x409b18:	ret	
F 0x409d41
0x404016:	ret	
F 0x4046f6
0x404676:	add	byte ptr [rax], al
0x404678:	ret	
F 0x408627
0x408627:	add	rsp, 8
0x40862b:	pop	rbx
0x40862c:	pop	rbp
0x40862d:	ret	
F 0x40a4a1
0x404ecd:	pop	r12
0x404ecf:	pop	r13
0x404ed1:	pop	r14
0x404ed3:	pop	r15
0x404ed5:	ret	
F 0x404678
0x404016:	ret	
F 0x412b66
0x40d99f:	pop	r13
0x40d9a1:	ret	
F 0x4158c3
0x404ed2:	pop	rsi
0x404ed3:	pop	r15
0x404ed5:	ret	
F 0x419232
0x419232:	add	byte ptr [rax - 0x77], cl
0x419235:	adc	eax, 0x2106e
0x41923a:	add	rsp, 8
0x41923e:	pop	rbx
0x41923f:	pop	rbp
0x419240:	ret	
F 0x413680
0x404ed4:	pop	rdi
0x404ed5:	ret	
F 0x411fc0
0x411ee0:	movups	xmmword ptr [r12 + 0x10], xmm0
0x411ee6:	pop	r12
0x411ee8:	ret	
F 0x40d75c
0x40d75c:	movups	xmmword ptr [rip + 0x2694d], xmm5
0x40d763:	add	rsp, 8
0x40d767:	ret	
F 0x409cca
0x409cca:	popfq	
0x409ccb:	sbb	al, 0x81
0x409ccd:	ret	
F 0x41a36e
0x41a36e:	rol	dword ptr [rax], 0
0x41a371:	movzx	edx, dl
0x41a374:	mov	rax, qword ptr [rax + rdx*8]
0x41a378:	ret	
F 0x41ab57
0x404016:	ret	
F 0x408a30
0x404ed3:	pop	r15
0x404ed5:	ret	
F 0x414179
0x414179:	clc	
0x41417a:	pop	rbx
0x41417b:	pop	rbp
0x41417c:	pop	r12
0x41417e:	pop	r13
0x414180:	pop	r14
0x414182:	pop	r15
0x414184:	ret	
F 0x417627
0x40d2a3:	add	byte ptr [rax - 0x7d], cl
0x40d2a6:	ret	
F 0x410852
0x404016:	ret	
F 0x411fc5
0x40a324:	adc	byte ptr [rcx + 0x5c], al
0x40a327:	ret	
F 0x4166ca
0x4166ca:	add	byte ptr [rax], al
0x4166cc:	xor	eax, eax
0x4166ce:	pop	rbx
0x4166cf:	pop	rbp
0x4166d0:	pop	r12
0x4166d2:	ret	
F 0x409d35
0x409d35:	mov	dword ptr [rcx + rdx*8], eax
0x409d38:	add	rax, 8
0x409d3c:	mov	qword ptr [rax - 8], rsi
0x409d40:	pop	rbx
0x409d41:	ret	
F 0x40e9dc
0x40e9dc:	add	byte ptr [rax], al
0x40e9de:	add	byte ptr [rax], al
0x40e9e0:	lea	rax, [rip + 0x11192]
0x40e9e7:	ret	
F 0x41c5ed
0x41c5ed:	add	byte ptr [rbp + 0xb], dh
0x41c5f0:	add	rsp, 0x48
0x41c5f4:	pop	rbx
0x41c5f5:	pop	rbp
0x41c5f6:	pop	r12
0x41c5f8:	pop	r13
0x41c5fa:	ret	
F 0x4149c6
0x40d99c:	pop	rbp
0x40d99d:	pop	r12
0x40d99f:	pop	r13
0x40d9a1:	ret	
F 0x41b215
0x40d99b:	pop	rbx
0x40d99c:	pop	rbp
0x40d99d:	pop	r12
0x40d99f:	pop	r13
0x40d9a1:	ret	
F 0x417d26
0x404ed0:	pop	rbp
0x404ed1:	pop	r14
0x404ed3:	pop	r15
0x404ed5:	ret	
F 0x40e9a4
0x40e9a4:	adc	dword ptr [rcx], eax
0x40e9a6:	add	bl, al
0x40e9a8:	nop	dword ptr [rax + rax]
0x40e9b0:	lea	rax, [rip + 0x111ba]
0x40e9b7:	ret	
F 0x4117e8
0x4117e8:	pop	rbx
0x4117e9:	pop	r12
0x4117eb:	ret	
F 0x40889f
0x40889f:	mov	dword ptr [rsi], eax
0x4088a1:	ret	
F 0x4192c9
0x40862a:	or	byte ptr [rbx + 0x5d], bl
0x40862d:	ret	
F 0x409c3c
0x409c3c:	mov	eax, ebx
0x409c3e:	pop	rbx
0x409c3f:	pop	rbp
0x409c40:	pop	r12
0x409c42:	pop	r13
0x409c44:	pop	r14
0x409c46:	ret	
F 0x407aa9
0x407aa9:	add	eax, 0x1f7fa
0x407aae:	add	byte ptr [rax], al
0x407ab0:	add	byte ptr [rax], al
0x407ab2:	ret	
F 0x417b11
0x417b11:	mov	dword ptr [rax + 0x18], 0xb
0x417b18:	pop	rbx
0x417b19:	mov	qword ptr [r12], rax
0x417b1d:	mov	qword ptr [rbp], rdx
0x417b21:	pop	rbp
0x417b22:	pop	r12
0x417b24:	ret	
F 0x411766
0x404ed1:	pop	r14
0x404ed3:	pop	r15
0x404ed5:	ret	
F 0x40a268
0x40a268:	setp	al
0x40a26b:	cmovne	eax, edx
0x40a26e:	add	rsp, 8
0x40a272:	pop	rbx
0x40a273:	pop	rbp
0x40a274:	ret	
F 0x409e68
0x409e68:	add	byte ptr [rax], al
0x409e6a:	add	byte ptr [rax - 0x77], cl
0x409e6d:	ret	
F 0x40a33a
0x404016:	ret	
F 0x41061e
0x41061e:	add	byte ptr [rbx + 0x40], bl
0x410621:	test	bh, bh
0x410623:	sete	al
0x410626:	cmovne	eax, edx
0x410629:	ret	
F 0x417ead
0x417e83:	mov	eax, dword ptr [rbx]
0x417e85:	pop	rbx
0x417e86:	ret	
F 0x41af09
0x404016:	ret	
F 0x407bea
0x407bea:	add	dword ptr [rax], eax
0x407bec:	mov	eax, r8d
0x407bef:	ret	
F 0x4168f4
0x404ed0:	pop	rbp
0x404ed1:	pop	r14
0x404ed3:	pop	r15
0x404ed5:	ret	
F 0x411760
0x404ecb:	pop	rbx
0x404ecc:	pop	rbp
0x404ecd:	pop	r12
0x404ecf:	pop	r13
0x404ed1:	pop	r14
0x404ed3:	pop	r15
0x404ed5:	ret	
F 0x4192bc
0x4192bc:	add	rax, rbx
0x4192bf:	mov	qword ptr [rip + 0x20ff2], rbp
0x4192c6:	add	rsp, 8
0x4192ca:	pop	rbx
0x4192cb:	pop	rbp
0x4192cc:	ret	
F 0x41a71d
0x41a71d:	mov	dword ptr [rip + 0x11805], ecx
0x41a723:	mov	qword ptr [rip + 0x117f6], rdx
0x41a72a:	add	rsp, 0x18
0x41a72e:	pop	rbx
0x41a72f:	pop	rbp
0x41a730:	ret	
F 0x4085fc
0x4085fc:	add	byte ptr [rax - 0x77], cl
0x4085ff:	ret	0x8b48
F 0x409c9b
0x404016:	ret	
F 0x40ea10
0x40ea10:	lea	rax, [rip + 0x11179]
0x40ea17:	ret	
F 0x404a63
0x404a63:	mov	byte ptr [rdx + rax], 0xb
0x404a67:	pop	rbp
0x404a68:	ret	
F 0x4168f3
0x404ecf:	pop	r13
0x404ed1:	pop	r14
0x404ed3:	pop	r15
0x404ed5:	ret	
F 0x4083c8
0x4083c8:	sub	qword ptr [rip + 0x1eee0], 1
0x4083d0:	pop	rbx
0x4083d1:	ret	
F 0x40e3bd
0x404016:	ret	
F 0x411f91
0x411ee1:	movups	xmmword ptr [rsp + 0x10], xmm0
0x411ee6:	pop	r12
0x411ee8:	ret	
F 0x4106ff
0x40862a:	or	byte ptr [rbx + 0x5d], bl
0x40862d:	ret	
F 0x40a4a8
0x404ed4:	pop	rdi
0x404ed5:	ret	
F 0x409b74
0x404016:	ret	
F 0x404996
0x404996:	mov	dword ptr [rax + 0x18], esp
0x404999:	mov	qword ptr [rsi], rax
0x40499c:	mov	rax, r12
0x40499f:	pop	r12
0x4049a1:	ret	
F 0x40acd1
0x404016:	ret	
F 0x40cb79
0x404016:	ret	
F 0x418007
0x404ecd:	pop	r12
0x404ecf:	pop	r13
0x404ed1:	pop	r14
0x404ed3:	pop	r15
0x404ed5:	ret	
F 0x411761
0x404ecc:	pop	rbp
0x404ecd:	pop	r12
0x404ecf:	pop	r13
0x404ed1:	pop	r14
0x404ed3:	pop	r15
0x404ed5:	ret	
F 0x415189
0x415189:	add	byte ptr [rax - 0x77], cl
0x41518c:	add	eax, 0x250bf
0x415191:	add	dword ptr [rax + 8], 1
0x415195:	add	rsp, 8
0x415199:	ret	
F 0x40a122
0x409c45:	pop	rsi
0x409c46:	ret	
F 0x418d9c
0x404ecc:	pop	rbp
0x404ecd:	pop	r12
0x404ecf:	pop	r13
0x404ed1:	pop	r14
0x404ed3:	pop	r15
0x404ed5:	ret	
F 0x41737a
0x41737a:	or	byte ptr [r11], dl
0x41737d:	ret	
F 0x41c6f2
0x41c6f2:	mov	dword ptr [rip + 0x1dbd8], eax
0x41c6f8:	pop	rbp
0x41c6f9:	pop	r12
0x41c6fb:	pop	r13
0x41c6fd:	pop	r14
0x41c6ff:	ret	
F 0x407bbe
0x407bbe:	add	rax, 1
0x407bc2:	mov	qword ptr [rip + 0x1f6e7], rax
0x407bc9:	mov	eax, r8d
0x407bcc:	add	rsp, 8
0x407bd0:	ret	
F 0x417ecd
0x417ecd:	add	byte ptr [rax - 0x75], cl
0x417ed0:	add	al, 0xd0
0x417ed2:	ret	
F 0x409f9a
0x409f9a:	lea	eax, [rip + 0x1d090]
0x409fa0:	ret	
F 0x409f99
0x409f99:	lea	rax, [rip + 0x1d090]
0x409fa0:	ret	
F 0x4158bb
0x404eca:	add	byte ptr [rbx + 0x5d], bl
0x404ecd:	pop	r12
0x404ecf:	pop	r13
0x404ed1:	pop	r14
0x404ed3:	pop	r15
0x404ed5:	ret	
F 0x40e9be
0x40e9be:	add	byte ptr [rax], al
0x40e9c0:	lea	rax, [rip + 0x10c52]
0x40e9c7:	ret	
F 0x41b91c
0x409c42:	pop	r13
0x409c44:	pop	r14
0x409c46:	ret	
F 0x4137fe
0x4137fe:	sub	edx, 1
0x413801:	mov	dword ptr [rbx + 8], edx
0x413804:	mov	qword ptr [rbx], rax
0x413807:	add	rsp, 8
0x41380b:	pop	rbx
0x41380c:	pop	rbp
0x41380d:	ret	
F 0x41b81e
0x41b81e:	add	byte ptr [rax], al
0x41b820:	lea	edx, [rdi + 1]
0x41b823:	add	edi, 0x100
0x41b829:	cmp	dl, 1
0x41b82c:	cmovg	eax, edi
0x41b82f:	ret	
F 0x407a52
0x407a52:	add	byte ptr [rax], al
0x407a54:	mov	byte ptr [rdx + rax], 0xa
0x407a58:	mov	byte ptr [rdx + rax + 1], 0
0x407a5d:	add	rsp, 8
0x407a61:	ret	
F 0x4083be
0x4083be:	cmp	al, 0x13
0x4083c0:	add	dword ptr [rcx - 0x7d], esi
0x4083c4:	clc	
0x4083c5:	cmp	esi, dword ptr [rax + rcx + 0x48]
0x4083c9:	sub	dword ptr [rip + 0x1eee0], 1
0x4083d0:	pop	rbx
0x4083d1:	ret	
F 0x417eac
0x417e82:	mov	rax, qword ptr [rbx]
0x417e85:	pop	rbx
0x417e86:	ret	
F 0x41a8f2
0x41a8f2:	add	rsp, 0x30
0x41a8f6:	pop	rbx
0x41a8f7:	pop	rbp
0x41a8f8:	pop	r12
0x41a8fa:	pop	r13
0x41a8fc:	pop	r14
0x41a8fe:	ret	
F 0x41b914
0x41b914:	cmp	ebx, dword ptr [rbx + 0x44]
0x41b917:	mov	eax, esp
0x41b919:	pop	rbp
0x41b91a:	pop	r12
0x41b91c:	pop	r13
0x41b91e:	pop	r14
0x41b920:	ret	
F 0x4138c6
0x40862b:	pop	rbx
0x40862c:	pop	rbp
0x40862d:	ret	
F 0x41afed
0x409c43:	pop	rbp
0x409c44:	pop	r14
0x409c46:	ret	
F 0x417749
0x404ecd:	pop	r12
0x404ecf:	pop	r13
0x404ed1:	pop	r14
0x404ed3:	pop	r15
0x404ed5:	ret	
F 0x413b90
0x411aaa:	mov	eax, esi
0x411aac:	pop	rbp
0x411aad:	pop	r12
0x411aaf:	pop	r13
0x411ab1:	pop	r14
0x411ab3:	ret	
F 0x413b99
0x404016:	ret	
F 0x4108c4
0x404ed1:	pop	r14
0x404ed3:	pop	r15
0x404ed5:	ret	
F 0x40f989
0x40f989:	mov	word ptr [rip + 0x247a8], di
0x40f990:	pop	r12
0x40f992:	mov	word ptr [rip + 0x24786], r8w
0x40f99a:	ret	
F 0x41b21b
0x404016:	ret	
F 0x407a9f
0x407a9f:	or	bl, al
0x407aa1:	nop	dword ptr [rax]
0x407aa8:	mov	dword ptr [rip + 0x1f7fa], 0
0x407ab2:	ret	
F 0x40ea07
0x404016:	ret	
F 0x41755b
0x404016:	ret	
F 0x41a6cf
0x404016:	ret	
F 0x41b78f
0x404016:	ret	
F 0x419a37
0x404ed1:	pop	r14
0x404ed3:	pop	r15
0x404ed5:	ret	
F 0x40e4fe
0x40e4fe:	add	byte ptr [rax], al
0x40e500:	add	byte ptr [rcx + 0x5c], al
0x40e503:	ret	
F 0x40ea1c
0x40ea1c:	add	byte ptr [rax], al
0x40ea1e:	add	byte ptr [rax], al
0x40ea20:	lea	rax, [rip + 0x11160]
0x40ea27:	ret	
F 0x40e989
0x40466f:	jmp	rax
F 0x4142df
0x404ecb:	pop	rbx
0x404ecc:	pop	rbp
0x404ecd:	pop	r12
0x404ecf:	pop	r13
0x404ed1:	pop	r14
0x404ed3:	pop	r15
0x404ed5:	ret	
F 0x41b82c
0x41b82c:	cmovg	eax, edi
0x41b82f:	ret	
F 0x4138bd
0x4138bd:	add	eax, 0x13c3e
0x4138c2:	add	rsp, 8
0x4138c6:	pop	rbx
0x4138c7:	pop	rbp
0x4138c8:	ret	
F 0x4046f3
0x404673:	add	byte ptr [rax], 0
0x404676:	add	byte ptr [rax], al
0x404678:	ret	
F 0x415031
0x415031:	stosd	dword ptr [rdi], eax
0x415032:	mov	rax, qword ptr [rip + 0x25247]
0x415039:	mov	qword ptr [rax], rdx
0x41503c:	add	rsp, 8
0x415040:	ret	
F 0x4104a0
0x4104a0:	mov	eax, 0x80000001
0x4104a5:	ret	
F 0x417601
0x417601:	nop	dword ptr [rax]
0x417608:	add	rbx, 2
0x41760c:	jmp	0x417512
F 0x413b8a
0x413b8a:	cmp	dword ptr [rcx], eax
0x413b8c:	add	byte ptr [rcx], al
0x413b8e:	pop	rbx
0x413b8f:	mov	eax, r14d
0x413b92:	pop	rbp
0x413b93:	pop	r12
0x413b95:	pop	r13
0x413b97:	pop	r14
0x413b99:	ret	
F 0x411b75
0x411b75:	mov	eax, dword ptr [rax]
0x411b77:	add	byte ptr [rbx + 0x4c], bl
0x411b7a:	mov	eax, esi
0x411b7c:	pop	rbp
0x411b7d:	pop	r12
0x411b7f:	pop	r13
0x411b81:	pop	r14
0x411b83:	ret	
F 0x417b5b
0x417b5b:	add	byte ptr [rax - 0x77], cl
0x417b5e:	add	eax, 0x22745
0x417b63:	add	rsp, 8
0x417b67:	ret	
F 0x415324
0x404016:	ret	
F 0x40a272
0x40862b:	pop	rbx
0x40862c:	pop	rbp
0x40862d:	ret	
F 0x41736d
0x41736d:	mov	ecx, r8d
0x417370:	mov	edx, eax
0x417372:	shl	edx, cl
0x417374:	mov	ecx, esi
0x417376:	shl	eax, cl
0x417378:	sub	edx, eax
0x41737a:	or	byte ptr [r11], dl
0x41737d:	ret	
F 0x40d2ad
0x40d2ad:	add	al, byte ptr [rax]
0x40d2af:	pop	rbx
0x40d2b0:	mov	qword ptr [rip + 0x26e01], rax
0x40d2b7:	pop	rbp
0x40d2b8:	pop	r12
0x40d2ba:	ret	
F 0x416e46
0x40d99b:	pop	rbx
0x40d99c:	pop	rbp
0x40d99d:	pop	r12
0x40d99f:	pop	r13
0x40d9a1:	ret	
F 0x415a5e
0x415a5e:	lea	eax, [rip + 0x115bc]
0x415a64:	mov	qword ptr [rip + 0x1e79d], rax
0x415a6b:	add	rsp, 8
0x415a6f:	ret	
F 0x415204
0x415204:	add	eax, 0x11e17
0x415209:	mov	qword ptr [rip + 0x1eff8], rax
0x415210:	add	rsp, 8
0x415214:	pop	rbp
0x415215:	pop	r12
0x415217:	ret	
F 0x40d2a9
0x40d2a9:	mov	dword ptr [rip + 0x26e01], ebx
0x40d2af:	pop	rbx
0x40d2b0:	mov	qword ptr [rip + 0x26e01], rax
0x40d2b7:	pop	rbp
0x40d2b8:	pop	r12
0x40d2ba:	ret	
F 0x40a29e
0x40a29e:	cmp	byte ptr [rax], al
0x40a2a0:	setne	al
0x40a2a3:	add	rsp, 8
0x40a2a7:	movzx	eax, al
0x40a2aa:	pop	rbx
0x40a2ab:	pop	rbp
0x40a2ac:	ret	
F 0x415214
0x40460d:	pop	rbp
0x40460e:	pop	r12
0x404610:	ret	
F 0x4119a4
0x404ed3:	pop	r15
0x404ed5:	ret	
F 0x41b20f
0x41b20f:	add	byte ptr [rax], al
0x41b211:	add	rsp, 8
0x41b215:	pop	rbx
0x41b216:	pop	rbp
0x41b217:	pop	r12
0x41b219:	pop	r13
0x41b21b:	ret	
F 0x4175c5
0x4175c5:	add	rbx, 1
0x4175c9:	mov	r12d, 0xb
0x4175cf:	mov	qword ptr [rdi], rbx
0x4175d2:	jmp	0x417516
F 0x417573
0x404016:	ret	
F 0x416a8e
0x404016:	ret	
F 0x416678
0x404ed4:	pop	rdi
0x404ed5:	ret	
F 0x409e9d
0x409e9d:	add	dword ptr [rax], eax
0x409e9f:	mov	qword ptr [rip + 0x1d43a], rbx
0x409ea6:	mov	qword ptr [rax - 8], rsi
0x409eaa:	mov	qword ptr [rbx], rdx
0x409ead:	pop	rbx
0x409eae:	ret	
F 0x41634f
0x41634f:	add	byte ptr [rdi], cl
0x416351:	mov	dh, 0x41
0x416353:	add	dword ptr [rax - 0x7d], ecx
0x416356:	ret	
F 0x40a04e
0x40a04e:	add	byte ptr [rax], al
0x40a050:	pop	rbx
0x40a051:	pop	rbp
0x40a052:	pop	r12
0x40a054:	ret	
F 0x416f5d
0x404016:	ret	
F 0x41374d
0x404016:	ret	
F 0x40a2c1
0x404016:	ret	
F 0x41c106
0x41c106:	mov	qword ptr [rbp + 8], rax
0x41c10a:	add	rsp, 8
0x41c10e:	pop	rbx
0x41c10f:	pop	rbp
0x41c110:	ret	
F 0x40f16d
0x40f16d:	add	byte ptr [rax], al
0x40f16f:	add	rsp, 0xb8
0x40f176:	pop	rbx
0x40f177:	pop	rbp
0x40f178:	pop	r12
0x40f17a:	pop	r13
0x40f17c:	pop	r14
0x40f17e:	pop	r15
0x40f180:	ret	
F 0x408650
0x408625:	add	dword ptr [rax], eax
0x408627:	add	rsp, 8
0x40862b:	pop	rbx
0x40862c:	pop	rbp
0x40862d:	ret	
F 0x41a78c
0x41a78c:	or	al, 0xd0
0x41a78e:	mov	qword ptr [rax + rdx*8], rdi
0x41a792:	mov	qword ptr [rdi], rcx
0x41a795:	ret	
F 0x40e990
0x40e990:	lea	rax, [rip + 0x11216]
0x40e997:	ret	
F 0x408656
0x40862b:	pop	rbx
0x40862c:	pop	rbp
0x40862d:	ret	
F 0x4046f1
0x404671:	nop	dword ptr [rax]
0x404678:	ret	
F 0x40fafb
0x40fafb:	add	byte ptr [rax], al
0x40fafd:	mov	word ptr [rbx + 0x18], ax
0x40fb01:	add	rsp, 8
0x40fb05:	pop	rbx
0x40fb06:	pop	rbp
0x40fb07:	ret	
F 0x40ea1d
0x40ea1d:	add	byte ptr [rax], al
0x40ea1f:	add	byte ptr [rax - 0x73], cl
0x40ea22:	add	eax, 0x11160
0x40ea27:	ret	
F 0x408655
0x40862a:	or	byte ptr [rbx + 0x5d], bl
0x40862d:	ret	
F 0x411f8d
0x411edd:	mov	eax, esp
0x411edf:	movsd	qword ptr [r12 + 0x10], xmm0
0x411ee6:	pop	r12
0x411ee8:	ret	
F 0x4149ca
0x4046ef:	pop	rbp
0x4046f0:	ret	
F 0x416f4c
0x4108b7:	add	rsp, 0x18
0x4108bb:	mov	rax, r14
0x4108be:	pop	rbx
0x4108bf:	pop	rbp
0x4108c0:	pop	r12
0x4108c2:	pop	r13
0x4108c4:	pop	r14
0x4108c6:	pop	r15
0x4108c8:	ret	
F 0x413676
0x404eca:	add	byte ptr [rbx + 0x5d], bl
0x404ecd:	pop	r12
0x404ecf:	pop	r13
0x404ed1:	pop	r14
0x404ed3:	pop	r15
0x404ed5:	ret	
F 0x417402
0x4173aa:	ret	0x6948
F 0x41756d
0x41756d:	mov	dword ptr [rdi], ebx
0x41756f:	jmp	0x417516
F 0x40f98b
0x40f98b:	cmp	eax, 0x247a8
0x40f990:	pop	r12
0x40f992:	mov	word ptr [rip + 0x24786], r8w
0x40f99a:	ret	
F 0x40ea0f
0x40ea0f:	add	byte ptr [rax - 0x73], cl
0x40ea12:	add	eax, 0x11179
0x40ea17:	ret	
F 0x41b4b1
0x404ecc:	pop	rbp
0x404ecd:	pop	r12
0x404ecf:	pop	r13
0x404ed1:	pop	r14
0x404ed3:	pop	r15
0x404ed5:	ret	
F 0x414770
0x404ed4:	pop	rdi
0x404ed5:	ret	
F 0x40f180
0x404016:	ret	
F 0x409aa6
0x409aa6:	mov	dword ptr [rax], ebx
0x409aa8:	mov	dword ptr [rax + 8], 1
0x409aaf:	mov	byte ptr [rax + rbx + 0xc], 0
0x409ab4:	pop	rbx
0x409ab5:	ret	
F 0x41923e
0x40862b:	pop	rbx
0x40862c:	pop	rbp
0x40862d:	ret	
F 0x409b6d
0x409b11:	mov	rax, r12
0x409b14:	pop	rbx
0x409b15:	pop	rbp
0x409b16:	pop	r12
0x409b18:	ret	
F 0x40ea1e
0x40ea1e:	add	byte ptr [rax], al
0x40ea20:	lea	rax, [rip + 0x11160]
0x40ea27:	ret	
F 0x412515
0x412515:	add	byte ptr [rax], al
0x412517:	add	byte ptr [rbp + 0x5f], dh
0x41251a:	add	rsp, 0x40
0x41251e:	mov	rax, r12
0x412521:	pop	rbx
0x412522:	pop	rbp
0x412523:	pop	r12
0x412525:	ret	
F 0x416ecd
0x409b14:	pop	rbx
0x409b15:	pop	rbp
0x409b16:	pop	r12
0x409b18:	ret	
F 0x419eb1
0x419eb1:	add	eax, dword ptr es:[rax]
0x419eb4:	add	byte ptr [rcx - 0x7d], cl
0x419eb7:	ret	0x4818
F 0x4144b5
0x40d99c:	pop	rbp
0x40d99d:	pop	r12
0x40d99f:	pop	r13
0x40d9a1:	ret	
F 0x412061
0x40460e:	pop	r12
0x404610:	ret	
F 0x4139de
0x4139de:	add	dword ptr [rax], eax
0x4139e0:	add	eax, 1
0x4139e3:	mov	dword ptr [rip + 0x13b07], eax
0x4139e9:	ret	
F 0x411f95
0x40a324:	adc	byte ptr [rcx + 0x5c], al
0x40a327:	ret	
F 0x409dd0
0x409dd0:	sal	byte ptr [rbp + rbp + 0x48], 0x89
0x409dd5:	ret	
F 0x40f994
0x40f994:	mov	dword ptr [rip + 0x24786], eax
0x40f99a:	ret	
F 0x412522
0x40460d:	pop	rbp
0x40460e:	pop	r12
0x404610:	ret	
F 0x409a86
0x409a86:	add	eax, 0x1d59c
0x409a8b:	add	dword ptr [rax - 0x73], ecx
0x409a8e:	add	eax, 0x1d58d
0x409a93:	ret	
F 0x40e145
0x40e145:	mov	qword ptr [rax + 8], rbx
0x40e149:	mov	qword ptr [rax], rdx
0x40e14c:	pop	rbx
0x40e14d:	mov	qword ptr [rip + 0x1938c], rax
0x40e154:	ret	
F 0x41061c
0x41061c:	add	byte ptr [rax], al
0x41061e:	add	byte ptr [rbx + 0x40], bl
0x410621:	test	bh, bh
0x410623:	sete	al
0x410626:	cmovne	eax, edx
0x410629:	ret	
F 0x4172c4
0x404ecf:	pop	r13
0x404ed1:	pop	r14
0x404ed3:	pop	r15
0x404ed5:	ret	
F 0x411f12
0x411ee2:	adc	dword ptr [rsp + 0x10], eax
0x411ee6:	pop	r12
0x411ee8:	ret	
F 0x41367b
0x404ecf:	pop	r13
0x404ed1:	pop	r14
0x404ed3:	pop	r15
0x404ed5:	ret	
F 0x40f98d
0x40f98d:	add	r8b, byte ptr [r8]
0x40f990:	pop	r12
0x40f992:	mov	word ptr [rip + 0x24786], r8w
0x40f99a:	ret	
F 0x4115de
0x4115de:	lea	eax, [rbp - 0x18]
0x4115e1:	pop	rbx
0x4115e2:	pop	rbp
0x4115e3:	pop	r12
0x4115e5:	pop	r13
0x4115e7:	pop	r14
0x4115e9:	pop	r15
0x4115eb:	ret	
F 0x411f66
0x411f66:	clc	
0x411f68:	add	rsp, 8
0x411f6c:	pop	rbx
0x411f6d:	pop	r12
0x411f6f:	ret	
F 0x4166cc
0x4166cc:	xor	eax, eax
0x4166ce:	pop	rbx
0x4166cf:	pop	rbp
0x4166d0:	pop	r12
0x4166d2:	ret	
F 0x404ed2
0x404ed2:	pop	rsi
0x404ed3:	pop	r15
0x404ed5:	ret	
F 0x40ec5e
0x404ed2:	pop	rsi
0x404ed3:	pop	r15
0x404ed5:	ret	
F 0x408449
0x408449:	ret	0x588
F 0x417e88
0x417e88:	nop	dword ptr [rax + rax]
0x417e90:	mov	rax, qword ptr [rbx]
0x417e93:	mov	qword ptr [rdi], rbx
0x417e96:	pop	rbx
0x417e97:	ret	
F 0x409e44
0x404ecb:	pop	rbx
0x404ecc:	pop	rbp
0x404ecd:	pop	r12
0x404ecf:	pop	r13
0x404ed1:	pop	r14
0x404ed3:	pop	r15
0x404ed5:	ret	
F 0x409aad
0x409aad:	add	byte ptr [rax], al
0x409aaf:	mov	byte ptr [rax + rbx + 0xc], 0
0x409ab4:	pop	rbx
0x409ab5:	ret	
F 0x40a2a3
0x40a2a3:	add	rsp, 8
0x40a2a7:	movzx	eax, al
0x40a2aa:	pop	rbx
0x40a2ab:	pop	rbp
0x40a2ac:	ret	
F 0x40460c
0x40460c:	rcr	byte ptr [rbp + 0x41], 0x5c
0x404610:	ret	
F 0x419a35
0x404ecf:	pop	r13
0x404ed1:	pop	r14
0x404ed3:	pop	r15
0x404ed5:	ret	
F 0x40ea77
0x40ea77:	add	al, ch
0x40ea79:	add	esi, dword ptr [rcx - 0x3fce0001]
0x40ea7f:	add	rsp, 8
0x40ea83:	ret	
F 0x4083c5
0x4083c5:	cmp	esi, dword ptr [rax + rcx + 0x48]
0x4083c9:	sub	dword ptr [rip + 0x1eee0], 1
0x4083d0:	pop	rbx
0x4083d1:	ret	
F 0x417616
0x417616:	add	byte ptr [rax], al
0x417618:	add	rbx, 3
0x41761c:	lea	r12d, [rax + r12*8 - 0x30]
0x417621:	jmp	0x4175f4
F 0x411f65
0x411f65:	adc	dword ptr [rbx - 8], eax
0x411f68:	add	rsp, 8
0x411f6c:	pop	rbx
0x411f6d:	pop	r12
0x411f6f:	ret	
F 0x41a36b
0x41a36b:	lea	eax, [rip + 0xc1cf]
0x41a371:	movzx	edx, dl
0x41a374:	mov	rax, qword ptr [rax + rdx*8]
0x41a378:	ret	
F 0x40ff94
0x40fd2a:	sbb	byte ptr [rcx], al
0x40fd2c:	add	byte ptr [rax], al
0x40fd2e:	pop	rbx
0x40fd2f:	pop	rbp
0x40fd30:	ret	
F 0x40d36d
0x408627:	add	rsp, 8
0x40862b:	pop	rbx
0x40862c:	pop	rbp
0x40862d:	ret	
F 0x4119a3
0x404ed2:	pop	rsi
0x404ed3:	pop	r15
0x404ed5:	ret	
F 0x41c8d7
0x404016:	ret	
F 0x404a29
0x4046ef:	pop	rbp
0x4046f0:	ret	
F 0x40e9b0
0x40e9b0:	lea	rax, [rip + 0x111ba]
0x40e9b7:	ret	
F 0x409cc8
0x409cc8:	mov	eax, 0x811c9dc5
0x409ccd:	ret	
F 0x4158c5
0x404ed4:	pop	rdi
0x404ed5:	ret	
F 0x411fbd
0x411edd:	mov	eax, esp
0x411edf:	movsd	qword ptr [r12 + 0x10], xmm0
0x411ee6:	pop	r12
0x411ee8:	ret	
F 0x40466f
0x40466f:	jmp	rax
F 0x409e43
0x409e43:	or	byte ptr [rbx + 0x5d], bl
0x409e46:	pop	r12
0x409e48:	pop	r13
0x409e4a:	pop	r14
0x409e4c:	pop	r15
0x409e4e:	ret	
F 0x418eaf
0x418eaf:	or	byte ptr [rbx + 0x5d], bl
0x418eb2:	pop	r12
0x418eb4:	pop	r13
0x418eb6:	pop	r14
0x418eb8:	ret	
F 0x419a39
0x404ed3:	pop	r15
0x404ed5:	ret	
F 0x412346
0x40460d:	pop	rbp
0x40460e:	pop	r12
0x404610:	ret	
F 0x40ea2c
0x40ea2c:	add	byte ptr [rax], al
0x40ea2e:	add	byte ptr [rax], al
0x40ea30:	lea	rax, [rip + 0x11974]
0x40ea37:	ret	
F 0x411d83
0x404ed4:	pop	rdi
0x404ed5:	ret	
F 0x4173fe
0x4173fe:	ror	byte ptr [rax - 0x77], 1
0x417402:	ret	0x6948
F 0x41219e
0x4117e6:	mov	eax, esp
0x4117e8:	pop	rbx
0x4117e9:	pop	r12
0x4117eb:	ret	
F 0x41199a
0x41175e:	mov	eax, esp
0x411760:	pop	rbx
0x411761:	pop	rbp
0x411762:	pop	r12
0x411764:	pop	r13
0x411766:	pop	r14
0x411768:	pop	r15
0x41176a:	ret	
F 0x40a2a2
0x40a2a2:	ror	byte ptr [rax - 0x7d], 0xc4
0x40a2a6:	or	byte ptr [rdi], cl
0x40a2a8:	mov	dh, 0xc0
0x40a2aa:	pop	rbx
0x40a2ab:	pop	rbp
0x40a2ac:	ret	
F 0x411aa3
0x411aa3:	add	al, 0x85
0x411aa5:	sal	byte ptr [rax + rdx + 0x5b], 0x4c
0x411aaa:	mov	eax, esi
0x411aac:	pop	rbp
0x411aad:	pop	r12
0x411aaf:	pop	r13
0x411ab1:	pop	r14
0x411ab3:	ret	
F 0x41c045
0x404016:	ret	
F 0x4127ca
0x404ecb:	pop	rbx
0x404ecc:	pop	rbp
0x404ecd:	pop	r12
0x404ecf:	pop	r13
0x404ed1:	pop	r14
0x404ed3:	pop	r15
0x404ed5:	ret	
F 0x418c64
0x40819a:	add	rsp, 0x28
0x40819e:	pop	rbx
0x40819f:	pop	rbp
0x4081a0:	pop	r12
0x4081a2:	pop	r13
0x4081a4:	pop	r14
0x4081a6:	pop	r15
0x4081a8:	ret	
F 0x416086
0x404016:	ret	
F 0x41a724
0x41a724:	mov	dword ptr [rip + 0x117f6], edx
0x41a72a:	add	rsp, 0x18
0x41a72e:	pop	rbx
0x41a72f:	pop	rbp
0x41a730:	ret	
F 0x41895a
0x41890a:	add	byte ptr [rax], al
0x41890c:	add	byte ptr [rbp + 5], dh
0x41890f:	add	rsp, 0x28
0x418913:	ret	
F 0x411f63
0x411f63:	movsd	qword ptr [rbx - 8], xmm0
0x411f68:	add	rsp, 8
0x411f6c:	pop	rbx
0x411f6d:	pop	r12
0x411f6f:	ret	
F 0x41b878
0x417516:	mov	eax, r12d
0x417519:	pop	rbx
0x41751a:	pop	rbp
0x41751b:	pop	r12
0x41751d:	ret	
F 0x41ab4e
0x41ab4e:	and	al, 8
0x41ab50:	mov	rax, r12
0x41ab53:	pop	rbx
0x41ab54:	pop	rbp
0x41ab55:	pop	r12
0x41ab57:	ret	
F 0x4126ac
0x404ecf:	pop	r13
0x404ed1:	pop	r14
0x404ed3:	pop	r15
0x404ed5:	ret	
F 0x411768
0x404ed3:	pop	r15
0x404ed5:	ret	
F 0x40a15c
0x404016:	ret	
F 0x40862c
0x4046ef:	pop	rbp
0x4046f0:	ret	
F 0x40e98d
0x40e98d:	add	byte ptr [rax], r8b
0x40e990:	lea	rax, [rip + 0x11216]
0x40e997:	ret	
F 0x40a271
0x40862a:	or	byte ptr [rbx + 0x5d], bl
0x40862d:	ret	
F 0x414862
0x414862:	add	dword ptr [rax - 0x77], ecx
0x414865:	ret	
F 0x40d410
0x40d410:	push	rax
0x40d411:	or	byte ptr [rax - 0x77], cl
0x40d414:	adc	eax, 0x26c9f
0x40d419:	mov	dword ptr [rax], 0x58
0x40d41f:	add	rsp, 8
0x40d423:	ret	
F 0x40ea42
0x40ea42:	add	eax, 0x11138
0x40ea47:	ret	
F 0x41a341
0x404671:	nop	dword ptr [rax]
0x404678:	ret	
F 0x407bc8
0x407bc8:	add	byte ptr [rcx + rcx*4 - 0x40], al
0x407bcc:	add	rsp, 8
0x407bd0:	ret	
F 0x4175b3
0x4175b3:	add	rbx, 1
0x4175b7:	mov	r12d, 9
0x4175bd:	mov	qword ptr [rdi], rbx
0x4175c0:	jmp	0x417516
F 0x4122bf
0x4122bf:	movsd	qword ptr [r12 + 0x10], xmm0
0x4122c6:	add	rsp, 8
0x4122ca:	pop	rbx
0x4122cb:	pop	r12
0x4122cd:	ret	
F 0x40fb07
0x404016:	ret	
F 0x4152aa
0x4152aa:	stosb	byte ptr [rdi], al
0x4152ab:	stosb	byte ptr [rdi], al
0x4152ac:	shl	eax, 0xa
0x4152af:	add	eax, edx
0x4152b1:	ret	
F 0x41760c
0x41760c:	jmp	0x417512
F 0x4126b2
0x404016:	ret	
F 0x411b82
0x409c45:	pop	rsi
0x409c46:	ret	
F 0x416a7f
0x416a7f:	nop	
0x416a80:	add	rsp, 8
0x416a84:	pop	rbx
0x416a85:	pop	rbp
0x416a86:	pop	r12
0x416a88:	pop	r13
0x416a8a:	pop	r14
0x416a8c:	pop	r15
0x416a8e:	ret	
F 0x411ac6
0x411ac6:	add	byte ptr [rax], al
0x411ac8:	pop	rbx
0x411ac9:	mov	rax, r14
0x411acc:	pop	rbp
0x411acd:	pop	r12
0x411acf:	pop	r13
0x411ad1:	pop	r14
0x411ad3:	ret	
F 0x414028
0x414028:	add	byte ptr [rax], al
0x41402a:	add	rsp, 0x118
0x414031:	pop	rbx
0x414032:	pop	rbp
0x414033:	pop	r12
0x414035:	pop	r13
0x414037:	pop	r14
0x414039:	pop	r15
0x41403b:	ret	
F 0x40e9e5
0x407c4a:	add	dword ptr [rax], eax
0x407c4c:	ret	
F 0x40a320
0x40a320:	movsd	qword ptr [rdi + 0x10], xmm0
0x40a325:	pop	r12
0x40a327:	ret	
F 0x41759a
0x41759a:	mov	dword ptr [rdi], ebx
0x41759c:	jmp	0x417516
F 0x41bf7b
0x409c40:	pop	r12
0x409c42:	pop	r13
0x409c44:	pop	r14
0x409c46:	ret	
F 0x412197
0x412197:	add	byte ptr [rax], al
0x412199:	add	rsp, 0x18
0x41219d:	mov	rax, r12
0x4121a0:	pop	rbx
0x4121a1:	pop	r12
0x4121a3:	ret	
F 0x416812
0x404ecd:	pop	r12
0x404ecf:	pop	r13
0x404ed1:	pop	r14
0x404ed3:	pop	r15
0x404ed5:	ret	
F 0x417597
0x417597:	add	byte ptr [rax], al
0x417599:	mov	qword ptr [rdi], rbx
0x41759c:	jmp	0x417516
F 0x411445
0x404ecc:	pop	rbp
0x404ecd:	pop	r12
0x404ecf:	pop	r13
0x404ed1:	pop	r14
0x404ed3:	pop	r15
0x404ed5:	ret	
F 0x40e99c
0x40e99c:	add	byte ptr [rax], al
0x40e99e:	add	byte ptr [rax], al
0x40e9a0:	lea	rax, [rip + 0x111fe]
0x40e9a7:	ret	
F 0x41417f
0x404ed0:	pop	rbp
0x404ed1:	pop	r14
0x404ed3:	pop	r15
0x404ed5:	ret	
F 0x41b915
0x41b915:	pop	rbx
0x41b916:	mov	eax, r12d
0x41b919:	pop	rbp
0x41b91a:	pop	r12
0x41b91c:	pop	r13
0x41b91e:	pop	r14
0x41b920:	ret	
F 0x411aad
0x409c40:	pop	r12
0x409c42:	pop	r13
0x409c44:	pop	r14
0x409c46:	ret	
F 0x4158c1
0x404ed0:	pop	rbp
0x404ed1:	pop	r14
0x404ed3:	pop	r15
0x404ed5:	ret	
F 0x407be0
0x407be0:	add	dword ptr [rdi + rcx - 0x4a], eax
0x407be4:	ret	0x8948
F 0x40f990
0x40f990:	pop	r12
0x40f992:	mov	word ptr [rip + 0x24786], r8w
0x40f99a:	ret	
F 0x41374c
0x4083d0:	pop	rbx
0x4083d1:	ret	
F 0x4137fc
0x4137fc:	add	dword ptr [rax], eax
0x4137fe:	sub	edx, 1
0x413801:	mov	dword ptr [rbx + 8], edx
0x413804:	mov	qword ptr [rbx], rax
0x413807:	add	rsp, 8
0x41380b:	pop	rbx
0x41380c:	pop	rbp
0x41380d:	ret	
F 0x416d84
0x416d84:	or	byte ptr [rbp - 0xf], dh
0x416d87:	mov	rax, qword ptr [rax + 0x10]
0x416d8b:	add	rax, 0xc
0x416d8f:	ret	
F 0x406758
0x406758:	ret	0xc2e8
F 0x40ea32
0x40ea32:	add	eax, 0x11974
0x40ea37:	ret	
F 0x410bac
0x40f173:	add	byte ptr [rax], al
0x40f175:	add	byte ptr [rbx + 0x5d], bl
0x40f178:	pop	r12
0x40f17a:	pop	r13
0x40f17c:	pop	r14
0x40f17e:	pop	r15
0x40f180:	ret	
F 0x4127d1
0x404ed2:	pop	rsi
0x404ed3:	pop	r15
0x404ed5:	ret	
F 0x40e9c2
0x40e9c2:	add	eax, 0x10c52
0x40e9c7:	ret	
F 0x40ff96
0x40fd2c:	add	byte ptr [rax], al
0x40fd2e:	pop	rbx
0x40fd2f:	pop	rbp
0x40fd30:	ret	
F 0x409ab4
0x4083d0:	pop	rbx
0x4083d1:	ret	
F 0x40e9cd
0x40e9cd:	add	byte ptr [rax], al
0x40e9cf:	add	byte ptr [rax - 0x73], cl
0x40e9d2:	add	eax, 0x111e5
0x40e9d7:	ret	
F 0x40e9b5
0x407c4a:	add	dword ptr [rax], eax
0x407c4c:	ret	
F 0x417ecc
0x417ecc:	add	byte ptr [rax], al
0x417ece:	mov	rax, qword ptr [rax + rdx*8]
0x417ed2:	ret	
F 0x40e9bf
0x40e9bf:	add	byte ptr [rax - 0x73], cl
0x40e9c2:	add	eax, 0x10c52
0x40e9c7:	ret	
F 0x418c69
0x404ecc:	pop	rbp
0x404ecd:	pop	r12
0x404ecf:	pop	r13
0x404ed1:	pop	r14
0x404ed3:	pop	r15
0x404ed5:	ret	
F 0x40a4a7
0x404ed3:	pop	r15
0x404ed5:	ret	
F 0x412609
0x412609:	add	byte ptr [rbp + 6], dh
0x41260c:	add	rsp, 0x40
0x412610:	pop	rbx
0x412611:	ret	
F 0x40d59b
0x4083d0:	pop	rbx
0x4083d1:	ret	
F 0x40d370
0x40862a:	or	byte ptr [rbx + 0x5d], bl
0x40862d:	ret	
F 0x41b829
0x41b829:	cmp	dl, 1
0x41b82c:	cmovg	eax, edi
0x41b82f:	ret	
F 0x40ed5a
0x404016:	ret	
F 0x40d3b5
0x40d3b5:	mov	dword ptr [rip + 0x26cfd], eax
0x40d3bb:	add	rsp, 8
0x40d3bf:	pop	rbx
0x40d3c0:	pop	rbp
0x40d3c1:	ret	
F 0x4138b5
0x4138b5:	mov	qword ptr [rax], rdx
0x4138b8:	mov	dword ptr [rax + 0xc], esi
0x4138bb:	mov	qword ptr [rip + 0x13c3e], rax
0x4138c2:	add	rsp, 8
0x4138c6:	pop	rbx
0x4138c7:	pop	rbp
0x4138c8:	ret	
F 0x416352
0x416352:	add	dword ptr [r8 - 0x7d], ecx
0x416356:	ret	
F 0x418625
0x418625:	add	byte ptr [rax], al
0x418627:	add	al, ch
0x418629:	ret	
F 0x40d371
0x40862b:	pop	rbx
0x40862c:	pop	rbp
0x40862d:	ret	
F 0x408a31
0x404ed4:	pop	rdi
0x404ed5:	ret	
F 0x4144b8
0x40d99f:	pop	r13
0x40d9a1:	ret	
F 0x41a33b
0x41a33b:	mov	eax, dword ptr [rdi + 0x10]
0x41a33e:	ret	
F 0x414e43
0x404016:	ret	
F 0x4081a8
0x404016:	ret	
F 0x417b18
0x417b18:	pop	rbx
0x417b19:	mov	qword ptr [r12], rax
0x417b1d:	mov	qword ptr [rbp], rdx
0x417b21:	pop	rbp
0x417b22:	pop	r12
0x417b24:	ret	
F 0x40f9d8
0x40f9d8:	mov	eax, 1
0x40f9dd:	mov	word ptr [rbx], ax
0x40f9e0:	add	rsp, 8
0x40f9e4:	pop	rbx
0x40f9e5:	pop	rbp
0x40f9e6:	ret	
F 0x41a863
0x41a7ec:	or	byte ptr [rcx + rcx*4 - 0x20], cl
0x41a7f0:	pop	rbx
0x41a7f1:	pop	rbp
0x41a7f2:	pop	r12
0x41a7f4:	pop	r13
0x41a7f6:	ret	
F 0x41b82f
0x404016:	ret	
F 0x40e772
0x40e772:	adc	byte ptr [rax - 0x7d], cl
0x40e776:	ret	0x6610
F 0x4127c6
0x4127c6:	or	byte ptr [rcx + rcx*4 - 0x10], cl
0x4127ca:	pop	rbx
0x4127cb:	pop	rbp
0x4127cc:	pop	r12
0x4127ce:	pop	r13
0x4127d0:	pop	r14
0x4127d2:	pop	r15
0x4127d4:	ret	
F 0x407bd6
0x407bd6:	add	byte ptr [rax], al
0x407bd8:	xor	r8d, r8d
0x407bdb:	jmp	0x407bbe
F 0x41666d
0x41666d:	mov	eax, ebp
0x41666f:	pop	rbx
0x416670:	pop	rbp
0x416671:	pop	r12
0x416673:	pop	r13
0x416675:	pop	r14
0x416677:	pop	r15
0x416679:	ret	
F 0x411b55
0x411aa5:	sal	byte ptr [rax + rdx + 0x5b], 0x4c
0x411aaa:	mov	eax, esi
0x411aac:	pop	rbp
0x411aad:	pop	r12
0x411aaf:	pop	r13
0x411ab1:	pop	r14
0x411ab3:	ret	
F 0x417579
0x417579:	add	byte ptr [rax], al
0x41757b:	mov	qword ptr [rdi], rbx
0x41757e:	jmp	0x417516
F 0x410449
0x40460e:	pop	r12
0x404610:	ret	
F 0x414f34
0x414f34:	add	rsp, 0x28
0x414f38:	mov	rax, r14
0x414f3b:	pop	rbx
0x414f3c:	pop	rbp
0x414f3d:	pop	r12
0x414f3f:	pop	r13
0x414f41:	pop	r14
0x414f43:	pop	r15
0x414f45:	ret	
F 0x4175a5
0x4175a5:	mov	r12d, 0xd
0x4175ab:	mov	qword ptr [rdi], rbx
0x4175ae:	jmp	0x417516
F 0x413749
0x413749:	push	qword ptr [rbp - 0x1c]
0x41374c:	pop	rbx
0x41374d:	ret	
F 0x418eab
0x418eab:	add	byte ptr [rcx - 0x77], cl
0x418eae:	pop	rbp
0x418eaf:	or	byte ptr [rbx + 0x5d], bl
0x418eb2:	pop	r12
0x418eb4:	pop	r13
0x418eb6:	pop	r14
0x418eb8:	ret	
F 0x41ad79
0x41ad79:	mov	qword ptr [rbx + 0x20], rbp
0x41ad7d:	add	rsp, 8
0x41ad81:	pop	rbx
0x41ad82:	pop	rbp
0x41ad83:	ret	
F 0x41b20a
0x41b20a:	sub	rax, r12
0x41b20d:	mov	byte ptr [rbp], 0
0x41b211:	add	rsp, 8
0x41b215:	pop	rbx
0x41b216:	pop	rbp
0x41b217:	pop	r12
0x41b219:	pop	r13
0x41b21b:	ret	
F 0x4126a6
0x41175e:	mov	eax, esp
0x411760:	pop	rbx
0x411761:	pop	rbp
0x411762:	pop	r12
0x411764:	pop	r13
0x411766:	pop	r14
0x411768:	pop	r15
0x41176a:	ret	
F 0x41757f
0x41757f:	xchg	eax, esi
0x417580:	add	rbx, 1
0x417584:	mov	r12d, 0xc
0x41758a:	mov	qword ptr [rdi], rbx
0x41758d:	jmp	0x417516
F 0x40d806
0x404016:	ret	
F 0x419ae3
0x419ae3:	test	byte ptr [rdi + rax], bh
0x419ae7:	add	bh, al
0x419ae9:	or	al, 1
0x419aec:	add	byte ptr [rax], al
0x419aee:	add	byte ptr [rcx - 0x7d], cl
0x419af1:	ret	0x4818
F 0x414861
0x414861:	add	dword ptr [r8 - 0x77], ecx
0x414865:	ret	
F 0x4125c8
0x4125c8:	adc	byte ptr [rax - 0x7d], cl
0x4125cb:	ret	
F 0x40d75d
0x40d75d:	adc	dword ptr [rip + 0x2694d], ebp
0x40d763:	add	rsp, 8
0x40d767:	ret	
F 0x4172a1
0x404016:	ret	
F 0x40e9b4
0x40e9b4:	adc	dword ptr [rcx], eax
0x40e9b6:	add	bl, al
0x40e9b8:	nop	dword ptr [rax + rax]
0x40e9c0:	lea	rax, [rip + 0x10c52]
0x40e9c7:	ret	
F 0x404eca
0x404eca:	add	byte ptr [rbx + 0x5d], bl
0x404ecd:	pop	r12
0x404ecf:	pop	r13
0x404ed1:	pop	r14
0x404ed3:	pop	r15
0x404ed5:	ret	
F 0x404a67
0x4046ef:	pop	rbp
0x4046f0:	ret	
F 0x409d38
0x409d38:	add	rax, 8
0x409d3c:	mov	qword ptr [rax - 8], rsi
0x409d40:	pop	rbx
0x409d41:	ret	
F 0x4088a2
0x404016:	ret	
F 0x411f8c
0x411edc:	mov	rax, r12
0x411edf:	movsd	qword ptr [r12 + 0x10], xmm0
0x411ee6:	pop	r12
0x411ee8:	ret	
F 0x412268
0x412268:	movups	xmmword ptr [rbx + 0x28], xmm0
0x41226c:	pop	rbx
0x41226d:	ret	
F 0x4049c3
0x4049c3:	add	byte ptr [rcx + rcx*4 - 0x20], cl
0x4049c7:	pop	r12
0x4049c9:	ret	
F 0x407aa8
0x407aa8:	mov	dword ptr [rip + 0x1f7fa], 0
0x407ab2:	ret	
F 0x414171
0x414171:	mov	dword ptr [rax], edi
0x414173:	add	rsp, 0x28
0x414177:	mov	rax, r15
0x41417a:	pop	rbx
0x41417b:	pop	rbp
0x41417c:	pop	r12
0x41417e:	pop	r13
0x414180:	pop	r14
0x414182:	pop	r15
0x414184:	ret	
F 0x4139b3
0x4046b3:	nop	dword ptr [rax + rax]
0x4046b8:	ret	
F 0x41a790
0x41a790:	cmp	al, 0xd0
0x41a792:	mov	qword ptr [rdi], rcx
0x41a795:	ret	
F 0x41bbe6
0x41bbe6:	sub	eax, 0x103e5
0x41bbeb:	add	rsp, 0x18
0x41bbef:	pop	rbx
0x41bbf0:	pop	rbp
0x41bbf1:	pop	r12
0x41bbf3:	pop	r13
0x41bbf5:	pop	r14
0x41bbf7:	pop	r15
0x41bbf9:	ret	
F 0x41755c
0x41755c:	add	ch, cl
0x41755e:	xchg	eax, edx
0x41755f:	add	byte ptr [rax], al
0x417561:	add	byte ptr [rax - 0x7d], cl
0x417564:	ret	
F 0x4189ac
0x41890c:	add	byte ptr [rbp + 5], dh
0x41890f:	add	rsp, 0x28
0x418913:	ret	
F 0x40ec9f
0x40ec9f:	add	rsp, 8
0x40eca3:	movzx	eax, al
0x40eca6:	ret	
F 0x40a2a8
0x40a2a8:	mov	dh, 0xc0
0x40a2aa:	pop	rbx
0x40a2ab:	pop	rbp
0x40a2ac:	ret	
F 0x416f6f
0x416f6f:	or	byte ptr [rax - 0x77], cl
0x416f72:	ret	
F 0x41bd9c
0x41bd9c:	add	byte ptr [rax], al
0x41bd9e:	add	byte ptr [rbx - 0x76f3db94], cl
0x41bda4:	ret	
F 0x409d32
0x409d32:	xor	al, 0xd1
0x409d34:	mov	qword ptr [rcx + rdx*8], rax
0x409d38:	add	rax, 8
0x409d3c:	mov	qword ptr [rax - 8], rsi
0x409d40:	pop	rbx
0x409d41:	ret	
F 0x412053
0x412053:	movaps	xmm0, xmm2
0x412056:	orpd	xmm0, xmm3
0x41205a:	movsd	qword ptr [r12 + 0x10], xmm0
0x412061:	pop	r12
0x412063:	ret	
F 0x418eb0
0x409c3e:	pop	rbx
0x409c3f:	pop	rbp
0x409c40:	pop	r12
0x409c42:	pop	r13
0x409c44:	pop	r14
0x409c46:	ret	
F 0x408622
0x408622:	add	eax, 0x1ec89
0x408627:	add	rsp, 8
0x40862b:	pop	rbx
0x40862c:	pop	rbp
0x40862d:	ret	
F 0x40d3b9
0x40d36b:	add	al, byte ptr [rax]
0x40d36d:	add	rsp, 8
0x40d371:	pop	rbx
0x40d372:	pop	rbp
0x40d373:	ret	
F 0x404a35
0x404016:	ret	
F 0x413b8b
0x413b8b:	add	dword ptr [rax], eax
0x413b8d:	add	dword ptr [rbx + 0x44], ebx
0x413b90:	mov	eax, esi
0x413b92:	pop	rbp
0x413b93:	pop	r12
0x413b95:	pop	r13
0x413b97:	pop	r14
0x413b99:	ret	
F 0x41942e
0x404ecc:	pop	rbp
0x404ecd:	pop	r12
0x404ecf:	pop	r13
0x404ed1:	pop	r14
0x404ed3:	pop	r15
0x404ed5:	ret	
F 0x417bb9
0x417bb9:	add	byte ptr [rax], al
0x417bbb:	mov	qword ptr [rax + 8], rcx
0x417bbf:	add	rsp, 8
0x417bc3:	ret	
F 0x407bdb
0x407bdb:	jmp	0x407bbe
F 0x415f02
0x404ecf:	pop	r13
0x404ed1:	pop	r14
0x404ed3:	pop	r15
0x404ed5:	ret	
F 0x404a22
0x404a22:	mov	qword ptr [rbp + 0x10], rax
0x404a26:	mov	word ptr [rax], dx
0x404a29:	pop	rbp
0x404a2a:	ret	
F 0x41bef0
0x41b915:	pop	rbx
0x41b916:	mov	eax, r12d
0x41b919:	pop	rbp
0x41b91a:	pop	r12
0x41b91c:	pop	r13
0x41b91e:	pop	r14
0x41b920:	ret	
F 0x4142e9
0x404016:	ret	
F 0x41201a
0x411ee3:	and	al, 0x10
0x411ee6:	pop	r12
0x411ee8:	ret	
F 0x41b4a9
0x4172b9:	add	rsp, 0x18
0x4172bd:	mov	rax, r12
0x4172c0:	pop	rbx
0x4172c1:	pop	rbp
0x4172c2:	pop	r12
0x4172c4:	pop	r13
0x4172c6:	pop	r14
0x4172c8:	pop	r15
0x4172ca:	ret	
F 0x40e9c5
0x407c4a:	add	dword ptr [rax], eax
0x407c4c:	ret	
F 0x410814
0x410814:	sub	ebx, dword ptr [rbx + 0x5d]
0x410817:	ret	
F 0x419432
0x404ed0:	pop	rbp
0x404ed1:	pop	r14
0x404ed3:	pop	r15
0x404ed5:	ret	
F 0x419235
0x419235:	adc	eax, 0x2106e
0x41923a:	add	rsp, 8
0x41923e:	pop	rbx
0x41923f:	pop	rbp
0x419240:	ret	
F 0x411d81
0x404ed2:	pop	rsi
0x404ed3:	pop	r15
0x404ed5:	ret	
F 0x41199c
0x404ecb:	pop	rbx
0x404ecc:	pop	rbp
0x404ecd:	pop	r12
0x404ecf:	pop	r13
0x404ed1:	pop	r14
0x404ed3:	pop	r15
0x404ed5:	ret	
F 0x415efe
0x404ecb:	pop	rbx
0x404ecc:	pop	rbp
0x404ecd:	pop	r12
0x404ecf:	pop	r13
0x404ed1:	pop	r14
0x404ed3:	pop	r15
0x404ed5:	ret	
F 0x417b55
0x417b55:	mov	qword ptr [rip + 0x22734], rdx
0x417b5c:	mov	qword ptr [rip + 0x22745], rax
0x417b63:	add	rsp, 8
0x417b67:	ret	
F 0x4115e9
0x404ed3:	pop	r15
0x404ed5:	ret	
F 0x411fbc
0x411edc:	mov	rax, r12
0x411edf:	movsd	qword ptr [r12 + 0x10], xmm0
0x411ee6:	pop	r12
0x411ee8:	ret	
F 0x4139e4
0x4139e4:	add	eax, 0x13b07
0x4139e9:	ret	
F 0x4149c4
0x4144b3:	add	byte ptr [rax], al
0x4144b5:	pop	rbp
0x4144b6:	pop	r12
0x4144b8:	pop	r13
0x4144ba:	ret	
F 0x409f74
0x409f74:	sbb	byte ptr [rbp - 0x20], sil
0x409f78:	mov	rax, qword ptr [rax + 8]
0x409f7c:	ret	
F 0x40d3bf
0x40862b:	pop	rbx
0x40862c:	pop	rbp
0x40862d:	ret	
F 0x40ea00
0x40ea00:	lea	rax, [rip + 0x11198]
0x40ea07:	ret	
F 0x4134b7
0x40d2a3:	add	byte ptr [rax - 0x7d], cl
0x40d2a6:	ret	
F 0x41ba4d
0x404ed2:	pop	rsi
0x404ed3:	pop	r15
0x404ed5:	ret	
F 0x41b4a7
0x4172b7:	add	byte ptr [rax], al
0x4172b9:	add	rsp, 0x18
0x4172bd:	mov	rax, r12
0x4172c0:	pop	rbx
0x4172c1:	pop	rbp
0x4172c2:	pop	r12
0x4172c4:	pop	r13
0x4172c6:	pop	r14
0x4172c8:	pop	r15
0x4172ca:	ret	
F 0x41260f
0x41260f:	pop	rbx
0x412611:	ret	
F 0x418c68
0x404ecb:	pop	rbx
0x404ecc:	pop	rbp
0x404ecd:	pop	r12
0x404ecf:	pop	r13
0x404ed1:	pop	r14
0x404ed3:	pop	r15
0x404ed5:	ret	
F 0x41ab53
0x409b14:	pop	rbx
0x409b15:	pop	rbp
0x409b16:	pop	r12
0x409b18:	ret	
F 0x412094
0x412094:	addsd	xmm0, xmm2
0x412098:	orpd	xmm0, xmm3
0x41209c:	movsd	qword ptr [r12 + 0x10], xmm0
0x4120a3:	pop	r12
0x4120a5:	ret	
F 0x417562
0x417562:	add	rbx, 1
0x417566:	mov	r12d, 7
0x41756c:	mov	qword ptr [rdi], rbx
0x41756f:	jmp	0x417516
F 0x404ecc
0x404ecc:	pop	rbp
0x404ecd:	pop	r12
0x404ecf:	pop	r13
0x404ed1:	pop	r14
0x404ed3:	pop	r15
0x404ed5:	ret	
F 0x40d733
0x40d733:	movups	xmmword ptr [rip + 0x26976], xmm3
0x40d73a:	add	rsp, 8
0x40d73e:	ret	
F 0x41bd81
0x409c42:	pop	r13
0x409c44:	pop	r14
0x409c46:	ret	
F 0x40d23c
0x40a324:	adc	byte ptr [rcx + 0x5c], al
0x40a327:	ret	
F 0x41209a
0x412058:	push	rsi
0x412059:	ret	
F 0x412347
0x40460e:	pop	r12
0x404610:	ret	
F 0x416093
0x404016:	ret	
F 0x414e2e
0x404016:	ret	
F 0x4108c5
0x404ed2:	pop	rsi
0x404ed3:	pop	r15
0x404ed5:	ret	
F 0x40ea0a
0x40ea0a:	test	byte ptr [rax], al
0x40ea0c:	add	byte ptr [rax], al
0x40ea0e:	add	byte ptr [rax], al
0x40ea10:	lea	rax, [rip + 0x11179]
0x40ea17:	ret	
F 0x41396b
0x41396b:	ret	
F 0x417563
0x417563:	add	ebx, 1
0x417566:	mov	r12d, 7
0x41756c:	mov	qword ptr [rdi], rbx
0x41756f:	jmp	0x417516
F 0x4168af
0x404016:	ret	
F 0x409a84
0x409a84:	adc	eax, dword ptr [rbx + 0x1d59c05]
0x409a8a:	add	byte ptr [rcx], al
0x409a8c:	lea	rax, [rip + 0x1d58d]
0x409a93:	ret	
F 0x419eb4
0x419a61:	add	byte ptr [rcx - 0x7d], cl
0x419a64:	ret	0x4818
F 0x411f18
0x404016:	ret	
F 0x41c68a
0x409c3f:	pop	rbp
0x409c40:	pop	r12
0x409c42:	pop	r13
0x409c44:	pop	r14
0x409c46:	ret	
F 0x4108b7
0x4108b7:	add	rsp, 0x18
0x4108bb:	mov	rax, r14
0x4108be:	pop	rbx
0x4108bf:	pop	rbp
0x4108c0:	pop	r12
0x4108c2:	pop	r13
0x4108c4:	pop	r14
0x4108c6:	pop	r15
0x4108c8:	ret	
F 0x418bf4
0x404016:	ret	
F 0x40e9d5
0x407c4a:	add	dword ptr [rax], eax
0x407c4c:	ret	
F 0x407e4b
0x404eca:	add	byte ptr [rbx + 0x5d], bl
0x404ecd:	pop	r12
0x404ecf:	pop	r13
0x404ed1:	pop	r14
0x404ed3:	pop	r15
0x404ed5:	ret	
F 0x418abb
0x418abb:	add	byte ptr [rax], al
0x418abd:	add	byte ptr [rbp + 7], dh
0x418ac0:	add	rsp, 0x28
0x418ac4:	pop	rbx
0x418ac5:	pop	rbp
0x418ac6:	ret	
F 0x409d34
0x409d34:	mov	qword ptr [rcx + rdx*8], rax
0x409d38:	add	rax, 8
0x409d3c:	mov	qword ptr [rax - 8], rsi
0x409d40:	pop	rbx
0x409d41:	ret	
F 0x4103b7
0x40d99b:	pop	rbx
0x40d99c:	pop	rbp
0x40d99d:	pop	r12
0x40d99f:	pop	r13
0x40d9a1:	ret	
F 0x4152af
0x4152af:	add	eax, edx
0x4152b1:	ret	
F 0x4144ae
0x4144ae:	add	rsp, 0x130
0x4144b5:	pop	rbp
0x4144b6:	pop	r12
0x4144b8:	pop	r13
0x4144ba:	ret	
F 0x417586
0x417586:	or	al, 0
0x417588:	add	byte ptr [rax], al
0x41758a:	mov	qword ptr [rdi], rbx
0x41758d:	jmp	0x417516
F 0x407e4e
0x404ecd:	pop	r12
0x404ecf:	pop	r13
0x404ed1:	pop	r14
0x404ed3:	pop	r15
0x404ed5:	ret	
F 0x4122c4
0x4122c4:	and	al, 0x10
0x4122c6:	add	rsp, 8
0x4122ca:	pop	rbx
0x4122cb:	pop	r12
0x4122cd:	ret	
F 0x419c0f
0x419c0f:	or	byte ptr [rcx - 0x7d], cl
0x419c12:	ret	0xe918
F 0x414935
0x4066c3:	ret	0x8b48
F 0x410623
0x410623:	sete	al
0x410626:	cmovne	eax, edx
0x410629:	ret	
F 0x411444
0x404ecb:	pop	rbx
0x404ecc:	pop	rbp
0x404ecd:	pop	r12
0x404ecf:	pop	r13
0x404ed1:	pop	r14
0x404ed3:	pop	r15
0x404ed5:	ret	
F 0x40e9e8
0x40e9e8:	nop	dword ptr [rax + rax]
0x40e9f0:	lea	rax, [rip + 0x111bf]
0x40e9f7:	ret	
F 0x413743
0x413743:	cmp	ecx, dword ptr [rcx - 0x7ab7efb0]
0x413749:	push	qword ptr [rbp - 0x1c]
0x41374c:	pop	rbx
0x41374d:	ret	
F 0x41518c
0x41518c:	add	eax, 0x250bf
0x415191:	add	dword ptr [rax + 8], 1
0x415195:	add	rsp, 8
0x415199:	ret	
F 0x40e3ba
0x40460d:	pop	rbp
0x40460e:	pop	r12
0x404610:	ret	
F 0x4166ce
0x409b14:	pop	rbx
0x409b15:	pop	rbp
0x409b16:	pop	r12
0x409b18:	ret	
F 0x41a721
0x41a721:	add	dword ptr [rax], eax
0x41a723:	mov	qword ptr [rip + 0x117f6], rdx
0x41a72a:	add	rsp, 0x18
0x41a72e:	pop	rbx
0x41a72f:	pop	rbp
0x41a730:	ret	
F 0x414d93
0x404016:	ret	
F 0x409c50
0x409c50:	mov	qword ptr [r14 + r12*8], rax
0x409c54:	mov	rax, rbx
0x409c57:	pop	rbx
0x409c58:	pop	rbp
0x409c59:	pop	r12
0x409c5b:	pop	r13
0x409c5d:	pop	r14
0x409c5f:	ret	
F 0x4168ed
0x414178:	mov	eax, edi
0x41417a:	pop	rbx
0x41417b:	pop	rbp
0x41417c:	pop	r12
0x41417e:	pop	r13
0x414180:	pop	r14
0x414182:	pop	r15
0x414184:	ret	
F 0x4138ce
0x404676:	add	byte ptr [rax], al
0x404678:	ret	
F 0x40e9ca
0x40e9ca:	test	byte ptr [rax], al
0x40e9cc:	add	byte ptr [rax], al
0x40e9ce:	add	byte ptr [rax], al
0x40e9d0:	lea	rax, [rip + 0x111e5]
0x40e9d7:	ret	
F 0x409c37
0x409c37:	mov	qword ptr [r13], rax
0x409c3b:	mov	rax, rbx
0x409c3e:	pop	rbx
0x409c3f:	pop	rbp
0x409c40:	pop	r12
0x409c42:	pop	r13
0x409c44:	pop	r14
0x409c46:	ret	
F 0x4124fd
0x404016:	ret	
F 0x41a849
0x416e42:	add	rsp, 8
0x416e46:	pop	rbx
0x416e47:	pop	rbp
0x416e48:	pop	r12
0x416e4a:	pop	r13
0x416e4c:	ret	
F 0x40f17b
0x404ed0:	pop	rbp
0x404ed1:	pop	r14
0x404ed3:	pop	r15
0x404ed5:	ret	
F 0x40ec5f
0x404ed3:	pop	r15
0x404ed5:	ret	
F 0x4108c0
0x404ecd:	pop	r12
0x404ecf:	pop	r13
0x404ed1:	pop	r14
0x404ed3:	pop	r15
0x404ed5:	ret	
F 0x410baf
0x404ecb:	pop	rbx
0x404ecc:	pop	rbp
0x404ecd:	pop	r12
0x404ecf:	pop	r13
0x404ed1:	pop	r14
0x404ed3:	pop	r15
0x404ed5:	ret	
F 0x404ed3
0x404ed3:	pop	r15
0x404ed5:	ret	
F 0x413767
0x413767:	add	byte ptr [rbx + rcx*4 + 0x42], cl
0x41376b:	adc	byte ptr [rax - 0x7d], cl
0x41376e:	ret	0x4d10
F 0x4120a2
0x40a324:	adc	byte ptr [rcx + 0x5c], al
0x40a327:	ret	
F 0x41a535
0x404ed3:	pop	r15
0x404ed5:	ret	
F 0x40a4a3
0x404ecf:	pop	r13
0x404ed1:	pop	r14
0x404ed3:	pop	r15
0x404ed5:	ret	
F 0x40e998
0x40e998:	nop	dword ptr [rax + rax]
0x40e9a0:	lea	rax, [rip + 0x111fe]
0x40e9a7:	ret	
F 0x41c0af
0x40ec09:	adc	byte ptr [rax - 0x77], cl
0x40ec0c:	ret	
F 0x40d60b
0x40d60b:	add	bh, al
0x40d60d:	or	byte ptr [rip - 0x39000000], al
0x40d614:	add	byte ptr [rbp], cl
0x40d617:	add	byte ptr [rax], al
0x40d619:	pop	rbx
0x40d61a:	ret	
F 0x417d1c
0x417d1c:	mov	eax, 0xe
0x417d21:	pop	rbx
0x417d22:	pop	rbp
0x417d23:	pop	r12
0x417d25:	pop	r13
0x417d27:	pop	r14
0x417d29:	pop	r15
0x417d2b:	ret	
F 0x418eb7
0x409c45:	pop	rsi
0x409c46:	ret	
F 0x419aee
0x419a61:	add	byte ptr [rcx - 0x7d], cl
0x419a64:	ret	0x4818
F 0x41061d
0x41061d:	add	byte ptr [rax], al
0x41061f:	pop	rbx
0x410620:	test	dil, dil
0x410623:	sete	al
0x410626:	cmovne	eax, edx
0x410629:	ret	
F 0x41755f
0x4113cd:	add	byte ptr [rax], al
0x4113cf:	add	byte ptr [rax - 0x7d], cl
0x4113d2:	ret	
F 0x4046ad
0x4046ad:	sal	byte ptr [rax + rcx - 1], 0xe0
0x4046b2:	nop	word ptr [rax + rax]
0x4046b8:	ret	
F 0x41919e
0x404012:	add	rsp, 8
0x404016:	ret	
