T 0x415c2d
0x415c2d:	add	eax, 0x21fce
0x415c32:	pop	r12
0x415c34:	ret	
T 0x423c83
0x4158e3:	mov	rax, r12
0x4158e6:	pop	r12
0x4158e8:	ret	
T 0x4144ce
0x412da9:	pop	r12
0x412dab:	ret	
T 0x4244c3
0x4158e3:	mov	rax, r12
0x4158e6:	pop	r12
0x4158e8:	ret	
T 0x4206e6
0x412da9:	pop	r12
0x412dab:	ret	
T 0x41cc33
0x4158e3:	mov	rax, r12
0x4158e6:	pop	r12
0x4158e8:	ret	
T 0x412da9
0x412da9:	pop	r12
0x412dab:	ret	
T 0x420c73
0x4158e3:	mov	rax, r12
0x4158e6:	pop	r12
0x4158e8:	ret	
T 0x41bae6
0x412da9:	pop	r12
0x412dab:	ret	
T 0x41db63
0x4158e3:	mov	rax, r12
0x4158e6:	pop	r12
0x4158e8:	ret	
T 0x41cc36
0x412da9:	pop	r12
0x412dab:	ret	
T 0x41bae3
0x4158e3:	mov	rax, r12
0x4158e6:	pop	r12
0x4158e8:	ret	
T 0x41fb83
0x4158e3:	mov	rax, r12
0x4158e6:	pop	r12
0x4158e8:	ret	
T 0x414790
0x412da9:	pop	r12
0x412dab:	ret	
T 0x419b03
0x4158e3:	mov	rax, r12
0x4158e6:	pop	r12
0x4158e8:	ret	
T 0x4223b6
0x412da9:	pop	r12
0x412dab:	ret	
T 0x425233
0x4158e3:	mov	rax, r12
0x4158e6:	pop	r12
0x4158e8:	ret	
T 0x422cd3
0x4158e3:	mov	rax, r12
0x4158e6:	pop	r12
0x4158e8:	ret	
T 0x418b9d
0x412da9:	pop	r12
0x412dab:	ret	
T 0x41ea93
0x4158e3:	mov	rax, r12
0x4158e6:	pop	r12
0x4158e8:	ret	
T 0x4158e3
0x4158e3:	mov	rax, r12
0x4158e6:	pop	r12
0x4158e8:	ret	
T 0x418a13
0x412da9:	pop	r12
0x412dab:	ret	
T 0x41c5c3
0x4158e3:	mov	rax, r12
0x4158e6:	pop	r12
0x4158e8:	ret	
T 0x41ce8a
0x412da9:	pop	r12
0x412dab:	ret	
T 0x4223b3
0x4158e3:	mov	rax, r12
0x4158e6:	pop	r12
0x4158e8:	ret	
T 0x42055e
0x412da9:	pop	r12
0x412dab:	ret	
T 0x4206e3
0x4158e3:	mov	rax, r12
0x4158e6:	pop	r12
0x4158e8:	ret	
T 0x414836
0x412da9:	pop	r12
0x412dab:	ret	
T 0x421383
0x4158e3:	mov	rax, r12
0x4158e6:	pop	r12
0x4158e8:	ret	
T 0x4158e6
0x412da9:	pop	r12
0x412dab:	ret	
T 0x4183c3
0x4158e3:	mov	rax, r12
0x4158e6:	pop	r12
0x4158e8:	ret	
T 0x413634
0x412da9:	pop	r12
0x412dab:	ret	
T 0x4144ca
0x4144ca:	mov	rax, r12
0x4144cd:	pop	rbp
0x4144ce:	pop	r12
0x4144d0:	ret	
T 0x419b06
0x412da9:	pop	r12
0x412dab:	ret	
T 0x414831
0x414583:	mov	rax, r12
0x414586:	pop	rbx
0x414587:	pop	rbp
0x414588:	pop	r12
0x41458a:	ret	
T 0x42403f
0x412da9:	pop	r12
0x412dab:	ret	
T 0x414cf1
0x414583:	mov	rax, r12
0x414586:	pop	rbx
0x414587:	pop	rbp
0x414588:	pop	r12
0x41458a:	ret	
T 0x41edf6
0x412da9:	pop	r12
0x412dab:	ret	
T 0x41478b
0x414583:	mov	rax, r12
0x414586:	pop	rbx
0x414587:	pop	rbp
0x414588:	pop	r12
0x41458a:	ret	
T 0x413ae4
0x412da9:	pop	r12
0x412dab:	ret	
T 0x415551
0x414583:	mov	rax, r12
0x414586:	pop	rbx
0x414587:	pop	rbp
0x414588:	pop	r12
0x41458a:	ret	
T 0x4151d6
0x412da9:	pop	r12
0x412dab:	ret	
T 0x414583
0x414583:	mov	rax, r12
0x414586:	pop	rbx
0x414587:	pop	rbp
0x414588:	pop	r12
0x41458a:	ret	
T 0x41e4b3
0x412da9:	pop	r12
0x412dab:	ret	
T 0x4151d1
0x414583:	mov	rax, r12
0x414586:	pop	rbx
0x414587:	pop	rbp
0x414588:	pop	r12
0x41458a:	ret	
T 0x418184
0x418184:	pop	rax
0x418185:	pop	rbx
0x418186:	pop	rbp
0x418187:	pop	r12
0x418189:	pop	r13
0x41818b:	pop	r14
0x41818d:	pop	r15
0x41818f:	ret	
T 0x41d1db
0x418184:	pop	rax
0x418185:	pop	rbx
0x418186:	pop	rbp
0x418187:	pop	r12
0x418189:	pop	r13
0x41818b:	pop	r14
0x41818d:	pop	r15
0x41818f:	ret	
T 0x41fb86
0x412da9:	pop	r12
0x412dab:	ret	
T 0x41e5bb
0x41c246:	mov	rax, r12
0x41c249:	pop	rbp
0x41c24a:	pop	r12
0x41c24c:	pop	r13
0x41c24e:	pop	r14
0x41c250:	pop	r15
0x41c252:	ret	
T 0x4194ae
0x412da9:	pop	r12
0x412dab:	ret	
T 0x4144c6
0x4144c6:	add	rsp, 0x18
0x4144ca:	mov	rax, r12
0x4144cd:	pop	rbp
0x4144ce:	pop	r12
0x4144d0:	ret	
T 0x413874
0x412da9:	pop	r12
0x412dab:	ret	
T 0x41c246
0x41c246:	mov	rax, r12
0x41c249:	pop	rbp
0x41c24a:	pop	r12
0x41c24c:	pop	r13
0x41c24e:	pop	r14
0x41c250:	pop	r15
0x41c252:	ret	
T 0x423c86
0x412da9:	pop	r12
0x412dab:	ret	
T 0x4157c8
0x41503c:	mov	rax, r12
0x41503f:	pop	rbx
0x415040:	pop	rbp
0x415041:	pop	r12
0x415043:	pop	r13
0x415045:	pop	r14
0x415047:	pop	r15
0x415049:	ret	
T 0x41bf01
0x412da9:	pop	r12
0x412dab:	ret	
T 0x415448
0x41503c:	mov	rax, r12
0x41503f:	pop	rbx
0x415040:	pop	rbp
0x415041:	pop	r12
0x415043:	pop	r13
0x415045:	pop	r14
0x415047:	pop	r15
0x415049:	ret	
T 0x414cf6
0x412da9:	pop	r12
0x412dab:	ret	
T 0x41503c
0x41503c:	mov	rax, r12
0x41503f:	pop	rbx
0x415040:	pop	rbp
0x415041:	pop	r12
0x415043:	pop	r13
0x415045:	pop	r14
0x415047:	pop	r15
0x415049:	ret	
T 0x413bc5
0x41304c:	pop	r13
0x41304e:	ret	
T 0x4132d5
0x4132d5:	mov	rax, r13
0x4132d8:	pop	rbx
0x4132d9:	pop	rbp
0x4132da:	pop	r12
0x4132dc:	pop	r13
0x4132de:	pop	r14
0x4132e0:	pop	r15
0x4132e2:	ret	
T 0x415c32
0x412da9:	pop	r12
0x412dab:	ret	
T 0x4157c7
0x415447:	mov	rax, r12
0x41544b:	pop	rbx
0x41544c:	pop	rbp
0x41544d:	pop	r12
0x41544f:	pop	r13
0x415451:	pop	r14
0x415453:	pop	r15
0x415455:	ret	
T 0x41db66
0x412da9:	pop	r12
0x412dab:	ret	
T 0x415447
0x415447:	mov	rax, r12
0x41544b:	pop	rbx
0x41544c:	pop	rbp
0x41544d:	pop	r12
0x41544f:	pop	r13
0x415451:	pop	r14
0x415453:	pop	r15
0x415455:	ret	
T 0x420f26
0x417c31:	pop	r14
0x417c33:	ret	
T 0x414bbe
0x414bbe:	mov	rax, r14
0x414bc1:	pop	rbx
0x414bc2:	pop	rbp
0x414bc3:	pop	r12
0x414bc5:	pop	r13
0x414bc7:	pop	r14
0x414bc9:	pop	r15
0x414bcb:	ret	
T 0x420903
0x412da9:	pop	r12
0x412dab:	ret	
T 0x41503b
0x41503b:	pop	rax
0x41503c:	mov	rax, r12
0x41503f:	pop	rbx
0x415040:	pop	rbp
0x415041:	pop	r12
0x415043:	pop	r13
0x415045:	pop	r14
0x415047:	pop	r15
0x415049:	ret	
T 0x41f093
0x412da9:	pop	r12
0x412dab:	ret	
T 0x414787
0x414787:	add	rsp, 0x20
0x41478b:	mov	rax, r12
0x41478e:	pop	rbx
0x41478f:	pop	rbp
0x414790:	pop	r12
0x414792:	ret	
T 0x417c31
0x417c31:	pop	r14
0x417c33:	ret	
T 0x414bbd
0x414bbd:	pop	rax
0x414bbe:	mov	rax, r14
0x414bc1:	pop	rbx
0x414bc2:	pop	rbp
0x414bc3:	pop	r12
0x414bc5:	pop	r13
0x414bc7:	pop	r14
0x414bc9:	pop	r15
0x414bcb:	ret	
T 0x4183c6
0x412da9:	pop	r12
0x412dab:	ret	
T 0x41e5b7
0x41c242:	add	rsp, 0x20
0x41c246:	mov	rax, r12
0x41c249:	pop	rbp
0x41c24a:	pop	r12
0x41c24c:	pop	r13
0x41c24e:	pop	r14
0x41c250:	pop	r15
0x41c252:	ret	
T 0x425236
0x412da9:	pop	r12
0x412dab:	ret	
T 0x41c242
0x41c242:	add	rsp, 0x20
0x41c246:	mov	rax, r12
0x41c249:	pop	rbp
0x41c24a:	pop	r12
0x41c24c:	pop	r13
0x41c24e:	pop	r14
0x41c250:	pop	r15
0x41c252:	ret	
T 0x413ef5
0x41304c:	pop	r13
0x41304e:	ret	
T 0x4132d1
0x4132d1:	add	rsp, 0x18
0x4132d5:	mov	rax, r13
0x4132d8:	pop	rbx
0x4132d9:	pop	rbp
0x4132da:	pop	r12
0x4132dc:	pop	r13
0x4132de:	pop	r14
0x4132e0:	pop	r15
0x4132e2:	ret	
T 0x420a9c
0x412da9:	pop	r12
0x412dab:	ret	
T 0x4157c4
0x415444:	add	rsp, 0x48
0x415448:	mov	rax, r12
0x41544b:	pop	rbx
0x41544c:	pop	rbp
0x41544d:	pop	r12
0x41544f:	pop	r13
0x415451:	pop	r14
0x415453:	pop	r15
0x415455:	ret	
T 0x421386
0x412da9:	pop	r12
0x412dab:	ret	
T 0x415038
0x415038:	add	rsp, 0x58
0x41503c:	mov	rax, r12
0x41503f:	pop	rbx
0x415040:	pop	rbp
0x415041:	pop	r12
0x415043:	pop	r13
0x415045:	pop	r14
0x415047:	pop	r15
0x415049:	ret	
T 0x41ea96
0x412da9:	pop	r12
0x412dab:	ret	
T 0x415444
0x415444:	add	rsp, 0x48
0x415448:	mov	rax, r12
0x41544b:	pop	rbx
0x41544c:	pop	rbp
0x41544d:	pop	r12
0x41544f:	pop	r13
0x415451:	pop	r14
0x415453:	pop	r15
0x415455:	ret	
T 0x420f24
0x417c2f:	pop	r13
0x417c31:	pop	r14
0x417c33:	ret	
T 0x414bba
0x414bba:	add	rsp, 0x58
0x414bbe:	mov	rax, r14
0x414bc1:	pop	rbx
0x414bc2:	pop	rbp
0x414bc3:	pop	r12
0x414bc5:	pop	r13
0x414bc7:	pop	r14
0x414bc9:	pop	r15
0x414bcb:	ret	
F 0x423c38
0x4182b8:	add	byte ptr [rbp + 0xe], dh
0x4182bb:	add	rsp, 0x18
0x4182bf:	ret	
F 0x41f1b5
0x41f1b5:	add	byte ptr [rax - 0x77], cl
0x41f1b8:	ret	0xd2e8
F 0x422c2f
0x410016:	ret	
F 0x422f52
0x4132de:	pop	r14
0x4132e0:	pop	r15
0x4132e2:	ret	
F 0x4240c3
0x4240c3:	add	byte ptr [rcx], dh
0x4240c5:	shr	al, 0x25
0x4240c8:	ret	
F 0x41ce84
0x418b97:	add	rsp, 0x10
0x418b9b:	pop	rbx
0x418b9c:	pop	rbp
0x418b9d:	pop	r12
0x418b9f:	ret	
F 0x416a8d
0x416a8d:	scasb	al, byte ptr [rdi]
0x416a8e:	add	dword ptr [rax], eax
0x416a90:	add	byte ptr [rax - 0x77], cl
0x416a93:	ret	
F 0x4175c6
0x4175c6:	test	byte ptr [rip - 0x74fffffd], dh
0x4175cc:	add	byte ptr [rcx], bh
0x4175ce:	ret	
F 0x422446
0x41c62e:	xor	eax, eax
0x41c630:	test	edx, edx
0x41c632:	setne	al
0x41c635:	ret	
F 0x4258a7
0x410016:	ret	
F 0x423d51
0x423d51:	xor	eax, 0x141aa
0x423d56:	xor	eax, eax
0x423d58:	test	esi, esi
0x423d5a:	setne	al
0x423d5d:	ret	
F 0x419c6a
0x41849a:	setne	al
0x41849d:	ret	
F 0x420f27
0x417c32:	pop	rsi
0x417c33:	ret	
F 0x41d2ea
0x410016:	ret	
F 0x4247db
0x4132da:	pop	r12
0x4132dc:	pop	r13
0x4132de:	pop	r14
0x4132e0:	pop	r15
0x4132e2:	ret	
F 0x419c13
0x41847f:	add	byte ptr [rax], al
0x418481:	test	edx, edx
0x418483:	setne	al
0x418486:	add	rsp, 8
0x41848a:	ret	
F 0x41d1e1
0x4132dd:	pop	rbp
0x4132de:	pop	r14
0x4132e0:	pop	r15
0x4132e2:	ret	
F 0x422d1f
0x41cc88:	test	eax, eax
0x41cc8a:	setne	al
0x41cc8d:	add	rsp, 8
0x41cc91:	movzx	eax, al
0x41cc94:	ret	
F 0x41813c
0x41813c:	or	byte ptr [rax - 0x7d], cl
0x41813f:	ret	
F 0x418eff
0x410016:	ret	
F 0x420556
0x420556:	add	byte ptr [rbp + 8], dh
0x420559:	add	rsp, 0x18
0x42055d:	pop	rbp
0x42055e:	pop	r12
0x420560:	ret	
F 0x41e5be
0x4132d9:	pop	rbp
0x4132da:	pop	r12
0x4132dc:	pop	r13
0x4132de:	pop	r14
0x4132e0:	pop	r15
0x4132e2:	ret	
F 0x417dcc
0x410016:	ret	
F 0x4127c1
0x4127c1:	add	byte ptr [rbp - 0x17858b40], al
0x4127c7:	xchg	eax, ebp
0x4127c8:	ret	
F 0x41cbe6
0x4182b6:	add	byte ptr [rax], al
0x4182b8:	add	byte ptr [rbp + 0xe], dh
0x4182bb:	add	rsp, 0x18
0x4182bf:	ret	
F 0x41d5af
0x410012:	add	rsp, 8
0x410016:	ret	
F 0x423b1b
0x417ab6:	add	rsp, 0x18
0x417aba:	ret	
F 0x422140
0x41b61f:	add	rsp, 0x18
0x41b623:	pop	rbx
0x41b624:	pop	rbp
0x41b625:	ret	
F 0x420720
0x420720:	mov	edx, dword ptr [rip + 0x17722]
0x420726:	xor	eax, eax
0x420728:	test	edx, edx
0x42072a:	setne	al
0x42072d:	ret	
F 0x42149a
0x41c6ea:	test	byte ptr [rax], al
0x41c6ec:	add	byte ptr [rax], al
0x41c6ee:	add	byte ptr [rax], al
0x41c6f0:	ret	
F 0x41fd1a
0x41374c:	add	byte ptr [rax - 0x77], cl
0x41374f:	ret	
F 0x413955
0x41304c:	pop	r13
0x41304e:	ret	
F 0x415ccf
0x415ccf:	add	byte ptr [rax - 0x7d], cl
0x415cd2:	ret	
F 0x4209eb
0x417ab6:	add	rsp, 0x18
0x417aba:	ret	
F 0x41d5b3
0x410016:	ret	
F 0x41fb80
0x41fb80:	and	al, 0xff
0x41fb82:	dec	dword ptr [rcx + rcx*4 - 0x20]
0x41fb86:	pop	r12
0x41fb88:	ret	
F 0x422d1e
0x41cc87:	add	byte ptr [rbp - 0x3f6af040], al
0x41cc8d:	add	rsp, 8
0x41cc91:	movzx	eax, al
0x41cc94:	ret	
F 0x4158f1
0x4158f1:	mov	eax, dword ptr [rip + 0x22301]
0x4158f7:	ret	
F 0x4212aa
0x4212aa:	add	byte ptr [rbp + 0x73], dh
0x4212ad:	add	rsp, 0x18
0x4212b1:	pop	rbx
0x4212b2:	pop	rbp
0x4212b3:	ret	
F 0x41d2e6
0x41d2e6:	add	rsp, 0x38
0x41d2ea:	ret	
F 0x418920
0x418920:	add	rsp, 0x10
0x418924:	pop	rbp
0x418925:	ret	
F 0x413ae1
0x413631:	xor	eax, eax
0x413633:	pop	rbp
0x413634:	pop	r12
0x413636:	ret	
F 0x41ff09
0x412da7:	pop	rbx
0x412da8:	pop	rbp
0x412da9:	pop	r12
0x412dab:	ret	
F 0x4185ef
0x410016:	ret	
F 0x4177ec
0x4175cc:	add	byte ptr [rcx], bh
0x4175ce:	ret	
F 0x414318
0x414318:	add	rsp, 0x18
0x41431c:	pop	rbx
0x41431d:	pop	rbp
0x41431e:	pop	r12
0x414320:	pop	r13
0x414322:	pop	r14
0x414324:	pop	r15
0x414326:	ret	
F 0x42512b
0x417ab6:	add	rsp, 0x18
0x417aba:	ret	
F 0x41cf66
0x410016:	ret	
F 0x4205c0
0x410016:	ret	
F 0x422420
0x41cc87:	add	byte ptr [rbp - 0x3f6af040], al
0x41cc8d:	add	rsp, 8
0x41cc91:	movzx	eax, al
0x41cc94:	ret	
F 0x425234
0x4158e4:	mov	eax, esp
0x4158e6:	pop	r12
0x4158e8:	ret	
F 0x422441
0x422441:	adc	eax, 0x15a5a
0x422446:	xor	eax, eax
0x422448:	test	edx, edx
0x42244a:	setne	al
0x42244d:	ret	
F 0x41778e
0x410016:	ret	
F 0x41fb7f
0x41fb7f:	and	al, 0xff
0x41fb82:	dec	dword ptr [rcx + rcx*4 - 0x20]
0x41fb86:	pop	r12
0x41fb88:	ret	
F 0x4237d8
0x423648:	adc	byte ptr [rcx - 0x77], cl
0x42364b:	ret	
F 0x41d46c
0x41d46c:	mov	eax, r12d
0x41d46f:	pop	rbx
0x41d470:	pop	rbp
0x41d471:	pop	r12
0x41d473:	pop	r13
0x41d475:	ret	
F 0x413ef6
0x4126b1:	pop	rbp
0x4126b2:	ret	
F 0x4207ce
0x412c76:	add	byte ptr [rax], al
0x412c78:	ret	
F 0x4177ee
0x410016:	ret	
F 0x4213d3
0x41cc91:	movzx	eax, al
0x41cc94:	ret	
F 0x424964
0x410016:	ret	
F 0x41ea94
0x4158e4:	mov	eax, esp
0x4158e6:	pop	r12
0x4158e8:	ret	
F 0x4206c2
0x410016:	ret	
F 0x41000a
0x41000a:	add	byte ptr [rax - 0x7b], cl
0x41000d:	sal	byte ptr [rdx + rax - 1], 0xd0
0x410012:	add	rsp, 8
0x410016:	ret	
F 0x41cbeb
0x417ab6:	add	rsp, 0x18
0x417aba:	ret	
F 0x418b94
0x418b94:	add	byte ptr [rbp + 0x2f], dh
0x418b97:	add	rsp, 0x10
0x418b9b:	pop	rbx
0x418b9c:	pop	rbp
0x418b9d:	pop	r12
0x418b9f:	ret	
F 0x422d70
0x418498:	test	ecx, ecx
0x41849a:	setne	al
0x41849d:	ret	
F 0x41fc02
0x41fc02:	add	dword ptr [rcx], 0x100
0x41fc08:	add	byte ptr [rbp - 0x3f6af040], al
0x41fc0e:	add	rsp, 8
0x41fc12:	movzx	eax, al
0x41fc15:	ret	
F 0x415044
0x4132dd:	pop	rbp
0x4132de:	pop	r14
0x4132e0:	pop	r15
0x4132e2:	ret	
F 0x41db62
0x4158e2:	dec	dword ptr [rcx + rcx*4 - 0x20]
0x4158e6:	pop	r12
0x4158e8:	ret	
F 0x41a5ef
0x414071:	dec	dword ptr [rax - 0x77]
0x414074:	ret	
F 0x425232
0x4158e2:	dec	dword ptr [rcx + rcx*4 - 0x20]
0x4158e6:	pop	r12
0x4158e8:	ret	
F 0x415d0b
0x412c6f:	jmp	rax
F 0x4166b9
0x416677:	dec	dword ptr [rax - 0x77]
0x41667a:	ret	0x8548
F 0x412ce8
0x412ce8:	mov	byte ptr [rip + 0x24eb9], 1
0x412cef:	pop	rbp
0x412cf0:	ret	
F 0x412ceb
0x412ceb:	add	r8b, byte ptr [rax]
0x412cee:	add	dword ptr [rbp - 0x3d], ebx
0x412cf1:	nop	dword ptr [rax]
0x412cf8:	ret	
F 0x415040
0x4132d9:	pop	rbp
0x4132da:	pop	r12
0x4132dc:	pop	r13
0x4132de:	pop	r14
0x4132e0:	pop	r15
0x4132e2:	ret	
F 0x4213f8
0x41c630:	test	edx, edx
0x41c632:	setne	al
0x41c635:	ret	
F 0x4213cc
0x41cc8a:	setne	al
0x41cc8d:	add	rsp, 8
0x41cc91:	movzx	eax, al
0x41cc94:	ret	
F 0x424bc7
0x414071:	dec	dword ptr [rax - 0x77]
0x414074:	ret	
F 0x415861
0x415861:	lea	eax, [rip + 0x10d17]
0x415867:	cmove	rax, rdx
0x41586b:	ret	
F 0x4136ea
0x413049:	pop	rbp
0x41304a:	pop	r12
0x41304c:	pop	r13
0x41304e:	ret	
F 0x414cf2
0x414584:	mov	eax, esp
0x414586:	pop	rbx
0x414587:	pop	rbp
0x414588:	pop	r12
0x41458a:	ret	
F 0x41dce1
0x410016:	ret	
F 0x41d8f0
0x41d8f0:	add	byte ptr [rax], al
0x41d8f2:	add	rsp, 0x28
0x41d8f6:	pop	r12
0x41d8f8:	pop	r13
0x41d8fa:	ret	
F 0x41e9cf
0x410016:	ret	
F 0x41f49b
0x4182b6:	add	byte ptr [rax], al
0x4182b8:	add	byte ptr [rbp + 0xe], dh
0x4182bb:	add	rsp, 0x18
0x4182bf:	ret	
F 0x420cbe
0x41cc86:	add	byte ptr [rax], al
0x41cc88:	test	eax, eax
0x41cc8a:	setne	al
0x41cc8d:	add	rsp, 8
0x41cc91:	movzx	eax, al
0x41cc94:	ret	
F 0x420905
0x410016:	ret	
F 0x4141fe
0x410016:	ret	
F 0x424b9c
0x424b9c:	and	byte ptr [rdx + 0xf480000], dl
0x424ba2:	ret	0x8948
F 0x4258ae
0x4134c8:	add	rsp, 8
0x4134cc:	pop	rbx
0x4134cd:	pop	rbp
0x4134ce:	pop	r12
0x4134d0:	pop	r13
0x4134d2:	pop	r14
0x4134d4:	pop	r15
0x4134d6:	ret	
F 0x415901
0x415901:	mov	eax, dword ptr [rip + 0x222e9]
0x415907:	ret	
F 0x420708
0x420708:	add	dword ptr [rdi + 0x23], esi
0x42070b:	mov	dword ptr [rip + 0x17737], 1
0x420715:	ret	
F 0x42070b
0x42070b:	mov	dword ptr [rip + 0x17737], 1
0x420715:	ret	
F 0x420ced
0x410016:	ret	
F 0x42149c
0x412c74:	add	byte ptr [rax], al
0x412c76:	add	byte ptr [rax], al
0x412c78:	ret	
F 0x422d22
0x41cc8b:	xchg	eax, ebp
0x41cc8c:	ror	byte ptr [rax - 0x7d], 0xc4
0x41cc90:	or	byte ptr [rdi], cl
0x41cc92:	mov	dh, 0xc0
0x41cc94:	ret	
F 0x414bca
0x4132e1:	pop	rdi
0x4132e2:	ret	
F 0x41e5c5
0x4132e0:	pop	r15
0x4132e2:	ret	
F 0x415877
0x415877:	add	eax, 0x10d17
0x41587c:	ret	
F 0x4127c8
0x410016:	ret	
F 0x41fc06
0x41cc85:	add	byte ptr [rax], al
0x41cc87:	add	byte ptr [rbp - 0x3f6af040], al
0x41cc8d:	add	rsp, 8
0x41cc91:	movzx	eax, al
0x41cc94:	ret	
F 0x422940
0x410016:	ret	
F 0x415adb
0x415adb:	or	al, ch
0x415add:	pop	rdi
0x415ade:	ret	
F 0x420ccc
0x410016:	ret	
F 0x41e215
0x414071:	dec	dword ptr [rax - 0x77]
0x414074:	ret	
F 0x41818b
0x4132de:	pop	r14
0x4132e0:	pop	r15
0x4132e2:	ret	
F 0x41c635
0x410016:	ret	
F 0x41bcc5
0x410016:	ret	
F 0x41d3ca
0x410016:	ret	
F 0x413570
0x4132da:	pop	r12
0x4132dc:	pop	r13
0x4132de:	pop	r14
0x4132e0:	pop	r15
0x4132e2:	ret	
F 0x412caa
0x412caa:	add	byte ptr [rax - 0x7b], cl
0x412cad:	sal	byte ptr [rax + rcx - 1], 0xe0
0x412cb2:	nop	word ptr [rax + rax]
0x412cb8:	ret	
F 0x415e7e
0x415e7e:	add	byte ptr [rax], al
0x415e80:	mov	eax, dword ptr [rip + 0x21d82]
0x415e86:	ret	
F 0x419c17
0x418483:	setne	al
0x418486:	add	rsp, 8
0x41848a:	ret	
F 0x415b88
0x415b88:	dec	dword ptr [rax - 0x77]
0x415b8b:	add	eax, 0x22070
0x415b90:	add	rsp, 8
0x415b94:	pop	rbx
0x415b95:	pop	rbp
0x415b96:	pop	r12
0x415b98:	pop	r13
0x415b9a:	ret	
F 0x415e76
0x410016:	ret	
F 0x424685
0x410016:	ret	
F 0x41ea8f
0x41ea8f:	cmp	eax, 0x4cffff35
0x41ea94:	mov	eax, esp
0x41ea96:	pop	r12
0x41ea98:	ret	
F 0x4159bc
0x4159bc:	mov	edx, 0x8948ffff
0x4159c1:	ret	
F 0x4224ee
0x412c76:	add	byte ptr [rax], al
0x412c78:	ret	
F 0x4212b0
0x41b622:	sbb	byte ptr [rbx + 0x5d], bl
0x41b625:	ret	
F 0x41f33d
0x4182b8:	add	byte ptr [rbp + 0xe], dh
0x4182bb:	add	rsp, 0x18
0x4182bf:	ret	
F 0x4136e9
0x4136e9:	pop	rbx
0x4136ea:	pop	rbp
0x4136eb:	pop	r12
0x4136ed:	pop	r13
0x4136ef:	ret	
F 0x415cd2
0x410016:	ret	
F 0x4144c3
0x4144c3:	add	byte ptr [rbp + 0x37], dh
0x4144c6:	add	rsp, 0x18
0x4144ca:	mov	rax, r12
0x4144cd:	pop	rbp
0x4144ce:	pop	r12
0x4144d0:	ret	
F 0x41d75b
0x417ab6:	add	rsp, 0x18
0x417aba:	ret	
F 0x4258b7
0x4132dd:	pop	rbp
0x4132de:	pop	r14
0x4132e0:	pop	r15
0x4132e2:	ret	
F 0x4182b6
0x4182b6:	add	byte ptr [rax], al
0x4182b8:	add	byte ptr [rbp + 0xe], dh
0x4182bb:	add	rsp, 0x18
0x4182bf:	ret	
F 0x41e974
0x41e974:	add	eax, 0x18c48348
0x41e979:	ret	
F 0x4141d9
0x410016:	ret	
F 0x41ea48
0x410016:	ret	
F 0x412c73
0x412c73:	add	byte ptr [rax], 0
0x412c76:	add	byte ptr [rax], al
0x412c78:	ret	
F 0x41a9ba
0x4132dd:	pop	rbp
0x4132de:	pop	r14
0x4132e0:	pop	r15
0x4132e2:	ret	
F 0x41886a
0x41886a:	add	byte ptr [rbp + 0x33], dh
0x41886d:	add	rsp, 0x10
0x418871:	pop	r12
0x418873:	ret	
F 0x424648
0x41c6e8:	nop	dword ptr [rax + rax]
0x41c6f0:	ret	
F 0x41dd20
0x41dd20:	mov	edx, dword ptr [rip + 0x1a03a]
0x41dd26:	xor	eax, eax
0x41dd28:	test	edx, edx
0x41dd2a:	setne	al
0x41dd2d:	ret	
F 0x412e45
0x410012:	add	rsp, 8
0x410016:	ret	
F 0x4200e4
0x410016:	ret	
F 0x416da6
0x416da6:	ret	
F 0x42241d
0x41cc84:	add	dword ptr [rax], eax
0x41cc86:	add	byte ptr [rax], al
0x41cc88:	test	eax, eax
0x41cc8a:	setne	al
0x41cc8d:	add	rsp, 8
0x41cc91:	movzx	eax, al
0x41cc94:	ret	
F 0x4252b9
0x410016:	ret	
F 0x41c34e
0x41b3fe:	sbb	eax, 0x8c48348
0x41b403:	ret	
F 0x423d44
0x41847f:	add	byte ptr [rax], al
0x418481:	test	edx, edx
0x418483:	setne	al
0x418486:	add	rsp, 8
0x41848a:	ret	
F 0x41e5c7
0x410016:	ret	
F 0x41f3c8
0x410016:	ret	
F 0x41c619
0x412f1f:	add	dword ptr [rax], eax
0x412f21:	add	byte ptr [rax], al
0x412f23:	add	rsp, 8
0x412f27:	ret	
F 0x413fea
0x413f70:	add	byte ptr [rax], al
0x413f72:	add	byte ptr [rax - 0x77], cl
0x413f75:	ret	
F 0x423e55
0x410016:	ret	
F 0x41e5c3
0x4132de:	pop	r14
0x4132e0:	pop	r15
0x4132e2:	ret	
F 0x4151ce
0x4151ce:	sar	edi, 1
0x4151d0:	dec	dword ptr [rcx + rcx*4 - 0x20]
0x4151d4:	pop	rbx
0x4151d5:	pop	rbp
0x4151d6:	pop	r12
0x4151d8:	ret	
F 0x417774
0x417774:	test	bh, bh
0x417776:	add	dword ptr [rax], eax
0x417778:	add	byte ptr [rax + 0x63], cl
0x41777b:	ret	
F 0x4223b4
0x4158e4:	mov	eax, esp
0x4158e6:	pop	r12
0x4158e8:	ret	
F 0x413bc2
0x413049:	pop	rbp
0x41304a:	pop	r12
0x41304c:	pop	r13
0x41304e:	ret	
F 0x4252fc
0x418494:	add	dword ptr [rax], eax
0x418496:	xor	eax, eax
0x418498:	test	ecx, ecx
0x41849a:	setne	al
0x41849d:	ret	
F 0x413568
0x413504:	mov	dword ptr [rbx], eax
0x413506:	add	rsp, 8
0x41350a:	pop	rbx
0x41350b:	pop	rbp
0x41350c:	pop	r12
0x41350e:	pop	r13
0x413510:	pop	r14
0x413512:	pop	r15
0x413514:	ret	
F 0x41478e
0x412da7:	pop	rbx
0x412da8:	pop	rbp
0x412da9:	pop	r12
0x412dab:	ret	
F 0x415a64
0x410016:	ret	
F 0x41ec9b
0x41ec9b:	sub	eax, 0x8948ffff
0x41eca0:	ret	
F 0x413ae7
0x413637:	xor	eax, eax
0x413639:	ret	
F 0x42464a
0x41c6ea:	test	byte ptr [rax], al
0x41c6ec:	add	byte ptr [rax], al
0x41c6ee:	add	byte ptr [rax], al
0x41c6f0:	ret	
F 0x41fd98
0x41fd98:	add	al, ch
0x41fd9a:	sbb	al, 0xff
0x41fd9d:	dec	dword ptr [rax - 0x77]
0x41fda0:	ret	
F 0x415450
0x4132dd:	pop	rbp
0x4132de:	pop	r14
0x4132e0:	pop	r15
0x4132e2:	ret	
F 0x41fc0e
0x41cc8d:	add	rsp, 8
0x41cc91:	movzx	eax, al
0x41cc94:	ret	
F 0x41fc15
0x410016:	ret	
F 0x41ca90
0x418920:	add	rsp, 0x10
0x418924:	pop	rbp
0x418925:	ret	
F 0x41b22f
0x4126b1:	pop	rbp
0x4126b2:	ret	
F 0x4253c0
0x410016:	ret	
F 0x4183c2
0x4158e2:	dec	dword ptr [rcx + rcx*4 - 0x20]
0x4158e6:	pop	r12
0x4158e8:	ret	
F 0x416da3
0x416da3:	ror	byte ptr [rbp + rcx*4 + 0x64], 1
0x416da7:	ret	
F 0x415874
0x415874:	adc	ecx, dword ptr [rax - 0x73]
0x415877:	add	eax, 0x10d17
0x41587c:	ret	
F 0x4134cd
0x4132d9:	pop	rbp
0x4132da:	pop	r12
0x4132dc:	pop	r13
0x4132de:	pop	r14
0x4132e0:	pop	r15
0x4132e2:	ret	
F 0x4158f7
0x410016:	ret	
F 0x418187
0x4132da:	pop	r12
0x4132dc:	pop	r13
0x4132de:	pop	r14
0x4132e0:	pop	r15
0x4132e2:	ret	
F 0x424650
0x410016:	ret	
F 0x420cc4
0x41cc8c:	ror	byte ptr [rax - 0x7d], 0xc4
0x41cc90:	or	byte ptr [rdi], cl
0x41cc92:	mov	dh, 0xc0
0x41cc94:	ret	
F 0x41ce88
0x412da7:	pop	rbx
0x412da8:	pop	rbp
0x412da9:	pop	r12
0x412dab:	ret	
F 0x412dab
0x410016:	ret	
F 0x42364b
0x410016:	ret	
F 0x4190df
0x410016:	ret	
F 0x41f242
0x41e972:	add	byte ptr [rbp + 5], dh
0x41e975:	add	rsp, 0x18
0x41e979:	ret	
F 0x4157d1
0x4132de:	pop	r14
0x4132e0:	pop	r15
0x4132e2:	ret	
F 0x415e7c
0x415e7c:	add	byte ptr [rax], al
0x415e7e:	add	byte ptr [rax], al
0x415e80:	mov	eax, dword ptr [rip + 0x21d82]
0x415e86:	ret	
F 0x41c614
0x41c614:	add	eax, 0x1b6ff
0x41c619:	add	dword ptr [rax], eax
0x41c61b:	add	byte ptr [rax], al
0x41c61d:	add	rsp, 8
0x41c621:	ret	
F 0x422d6b
0x422d6b:	push	rcx
0x422d6c:	add	dword ptr [rax], eax
0x422d6e:	xor	eax, eax
0x422d70:	test	ecx, ecx
0x422d72:	setne	al
0x422d75:	ret	
F 0x414bc2
0x4132d9:	pop	rbp
0x4132da:	pop	r12
0x4132dc:	pop	r13
0x4132de:	pop	r14
0x4132e0:	pop	r15
0x4132e2:	ret	
F 0x41c249
0x4132d9:	pop	rbp
0x4132da:	pop	r12
0x4132dc:	pop	r13
0x4132de:	pop	r14
0x4132e0:	pop	r15
0x4132e2:	ret	
F 0x41f3c3
0x418920:	add	rsp, 0x10
0x418924:	pop	rbp
0x418925:	ret	
F 0x424418
0x4182b8:	add	byte ptr [rbp + 0xe], dh
0x4182bb:	add	rsp, 0x18
0x4182bf:	ret	
F 0x4136ef
0x410016:	ret	
F 0x41e06c
0x4132da:	pop	r12
0x4132dc:	pop	r13
0x4132de:	pop	r14
0x4132e0:	pop	r15
0x4132e2:	ret	
F 0x41d463
0x41d463:	add	byte ptr [rax], al
0x41d465:	add	byte ptr [rbp + 0x49], dh
0x41d468:	add	rsp, 0x28
0x41d46c:	mov	eax, r12d
0x41d46f:	pop	rbx
0x41d470:	pop	rbp
0x41d471:	pop	r12
0x41d473:	pop	r13
0x41d475:	ret	
F 0x422025
0x417ab6:	add	rsp, 0x18
0x417aba:	ret	
F 0x422f4e
0x4132da:	pop	r12
0x4132dc:	pop	r13
0x4132de:	pop	r14
0x4132e0:	pop	r15
0x4132e2:	ret	
F 0x410012
0x410012:	add	rsp, 8
0x410016:	ret	
F 0x419b00
0x419b00:	test	bh, bh
0x419b02:	dec	dword ptr [rcx + rcx*4 - 0x20]
0x419b06:	pop	r12
0x419b08:	ret	
F 0x418477
0x418477:	mov	dword ptr [rip + 0x1f793], 1
0x418481:	test	edx, edx
0x418483:	setne	al
0x418486:	add	rsp, 8
0x41848a:	ret	
F 0x41907b
0x417ab6:	add	rsp, 0x18
0x417aba:	ret	
F 0x4148e9
0x410016:	ret	
F 0x413578
0x410016:	ret	
F 0x413ae6
0x410016:	ret	
F 0x423d3e
0x423d3e:	mov	esi, 0x1000141
0x423d43:	add	byte ptr [rax], al
0x423d45:	add	byte ptr [rbp - 0x3f6af02e], al
0x423d4b:	add	rsp, 8
0x423d4f:	ret	
F 0x4151d0
0x414582:	dec	dword ptr [rcx + rcx*4 - 0x20]
0x414586:	pop	rbx
0x414587:	pop	rbp
0x414588:	pop	r12
0x41458a:	ret	
F 0x420728
0x41c630:	test	edx, edx
0x41c632:	setne	al
0x41c635:	ret	
F 0x413eec
0x41394c:	sbb	eax, 0x18c48348
0x413951:	pop	rbx
0x413952:	pop	rbp
0x413953:	pop	r12
0x413955:	pop	r13
0x413957:	ret	
F 0x415e6f
0x415e6f:	nop	
0x415e70:	mov	dword ptr [rip + 0x21d92], edi
0x415e76:	ret	
F 0x417439
0x410016:	ret	
F 0x425008
0x4182b8:	add	byte ptr [rbp + 0xe], dh
0x4182bb:	add	rsp, 0x18
0x4182bf:	ret	
F 0x41848a
0x410016:	ret	
F 0x419231
0x418920:	add	rsp, 0x10
0x418924:	pop	rbp
0x418925:	ret	
F 0x412c6f
0x412c6f:	jmp	rax
F 0x41d8fa
0x410016:	ret	
F 0x421809
0x410016:	ret	
F 0x41d474
0x4126b1:	pop	rbp
0x4126b2:	ret	
F 0x4134d3
0x4132df:	pop	rsi
0x4132e0:	pop	r15
0x4132e2:	ret	
F 0x413044
0x413044:	add	rsp, 0x10
0x413049:	pop	rbp
0x41304a:	pop	r12
0x41304c:	pop	r13
0x41304e:	ret	
F 0x41f245
0x417ab6:	add	rsp, 0x18
0x417aba:	ret	
F 0x420ce0
0x420ce0:	mov	edx, dword ptr [rip + 0x1717a]
0x420ce6:	xor	eax, eax
0x420ce8:	test	edx, edx
0x420cea:	setne	al
0x420ced:	ret	
F 0x4207ca
0x41c6ea:	test	byte ptr [rax], al
0x41c6ec:	add	byte ptr [rax], al
0x41c6ee:	add	byte ptr [rax], al
0x41c6f0:	ret	
F 0x423d4f
0x410016:	ret	
F 0x41d475
0x410016:	ret	
F 0x42242d
0x410016:	ret	
F 0x420705
0x420705:	add	byte ptr [rbx + 0x237701f8], al
0x42070b:	mov	dword ptr [rip + 0x17737], 1
0x420715:	ret	
F 0x4247e0
0x4132df:	pop	rsi
0x4132e0:	pop	r15
0x4132e2:	ret	
F 0x4223b8
0x410016:	ret	
F 0x424539
0x424539:	add	eax, 0x139fa
0x42453e:	add	dword ptr [rax], eax
0x424540:	add	byte ptr [rax], al
0x424542:	test	edx, edx
0x424544:	setne	al
0x424547:	add	rsp, 8
0x42454b:	ret	
F 0x42163a
0x42163a:	add	rsp, 0x78
0x42163e:	pop	rbx
0x42163f:	pop	rbp
0x421640:	pop	r12
0x421642:	pop	r13
0x421644:	pop	r14
0x421646:	pop	r15
0x421648:	ret	
F 0x41cca5
0x410016:	ret	
F 0x415858
0x415858:	dec	dword ptr [rax - 0x73]
0x41585b:	adc	eax, 0x10d0e
0x415860:	lea	rax, [rip + 0x10d17]
0x415867:	cmove	rax, rdx
0x41586b:	ret	
F 0x41667a
0x41667a:	ret	0x8548
F 0x414835
0x412da8:	pop	rbp
0x412da9:	pop	r12
0x412dab:	ret	
F 0x41c57b
0x417ab6:	add	rsp, 0x18
0x417aba:	ret	
F 0x415b98
0x41304c:	pop	r13
0x41304e:	ret	
F 0x42403c
0x418b9a:	adc	byte ptr [rbx + 0x5d], bl
0x418b9d:	pop	r12
0x418b9f:	ret	
F 0x41817f
0x41817f:	add	byte ptr [rax], al
0x418181:	add	rsp, 0x58
0x418185:	pop	rbx
0x418186:	pop	rbp
0x418187:	pop	r12
0x418189:	pop	r13
0x41818b:	pop	r14
0x41818d:	pop	r15
0x41818f:	ret	
F 0x412ce9
0x412ce9:	add	eax, 0x24eb9
0x412cee:	add	dword ptr [rbp - 0x3d], ebx
0x412cf1:	nop	dword ptr [rax]
0x412cf8:	ret	
F 0x415e69
0x415e69:	test	byte ptr [rax], al
0x415e6b:	add	byte ptr [rax], al
0x415e6d:	add	byte ptr [rax], al
0x415e6f:	nop	
0x415e70:	mov	dword ptr [rip + 0x21d92], edi
0x415e76:	ret	
F 0x4253bc
0x412c74:	add	byte ptr [rax], al
0x412c76:	add	byte ptr [rax], al
0x412c78:	ret	
F 0x42268d
0x42268d:	add	byte ptr [rax], al
0x42268f:	add	rsp, 0x28
0x422693:	pop	rbx
0x422694:	pop	rbp
0x422695:	pop	r12
0x422697:	pop	r13
0x422699:	pop	r14
0x42269b:	pop	r15
0x42269d:	ret	
F 0x415a4a
0x415a4a:	add	byte ptr [rax], al
0x415a4c:	add	byte ptr [rdi + 0xe], bh
0x415a4f:	mov	eax, esi
0x415a51:	sub	eax, ecx
0x415a53:	ret	
F 0x420cc3
0x41cc8b:	xchg	eax, ebp
0x41cc8c:	ror	byte ptr [rax - 0x7d], 0xc4
0x41cc90:	or	byte ptr [rdi], cl
0x41cc92:	mov	dh, 0xc0
0x41cc94:	ret	
F 0x415e67
0x415e67:	nop	dword ptr [rax + rax]
0x415e6f:	nop	
0x415e70:	mov	dword ptr [rip + 0x21d92], edi
0x415e76:	ret	
F 0x4224ea
0x41c6ea:	test	byte ptr [rax], al
0x41c6ec:	add	byte ptr [rax], al
0x41c6ee:	add	byte ptr [rax], al
0x41c6f0:	ret	
F 0x413879
0x410016:	ret	
F 0x423648
0x423648:	adc	byte ptr [rcx - 0x77], cl
0x42364b:	ret	
F 0x423d3c
0x423d3c:	mov	dword ptr [rip + 0x141be], 1
0x423d46:	test	edx, edx
0x423d48:	setne	al
0x423d4b:	add	rsp, 8
0x423d4f:	ret	
F 0x421b8f
0x410016:	ret	
F 0x419235
0x4126b1:	pop	rbp
0x4126b2:	ret	
F 0x41bc98
0x410016:	ret	
F 0x412da3
0x412da3:	add	rsp, 0x60
0x412da7:	pop	rbx
0x412da8:	pop	rbp
0x412da9:	pop	r12
0x412dab:	ret	
F 0x424fa6
0x4182b6:	add	byte ptr [rax], al
0x4182b8:	add	byte ptr [rbp + 0xe], dh
0x4182bb:	add	rsp, 0x18
0x4182bf:	ret	
F 0x4173ef
0x410016:	ret	
F 0x41e4ab
0x418a0b:	add	byte ptr [rbp + 0x3a], dh
0x418a0e:	add	rsp, 0x18
0x418a12:	pop	rbp
0x418a13:	pop	r12
0x418a15:	ret	
F 0x4186c4
0x4186c4:	pop	rbx
0x4186c5:	pop	rbp
0x4186c6:	ret	
F 0x418181
0x418181:	add	rsp, 0x58
0x418185:	pop	rbx
0x418186:	pop	rbp
0x418187:	pop	r12
0x418189:	pop	r13
0x41818b:	pop	r14
0x41818d:	pop	r15
0x41818f:	ret	
F 0x424542
0x418481:	test	edx, edx
0x418483:	setne	al
0x418486:	add	rsp, 8
0x41848a:	ret	
F 0x42055d
0x412da8:	pop	rbp
0x412da9:	pop	r12
0x412dab:	ret	
F 0x415f7c
0x41374c:	add	byte ptr [rax - 0x77], cl
0x41374f:	ret	
F 0x415e84
0x4158f5:	add	al, byte ptr [rax]
0x4158f7:	ret	
F 0x41f630
0x417ab6:	add	rsp, 0x18
0x417aba:	ret	
F 0x41a9b5
0x4132d8:	pop	rbx
0x4132d9:	pop	rbp
0x4132da:	pop	r12
0x4132dc:	pop	r13
0x4132de:	pop	r14
0x4132e0:	pop	r15
0x4132e2:	ret	
F 0x414bc3
0x4132da:	pop	r12
0x4132dc:	pop	r13
0x4132de:	pop	r14
0x4132e0:	pop	r15
0x4132e2:	ret	
F 0x4134d6
0x410016:	ret	
F 0x420713
0x412c76:	add	byte ptr [rax], al
0x412c78:	ret	
F 0x41c247
0x41c247:	mov	eax, esp
0x41c249:	pop	rbp
0x41c24a:	pop	r12
0x41c24c:	pop	r13
0x41c24e:	pop	r14
0x41c250:	pop	r15
0x41c252:	ret	
F 0x4134cc
0x4132d8:	pop	rbx
0x4132d9:	pop	rbp
0x4132da:	pop	r12
0x4132dc:	pop	r13
0x4132de:	pop	r14
0x4132e0:	pop	r15
0x4132e2:	ret	
F 0x41cc8a
0x41cc8a:	setne	al
0x41cc8d:	add	rsp, 8
0x41cc91:	movzx	eax, al
0x41cc94:	ret	
F 0x423bd6
0x4182b6:	add	byte ptr [rax], al
0x4182b8:	add	byte ptr [rbp + 0xe], dh
0x4182bb:	add	rsp, 0x18
0x4182bf:	ret	
F 0x41b3fe
0x41b3fe:	sbb	eax, 0x8c48348
0x41b403:	ret	
F 0x41c615
0x41c615:	push	qword ptr [rsi + 0x10001]
0x41c61b:	add	byte ptr [rax], al
0x41c61d:	add	rsp, 8
0x41c621:	ret	
F 0x41922e
0x4191a8:	add	byte ptr [rbp + 0xf], dh
0x4191ab:	add	rsp, 0x10
0x4191af:	pop	rbp
0x4191b0:	ret	
F 0x423d5a
0x41849a:	setne	al
0x41849d:	ret	
F 0x419c61
0x419c61:	xor	eax, 0x1dfea
0x419c66:	xor	eax, eax
0x419c68:	test	esi, esi
0x419c6a:	setne	al
0x419c6d:	ret	
F 0x41f4a4
0x410016:	ret	
F 0x41386f
0x41362f:	nop	
0x413630:	pop	rbx
0x413631:	xor	eax, eax
0x413633:	pop	rbp
0x413634:	pop	r12
0x413636:	ret	
F 0x4244c6
0x412da9:	pop	r12
0x412dab:	ret	
F 0x41eb02
0x41cc8d:	add	rsp, 8
0x41cc91:	movzx	eax, al
0x41cc94:	ret	
F 0x420cbc
0x41cc84:	add	dword ptr [rax], eax
0x41cc86:	add	byte ptr [rax], al
0x41cc88:	test	eax, eax
0x41cc8a:	setne	al
0x41cc8d:	add	rsp, 8
0x41cc91:	movzx	eax, al
0x41cc94:	ret	
F 0x41f634
0x410016:	ret	
F 0x413953
0x41304a:	pop	r12
0x41304c:	pop	r13
0x41304e:	ret	
F 0x415a56
0x415a56:	add	byte ptr [rax - 1], dil
0x415a5d:	ret	
F 0x41f3c7
0x4126b1:	pop	rbp
0x4126b2:	ret	
F 0x4253be
0x412c76:	add	byte ptr [rax], al
0x412c78:	ret	
F 0x412f27
0x410016:	ret	
F 0x42070c
0x42070c:	add	eax, 0x17737
0x420711:	add	dword ptr [rax], eax
0x420713:	add	byte ptr [rax], al
0x420715:	ret	
F 0x413045
0x413045:	add	rsp, 0x10
0x413049:	pop	rbp
0x41304a:	pop	r12
0x41304c:	pop	r13
0x41304e:	ret	
F 0x422cd6
0x412da9:	pop	r12
0x412dab:	ret	
F 0x413514
0x410016:	ret	
F 0x412f67
0x410016:	ret	
F 0x420cbf
0x41cc87:	add	byte ptr [rbp - 0x3f6af040], al
0x41cc8d:	add	rsp, 8
0x41cc91:	movzx	eax, al
0x41cc94:	ret	
F 0x4194ac
0x412da7:	pop	rbx
0x412da8:	pop	rbp
0x412da9:	pop	r12
0x412dab:	ret	
F 0x413504
0x413504:	mov	dword ptr [rbx], eax
0x413506:	add	rsp, 8
0x41350a:	pop	rbx
0x41350b:	pop	rbp
0x41350c:	pop	r12
0x41350e:	pop	r13
0x413510:	pop	r14
0x413512:	pop	r15
0x413514:	ret	
F 0x415edc
0x41374c:	add	byte ptr [rax - 0x77], cl
0x41374f:	ret	
F 0x423269
0x410016:	ret	
F 0x41585b
0x41585b:	adc	eax, 0x10d0e
0x415860:	lea	rax, [rip + 0x10d17]
0x415867:	cmove	rax, rdx
0x41586b:	ret	
F 0x41c953
0x41b186:	add	byte ptr [rax], al
0x41b188:	add	byte ptr [rbp + 0x32], dh
0x41b18b:	add	rsp, 0x10
0x41b18f:	pop	rbp
0x41b190:	ret	
F 0x415880
0x415880:	lea	rax, [rip + 0x10d04]
0x415887:	ret	
F 0x41bb81
0x41bb81:	mov	dword ptr [rip + 0x1c141], 1
0x41bb8b:	test	edx, edx
0x41bb8d:	setne	al
0x41bb90:	add	rsp, 8
0x41bb94:	ret	
F 0x41c5c2
0x4158e2:	dec	dword ptr [rcx + rcx*4 - 0x20]
0x4158e6:	pop	r12
0x4158e8:	ret	
F 0x41eef9
0x410016:	ret	
F 0x42506f
0x410016:	ret	
F 0x41eaff
0x41cc8a:	setne	al
0x41cc8d:	add	rsp, 8
0x41cc91:	movzx	eax, al
0x41cc94:	ret	
F 0x4252ac
0x41cc87:	add	byte ptr [rbp - 0x3f6af040], al
0x41cc8d:	add	rsp, 8
0x41cc91:	movzx	eax, al
0x41cc94:	ret	
F 0x4253ba
0x41c6ea:	test	byte ptr [rax], al
0x41c6ec:	add	byte ptr [rax], al
0x41c6ee:	add	byte ptr [rax], al
0x41c6f0:	ret	
F 0x4247de
0x4132dd:	pop	rbp
0x4132de:	pop	r14
0x4132e0:	pop	r15
0x4132e2:	ret	
F 0x422022
0x4182b8:	add	byte ptr [rbp + 0xe], dh
0x4182bb:	add	rsp, 0x18
0x4182bf:	ret	
F 0x422d68
0x422d68:	mov	ecx, dword ptr [rip + 0x15172]
0x422d6e:	xor	eax, eax
0x422d70:	test	ecx, ecx
0x422d72:	setne	al
0x422d75:	ret	
F 0x420cea
0x41849a:	setne	al
0x41849d:	ret	
F 0x41d3c6
0x410012:	add	rsp, 8
0x410016:	ret	
F 0x42071c
0x42071c:	add	byte ptr [rax], al
0x42071e:	add	byte ptr [rax], al
0x420720:	mov	edx, dword ptr [rip + 0x17722]
0x420726:	xor	eax, eax
0x420728:	test	edx, edx
0x42072a:	setne	al
0x42072d:	ret	
F 0x423740
0x410016:	ret	
F 0x413512
0x4132e0:	pop	r15
0x4132e2:	ret	
F 0x4190db
0x417ab6:	add	rsp, 0x18
0x417aba:	ret	
F 0x414834
0x412da7:	pop	rbx
0x412da8:	pop	rbp
0x412da9:	pop	r12
0x412dab:	ret	
F 0x413040
0x413040:	add	byte ptr [rax], al
0x413042:	add	byte ptr [rbp + 0x36], dh
0x413045:	add	rsp, 0x10
0x413049:	pop	rbp
0x41304a:	pop	r12
0x41304c:	pop	r13
0x41304e:	ret	
F 0x4191ab
0x418920:	add	rsp, 0x10
0x418924:	pop	rbp
0x418925:	ret	
F 0x412ce7
0x412ce7:	inc	esi
0x412ce9:	add	eax, 0x24eb9
0x412cee:	add	dword ptr [rbp - 0x3d], ebx
0x412cf1:	nop	dword ptr [rax]
0x412cf8:	ret	
F 0x4151d5
0x412da8:	pop	rbp
0x412da9:	pop	r12
0x412dab:	ret	
F 0x41591d
0x41591d:	add	byte ptr [rax], al
0x41591f:	add	byte ptr [rax - 0x75], cl
0x415922:	add	eax, 0x222b9
0x415927:	ret	
F 0x413c97
0x410016:	ret	
F 0x418868
0x418868:	add	byte ptr [rax], al
0x41886a:	add	byte ptr [rbp + 0x33], dh
0x41886d:	add	rsp, 0x10
0x418871:	pop	r12
0x418873:	ret	
F 0x422f54
0x4132e0:	pop	r15
0x4132e2:	ret	
F 0x41f249
0x410016:	ret	
F 0x415e6b
0x415e6b:	add	byte ptr [rax], al
0x415e6d:	add	byte ptr [rax], al
0x415e6f:	nop	
0x415e70:	mov	dword ptr [rip + 0x21d92], edi
0x415e76:	ret	
F 0x419c12
0x41847e:	add	byte ptr [rax], al
0x418480:	add	byte ptr [rbp - 0x3f6af02e], al
0x418486:	add	rsp, 8
0x41848a:	ret	
F 0x41e4b2
0x412da8:	pop	rbp
0x412da9:	pop	r12
0x412dab:	ret	
F 0x418a0e
0x418a0e:	add	rsp, 0x18
0x418a12:	pop	rbp
0x418a13:	pop	r12
0x418a15:	ret	
F 0x4212a8
0x4212a8:	add	byte ptr [rax], al
0x4212aa:	add	byte ptr [rbp + 0x73], dh
0x4212ad:	add	rsp, 0x18
0x4212b1:	pop	rbx
0x4212b2:	pop	rbp
0x4212b3:	ret	
F 0x41eb23
0x41eb23:	xchg	eax, edx
0x41eb24:	add	dword ptr [rax], eax
0x41eb26:	xor	eax, eax
0x41eb28:	test	edx, edx
0x41eb2a:	setne	al
0x41eb2d:	ret	
F 0x4132e1
0x4132e1:	pop	rdi
0x4132e2:	ret	
F 0x4244c2
0x4158e2:	dec	dword ptr [rcx + rcx*4 - 0x20]
0x4158e6:	pop	r12
0x4158e8:	ret	
F 0x415fbf
0x410016:	ret	
F 0x4209e8
0x4182b8:	add	byte ptr [rbp + 0xe], dh
0x4182bb:	add	rsp, 0x18
0x4182bf:	ret	
F 0x41fd9d
0x414071:	dec	dword ptr [rax - 0x77]
0x414074:	ret	
F 0x41590a
0x41590a:	test	byte ptr [rax], al
0x41590c:	add	byte ptr [rax], al
0x41590e:	add	byte ptr [rax], al
0x415910:	mov	rax, qword ptr [rip + 0x222d1]
0x415917:	ret	
F 0x41fb82
0x4158e2:	dec	dword ptr [rcx + rcx*4 - 0x20]
0x4158e6:	pop	r12
0x4158e8:	ret	
F 0x415927
0x410016:	ret	
F 0x412aca
0x412aca:	ret	0xd0
F 0x4126ab
0x4126ab:	add	rsp, 0x20
0x4126af:	xor	eax, eax
0x4126b1:	pop	rbp
0x4126b2:	ret	
F 0x41a9b6
0x4132d9:	pop	rbp
0x4132da:	pop	r12
0x4132dc:	pop	r13
0x4132de:	pop	r14
0x4132e0:	pop	r15
0x4132e2:	ret	
F 0x4204da
0x410016:	ret	
F 0x420c74
0x4158e4:	mov	eax, esp
0x4158e6:	pop	r12
0x4158e8:	ret	
F 0x415b95
0x413049:	pop	rbp
0x41304a:	pop	r12
0x41304c:	pop	r13
0x41304e:	ret	
F 0x417b5f
0x417b5f:	add	byte ptr [rbp + 0x25], dh
0x417b62:	add	rsp, 0x18
0x417b66:	ret	
F 0x420f1c
0x420f1c:	add	rsp, 0x20
0x420f20:	pop	rbx
0x420f21:	pop	rbp
0x420f22:	pop	r12
0x420f24:	pop	r13
0x420f26:	pop	r14
0x420f28:	ret	
F 0x424476
0x4182b6:	add	byte ptr [rax], al
0x4182b8:	add	byte ptr [rbp + 0xe], dh
0x4182bb:	add	rsp, 0x18
0x4182bf:	ret	
F 0x4211af
0x410016:	ret	
F 0x422448
0x41c630:	test	edx, edx
0x41c632:	setne	al
0x41c635:	ret	
F 0x41fcf8
0x410016:	ret	
F 0x41fc3d
0x410016:	ret	
F 0x420cc8
0x41cc90:	or	byte ptr [rdi], cl
0x41cc92:	mov	dh, 0xc0
0x41cc94:	ret	
F 0x420661
0x410016:	ret	
F 0x415c29
0x415c29:	pop	rbx
0x415c2a:	pop	rbp
0x415c2b:	mov	qword ptr [rip + 0x21fce], rax
0x415c32:	pop	r12
0x415c34:	ret	
F 0x418483
0x418483:	setne	al
0x418486:	add	rsp, 8
0x41848a:	ret	
F 0x41d698
0x4182b8:	add	byte ptr [rbp + 0xe], dh
0x4182bb:	add	rsp, 0x18
0x4182bf:	ret	
F 0x4140f1
0x414071:	dec	dword ptr [rax - 0x77]
0x414074:	ret	
F 0x415e80
0x415e80:	mov	eax, dword ptr [rip + 0x21d82]
0x415e86:	ret	
F 0x413950
0x4136e8:	sbb	byte ptr [rbx + 0x5d], bl
0x4136eb:	pop	r12
0x4136ed:	pop	r13
0x4136ef:	ret	
F 0x416a90
0x41374c:	add	byte ptr [rax - 0x77], cl
0x41374f:	ret	
F 0x41568b
0x414071:	dec	dword ptr [rax - 0x77]
0x414074:	ret	
F 0x421380
0x421380:	or	al, 0xff
0x421382:	dec	dword ptr [rcx + rcx*4 - 0x20]
0x421386:	pop	r12
0x421388:	ret	
F 0x4252f9
0x4252f9:	or	eax, 0x12c6a
0x4252fe:	xor	eax, eax
0x425300:	test	ecx, ecx
0x425302:	setne	al
0x425305:	ret	
F 0x419c5e
0x419c5e:	movsb	byte ptr [rdi], byte ptr [rsi]
0x419c5f:	nop	
0x419c60:	mov	esi, dword ptr [rip + 0x1dfea]
0x419c66:	xor	eax, eax
0x419c68:	test	esi, esi
0x419c6a:	setne	al
0x419c6d:	ret	
F 0x4223af
0x4223af:	sbb	eax, 0x4cfffefc
0x4223b4:	mov	eax, esp
0x4223b6:	pop	r12
0x4223b8:	ret	
F 0x4258bd
0x4258bd:	nop	dword ptr [rax]
0x4258c0:	ret	
F 0x419b08
0x410016:	ret	
F 0x4191af
0x4126b1:	pop	rbp
0x4126b2:	ret	
F 0x423d4a
0x423d4a:	ror	byte ptr [rax - 0x7d], 0xc4
0x423d4e:	or	bl, al
0x423d50:	mov	esi, dword ptr [rip + 0x141aa]
0x423d56:	xor	eax, eax
0x423d58:	test	esi, esi
0x423d5a:	setne	al
0x423d5d:	ret	
F 0x4175c7
0x4175c7:	xor	eax, 0x8b000003
0x4175cc:	add	byte ptr [rcx], bh
0x4175ce:	ret	
F 0x421388
0x410016:	ret	
F 0x4243bc
0x4243bc:	shr	al, 0x6e
0x4243bf:	ret	
F 0x421faf
0x410016:	ret	
F 0x4134d2
0x4132de:	pop	r14
0x4132e0:	pop	r15
0x4132e2:	ret	
F 0x41ea3e
0x4191a6:	add	byte ptr [rax], al
0x4191a8:	add	byte ptr [rbp + 0xf], dh
0x4191ab:	add	rsp, 0x10
0x4191af:	pop	rbp
0x4191b0:	ret	
F 0x41bbd0
0x41bbd0:	mov	esi, dword ptr [rip + 0x1c0f2]
0x41bbd6:	xor	eax, eax
0x41bbd8:	test	esi, esi
0x41bbda:	setne	al
0x41bbdd:	ret	
F 0x415906
0x415906:	add	bl, al
0x415908:	nop	dword ptr [rax + rax]
0x415910:	mov	rax, qword ptr [rip + 0x222d1]
0x415917:	ret	
F 0x41d46b
0x41d46b:	sub	byte ptr [rcx + rcx*4 - 0x20], al
0x41d46f:	pop	rbx
0x41d470:	pop	rbp
0x41d471:	pop	r12
0x41d473:	pop	r13
0x41d475:	ret	
F 0x419d68
0x410016:	ret	
F 0x41848b
0x41848b:	nop	dword ptr [rax + rax]
0x418490:	mov	ecx, dword ptr [rip + 0x1f77a]
0x418496:	xor	eax, eax
0x418498:	test	ecx, ecx
0x41849a:	setne	al
0x41849d:	ret	
F 0x41fc36
0x41c62e:	xor	eax, eax
0x41c630:	test	edx, edx
0x41c632:	setne	al
0x41c635:	ret	
F 0x4252b2
0x41cc8d:	add	rsp, 8
0x41cc91:	movzx	eax, al
0x41cc94:	ret	
F 0x417c06
0x417c06:	add	byte ptr [rax - 0x77], cl
0x417c09:	ret	0x81e8
F 0x4213d4
0x41cc92:	mov	dh, 0xc0
0x41cc94:	ret	
F 0x415e73
0x415e73:	sbb	eax, 0x66c30002
0x415e78:	nop	dword ptr [rax + rax]
0x415e80:	mov	eax, dword ptr [rip + 0x21d82]
0x415e86:	ret	
F 0x4212b3
0x410016:	ret	
F 0x4182b8
0x4182b8:	add	byte ptr [rbp + 0xe], dh
0x4182bb:	add	rsp, 0x18
0x4182bf:	ret	
F 0x415a4c
0x415a4c:	add	byte ptr [rdi + 0xe], bh
0x415a4f:	mov	eax, esi
0x415a51:	sub	eax, ecx
0x415a53:	ret	
F 0x41bb89
0x41847f:	add	byte ptr [rax], al
0x418481:	test	edx, edx
0x418483:	setne	al
0x418486:	add	rsp, 8
0x41848a:	ret	
F 0x413870
0x413630:	pop	rbx
0x413631:	xor	eax, eax
0x413633:	pop	rbp
0x413634:	pop	r12
0x413636:	ret	
F 0x415932
0x415932:	add	eax, 0x222a1
0x415937:	ret	
F 0x41e5c2
0x4132dd:	pop	rbp
0x4132de:	pop	r14
0x4132e0:	pop	r15
0x4132e2:	ret	
F 0x41e5c4
0x4132df:	pop	rsi
0x4132e0:	pop	r15
0x4132e2:	ret	
F 0x42406d
0x42406d:	shr	al, 0x7d
0x424070:	ret	
F 0x413633
0x412da8:	pop	rbp
0x412da9:	pop	r12
0x412dab:	ret	
F 0x414838
0x410016:	ret	
F 0x420d88
0x41c6e8:	nop	dword ptr [rax + rax]
0x41c6f0:	ret	
F 0x41cc8c
0x41cc8c:	ror	byte ptr [rax - 0x7d], 0xc4
0x41cc90:	or	byte ptr [rdi], cl
0x41cc92:	mov	dh, 0xc0
0x41cc94:	ret	
F 0x4186be
0x4186be:	add	byte ptr [rax], al
0x4186c0:	add	rsp, 0x28
0x4186c4:	pop	rbx
0x4186c5:	pop	rbp
0x4186c6:	ret	
F 0x41f536
0x41f536:	add	byte ptr [rbp + 0x21], dh
0x41f539:	add	rsp, 0x28
0x41f53d:	ret	
F 0x41bbdd
0x410016:	ret	
F 0x413ee8
0x413948:	add	byte ptr [rax], al
0x41394a:	add	byte ptr [rbp + 0x1d], dh
0x41394d:	add	rsp, 0x18
0x413951:	pop	rbx
0x413952:	pop	rbp
0x413953:	pop	r12
0x413955:	pop	r13
0x413957:	ret	
F 0x417c09
0x417c09:	ret	0x81e8
F 0x415555
0x412da8:	pop	rbp
0x412da9:	pop	r12
0x412dab:	ret	
F 0x42464c
0x412c74:	add	byte ptr [rax], al
0x412c76:	add	byte ptr [rax], al
0x412c78:	ret	
F 0x41ea43
0x418920:	add	rsp, 0x10
0x418924:	pop	rbp
0x418925:	ret	
F 0x41848e
0x41848e:	add	byte ptr [rax], al
0x418490:	mov	ecx, dword ptr [rip + 0x1f77a]
0x418496:	xor	eax, eax
0x418498:	test	ecx, ecx
0x41849a:	setne	al
0x41849d:	ret	
F 0x412cf3
0x412c73:	add	byte ptr [rax], 0
0x412c76:	add	byte ptr [rax], al
0x412c78:	ret	
F 0x41fc11
0x41cc90:	or	byte ptr [rdi], cl
0x41cc92:	mov	dh, 0xc0
0x41cc94:	ret	
F 0x4252af
0x41cc8a:	setne	al
0x41cc8d:	add	rsp, 8
0x41cc91:	movzx	eax, al
0x41cc94:	ret	
F 0x41a5f2
0x410016:	ret	
F 0x41544c
0x4132d9:	pop	rbp
0x4132da:	pop	r12
0x4132dc:	pop	r13
0x4132de:	pop	r14
0x4132e0:	pop	r15
0x4132e2:	ret	
F 0x41cc7a
0x41cc7a:	ret	0x1b0
F 0x41f08b
0x418a0b:	add	byte ptr [rbp + 0x3a], dh
0x418a0e:	add	rsp, 0x18
0x418a12:	pop	rbp
0x418a13:	pop	r12
0x418a15:	ret	
F 0x423d45
0x418480:	add	byte ptr [rbp - 0x3f6af02e], al
0x418486:	add	rsp, 8
0x41848a:	ret	
F 0x415d1c
0x410016:	ret	
F 0x41c23f
0x41c23f:	add	byte ptr [rbp + 0x31], dh
0x41c242:	add	rsp, 0x20
0x41c246:	mov	rax, r12
0x41c249:	pop	rbp
0x41c24a:	pop	r12
0x41c24c:	pop	r13
0x41c24e:	pop	r14
0x41c250:	pop	r15
0x41c252:	ret	
F 0x42023c
0x410c57:	ret	0
F 0x41eb22
0x41eb22:	stosb	byte ptr [rdi], al
0x41eb23:	xchg	eax, edx
0x41eb24:	add	dword ptr [rax], eax
0x41eb26:	xor	eax, eax
0x41eb28:	test	edx, edx
0x41eb2a:	setne	al
0x41eb2d:	ret	
F 0x414bcb
0x410016:	ret	
F 0x415043
0x4132dc:	pop	r13
0x4132de:	pop	r14
0x4132e0:	pop	r15
0x4132e2:	ret	
F 0x410c57
0x410c57:	ret	0
F 0x420cca
0x41cc92:	mov	dh, 0xc0
0x41cc94:	ret	
F 0x421fa8
0x4182b8:	add	byte ptr [rbp + 0xe], dh
0x4182bb:	add	rsp, 0x18
0x4182bf:	ret	
F 0x420c72
0x4158e2:	dec	dword ptr [rcx + rcx*4 - 0x20]
0x4158e6:	pop	r12
0x4158e8:	ret	
F 0x41a9b2
0x41a9b2:	add	byte ptr [rax], al
0x41a9b4:	add	byte ptr [rbx + 0x5d], bl
0x41a9b7:	pop	r12
0x41a9b9:	pop	r13
0x41a9bb:	pop	r14
0x41a9bd:	pop	r15
0x41a9bf:	ret	
F 0x422d1c
0x41cc85:	add	byte ptr [rax], al
0x41cc87:	add	byte ptr [rbp - 0x3f6af040], al
0x41cc8d:	add	rsp, 8
0x41cc91:	movzx	eax, al
0x41cc94:	ret	
F 0x421d7f
0x410016:	ret	
F 0x41406e
0x41406e:	ret	
F 0x418fbb
0x417ab6:	add	rsp, 0x18
0x417aba:	ret	
F 0x42458b
0x42458b:	add	byte ptr [rax], 0
0x42458e:	add	byte ptr [rax], al
0x424590:	mov	esi, dword ptr [rip + 0x139a2]
0x424596:	xor	eax, eax
0x424598:	test	esi, esi
0x42459a:	setne	al
0x42459d:	ret	
F 0x425665
0x410016:	ret	
F 0x41c872
0x410016:	ret	
F 0x41c24f
0x4132df:	pop	rsi
0x4132e0:	pop	r15
0x4132e2:	ret	
F 0x412ced
0x412ced:	add	byte ptr [rcx], al
0x412cef:	pop	rbp
0x412cf0:	ret	
F 0x4247e1
0x4132e0:	pop	r15
0x4132e2:	ret	
F 0x41f2db
0x417ab6:	add	rsp, 0x18
0x417aba:	ret	
F 0x422d6e
0x418496:	xor	eax, eax
0x418498:	test	ecx, ecx
0x41849a:	setne	al
0x41849d:	ret	
F 0x41def5
0x410016:	ret	
F 0x41b46f
0x410012:	add	rsp, 8
0x410016:	ret	
F 0x41d69b
0x417ab6:	add	rsp, 0x18
0x417aba:	ret	
F 0x4134cb
0x4134cb:	or	byte ptr [rbx + 0x5d], bl
0x4134ce:	pop	r12
0x4134d0:	pop	r13
0x4134d2:	pop	r14
0x4134d4:	pop	r15
0x4134d6:	ret	
F 0x4132de
0x4132de:	pop	r14
0x4132e0:	pop	r15
0x4132e2:	ret	
F 0x420a97
0x420a97:	add	rsp, 0x28
0x420a9b:	pop	rbp
0x420a9c:	pop	r12
0x420a9e:	ret	
F 0x41bbca
0x41bbca:	test	byte ptr [rax], al
0x41bbcc:	add	byte ptr [rax], al
0x41bbce:	add	byte ptr [rax], al
0x41bbd0:	mov	esi, dword ptr [rip + 0x1c0f2]
0x41bbd6:	xor	eax, eax
0x41bbd8:	test	esi, esi
0x41bbda:	setne	al
0x41bbdd:	ret	
F 0x41e073
0x4132e1:	pop	rdi
0x4132e2:	ret	
F 0x415904
0x415904:	and	al, byte ptr [rdx]
0x415906:	add	bl, al
0x415908:	nop	dword ptr [rax + rax]
0x415910:	mov	rax, qword ptr [rip + 0x222d1]
0x415917:	ret	
F 0x422020
0x4182b6:	add	byte ptr [rax], al
0x4182b8:	add	byte ptr [rbp + 0xe], dh
0x4182bb:	add	rsp, 0x18
0x4182bf:	ret	
F 0x421647
0x4132e1:	pop	rdi
0x4132e2:	ret	
F 0x41f49d
0x4182b8:	add	byte ptr [rbp + 0xe], dh
0x4182bb:	add	rsp, 0x18
0x4182bf:	ret	
F 0x413042
0x413042:	add	byte ptr [rbp + 0x36], dh
0x413045:	add	rsp, 0x10
0x413049:	pop	rbp
0x41304a:	pop	r12
0x41304c:	pop	r13
0x41304e:	ret	
F 0x41a9ac
0x41a9ac:	add	byte ptr [rax], al
0x41a9ae:	add	rsp, 0xe8
0x41a9b5:	pop	rbx
0x41a9b6:	pop	rbp
0x41a9b7:	pop	r12
0x41a9b9:	pop	r13
0x41a9bb:	pop	r14
0x41a9bd:	pop	r15
0x41a9bf:	ret	
F 0x414316
0x414316:	add	byte ptr [rax], al
0x414318:	add	rsp, 0x18
0x41431c:	pop	rbx
0x41431d:	pop	rbp
0x41431e:	pop	r12
0x414320:	pop	r13
0x414322:	pop	r14
0x414324:	pop	r15
0x414326:	ret	
F 0x41849d
0x410016:	ret	
F 0x412cf1
0x412c71:	nop	dword ptr [rax]
0x412c78:	ret	
F 0x41edf8
0x410016:	ret	
F 0x411e72
0x411e72:	ret	0x240
F 0x4134c6
0x4134c6:	mov	dword ptr [rsi], eax
0x4134c8:	add	rsp, 8
0x4134cc:	pop	rbx
0x4134cd:	pop	rbp
0x4134ce:	pop	r12
0x4134d0:	pop	r13
0x4134d2:	pop	r14
0x4134d4:	pop	r15
0x4134d6:	ret	
F 0x423e1a
0x41c6ea:	test	byte ptr [rax], al
0x41c6ec:	add	byte ptr [rax], al
0x41c6ee:	add	byte ptr [rax], al
0x41c6f0:	ret	
F 0x41dccf
0x41dccf:	add	eax, 0x1a08c
0x41dcd4:	add	dword ptr [rax], eax
0x41dcd6:	add	byte ptr [rax], al
0x41dcd8:	test	eax, eax
0x41dcda:	pop	rbx
0x41dcdb:	setne	al
0x41dcde:	movzx	eax, al
0x41dce1:	ret	
F 0x4134d5
0x4132e1:	pop	rdi
0x4132e2:	ret	
F 0x41362f
0x41362f:	nop	
0x413630:	pop	rbx
0x413631:	xor	eax, eax
0x413633:	pop	rbp
0x413634:	pop	r12
0x413636:	ret	
F 0x415a58
0x415a58:	mov	eax, 0xffffffff
0x415a5d:	ret	
F 0x418186
0x4132d9:	pop	rbp
0x4132da:	pop	r12
0x4132dc:	pop	r13
0x4132de:	pop	r14
0x4132e0:	pop	r15
0x4132e2:	ret	
F 0x415a5f
0x415a5f:	nop	
0x415a60:	mov	eax, dword ptr [rdi]
0x415a62:	sub	eax, dword ptr [rsi]
0x415a64:	ret	
F 0x415a54
0x415a54:	nop	dword ptr [rax]
0x415a58:	mov	eax, 0xffffffff
0x415a5d:	ret	
F 0x4158e8
0x410016:	ret	
F 0x41dd2a
0x41849a:	setne	al
0x41849d:	ret	
F 0x414171
0x414071:	dec	dword ptr [rax - 0x77]
0x414074:	ret	
F 0x41e074
0x410016:	ret	
F 0x4166bc
0x41667a:	ret	0x8548
F 0x422029
0x410016:	ret	
F 0x420554
0x420554:	add	byte ptr [rax], al
0x420556:	add	byte ptr [rbp + 8], dh
0x420559:	add	rsp, 0x18
0x42055d:	pop	rbp
0x42055e:	pop	r12
0x420560:	ret	
F 0x413adf
0x41362f:	nop	
0x413630:	pop	rbx
0x413631:	xor	eax, eax
0x413633:	pop	rbp
0x413634:	pop	r12
0x413636:	ret	
F 0x424b98
0x424b98:	ror	byte ptr [rax - 0x73], 5
0x424b9c:	and	byte ptr [rdx + 0xf480000], dl
0x424ba2:	ret	0x8948
F 0x41dcd1
0x41dcd1:	movabs	al, byte ptr [0xc085000000010001]
0x41dcda:	pop	rbx
0x41dcdb:	setne	al
0x41dcde:	movzx	eax, al
0x41dce1:	ret	
F 0x41304a
0x41304a:	pop	r12
0x41304c:	pop	r13
0x41304e:	ret	
F 0x42213e
0x41b61d:	add	byte ptr [rax], al
0x41b61f:	add	rsp, 0x18
0x41b623:	pop	rbx
0x41b624:	pop	rbp
0x41b625:	ret	
F 0x41356e
0x4132d8:	pop	rbx
0x4132d9:	pop	rbp
0x4132da:	pop	r12
0x4132dc:	pop	r13
0x4132de:	pop	r14
0x4132e0:	pop	r15
0x4132e2:	ret	
F 0x41fc3a
0x41849a:	setne	al
0x41849d:	ret	
F 0x4247d5
0x4247d5:	add	rsp, 0x38
0x4247d9:	pop	rbx
0x4247da:	pop	rbp
0x4247db:	pop	r12
0x4247dd:	pop	r13
0x4247df:	pop	r14
0x4247e1:	pop	r15
0x4247e3:	ret	
F 0x4136e2
0x4136e2:	add	byte ptr [rbp + 0x38], dh
0x4136e5:	add	rsp, 0x18
0x4136e9:	pop	rbx
0x4136ea:	pop	rbp
0x4136eb:	pop	r12
0x4136ed:	pop	r13
0x4136ef:	ret	
F 0x424258
0x424258:	pop	rbx
0x424259:	ret	
F 0x417b62
0x417ab6:	add	rsp, 0x18
0x417aba:	ret	
F 0x41c24e
0x4132de:	pop	r14
0x4132e0:	pop	r15
0x4132e2:	ret	
F 0x424b93
0x424b93:	sub	eax, 0x85000092
0x424b98:	ror	byte ptr [rax - 0x73], 5
0x424b9c:	and	byte ptr [rdx + 0xf480000], dl
0x424ba2:	ret	0x8948
F 0x423b7f
0x410016:	ret	
F 0x41d467
0x41d467:	add	rsp, 0x28
0x41d46c:	mov	eax, r12d
0x41d46f:	pop	rbx
0x41d470:	pop	rbp
0x41d471:	pop	r12
0x41d473:	pop	r13
0x41d475:	ret	
F 0x417aba
0x410016:	ret	
F 0x41ee31
0x410016:	ret	
F 0x4159c1
0x410016:	ret	
F 0x41dcd4
0x41dcd4:	add	dword ptr [rax], eax
0x41dcd6:	add	byte ptr [rax], al
0x41dcd8:	test	eax, eax
0x41dcda:	pop	rbx
0x41dcdb:	setne	al
0x41dcde:	movzx	eax, al
0x41dce1:	ret	
F 0x420901
0x412da7:	pop	rbx
0x412da8:	pop	rbp
0x412da9:	pop	r12
0x412dab:	ret	
F 0x4213f1
0x4213f1:	adc	eax, 0x16a8a
0x4213f6:	xor	eax, eax
0x4213f8:	test	edx, edx
0x4213fa:	setne	al
0x4213fd:	ret	
F 0x41bd29
0x410016:	ret	
F 0x41a9bb
0x4132de:	pop	r14
0x4132e0:	pop	r15
0x4132e2:	ret	
F 0x417699
0x417699:	and	al, 0x39
0x41769b:	ret	
F 0x420f22
0x417c2d:	pop	r12
0x417c2f:	pop	r13
0x417c31:	pop	r14
0x417c33:	ret	
F 0x422d1b
0x41cc84:	add	dword ptr [rax], eax
0x41cc86:	add	byte ptr [rax], al
0x41cc88:	test	eax, eax
0x41cc8a:	setne	al
0x41cc8d:	add	rsp, 8
0x41cc91:	movzx	eax, al
0x41cc94:	ret	
F 0x424ae4
0x410016:	ret	
F 0x41394a
0x41394a:	add	byte ptr [rbp + 0x1d], dh
0x41394d:	add	rsp, 0x18
0x413951:	pop	rbx
0x413952:	pop	rbp
0x413953:	pop	r12
0x413955:	pop	r13
0x413957:	ret	
F 0x4127e3
0x4127e3:	sal	byte ptr [rdi - 0x7d], 0x3d
0x4127e8:	ret	
F 0x415454
0x4132e1:	pop	rdi
0x4132e2:	ret	
F 0x422f50
0x4132dc:	pop	r13
0x4132de:	pop	r14
0x4132e0:	pop	r15
0x4132e2:	ret	
F 0x4230d4
0x410016:	ret	
F 0x4166fe
0x41667a:	ret	0x8548
F 0x424590
0x424590:	mov	esi, dword ptr [rip + 0x139a2]
0x424596:	xor	eax, eax
0x424598:	test	esi, esi
0x42459a:	setne	al
0x42459d:	ret	
F 0x423bdb
0x417ab6:	add	rsp, 0x18
0x417aba:	ret	
F 0x4191b0
0x410016:	ret	
F 0x413f72
0x41374c:	add	byte ptr [rax - 0x77], cl
0x41374f:	ret	
F 0x421498
0x41c6e8:	nop	dword ptr [rax + rax]
0x41c6f0:	ret	
F 0x4149d2
0x4149d2:	test	byte ptr [rdx + rax], dl
0x4149d6:	add	byte ptr [rax - 0x77], cl
0x4149d9:	ret	
F 0x425006
0x4182b6:	add	byte ptr [rax], al
0x4182b8:	add	byte ptr [rbp + 0xe], dh
0x4182bb:	add	rsp, 0x18
0x4182bf:	ret	
F 0x422d27
0x41cc90:	or	byte ptr [rdi], cl
0x41cc92:	mov	dh, 0xc0
0x41cc94:	ret	
F 0x41f434
0x410016:	ret	
F 0x421644
0x4132de:	pop	r14
0x4132e0:	pop	r15
0x4132e2:	ret	
F 0x41b226
0x41b186:	add	byte ptr [rax], al
0x41b188:	add	byte ptr [rbp + 0x32], dh
0x41b18b:	add	rsp, 0x10
0x41b18f:	pop	rbp
0x41b190:	ret	
F 0x419c0b
0x419c0b:	mov	dword ptr [rip + 0x1e03f], 1
0x419c15:	test	edx, edx
0x419c17:	setne	al
0x419c1a:	add	rsp, 8
0x419c1e:	ret	
F 0x421eeb
0x417ab6:	add	rsp, 0x18
0x417aba:	ret	
F 0x4253f5
0x410016:	ret	
F 0x41d1d6
0x41817f:	add	byte ptr [rax], al
0x418181:	add	rsp, 0x58
0x418185:	pop	rbx
0x418186:	pop	rbp
0x418187:	pop	r12
0x418189:	pop	r13
0x41818b:	pop	r14
0x41818d:	pop	r15
0x41818f:	ret	
F 0x419c1e
0x410016:	ret	
F 0x41fc30
0x41fc30:	mov	edx, dword ptr [rip + 0x181ca]
0x41fc36:	xor	eax, eax
0x41fc38:	test	edx, edx
0x41fc3a:	setne	al
0x41fc3d:	ret	
F 0x410016
0x410016:	ret	
F 0x422cd8
0x410016:	ret	
F 0x418a0b
0x418a0b:	add	byte ptr [rbp + 0x3a], dh
0x418a0e:	add	rsp, 0x18
0x418a12:	pop	rbp
0x418a13:	pop	r12
0x418a15:	ret	
F 0x424540
0x41847f:	add	byte ptr [rax], al
0x418481:	test	edx, edx
0x418483:	setne	al
0x418486:	add	rsp, 8
0x41848a:	ret	
F 0x41fc31
0x41fc31:	adc	eax, 0x181ca
0x41fc36:	xor	eax, eax
0x41fc38:	test	edx, edx
0x41fc3a:	setne	al
0x41fc3d:	ret	
F 0x414eca
0x410016:	ret	
F 0x424bca
0x410016:	ret	
F 0x418870
0x418870:	adc	byte ptr [rcx + 0x5c], al
0x418873:	ret	
F 0x424591
0x424591:	xor	eax, 0x139a2
0x424596:	xor	eax, eax
0x424598:	test	esi, esi
0x42459a:	setne	al
0x42459d:	ret	
F 0x4256ee
0x410016:	ret	
F 0x413630
0x413630:	pop	rbx
0x413631:	xor	eax, eax
0x413633:	pop	rbp
0x413634:	pop	r12
0x413636:	ret	
F 0x422cd4
0x4158e4:	mov	eax, esp
0x4158e6:	pop	r12
0x4158e8:	ret	
F 0x4224e8
0x41c6e8:	nop	dword ptr [rax + rax]
0x41c6f0:	ret	
F 0x41586b
0x410016:	ret	
F 0x420900
0x418b9a:	adc	byte ptr [rbx + 0x5d], bl
0x418b9d:	pop	r12
0x418b9f:	ret	
F 0x41ca94
0x4126b1:	pop	rbp
0x4126b2:	ret	
F 0x41530b
0x414071:	dec	dword ptr [rax - 0x77]
0x414074:	ret	
F 0x4127e8
0x410016:	ret	
F 0x425300
0x418498:	test	ecx, ecx
0x41849a:	setne	al
0x41849d:	ret	
F 0x418486
0x410012:	add	rsp, 8
0x410016:	ret	
F 0x4224f0
0x410016:	ret	
F 0x415e86
0x410016:	ret	
F 0x41cd40
0x410016:	ret	
F 0x41b22b
0x418920:	add	rsp, 0x10
0x418924:	pop	rbp
0x418925:	ret	
F 0x41ec98
0x41ec98:	add	al, ch
0x41ec9a:	sub	eax, 0x8948ffff
0x41eca0:	ret	
F 0x41f1b8
0x41f1b8:	ret	0xd2e8
F 0x41777b
0x410016:	ret	
F 0x4159be
0x414071:	dec	dword ptr [rax - 0x77]
0x414074:	ret	
F 0x41f539
0x41f539:	add	rsp, 0x28
0x41f53d:	ret	
F 0x425186
0x4182b6:	add	byte ptr [rax], al
0x4182b8:	add	byte ptr [rbp + 0xe], dh
0x4182bb:	add	rsp, 0x18
0x4182bf:	ret	
F 0x41dcd0
0x41dcd0:	mov	word ptr [rax + 0x10001], fs
0x41dcd6:	add	byte ptr [rax], al
0x41dcd8:	test	eax, eax
0x41dcda:	pop	rbx
0x41dcdb:	setne	al
0x41dcde:	movzx	eax, al
0x41dce1:	ret	
F 0x4131f9
0x4131f9:	sal	byte ptr [rbp + rbp*2 + 0x48], 0x89
0x4131fe:	ret	
F 0x413576
0x4132e0:	pop	r15
0x4132e2:	ret	
F 0x41837f
0x410016:	ret	
F 0x41f092
0x412da8:	pop	rbp
0x412da9:	pop	r12
0x412dab:	ret	
F 0x415048
0x4132e1:	pop	rdi
0x4132e2:	ret	
F 0x414ec7
0x414071:	dec	dword ptr [rax - 0x77]
0x414074:	ret	
F 0x4139bc
0x41374c:	add	byte ptr [rax - 0x77], cl
0x41374f:	ret	
F 0x41edf4
0x412da7:	pop	rbx
0x412da8:	pop	rbp
0x412da9:	pop	r12
0x412dab:	ret	
F 0x4158fc
0x4158fc:	add	byte ptr [rax], al
0x4158fe:	add	byte ptr [rax], al
0x415900:	mov	rax, qword ptr [rip + 0x222e9]
0x415907:	ret	
F 0x424b96
0x424b96:	add	byte ptr [rbp + 0x58d48c0], al
0x424b9c:	and	byte ptr [rdx + 0xf480000], dl
0x424ba2:	ret	0x8948
F 0x412da7
0x412da7:	pop	rbx
0x412da8:	pop	rbp
0x412da9:	pop	r12
0x412dab:	ret	
F 0x422c86
0x4182b6:	add	byte ptr [rax], al
0x4182b8:	add	byte ptr [rbp + 0xe], dh
0x4182bb:	add	rsp, 0x18
0x4182bf:	ret	
F 0x419078
0x4182b8:	add	byte ptr [rbp + 0xe], dh
0x4182bb:	add	rsp, 0x18
0x4182bf:	ret	
F 0x415872
0x415872:	add	esi, dword ptr [rbp + 0x13]
0x415875:	lea	rax, [rip + 0x10d17]
0x41587c:	ret	
F 0x420cc5
0x41cc8d:	add	rsp, 8
0x41cc91:	movzx	eax, al
0x41cc94:	ret	
F 0x4160f2
0x4160f2:	dec	dword ptr [rax - 0x77]
0x4160f5:	add	eax, 0x21b06
0x4160fa:	add	rsp, 8
0x4160fe:	pop	rbx
0x4160ff:	pop	rbp
0x416100:	pop	r12
0x416102:	pop	r13
0x416104:	ret	
F 0x420f1a
0x420f1a:	add	byte ptr [rax], al
0x420f1c:	add	rsp, 0x20
0x420f20:	pop	rbx
0x420f21:	pop	rbp
0x420f22:	pop	r12
0x420f24:	pop	r13
0x420f26:	pop	r14
0x420f28:	ret	
F 0x41b2ce
0x418920:	add	rsp, 0x10
0x418924:	pop	rbp
0x418925:	ret	
F 0x4204d7
0x414071:	dec	dword ptr [rax - 0x77]
0x414074:	ret	
F 0x41ab43
0x410016:	ret	
F 0x41818f
0x410016:	ret	
F 0x417c25
0x417c25:	add	byte ptr [rax], r8b
0x417c28:	add	rsp, 8
0x417c2c:	pop	rbp
0x417c2d:	pop	r12
0x417c2f:	pop	r13
0x417c31:	pop	r14
0x417c33:	ret	
F 0x41edf0
0x4194a8:	add	rsp, 0x20
0x4194ac:	pop	rbx
0x4194ad:	pop	rbp
0x4194ae:	pop	r12
0x4194b0:	ret	
F 0x41fd96
0x41fd96:	add	byte ptr [rax], al
0x41fd98:	add	al, ch
0x41fd9a:	sbb	al, 0xff
0x41fd9d:	dec	dword ptr [rax - 0x77]
0x41fda0:	ret	
F 0x422e2c
0x412c74:	add	byte ptr [rax], al
0x412c76:	add	byte ptr [rax], al
0x412c78:	ret	
F 0x425238
0x410016:	ret	
F 0x4136e8
0x4136e8:	sbb	byte ptr [rbx + 0x5d], bl
0x4136eb:	pop	r12
0x4136ed:	pop	r13
0x4136ef:	ret	
F 0x41d6ff
0x410016:	ret	
F 0x41585e
0x41585e:	add	dword ptr [rax], eax
0x415860:	lea	rax, [rip + 0x10d17]
0x415867:	cmove	rax, rdx
0x41586b:	ret	
F 0x41ec1d
0x410016:	ret	
F 0x41590f
0x41590f:	add	byte ptr [rax - 0x75], cl
0x415912:	add	eax, 0x222d1
0x415917:	ret	
F 0x41cc94
0x410016:	ret	
F 0x418ef6
0x4182b6:	add	byte ptr [rax], al
0x4182b8:	add	byte ptr [rbp + 0xe], dh
0x4182bb:	add	rsp, 0x18
0x4182bf:	ret	
F 0x41eb26
0x41c62e:	xor	eax, eax
0x41c630:	test	edx, edx
0x41c632:	setne	al
0x41c635:	ret	
F 0x41592a
0x41592a:	test	byte ptr [rax], al
0x41592c:	add	byte ptr [rax], al
0x41592e:	add	byte ptr [rax], al
0x415930:	mov	rax, qword ptr [rip + 0x222a1]
0x415937:	ret	
F 0x413d12
0x413d12:	sbb	byte ptr [rax - 0x77], cl
0x413d15:	ret	
F 0x4212b2
0x4126b1:	pop	rbp
0x4126b2:	ret	
F 0x4191a8
0x4191a8:	add	byte ptr [rbp + 0xf], dh
0x4191ab:	add	rsp, 0x10
0x4191af:	pop	rbp
0x4191b0:	ret	
F 0x423d4b
0x410012:	add	rsp, 8
0x410016:	ret	
F 0x41350e
0x4132dc:	pop	r13
0x4132de:	pop	r14
0x4132e0:	pop	r15
0x4132e2:	ret	
F 0x41b403
0x410016:	ret	
F 0x41eafd
0x41cc88:	test	eax, eax
0x41cc8a:	setne	al
0x41cc8d:	add	rsp, 8
0x41cc91:	movzx	eax, al
0x41cc94:	ret	
F 0x41b188
0x41b188:	add	byte ptr [rbp + 0x32], dh
0x41b18b:	add	rsp, 0x10
0x41b18f:	pop	rbp
0x41b190:	ret	
F 0x418871
0x412da9:	pop	r12
0x412dab:	ret	
F 0x4157cb
0x4132d8:	pop	rbx
0x4132d9:	pop	rbp
0x4132da:	pop	r12
0x4132dc:	pop	r13
0x4132de:	pop	r14
0x4132e0:	pop	r15
0x4132e2:	ret	
F 0x415ccd
0x415ccd:	add	byte ptr [rax], al
0x415ccf:	add	byte ptr [rax - 0x7d], cl
0x415cd2:	ret	
F 0x415e65
0x415e65:	nop	word ptr cs:[rax + rax]
0x415e6f:	nop	
0x415e70:	mov	dword ptr [rip + 0x21d92], edi
0x415e76:	ret	
F 0x4158eb
0x4158eb:	add	byte ptr [rax], 0
0x4158ee:	add	byte ptr [rax], al
0x4158f0:	mov	rax, qword ptr [rip + 0x22301]
0x4158f7:	ret	
F 0x41a79d
0x414071:	dec	dword ptr [rax - 0x77]
0x414074:	ret	
F 0x4166dd
0x41667a:	ret	0x8548
F 0x421635
0x421635:	test	dword ptr [rbx + 7], ecx
0x421638:	add	byte ptr [rax], al
0x42163a:	add	rsp, 0x78
0x42163e:	pop	rbx
0x42163f:	pop	rbp
0x421640:	pop	r12
0x421642:	pop	r13
0x421644:	pop	r14
0x421646:	pop	r15
0x421648:	ret	
F 0x41d8f8
0x41304c:	pop	r13
0x41304e:	ret	
F 0x41fc07
0x41cc86:	add	byte ptr [rax], al
0x41cc88:	test	eax, eax
0x41cc8a:	setne	al
0x41cc8d:	add	rsp, 8
0x41cc91:	movzx	eax, al
0x41cc94:	ret	
F 0x422698
0x4132dd:	pop	rbp
0x4132de:	pop	r14
0x4132e0:	pop	r15
0x4132e2:	ret	
F 0x415049
0x410016:	ret	
F 0x42458c
0x42458c:	add	byte ptr [rax], al
0x42458e:	add	byte ptr [rax], al
0x424590:	mov	esi, dword ptr [rip + 0x139a2]
0x424596:	xor	eax, eax
0x424598:	test	esi, esi
0x42459a:	setne	al
0x42459d:	ret	
F 0x418f5b
0x417ab6:	add	rsp, 0x18
0x417aba:	ret	
F 0x4258b8
0x4132de:	pop	r14
0x4132e0:	pop	r15
0x4132e2:	ret	
F 0x4213cd
0x41cc8b:	xchg	eax, ebp
0x41cc8c:	ror	byte ptr [rax - 0x7d], 0xc4
0x41cc90:	or	byte ptr [rdi], cl
0x41cc92:	mov	dh, 0xc0
0x41cc94:	ret	
F 0x422c8f
0x410016:	ret	
F 0x425305
0x410016:	ret	
F 0x42071e
0x42071e:	add	byte ptr [rax], al
0x420720:	mov	edx, dword ptr [rip + 0x17722]
0x420726:	xor	eax, eax
0x420728:	test	edx, edx
0x42072a:	setne	al
0x42072d:	ret	
F 0x4213ed
0x4213ed:	nop	dword ptr [rax]
0x4213f0:	mov	edx, dword ptr [rip + 0x16a8a]
0x4213f6:	xor	eax, eax
0x4213f8:	test	edx, edx
0x4213fa:	setne	al
0x4213fd:	ret	
F 0x41e5bf
0x4132da:	pop	r12
0x4132dc:	pop	r13
0x4132de:	pop	r14
0x4132e0:	pop	r15
0x4132e2:	ret	
F 0x423d5d
0x410016:	ret	
F 0x413492
0x413492:	ret	0x18e8
F 0x4143ae
0x4143ae:	and	dword ptr [rcx], eax
0x4143b0:	add	byte ptr [rcx], dh
0x4143b2:	shr	al, 0x78
0x4143b5:	ret	
F 0x4208e9
0x410016:	ret	
F 0x418316
0x4182b6:	add	byte ptr [rax], al
0x4182b8:	add	byte ptr [rbp + 0xe], dh
0x4182bb:	add	rsp, 0x18
0x4182bf:	ret	
F 0x416a8e
0x416a8e:	add	dword ptr [rax], eax
0x416a90:	add	byte ptr [rax - 0x77], cl
0x416a93:	ret	
F 0x414320
0x4132dc:	pop	r13
0x4132de:	pop	r14
0x4132e0:	pop	r15
0x4132e2:	ret	
F 0x419c66
0x419c66:	xor	eax, eax
0x419c68:	test	esi, esi
0x419c6a:	setne	al
0x419c6d:	ret	
F 0x415552
0x414584:	mov	eax, esp
0x414586:	pop	rbx
0x414587:	pop	rbp
0x414588:	pop	r12
0x41458a:	ret	
F 0x41891d
0x41891d:	add	byte ptr [rbp + 0x23], dh
0x418920:	add	rsp, 0x10
0x418924:	pop	rbp
0x418925:	ret	
F 0x420a94
0x420a94:	add	byte ptr [rbp + 0x24], dh
0x420a97:	add	rsp, 0x28
0x420a9b:	pop	rbp
0x420a9c:	pop	r12
0x420a9e:	ret	
F 0x419076
0x4182b6:	add	byte ptr [rax], al
0x4182b8:	add	byte ptr [rbp + 0xe], dh
0x4182bb:	add	rsp, 0x18
0x4182bf:	ret	
F 0x41c62c
0x41c62c:	add	dword ptr [rax], eax
0x41c62e:	xor	eax, eax
0x41c630:	test	edx, edx
0x41c632:	setne	al
0x41c635:	ret	
F 0x4258b6
0x4132dc:	pop	r13
0x4132de:	pop	r14
0x4132e0:	pop	r15
0x4132e2:	ret	
F 0x4157d3
0x4132e0:	pop	r15
0x4132e2:	ret	
F 0x418a15
0x410016:	ret	
F 0x4127c3
0x4127c3:	sal	byte ptr [rdx + rdi*2 - 0x18], 0x95
0x4127c8:	ret	
F 0x4158e4
0x4158e4:	mov	eax, esp
0x4158e6:	pop	r12
0x4158e8:	ret	
F 0x41e979
0x410016:	ret	
F 0x42459d
0x410016:	ret	
F 0x4206bb
0x410016:	ret	
F 0x41a9b7
0x4132da:	pop	r12
0x4132dc:	pop	r13
0x4132de:	pop	r14
0x4132e0:	pop	r15
0x4132e2:	ret	
F 0x413bc7
0x410016:	ret	
F 0x412cb5
0x412cb5:	add	byte ptr [rax], r8b
0x412cb8:	ret	
F 0x413873
0x412da8:	pop	rbp
0x412da9:	pop	r12
0x412dab:	ret	
F 0x42438f
0x410016:	ret	
F 0x4143b0
0x4143b0:	add	byte ptr [rcx], dh
0x4143b2:	shr	al, 0x78
0x4143b5:	ret	
F 0x41fc38
0x41c630:	test	edx, edx
0x41c632:	setne	al
0x41c635:	ret	
F 0x423d52
0x423d52:	stosb	byte ptr [rdi], al
0x423d53:	add	dword ptr [r8], eax
0x423d56:	xor	eax, eax
0x423d58:	test	esi, esi
0x423d5a:	setne	al
0x423d5d:	ret	
F 0x417ab6
0x417ab6:	add	rsp, 0x18
0x417aba:	ret	
F 0x4126a9
0x4126a9:	add	byte ptr [rax], al
0x4126ab:	add	rsp, 0x20
0x4126af:	xor	eax, eax
0x4126b1:	pop	rbp
0x4126b2:	ret	
F 0x4158fe
0x4158fe:	add	byte ptr [rax], al
0x415900:	mov	rax, qword ptr [rip + 0x222e9]
0x415907:	ret	
F 0x41d468
0x41d468:	add	rsp, 0x28
0x41d46c:	mov	eax, r12d
0x41d46f:	pop	rbx
0x41d470:	pop	rbp
0x41d471:	pop	r12
0x41d473:	pop	r13
0x41d475:	ret	
F 0x41d1e2
0x4132de:	pop	r14
0x4132e0:	pop	r15
0x4132e2:	ret	
F 0x4213fd
0x410016:	ret	
F 0x41ce8c
0x410016:	ret	
F 0x415e6d
0x415e6d:	add	byte ptr [rax], al
0x415e6f:	nop	
0x415e70:	mov	dword ptr [rip + 0x21d92], edi
0x415e76:	ret	
F 0x415e64
0x415e64:	nop	word ptr cs:[rax + rax]
0x415e6f:	nop	
0x415e70:	mov	dword ptr [rip + 0x21d92], edi
0x415e76:	ret	
F 0x418a09
0x418a09:	add	byte ptr [rax], al
0x418a0b:	add	byte ptr [rbp + 0x3a], dh
0x418a0e:	add	rsp, 0x18
0x418a12:	pop	rbp
0x418a13:	pop	r12
0x418a15:	ret	
F 0x421caf
0x410016:	ret	
F 0x4224ec
0x412c74:	add	byte ptr [rax], al
0x412c76:	add	byte ptr [rax], al
0x412c78:	ret	
F 0x41d2e5
0x41d2e5:	add	eax, 0x38c48348
0x41d2ea:	ret	
F 0x4136ed
0x41304c:	pop	r13
0x41304e:	ret	
F 0x4144c1
0x4144c1:	add	byte ptr [rax], al
0x4144c3:	add	byte ptr [rbp + 0x37], dh
0x4144c6:	add	rsp, 0x18
0x4144ca:	mov	rax, r12
0x4144cd:	pop	rbp
0x4144ce:	pop	r12
0x4144d0:	ret	
F 0x41eca0
0x410016:	ret	
F 0x41b9d8
0x4182b8:	add	byte ptr [rbp + 0xe], dh
0x4182bb:	add	rsp, 0x18
0x4182bf:	ret	
F 0x412c76
0x412c76:	add	byte ptr [rax], al
0x412c78:	ret	
F 0x41eafc
0x41cc87:	add	byte ptr [rbp - 0x3f6af040], al
0x41cc8d:	add	rsp, 8
0x41cc91:	movzx	eax, al
0x41cc94:	ret	
F 0x413ae9
0x410016:	ret	
F 0x4149a8
0x414071:	dec	dword ptr [rax - 0x77]
0x414074:	ret	
F 0x415922
0x415922:	add	eax, 0x222b9
0x415927:	ret	
F 0x413877
0x413637:	xor	eax, eax
0x413639:	ret	
F 0x415550
0x414582:	dec	dword ptr [rcx + rcx*4 - 0x20]
0x414586:	pop	rbx
0x414587:	pop	rbp
0x414588:	pop	r12
0x41458a:	ret	
F 0x422f4c
0x4132d8:	pop	rbx
0x4132d9:	pop	rbp
0x4132da:	pop	r12
0x4132dc:	pop	r13
0x4132de:	pop	r14
0x4132e0:	pop	r15
0x4132e2:	ret	
F 0x422444
0x41c62c:	add	dword ptr [rax], eax
0x41c62e:	xor	eax, eax
0x41c630:	test	edx, edx
0x41c632:	setne	al
0x41c635:	ret	
F 0x41bae2
0x4158e2:	dec	dword ptr [rcx + rcx*4 - 0x20]
0x4158e6:	pop	r12
0x4158e8:	ret	
F 0x41c24c
0x4132dc:	pop	r13
0x4132de:	pop	r14
0x4132e0:	pop	r15
0x4132e2:	ret	
F 0x4186c5
0x4126b1:	pop	rbp
0x4126b2:	ret	
F 0x412f59
0x412f59:	mov	dword ptr [rip + 0x24c4d], 0
0x412f63:	add	rsp, 8
0x412f67:	ret	
F 0x4134c5
0x4134c5:	mov	qword ptr [r14], rax
0x4134c8:	add	rsp, 8
0x4134cc:	pop	rbx
0x4134cd:	pop	rbp
0x4134ce:	pop	r12
0x4134d0:	pop	r13
0x4134d2:	pop	r14
0x4134d4:	pop	r15
0x4134d6:	ret	
F 0x415b93
0x415b93:	or	byte ptr [rbx + 0x5d], bl
0x415b96:	pop	r12
0x415b98:	pop	r13
0x415b9a:	ret	
F 0x4214d5
0x410016:	ret	
F 0x4143b2
0x4143b2:	shr	al, 0x78
0x4143b5:	ret	
F 0x41c251
0x4132e1:	pop	rdi
0x4132e2:	ret	
F 0x42059e
0x41b3fe:	sbb	eax, 0x8c48348
0x41b403:	ret	
F 0x417c2f
0x417c2f:	pop	r13
0x417c31:	pop	r14
0x417c33:	ret	
F 0x41304e
0x410016:	ret	
F 0x41c95c
0x4126b1:	pop	rbp
0x4126b2:	ret	
F 0x4172f2
0x4172f2:	dec	dword ptr [rax - 0x7d]
0x4172f5:	ret	
F 0x41c612
0x41c612:	and	eax, edi
0x41c614:	add	eax, 0x1b6ff
0x41c619:	add	dword ptr [rax], eax
0x41c61b:	add	byte ptr [rax], al
0x41c61d:	add	rsp, 8
0x41c621:	ret	
F 0x414582
0x414582:	dec	dword ptr [rcx + rcx*4 - 0x20]
0x414586:	pop	rbx
0x414587:	pop	rbp
0x414588:	pop	r12
0x41458a:	ret	
F 0x413573
0x4132dd:	pop	rbp
0x4132de:	pop	r14
0x4132e0:	pop	r15
0x4132e2:	ret	
F 0x417bcd
0x417bcd:	ret	0x8d48
F 0x41e06b
0x4132d9:	pop	rbp
0x4132da:	pop	r12
0x4132dc:	pop	r13
0x4132de:	pop	r14
0x4132e0:	pop	r15
0x4132e2:	ret	
F 0x41d1dd
0x4132d9:	pop	rbp
0x4132da:	pop	r12
0x4132dc:	pop	r13
0x4132de:	pop	r14
0x4132e0:	pop	r15
0x4132e2:	ret	
F 0x41fc05
0x41cc84:	add	dword ptr [rax], eax
0x41cc86:	add	byte ptr [rax], al
0x41cc88:	test	eax, eax
0x41cc8a:	setne	al
0x41cc8d:	add	rsp, 8
0x41cc91:	movzx	eax, al
0x41cc94:	ret	
F 0x42441b
0x417ab6:	add	rsp, 0x18
0x417aba:	ret	
F 0x418925
0x410016:	ret	
F 0x41ddde
0x412c76:	add	byte ptr [rax], al
0x412c78:	ret	
F 0x41d5ae
0x41b3fe:	sbb	eax, 0x8c48348
0x41b403:	ret	
F 0x414586
0x412da7:	pop	rbx
0x412da8:	pop	rbp
0x412da9:	pop	r12
0x412dab:	ret	
F 0x415c2b
0x415c2b:	mov	qword ptr [rip + 0x21fce], rax
0x415c32:	pop	r12
0x415c34:	ret	
F 0x41c630
0x41c630:	test	edx, edx
0x41c632:	setne	al
0x41c635:	ret	
F 0x41f42d
0x4182b8:	add	byte ptr [rbp + 0xe], dh
0x4182bb:	add	rsp, 0x18
0x4182bf:	ret	
F 0x412da2
0x412da2:	imul	ecx, dword ptr [rax - 0x7d], 0x5d5b60c4
0x412da9:	pop	r12
0x412dab:	ret	
F 0x415edf
0x410016:	ret	
F 0x424254
0x424254:	add	rsp, 0x10
0x424258:	pop	rbx
0x424259:	ret	
F 0x41cc86
0x41cc86:	add	byte ptr [rax], al
0x41cc88:	test	eax, eax
0x41cc8a:	setne	al
0x41cc8d:	add	rsp, 8
0x41cc91:	movzx	eax, al
0x41cc94:	ret	
F 0x415907
0x410016:	ret	
F 0x412f1f
0x412f1f:	add	dword ptr [rax], eax
0x412f21:	add	byte ptr [rax], al
0x412f23:	add	rsp, 8
0x412f27:	ret	
F 0x4183bf
0x4183bf:	or	eax, 0x4cffff9c
0x4183c4:	mov	eax, esp
0x4183c6:	pop	r12
0x4183c8:	ret	
F 0x424594
0x419c64:	add	dword ptr [rax], eax
0x419c66:	xor	eax, eax
0x419c68:	test	esi, esi
0x419c6a:	setne	al
0x419c6d:	ret	
F 0x41f62d
0x41f5ad:	add	byte ptr [rbp + 0x21], dh
0x41f5b0:	add	rsp, 0x18
0x41f5b4:	ret	
F 0x41485e
0x410016:	ret	
F 0x415f69
0x410016:	ret	
F 0x41891b
0x41891b:	add	byte ptr [rax], al
0x41891d:	add	byte ptr [rbp + 0x23], dh
0x418920:	add	rsp, 0x10
0x418924:	pop	rbp
0x418925:	ret	
F 0x4252f2
0x4252f2:	add	bl, ch
0x4252f4:	scasb	al, byte ptr [rdi]
0x4252f5:	nop	dword ptr [rax]
0x4252f8:	mov	ecx, dword ptr [rip + 0x12c6a]
0x4252fe:	xor	eax, eax
0x425300:	test	ecx, ecx
0x425302:	setne	al
0x425305:	ret	
F 0x41457f
0x41457f:	cmp	eax, 0x4cffffde
0x414584:	mov	eax, esp
0x414586:	pop	rbx
0x414587:	pop	rbp
0x414588:	pop	r12
0x41458a:	ret	
F 0x41cca0
0x41c630:	test	edx, edx
0x41c632:	setne	al
0x41c635:	ret	
F 0x415914
0x415914:	and	al, byte ptr [rdx]
0x415916:	add	bl, al
0x415918:	nop	dword ptr [rax + rax]
0x415920:	mov	rax, qword ptr [rip + 0x222b9]
0x415927:	ret	
F 0x41eb05
0x41cc90:	or	byte ptr [rdi], cl
0x41cc92:	mov	dh, 0xc0
0x41cc94:	ret	
F 0x420732
0x420732:	pop	rdx
0x420733:	ret	0
F 0x422697
0x4132dc:	pop	r13
0x4132de:	pop	r14
0x4132e0:	pop	r15
0x4132e2:	ret	
F 0x41eb2a
0x41849a:	setne	al
0x41849d:	ret	
F 0x42453f
0x41847e:	add	byte ptr [rax], al
0x418480:	add	byte ptr [rbp - 0x3f6af02e], al
0x418486:	add	rsp, 8
0x41848a:	ret	
F 0x42438a
0x42438a:	add	byte ptr [rcx], dh
0x42438c:	shr	al, 0x9e
0x42438f:	ret	
F 0x41d75f
0x410016:	ret	
F 0x4206e0
0x4206e0:	sbb	bh, bh
0x4206e2:	dec	dword ptr [rcx + rcx*4 - 0x20]
0x4206e6:	pop	r12
0x4206e8:	ret	
F 0x413101
0x410016:	ret	
F 0x41837b
0x417ab6:	add	rsp, 0x18
0x417aba:	ret	
F 0x4256ed
0x4126b1:	pop	rbp
0x4126b2:	ret	
F 0x4143b5
0x410016:	ret	
F 0x418480
0x418480:	add	byte ptr [rbp - 0x3f6af02e], al
0x418486:	add	rsp, 8
0x41848a:	ret	
F 0x41fc0d
0x41cc8c:	ror	byte ptr [rax - 0x7d], 0xc4
0x41cc90:	or	byte ptr [rdi], cl
0x41cc92:	mov	dh, 0xc0
0x41cc94:	ret	
F 0x415915
0x4158f5:	add	al, byte ptr [rax]
0x4158f7:	ret	
F 0x41aced
0x410016:	ret	
F 0x417554
0x410016:	ret	
F 0x417dc9
0x417dc9:	and	cl, byte ptr [rax - 0x77]
0x417dcc:	ret	
F 0x419c6d
0x410016:	ret	
F 0x412c71
0x412c71:	nop	dword ptr [rax]
0x412c78:	ret	
F 0x413bc3
0x41304a:	pop	r12
0x41304c:	pop	r13
0x41304e:	ret	
F 0x41831b
0x417ab6:	add	rsp, 0x18
0x417aba:	ret	
F 0x41478f
0x412da8:	pop	rbp
0x412da9:	pop	r12
0x412dab:	ret	
F 0x41e5b4
0x41c23f:	add	byte ptr [rbp + 0x31], dh
0x41c242:	add	rsp, 0x20
0x41c246:	mov	rax, r12
0x41c249:	pop	rbp
0x41c24a:	pop	r12
0x41c24c:	pop	r13
0x41c24e:	pop	r14
0x41c250:	pop	r15
0x41c252:	ret	
F 0x4160f3
0x4160f3:	mov	qword ptr [rip + 0x21b06], rax
0x4160fa:	add	rsp, 8
0x4160fe:	pop	rbx
0x4160ff:	pop	rbp
0x416100:	pop	r12
0x416102:	pop	r13
0x416104:	ret	
F 0x41dd1b
0x41dd1b:	jmp	0x41dcce
F 0x419018
0x4182b8:	add	byte ptr [rbp + 0xe], dh
0x4182bb:	add	rsp, 0x18
0x4182bf:	ret	
F 0x420726
0x41c62e:	xor	eax, eax
0x41c630:	test	edx, edx
0x41c632:	setne	al
0x41c635:	ret	
F 0x422443
0x422443:	pop	rdx
0x422444:	add	dword ptr [rax], eax
0x422446:	xor	eax, eax
0x422448:	test	edx, edx
0x42244a:	setne	al
0x42244d:	ret	
F 0x415c26
0x415c26:	mov	esi, 0x5d5bffff
0x415c2b:	mov	qword ptr [rip + 0x21fce], rax
0x415c32:	pop	r12
0x415c34:	ret	
F 0x41edf3
0x4194ab:	and	byte ptr [rbx + 0x5d], bl
0x4194ae:	pop	r12
0x4194b0:	ret	
F 0x413639
0x410016:	ret	
F 0x41367e
0x410016:	ret	
F 0x4136e0
0x4136e0:	add	byte ptr [rax], al
0x4136e2:	add	byte ptr [rbp + 0x38], dh
0x4136e5:	add	rsp, 0x18
0x4136e9:	pop	rbx
0x4136ea:	pop	rbp
0x4136eb:	pop	r12
0x4136ed:	pop	r13
0x4136ef:	ret	
F 0x423603
0x410016:	ret	
F 0x4172f5
0x410016:	ret	
F 0x415926
0x415926:	add	bl, al
0x415928:	nop	dword ptr [rax + rax]
0x415930:	mov	rax, qword ptr [rip + 0x222a1]
0x415937:	ret	
F 0x4247e3
0x410016:	ret	
F 0x4158f2
0x4158f2:	add	eax, 0x22301
0x4158f7:	ret	
F 0x41f42b
0x4182b6:	add	byte ptr [rax], al
0x4182b8:	add	byte ptr [rbp + 0xe], dh
0x4182bb:	add	rsp, 0x18
0x4182bf:	ret	
F 0x421f46
0x4182b6:	add	byte ptr [rax], al
0x4182b8:	add	byte ptr [rbp + 0xe], dh
0x4182bb:	add	rsp, 0x18
0x4182bf:	ret	
F 0x422f46
0x41e064:	add	byte ptr [rax], al
0x41e066:	add	rsp, 0x48
0x41e06a:	pop	rbx
0x41e06b:	pop	rbp
0x41e06c:	pop	r12
0x41e06e:	pop	r13
0x41e070:	pop	r14
0x41e072:	pop	r15
0x41e074:	ret	
F 0x4208fa
0x4208fa:	add	byte ptr [rbp + 0x61], dh
0x4208fd:	add	rsp, 0x10
0x420901:	pop	rbx
0x420902:	pop	rbp
0x420903:	pop	r12
0x420905:	ret	
F 0x41cc34
0x4158e4:	mov	eax, esp
0x4158e6:	pop	r12
0x4158e8:	ret	
F 0x41c57f
0x410016:	ret	
F 0x4157cc
0x4132d9:	pop	rbp
0x4132da:	pop	r12
0x4132dc:	pop	r13
0x4132de:	pop	r14
0x4132e0:	pop	r15
0x4132e2:	ret	
F 0x41db68
0x410016:	ret	
F 0x4258b2
0x4132d8:	pop	rbx
0x4132d9:	pop	rbp
0x4132da:	pop	r12
0x4132dc:	pop	r13
0x4132de:	pop	r14
0x4132e0:	pop	r15
0x4132e2:	ret	
F 0x413fef
0x410016:	ret	
F 0x41d8f2
0x41d8f2:	add	rsp, 0x28
0x41d8f6:	pop	r12
0x41d8f8:	pop	r13
0x41d8fa:	ret	
F 0x424037
0x424037:	add	byte ptr [rax], al
0x424039:	add	rsp, 0x10
0x42403d:	pop	rbx
0x42403e:	pop	rbp
0x42403f:	pop	r12
0x424041:	ret	
F 0x4252b6
0x41cc91:	movzx	eax, al
0x41cc94:	ret	
F 0x424358
0x424358:	shr	al, 0xd2
0x42435b:	ret	
F 0x412cf4
0x412c74:	add	byte ptr [rax], al
0x412c76:	add	byte ptr [rax], al
0x412c78:	ret	
F 0x4134d0
0x4132dc:	pop	r13
0x4132de:	pop	r14
0x4132e0:	pop	r15
0x4132e2:	ret	
F 0x416e45
0x410016:	ret	
F 0x421fa6
0x4182b6:	add	byte ptr [rax], al
0x4182b8:	add	byte ptr [rbp + 0xe], dh
0x4182bb:	add	rsp, 0x18
0x4182bf:	ret	
F 0x411c67
0x410016:	ret	
F 0x4223b2
0x4158e2:	dec	dword ptr [rcx + rcx*4 - 0x20]
0x4158e6:	pop	r12
0x4158e8:	ret	
F 0x41b230
0x410016:	ret	
F 0x4256e9
0x413049:	pop	rbp
0x41304a:	pop	r12
0x41304c:	pop	r13
0x41304e:	ret	
F 0x418add
0x418add:	ret	0x9848
F 0x41fc2d
0x41fc2d:	nop	dword ptr [rax]
0x41fc30:	mov	edx, dword ptr [rip + 0x181ca]
0x41fc36:	xor	eax, eax
0x41fc38:	test	edx, edx
0x41fc3a:	setne	al
0x41fc3d:	ret	
F 0x415881
0x415881:	lea	eax, [rip + 0x10d04]
0x415887:	ret	
F 0x41ab40
0x41ab40:	ror	byte ptr [rdi], 0x84
0x41ab43:	ret	
F 0x417dc7
0x417dc7:	sal	byte ptr [rdx + 0x48], 0x89
0x417dcc:	ret	
F 0x41dcd8
0x41dcd8:	test	eax, eax
0x41dcda:	pop	rbx
0x41dcdb:	setne	al
0x41dcde:	movzx	eax, al
0x41dce1:	ret	
F 0x420d90
0x410016:	ret	
F 0x41fb84
0x4158e4:	mov	eax, esp
0x4158e6:	pop	r12
0x4158e8:	ret	
F 0x41350b
0x4132d9:	pop	rbp
0x4132da:	pop	r12
0x4132dc:	pop	r13
0x4132de:	pop	r14
0x4132e0:	pop	r15
0x4132e2:	ret	
F 0x420ba3
0x410c57:	ret	0
F 0x4206c9
0x410016:	ret	
F 0x41586e
0x41586e:	add	byte ptr [rbx + 0x137503ff], al
0x415875:	lea	rax, [rip + 0x10d17]
0x41587c:	ret	
F 0x423b16
0x4182b6:	add	byte ptr [rax], al
0x4182b8:	add	byte ptr [rbp + 0xe], dh
0x4182bb:	add	rsp, 0x18
0x4182bf:	ret	
F 0x4191a6
0x4191a6:	add	byte ptr [rax], al
0x4191a8:	add	byte ptr [rbp + 0xf], dh
0x4191ab:	add	rsp, 0x10
0x4191af:	pop	rbp
0x4191b0:	ret	
F 0x415a5e
0x415a5e:	nop	
0x415a60:	mov	eax, dword ptr [rdi]
0x415a62:	sub	eax, dword ptr [rsi]
0x415a64:	ret	
F 0x41847a
0x41847a:	test	dword ptr [rcx], 0x100
0x418480:	add	byte ptr [rbp - 0x3f6af02e], al
0x418486:	add	rsp, 8
0x41848a:	ret	
F 0x415b96
0x41304a:	pop	r12
0x41304c:	pop	r13
0x41304e:	ret	
F 0x41394d
0x4136e5:	add	rsp, 0x18
0x4136e9:	pop	rbx
0x4136ea:	pop	rbp
0x4136eb:	pop	r12
0x4136ed:	pop	r13
0x4136ef:	ret	
F 0x41c865
0x41c865:	add	byte ptr [rax], al
0x41c867:	add	byte ptr [rbp + 0x7e], dh
0x41c86a:	add	rsp, 0x10
0x41c86e:	pop	rbx
0x41c86f:	pop	rbp
0x41c870:	pop	r12
0x41c872:	ret	
F 0x413631
0x413631:	xor	eax, eax
0x413633:	pop	rbp
0x413634:	pop	r12
0x413636:	ret	
F 0x422d69
0x422d69:	or	eax, 0x15172
0x422d6e:	xor	eax, eax
0x422d70:	test	ecx, ecx
0x422d72:	setne	al
0x422d75:	ret	
F 0x41e69e
0x41b3fe:	sbb	eax, 0x8c48348
0x41b403:	ret	
F 0x422c2b
0x417ab6:	add	rsp, 0x18
0x417aba:	ret	
F 0x42241f
0x41cc86:	add	byte ptr [rax], al
0x41cc88:	test	eax, eax
0x41cc8a:	setne	al
0x41cc8d:	add	rsp, 8
0x41cc91:	movzx	eax, al
0x41cc94:	ret	
F 0x41b625
0x410016:	ret	
F 0x413957
0x410016:	ret	
F 0x41d8f6
0x41304a:	pop	r12
0x41304c:	pop	r13
0x41304e:	ret	
F 0x41e8e3
0x41e8e3:	ret	0xa7e8
F 0x41fc09
0x41cc88:	test	eax, eax
0x41cc8a:	setne	al
0x41cc8d:	add	rsp, 8
0x41cc91:	movzx	eax, al
0x41cc94:	ret	
F 0x418496
0x418496:	xor	eax, eax
0x418498:	test	ecx, ecx
0x41849a:	setne	al
0x41849d:	ret	
F 0x420f25
0x417c30:	pop	rbp
0x417c31:	pop	r14
0x417c33:	ret	
F 0x415b9a
0x410016:	ret	
F 0x41f5ab
0x41f5ab:	add	byte ptr [rax], al
0x41f5ad:	add	byte ptr [rbp + 0x21], dh
0x41f5b0:	add	rsp, 0x18
0x41f5b4:	ret	
F 0x415b94
0x4136e9:	pop	rbx
0x4136ea:	pop	rbp
0x4136eb:	pop	r12
0x4136ed:	pop	r13
0x4136ef:	ret	
F 0x41818c
0x4132df:	pop	rsi
0x4132e0:	pop	r15
0x4132e2:	ret	
F 0x4144cd
0x412da8:	pop	rbp
0x412da9:	pop	r12
0x412dab:	ret	
F 0x42406b
0x42406b:	add	byte ptr [rcx], dh
0x42406d:	shr	al, 0x7d
0x424070:	ret	
F 0x41eb01
0x41cc8c:	ror	byte ptr [rax - 0x7d], 0xc4
0x41cc90:	or	byte ptr [rdi], cl
0x41cc92:	mov	dh, 0xc0
0x41cc94:	ret	
F 0x4250c6
0x4182b6:	add	byte ptr [rax], al
0x4182b8:	add	byte ptr [rbp + 0xe], dh
0x4182bb:	add	rsp, 0x18
0x4182bf:	ret	
F 0x41431c
0x4132d8:	pop	rbx
0x4132d9:	pop	rbp
0x4132da:	pop	r12
0x4132dc:	pop	r13
0x4132de:	pop	r14
0x4132e0:	pop	r15
0x4132e2:	ret	
F 0x41592e
0x41592e:	add	byte ptr [rax], al
0x415930:	mov	rax, qword ptr [rip + 0x222a1]
0x415937:	ret	
F 0x414bc1
0x4132d8:	pop	rbx
0x4132d9:	pop	rbp
0x4132da:	pop	r12
0x4132dc:	pop	r13
0x4132de:	pop	r14
0x4132e0:	pop	r15
0x4132e2:	ret	
F 0x41568e
0x410016:	ret	
F 0x41c24d
0x4132dd:	pop	rbp
0x4132de:	pop	r14
0x4132e0:	pop	r15
0x4132e2:	ret	
F 0x415554
0x412da7:	pop	rbx
0x412da8:	pop	rbp
0x412da9:	pop	r12
0x412dab:	ret	
F 0x4256e0
0x4256e0:	cmp	byte ptr [rcx], al
0x4256e2:	add	byte ptr [rax], al
0x4256e4:	add	rsp, 0x18
0x4256e8:	pop	rbx
0x4256e9:	pop	rbp
0x4256ea:	pop	r12
0x4256ec:	pop	r13
0x4256ee:	ret	
F 0x41c86a
0x418b97:	add	rsp, 0x10
0x418b9b:	pop	rbx
0x418b9c:	pop	rbp
0x418b9d:	pop	r12
0x418b9f:	ret	
F 0x418af4
0x418af4:	sar	byte ptr [rsi + 2], 0x5d
0x418af8:	ret	
F 0x41ba98
0x4182b8:	add	byte ptr [rbp + 0xe], dh
0x4182bb:	add	rsp, 0x18
0x4182bf:	ret	
F 0x41587f
0x41587f:	add	byte ptr [rax - 0x73], cl
0x415882:	add	eax, 0x10d04
0x415887:	ret	
F 0x41fc0c
0x41cc8b:	xchg	eax, ebp
0x41cc8c:	ror	byte ptr [rax - 0x7d], 0xc4
0x41cc90:	or	byte ptr [rdi], cl
0x41cc92:	mov	dh, 0xc0
0x41cc94:	ret	
F 0x417c33
0x410016:	ret	
F 0x424039
0x418b97:	add	rsp, 0x10
0x418b9b:	pop	rbx
0x418b9c:	pop	rbp
0x418b9d:	pop	r12
0x418b9f:	ret	
F 0x419c11
0x41847d:	add	dword ptr [rax], eax
0x41847f:	add	byte ptr [rax], al
0x418481:	test	edx, edx
0x418483:	setne	al
0x418486:	add	rsp, 8
0x41848a:	ret	
F 0x41e975
0x417ab6:	add	rsp, 0x18
0x417aba:	ret	
F 0x41f5b0
0x417ab6:	add	rsp, 0x18
0x417aba:	ret	
F 0x417c2c
0x417c2c:	pop	rbp
0x417c2d:	pop	r12
0x417c2f:	pop	r13
0x417c31:	pop	r14
0x417c33:	ret	
F 0x422d6c
0x418494:	add	dword ptr [rax], eax
0x418496:	xor	eax, eax
0x418498:	test	ecx, ecx
0x41849a:	setne	al
0x41849d:	ret	
F 0x41fc13
0x41cc92:	mov	dh, 0xc0
0x41cc94:	ret	
F 0x418b9b
0x412da7:	pop	rbx
0x412da8:	pop	rbp
0x412da9:	pop	r12
0x412dab:	ret	
F 0x423b18
0x4182b8:	add	byte ptr [rbp + 0xe], dh
0x4182bb:	add	rsp, 0x18
0x4182bf:	ret	
F 0x4158f3
0x4158f3:	add	dword ptr [rbx], esp
0x4158f5:	add	al, byte ptr [rax]
0x4158f7:	ret	
F 0x41c95d
0x410016:	ret	
F 0x415910
0x415910:	mov	rax, qword ptr [rip + 0x222d1]
0x415917:	ret	
F 0x4158e2
0x4158e2:	dec	dword ptr [rcx + rcx*4 - 0x20]
0x4158e6:	pop	r12
0x4158e8:	ret	
F 0x420902
0x412da8:	pop	rbp
0x412da9:	pop	r12
0x412dab:	ret	
F 0x41ec1a
0x41374c:	add	byte ptr [rax - 0x77], cl
0x41374f:	ret	
F 0x424416
0x4182b6:	add	byte ptr [rax], al
0x4182b8:	add	byte ptr [rbp + 0xe], dh
0x4182bb:	add	rsp, 0x18
0x4182bf:	ret	
F 0x420ce6
0x41c62e:	xor	eax, eax
0x41c630:	test	edx, edx
0x41c632:	setne	al
0x41c635:	ret	
F 0x417c30
0x417c30:	pop	rbp
0x417c31:	pop	r14
0x417c33:	ret	
F 0x420a9e
0x410016:	ret	
F 0x423e1e
0x412c76:	add	byte ptr [rax], al
0x412c78:	ret	
F 0x420733
0x410c57:	ret	0
F 0x4175cc
0x4175cc:	add	byte ptr [rcx], bh
0x4175ce:	ret	
F 0x41929f
0x410016:	ret	
F 0x41bb90
0x410012:	add	rsp, 8
0x410016:	ret	
F 0x41dd26
0x41c62e:	xor	eax, eax
0x41c630:	test	edx, edx
0x41c632:	setne	al
0x41c635:	ret	
F 0x419138
0x4182b8:	add	byte ptr [rbp + 0xe], dh
0x4182bb:	add	rsp, 0x18
0x4182bf:	ret	
F 0x41ff0d
0x410016:	ret	
F 0x41d1d3
0x41d1d3:	nop	dword ptr [rax + rax]
0x41d1d8:	add	rsp, 0x58
0x41d1dc:	pop	rbx
0x41d1dd:	pop	rbp
0x41d1de:	pop	r12
0x41d1e0:	pop	r13
0x41d1e2:	pop	r14
0x41d1e4:	pop	r15
0x41d1e6:	ret	
F 0x414784
0x414784:	add	byte ptr [rbp + 0x1b], dh
0x414787:	add	rsp, 0x20
0x41478b:	mov	rax, r12
0x41478e:	pop	rbx
0x41478f:	pop	rbp
0x414790:	pop	r12
0x414792:	ret	
F 0x413eed
0x4136e5:	add	rsp, 0x18
0x4136e9:	pop	rbx
0x4136ea:	pop	rbp
0x4136eb:	pop	r12
0x4136ed:	pop	r13
0x4136ef:	ret	
F 0x415912
0x415912:	add	eax, 0x222d1
0x415917:	ret	
F 0x4213d6
0x410016:	ret	
F 0x41503d
0x41503d:	mov	eax, esp
0x41503f:	pop	rbx
0x415040:	pop	rbp
0x415041:	pop	r12
0x415043:	pop	r13
0x415045:	pop	r14
0x415047:	pop	r15
0x415049:	ret	
F 0x419016
0x4182b6:	add	byte ptr [rax], al
0x4182b8:	add	byte ptr [rbp + 0xe], dh
0x4182bb:	add	rsp, 0x18
0x4182bf:	ret	
F 0x4131f6
0x4131f6:	or	byte ptr [rax - 0x7b], cl
0x4131f9:	sal	byte ptr [rbp + rbp*2 + 0x48], 0x89
0x4131fe:	ret	
F 0x418318
0x4182b8:	add	byte ptr [rbp + 0xe], dh
0x4182bb:	add	rsp, 0x18
0x4182bf:	ret	
F 0x415b90
0x415b90:	add	rsp, 8
0x415b94:	pop	rbx
0x415b95:	pop	rbp
0x415b96:	pop	r12
0x415b98:	pop	r13
0x415b9a:	ret	
F 0x42071a
0x42071a:	test	byte ptr [rax], al
0x42071c:	add	byte ptr [rax], al
0x42071e:	add	byte ptr [rax], al
0x420720:	mov	edx, dword ptr [rip + 0x17722]
0x420726:	xor	eax, eax
0x420728:	test	edx, edx
0x42072a:	setne	al
0x42072d:	ret	
F 0x410c67
0x410016:	ret	
F 0x41d1e6
0x410016:	ret	
F 0x4243ba
0x4243ba:	add	byte ptr [rcx], dh
0x4243bc:	shr	al, 0x6e
0x4243bf:	ret	
F 0x41cc8d
0x41cc8d:	add	rsp, 8
0x41cc91:	movzx	eax, al
0x41cc94:	ret	
F 0x423e18
0x41c6e8:	nop	dword ptr [rax + rax]
0x41c6f0:	ret	
F 0x41ca8e
0x41ca8e:	add	byte ptr [rax], al
0x41ca90:	add	rsp, 0x10
0x41ca94:	pop	rbp
0x41ca95:	ret	
F 0x415c2a
0x415c2a:	pop	rbp
0x415c2b:	mov	qword ptr [rip + 0x21fce], rax
0x415c32:	pop	r12
0x415c34:	ret	
F 0x41530e
0x410016:	ret	
F 0x41831f
0x410016:	ret	
F 0x41b3ff
0x410012:	add	rsp, 8
0x410016:	ret	
F 0x41b2c9
0x41b186:	add	byte ptr [rax], al
0x41b188:	add	byte ptr [rbp + 0x32], dh
0x41b18b:	add	rsp, 0x10
0x41b18f:	pop	rbp
0x41b190:	ret	
F 0x422694
0x4132d9:	pop	rbp
0x4132da:	pop	r12
0x4132dc:	pop	r13
0x4132de:	pop	r14
0x4132e0:	pop	r15
0x4132e2:	ret	
F 0x41c86d
0x418b9a:	adc	byte ptr [rbx + 0x5d], bl
0x418b9d:	pop	r12
0x418b9f:	ret	
F 0x4158ef
0x4158ef:	add	byte ptr [rax - 0x75], cl
0x4158f2:	add	eax, 0x22301
0x4158f7:	ret	
F 0x4211a6
0x4182b6:	add	byte ptr [rax], al
0x4182b8:	add	byte ptr [rbp + 0xe], dh
0x4182bb:	add	rsp, 0x18
0x4182bf:	ret	
F 0x420ce8
0x41c630:	test	edx, edx
0x41c632:	setne	al
0x41c635:	ret	
F 0x414832
0x414584:	mov	eax, esp
0x414586:	pop	rbx
0x414587:	pop	rbp
0x414588:	pop	r12
0x41458a:	ret	
F 0x4244bf
0x4244bf:	or	eax, 0x4cfffedb
0x4244c4:	mov	eax, esp
0x4244c6:	pop	r12
0x4244c8:	ret	
F 0x41eafa
0x41cc85:	add	byte ptr [rax], al
0x41cc87:	add	byte ptr [rbp - 0x3f6af040], al
0x41cc8d:	add	rsp, 8
0x41cc91:	movzx	eax, al
0x41cc94:	ret	
F 0x422693
0x4132d8:	pop	rbx
0x4132d9:	pop	rbp
0x4132da:	pop	r12
0x4132dc:	pop	r13
0x4132de:	pop	r14
0x4132e0:	pop	r15
0x4132e2:	ret	
F 0x421646
0x4132e0:	pop	r15
0x4132e2:	ret	
F 0x41dd1d
0x41dd1d:	nop	dword ptr [rax]
0x41dd20:	mov	edx, dword ptr [rip + 0x1a03a]
0x41dd26:	xor	eax, eax
0x41dd28:	test	edx, edx
0x41dd2a:	setne	al
0x41dd2d:	ret	
F 0x418b97
0x418b97:	add	rsp, 0x10
0x418b9b:	pop	rbx
0x418b9c:	pop	rbp
0x418b9d:	pop	r12
0x418b9f:	ret	
F 0x4149d9
0x410016:	ret	
F 0x4213cf
0x41cc8d:	add	rsp, 8
0x41cc91:	movzx	eax, al
0x41cc94:	ret	
F 0x419c15
0x418481:	test	edx, edx
0x418483:	setne	al
0x418486:	add	rsp, 8
0x41848a:	ret	
F 0x4166da
0x416677:	dec	dword ptr [rax - 0x77]
0x41667a:	ret	0x8548
F 0x4209e6
0x4182b6:	add	byte ptr [rax], al
0x4182b8:	add	byte ptr [rbp + 0xe], dh
0x4182bb:	add	rsp, 0x18
0x4182bf:	ret	
F 0x41847e
0x41847e:	add	byte ptr [rax], al
0x418480:	add	byte ptr [rbp - 0x3f6af02e], al
0x418486:	add	rsp, 8
0x41848a:	ret	
F 0x418498
0x418498:	test	ecx, ecx
0x41849a:	setne	al
0x41849d:	ret	
F 0x412f5a
0x412f5a:	add	eax, 0x24c4d
0x412f5f:	add	byte ptr [rax], al
0x412f61:	add	byte ptr [rax], al
0x412f63:	add	rsp, 8
0x412f67:	ret	
F 0x4132d6
0x4132d6:	mov	eax, ebp
0x4132d8:	pop	rbx
0x4132d9:	pop	rbp
0x4132da:	pop	r12
0x4132dc:	pop	r13
0x4132de:	pop	r14
0x4132e0:	pop	r15
0x4132e2:	ret	
F 0x415045
0x4132de:	pop	r14
0x4132e0:	pop	r15
0x4132e2:	ret	
F 0x415b99
0x4126b1:	pop	rbp
0x4126b2:	ret	
F 0x41f2df
0x410016:	ret	
F 0x415882
0x415882:	add	eax, 0x10d04
0x415887:	ret	
F 0x4252ab
0x41cc86:	add	byte ptr [rax], al
0x41cc88:	test	eax, eax
0x41cc8a:	setne	al
0x41cc8d:	add	rsp, 8
0x41cc91:	movzx	eax, al
0x41cc94:	ret	
F 0x41394c
0x41394c:	sbb	eax, 0x18c48348
0x413951:	pop	rbx
0x413952:	pop	rbp
0x413953:	pop	r12
0x413955:	pop	r13
0x413957:	ret	
F 0x421f48
0x4182b8:	add	byte ptr [rbp + 0xe], dh
0x4182bb:	add	rsp, 0x18
0x4182bf:	ret	
F 0x41c867
0x41c867:	add	byte ptr [rbp + 0x7e], dh
0x41c86a:	add	rsp, 0x10
0x41c86e:	pop	rbx
0x41c86f:	pop	rbp
0x41c870:	pop	r12
0x41c872:	ret	
F 0x41eb09
0x410016:	ret	
F 0x42518b
0x417ab6:	add	rsp, 0x18
0x417aba:	ret	
F 0x418189
0x4132dc:	pop	r13
0x4132de:	pop	r14
0x4132e0:	pop	r15
0x4132e2:	ret	
F 0x4126b1
0x4126b1:	pop	rbp
0x4126b2:	ret	
F 0x415908
0x415908:	nop	dword ptr [rax + rax]
0x415910:	mov	rax, qword ptr [rip + 0x222d1]
0x415917:	ret	
F 0x412f5f
0x412f5f:	add	byte ptr [rax], al
0x412f61:	add	byte ptr [rax], al
0x412f63:	add	rsp, 8
0x412f67:	ret	
F 0x41587b
0x41587b:	add	bl, al
0x41587d:	nop	dword ptr [rax]
0x415880:	lea	rax, [rip + 0x10d04]
0x415887:	ret	
F 0x417dc4
0x417dc4:	dec	dword ptr [rax - 0x7b]
0x417dc7:	sal	byte ptr [rdx + 0x48], 0x89
0x417dcc:	ret	
F 0x418b9c
0x412da8:	pop	rbp
0x412da9:	pop	r12
0x412dab:	ret	
F 0x41a9bc
0x4132df:	pop	rsi
0x4132e0:	pop	r15
0x4132e2:	ret	
F 0x41b9db
0x417ab6:	add	rsp, 0x18
0x417aba:	ret	
F 0x41b623
0x4186c4:	pop	rbx
0x4186c5:	pop	rbp
0x4186c6:	ret	
F 0x42447b
0x417ab6:	add	rsp, 0x18
0x417aba:	ret	
F 0x41c6ee
0x412c76:	add	byte ptr [rax], al
0x412c78:	ret	
F 0x413ef3
0x41304a:	pop	r12
0x41304c:	pop	r13
0x41304e:	ret	
F 0x418540
0x410016:	ret	
F 0x417b5d
0x417b5d:	add	byte ptr [rax], al
0x417b5f:	add	byte ptr [rbp + 0x25], dh
0x417b62:	add	rsp, 0x18
0x417b66:	ret	
F 0x41befb
0x4194a8:	add	rsp, 0x20
0x4194ac:	pop	rbx
0x4194ad:	pop	rbp
0x4194ae:	pop	r12
0x4194b0:	ret	
F 0x41591a
0x41591a:	test	byte ptr [rax], al
0x41591c:	add	byte ptr [rax], al
0x41591e:	add	byte ptr [rax], al
0x415920:	mov	rax, qword ptr [rip + 0x222b9]
0x415927:	ret	
F 0x414bbf
0x414bbf:	mov	eax, esi
0x414bc1:	pop	rbx
0x414bc2:	pop	rbp
0x414bc3:	pop	r12
0x414bc5:	pop	r13
0x414bc7:	pop	r14
0x414bc9:	pop	r15
0x414bcb:	ret	
F 0x423b78
0x4182b8:	add	byte ptr [rbp + 0xe], dh
0x4182bb:	add	rsp, 0x18
0x4182bf:	ret	
F 0x41f3c0
0x4191a8:	add	byte ptr [rbp + 0xf], dh
0x4191ab:	add	rsp, 0x10
0x4191af:	pop	rbp
0x4191b0:	ret	
F 0x42242a
0x41cc91:	movzx	eax, al
0x41cc94:	ret	
F 0x41c86e
0x412da7:	pop	rbx
0x412da8:	pop	rbp
0x412da9:	pop	r12
0x412dab:	ret	
F 0x421640
0x4132da:	pop	r12
0x4132dc:	pop	r13
0x4132de:	pop	r14
0x4132e0:	pop	r15
0x4132e2:	ret	
F 0x41590c
0x41590c:	add	byte ptr [rax], al
0x41590e:	add	byte ptr [rax], al
0x415910:	mov	rax, qword ptr [rip + 0x222d1]
0x415917:	ret	
F 0x42027c
0x410c57:	ret	0
F 0x420711
0x420711:	add	dword ptr [rax], eax
0x420713:	add	byte ptr [rax], al
0x420715:	ret	
F 0x41ea92
0x4158e2:	dec	dword ptr [rcx + rcx*4 - 0x20]
0x4158e6:	pop	r12
0x4158e8:	ret	
F 0x41e4ae
0x418a0e:	add	rsp, 0x18
0x418a12:	pop	rbp
0x418a13:	pop	r12
0x418a15:	ret	
F 0x415c34
0x410016:	ret	
F 0x412f21
0x412f21:	add	byte ptr [rax], al
0x412f23:	add	rsp, 8
0x412f27:	ret	
F 0x423d58
0x419c68:	test	esi, esi
0x419c6a:	setne	al
0x419c6d:	ret	
F 0x414cf4
0x412da7:	pop	rbx
0x412da8:	pop	rbp
0x412da9:	pop	r12
0x412dab:	ret	
F 0x418af2
0x418af2:	add	dword ptr [rbp + 0x5d027ec0], eax
0x418af8:	ret	
F 0x41a9bd
0x4132e0:	pop	r15
0x4132e2:	ret	
F 0x415451
0x4132de:	pop	r14
0x4132e0:	pop	r15
0x4132e2:	ret	
F 0x41f344
0x410016:	ret	
F 0x413bc0
0x4136e8:	sbb	byte ptr [rbx + 0x5d], bl
0x4136eb:	pop	r12
0x4136ed:	pop	r13
0x4136ef:	ret	
F 0x420f28
0x410016:	ret	
F 0x41d63b
0x417ab6:	add	rsp, 0x18
0x417aba:	ret	
F 0x413eea
0x41394a:	add	byte ptr [rbp + 0x1d], dh
0x41394d:	add	rsp, 0x18
0x413951:	pop	rbx
0x413952:	pop	rbp
0x413953:	pop	r12
0x413955:	pop	r13
0x413957:	ret	
F 0x418490
0x418490:	mov	ecx, dword ptr [rip + 0x1f77a]
0x418496:	xor	eax, eax
0x418498:	test	ecx, ecx
0x41849a:	setne	al
0x41849d:	ret	
F 0x420ce1
0x420ce1:	adc	eax, 0x1717a
0x420ce6:	xor	eax, eax
0x420ce8:	test	edx, edx
0x420cea:	setne	al
0x420ced:	ret	
F 0x42518f
0x410016:	ret	
F 0x4151d2
0x414584:	mov	eax, esp
0x414586:	pop	rbx
0x414587:	pop	rbp
0x414588:	pop	r12
0x41458a:	ret	
F 0x416677
0x416677:	dec	dword ptr [rax - 0x77]
0x41667a:	ret	0x8548
F 0x41eb21
0x41eb21:	adc	eax, 0x192aa
0x41eb26:	xor	eax, eax
0x41eb28:	test	edx, edx
0x41eb2a:	setne	al
0x41eb2d:	ret	
F 0x42464e
0x412c76:	add	byte ptr [rax], al
0x412c78:	ret	
F 0x41cbe8
0x4182b8:	add	byte ptr [rbp + 0xe], dh
0x4182bb:	add	rsp, 0x18
0x4182bf:	ret	
F 0x41d470
0x413049:	pop	rbp
0x41304a:	pop	r12
0x41304c:	pop	r13
0x41304e:	ret	
F 0x422e65
0x410016:	ret	
F 0x412cf8
0x410016:	ret	
F 0x422cd2
0x4158e2:	dec	dword ptr [rcx + rcx*4 - 0x20]
0x4158e6:	pop	r12
0x4158e8:	ret	
F 0x418e98
0x4182b8:	add	byte ptr [rbp + 0xe], dh
0x4182bb:	add	rsp, 0x18
0x4182bf:	ret	
F 0x4126b2
0x410016:	ret	
F 0x415931
0x415931:	mov	eax, dword ptr [rip + 0x222a1]
0x415937:	ret	
F 0x413511
0x4132df:	pop	rsi
0x4132e0:	pop	r15
0x4132e2:	ret	
F 0x41e069
0x41e069:	pop	rbx
0x41e06b:	pop	rbp
0x41e06c:	pop	r12
0x41e06e:	pop	r13
0x41e070:	pop	r14
0x41e072:	pop	r15
0x41e074:	ret	
F 0x41c613
0x41c613:	mov	dword ptr [rip + 0x1b6ff], 1
0x41c61d:	add	rsp, 8
0x41c621:	ret	
F 0x4157d5
0x410016:	ret	
F 0x421648
0x410016:	ret	
F 0x413f75
0x410016:	ret	
F 0x41bb8a
0x418480:	add	byte ptr [rbp - 0x3f6af02e], al
0x418486:	add	rsp, 8
0x41848a:	ret	
F 0x412cf6
0x412c76:	add	byte ptr [rax], al
0x412c78:	ret	
F 0x423e1c
0x412c74:	add	byte ptr [rax], al
0x412c76:	add	byte ptr [rax], al
0x412c78:	ret	
F 0x41e5f5
0x410c57:	ret	0
F 0x423d53
0x423d53:	add	dword ptr [r8], eax
0x423d56:	xor	eax, eax
0x423d58:	test	esi, esi
0x423d5a:	setne	al
0x423d5d:	ret	
F 0x4136e5
0x4136e5:	add	rsp, 0x18
0x4136e9:	pop	rbx
0x4136ea:	pop	rbp
0x4136eb:	pop	r12
0x4136ed:	pop	r13
0x4136ef:	ret	
F 0x41cc88
0x41cc88:	test	eax, eax
0x41cc8a:	setne	al
0x41cc8d:	add	rsp, 8
0x41cc91:	movzx	eax, al
0x41cc94:	ret	
F 0x41929b
0x417ab6:	add	rsp, 0x18
0x417aba:	ret	
F 0x422d23
0x41cc8c:	ror	byte ptr [rax - 0x7d], 0xc4
0x41cc90:	or	byte ptr [rdi], cl
0x41cc92:	mov	dh, 0xc0
0x41cc94:	ret	
F 0x423c82
0x4158e2:	dec	dword ptr [rcx + rcx*4 - 0x20]
0x4158e6:	pop	r12
0x4158e8:	ret	
F 0x417778
0x417551:	add	byte ptr [rax + 0x63], cl
0x417554:	ret	
F 0x424799
0x410016:	ret	
F 0x41754f
0x41754f:	add	al, 0
0x417551:	add	byte ptr [rax + 0x63], cl
0x417554:	ret	
F 0x415ade
0x410016:	ret	
F 0x4160ff
0x413049:	pop	rbp
0x41304a:	pop	r12
0x41304c:	pop	r13
0x41304e:	ret	
F 0x423d46
0x418481:	test	edx, edx
0x418483:	setne	al
0x418486:	add	rsp, 8
0x41848a:	ret	
F 0x4247e2
0x4132e1:	pop	rdi
0x4132e2:	ret	
F 0x423793
0x410016:	ret	
F 0x41eb28
0x41c630:	test	edx, edx
0x41c632:	setne	al
0x41c635:	ret	
F 0x4215c1
0x410016:	ret	
F 0x420dc5
0x410016:	ret	
F 0x414325
0x4132e1:	pop	rdi
0x4132e2:	ret	
F 0x422f56
0x410016:	ret	
F 0x4213f6
0x41c62e:	xor	eax, eax
0x41c630:	test	edx, edx
0x41c632:	setne	al
0x41c635:	ret	
F 0x422d1d
0x41cc86:	add	byte ptr [rax], al
0x41cc88:	test	eax, eax
0x41cc8a:	setne	al
0x41cc8d:	add	rsp, 8
0x41cc91:	movzx	eax, al
0x41cc94:	ret	
F 0x4247d8
0x4247d8:	cmp	byte ptr [rbx + 0x5d], bl
0x4247db:	pop	r12
0x4247dd:	pop	r13
0x4247df:	pop	r14
0x4247e1:	pop	r15
0x4247e3:	ret	
F 0x419296
0x4182b6:	add	byte ptr [rax], al
0x4182b8:	add	byte ptr [rbp + 0xe], dh
0x4182bb:	add	rsp, 0x18
0x4182bf:	ret	
F 0x413574
0x4132de:	pop	r14
0x4132e0:	pop	r15
0x4132e2:	ret	
F 0x4127c7
0x4127c7:	xchg	eax, ebp
0x4127c8:	ret	
F 0x41ffa4
0x410c57:	ret	0
F 0x420ce4
0x41c62c:	add	dword ptr [rax], eax
0x41c62e:	xor	eax, eax
0x41c630:	test	edx, edx
0x41c632:	setne	al
0x41c635:	ret	
F 0x412cee
0x412cee:	add	dword ptr [rbp - 0x3d], ebx
0x412cf1:	nop	dword ptr [rax]
0x412cf8:	ret	
F 0x422442
0x422442:	pop	rdx
0x422443:	pop	rdx
0x422444:	add	dword ptr [rax], eax
0x422446:	xor	eax, eax
0x422448:	test	edx, edx
0x42244a:	setne	al
0x42244d:	ret	
F 0x417c2d
0x417c2d:	pop	r12
0x417c2f:	pop	r13
0x417c31:	pop	r14
0x417c33:	ret	
F 0x41ca95
0x410016:	ret	
F 0x423d56
0x419c66:	xor	eax, eax
0x419c68:	test	esi, esi
0x419c6a:	setne	al
0x419c6d:	ret	
F 0x415937
0x410016:	ret	
F 0x4258c0
0x410016:	ret	
F 0x41b61d
0x41b61d:	add	byte ptr [rax], al
0x41b61f:	add	rsp, 0x18
0x41b623:	pop	rbx
0x41b624:	pop	rbp
0x41b625:	ret	
F 0x423abb
0x417ab6:	add	rsp, 0x18
0x417aba:	ret	
F 0x4134ce
0x4132da:	pop	r12
0x4132dc:	pop	r13
0x4132de:	pop	r14
0x4132e0:	pop	r15
0x4132e2:	ret	
F 0x41c629
0x41c629:	adc	eax, 0x1b6ea
0x41c62e:	xor	eax, eax
0x41c630:	test	edx, edx
0x41c632:	setne	al
0x41c635:	ret	
F 0x415b8e
0x415b8e:	add	al, byte ptr [rax]
0x415b90:	add	rsp, 8
0x415b94:	pop	rbx
0x415b95:	pop	rbp
0x415b96:	pop	r12
0x415b98:	pop	r13
0x415b9a:	ret	
F 0x4158ee
0x4158ee:	add	byte ptr [rax], al
0x4158f0:	mov	rax, qword ptr [rip + 0x22301]
0x4158f7:	ret	
F 0x4151d4
0x412da7:	pop	rbx
0x412da8:	pop	rbp
0x412da9:	pop	r12
0x412dab:	ret	
F 0x41e5ba
0x41c245:	and	byte ptr [rcx + rcx*4 - 0x20], cl
0x41c249:	pop	rbp
0x41c24a:	pop	r12
0x41c24c:	pop	r13
0x41c24e:	pop	r14
0x41c250:	pop	r15
0x41c252:	ret	
F 0x42137f
0x42137f:	or	al, 0xff
0x421382:	dec	dword ptr [rcx + rcx*4 - 0x20]
0x421386:	pop	r12
0x421388:	ret	
F 0x414071
0x414071:	dec	dword ptr [rax - 0x77]
0x414074:	ret	
F 0x41c62e
0x41c62e:	xor	eax, eax
0x41c630:	test	edx, edx
0x41c632:	setne	al
0x41c635:	ret	
F 0x418e0d
0x410016:	ret	
F 0x41d636
0x4182b6:	add	byte ptr [rax], al
0x4182b8:	add	byte ptr [rbp + 0xe], dh
0x4182bb:	add	rsp, 0x18
0x4182bf:	ret	
F 0x422f4b
0x41e069:	pop	rbx
0x41e06b:	pop	rbp
0x41e06c:	pop	r12
0x41e06e:	pop	r13
0x41e070:	pop	r14
0x41e072:	pop	r15
0x41e074:	ret	
F 0x41590e
0x41590e:	add	byte ptr [rax], al
0x415910:	mov	rax, qword ptr [rip + 0x222d1]
0x415917:	ret	
F 0x4206e2
0x4158e2:	dec	dword ptr [rcx + rcx*4 - 0x20]
0x4158e6:	pop	r12
0x4158e8:	ret	
F 0x41bd27
0x415f67:	add	al, ch
0x415f69:	ret	
F 0x415917
0x410016:	ret	
F 0x421643
0x4132dd:	pop	rbp
0x4132de:	pop	r14
0x4132e0:	pop	r15
0x4132e2:	ret	
F 0x42441f
0x410016:	ret	
F 0x424544
0x418483:	setne	al
0x418486:	add	rsp, 8
0x41848a:	ret	
F 0x41c51f
0x410016:	ret	
F 0x423d42
0x41847d:	add	dword ptr [rax], eax
0x41847f:	add	byte ptr [rax], al
0x418481:	test	edx, edx
0x418483:	setne	al
0x418486:	add	rsp, 8
0x41848a:	ret	
F 0x41478c
0x414584:	mov	eax, esp
0x414586:	pop	rbx
0x414587:	pop	rbp
0x414588:	pop	r12
0x41458a:	ret	
F 0x41c6ec
0x412c74:	add	byte ptr [rax], al
0x412c76:	add	byte ptr [rax], al
0x412c78:	ret	
F 0x42268f
0x42268f:	add	rsp, 0x28
0x422693:	pop	rbx
0x422694:	pop	rbp
0x422695:	pop	r12
0x422697:	pop	r13
0x422699:	pop	r14
0x42269b:	pop	r15
0x42269d:	ret	
F 0x420707
0x420707:	clc	
0x420708:	add	dword ptr [rdi + 0x23], esi
0x42070b:	mov	dword ptr [rip + 0x17737], 1
0x420715:	ret	
F 0x41b186
0x41b186:	add	byte ptr [rax], al
0x41b188:	add	byte ptr [rbp + 0x32], dh
0x41b18b:	add	rsp, 0x10
0x41b18f:	pop	rbp
0x41b190:	ret	
F 0x4130ff
0x4130ff:	or	al, ch
0x413101:	ret	
F 0x416a93
0x410016:	ret	
F 0x422425
0x41cc8c:	ror	byte ptr [rax - 0x7d], 0xc4
0x41cc90:	or	byte ptr [rdi], cl
0x41cc92:	mov	dh, 0xc0
0x41cc94:	ret	
F 0x41cca2
0x41849a:	setne	al
0x41849d:	ret	
F 0x418e29
0x410016:	ret	
F 0x415913
0x415913:	shl	dword ptr [rdx], 1
0x415915:	add	al, byte ptr [rax]
0x415917:	ret	
F 0x425066
0x4182b6:	add	byte ptr [rax], al
0x4182b8:	add	byte ptr [rbp + 0xe], dh
0x4182bb:	add	rsp, 0x18
0x4182bf:	ret	
F 0x420a92
0x420a92:	add	byte ptr [rax], al
0x420a94:	add	byte ptr [rbp + 0x24], dh
0x420a97:	add	rsp, 0x28
0x420a9b:	pop	rbp
0x420a9c:	pop	r12
0x420a9e:	ret	
F 0x420715
0x410016:	ret	
F 0x415900
0x415900:	mov	rax, qword ptr [rip + 0x222e9]
0x415907:	ret	
F 0x41913b
0x417ab6:	add	rsp, 0x18
0x417aba:	ret	
F 0x42458e
0x42458e:	add	byte ptr [rax], al
0x424590:	mov	esi, dword ptr [rip + 0x139a2]
0x424596:	xor	eax, eax
0x424598:	test	esi, esi
0x42459a:	setne	al
0x42459d:	ret	
F 0x422f53
0x4132df:	pop	rsi
0x4132e0:	pop	r15
0x4132e2:	ret	
F 0x415047
0x4132e0:	pop	r15
0x4132e2:	ret	
F 0x41350c
0x4132da:	pop	r12
0x4132dc:	pop	r13
0x4132de:	pop	r14
0x4132e0:	pop	r15
0x4132e2:	ret	
F 0x420c78
0x410016:	ret	
F 0x413956
0x4126b1:	pop	rbp
0x4126b2:	ret	
F 0x423d3d
0x423d3d:	add	eax, 0x141be
0x423d42:	add	dword ptr [rax], eax
0x423d44:	add	byte ptr [rax], al
0x423d46:	test	edx, edx
0x423d48:	setne	al
0x423d4b:	add	rsp, 8
0x423d4f:	ret	
F 0x4258ba
0x4132e0:	pop	r15
0x4132e2:	ret	
F 0x4186bc
0x4186bc:	rol	dword ptr [rax], cl
0x4186be:	add	byte ptr [rax], al
0x4186c0:	add	rsp, 0x28
0x4186c4:	pop	rbx
0x4186c5:	pop	rbp
0x4186c6:	ret	
F 0x415e66
0x415e66:	nop	dword ptr cs:[rax + rax]
0x415e6f:	nop	
0x415e70:	mov	dword ptr [rip + 0x21d92], edi
0x415e76:	ret	
F 0x4158ec
0x4158ec:	add	byte ptr [rax], al
0x4158ee:	add	byte ptr [rax], al
0x4158f0:	mov	rax, qword ptr [rip + 0x22301]
0x4158f7:	ret	
F 0x42072a
0x41849a:	setne	al
0x41849d:	ret	
F 0x4166fb
0x416677:	dec	dword ptr [rax - 0x77]
0x41667a:	ret	0x8548
F 0x4166f9
0x4166f9:	mov	bl, 0xff
0x4166fb:	dec	dword ptr [rax - 0x77]
0x4166fe:	ret	0x8548
F 0x414587
0x412da8:	pop	rbp
0x412da9:	pop	r12
0x412dab:	ret	
F 0x413513
0x4132e1:	pop	rdi
0x4132e2:	ret	
F 0x420a9b
0x412da8:	pop	rbp
0x412da9:	pop	r12
0x412dab:	ret	
F 0x424070
0x410016:	ret	
F 0x415b89
0x415b89:	mov	qword ptr [rip + 0x22070], rax
0x415b90:	add	rsp, 8
0x415b94:	pop	rbx
0x415b95:	pop	rbp
0x415b96:	pop	r12
0x415b98:	pop	r13
0x415b9a:	ret	
F 0x420c70
0x420c70:	adc	edi, edi
0x420c72:	dec	dword ptr [rcx + rcx*4 - 0x20]
0x420c76:	pop	r12
0x420c78:	ret	
F 0x41d6fb
0x417ab6:	add	rsp, 0x18
0x417aba:	ret	
F 0x414323
0x4132df:	pop	rsi
0x4132e0:	pop	r15
0x4132e2:	ret	
F 0x422c28
0x4182b8:	add	byte ptr [rbp + 0xe], dh
0x4182bb:	add	rsp, 0x18
0x4182bf:	ret	
F 0x41bb94
0x410016:	ret	
F 0x41f5b4
0x410016:	ret	
F 0x413bbc
0x41394c:	sbb	eax, 0x18c48348
0x413951:	pop	rbx
0x413952:	pop	rbp
0x413953:	pop	r12
0x413955:	pop	r13
0x413957:	ret	
F 0x415452
0x4132df:	pop	rsi
0x4132e0:	pop	r15
0x4132e2:	ret	
F 0x4240c5
0x4240c5:	shr	al, 0x25
0x4240c8:	ret	
F 0x42512f
0x410016:	ret	
F 0x41fc0b
0x41cc8a:	setne	al
0x41cc8d:	add	rsp, 8
0x41cc91:	movzx	eax, al
0x41cc94:	ret	
F 0x41e070
0x4132de:	pop	r14
0x4132e0:	pop	r15
0x4132e2:	ret	
F 0x41d1e0
0x4132dc:	pop	r13
0x4132de:	pop	r14
0x4132e0:	pop	r15
0x4132e2:	ret	
F 0x413ef2
0x413049:	pop	rbp
0x41304a:	pop	r12
0x41304c:	pop	r13
0x41304e:	ret	
F 0x41f2d8
0x4182b8:	add	byte ptr [rbp + 0xe], dh
0x4182bb:	add	rsp, 0x18
0x4182bf:	ret	
F 0x4157cf
0x4132dc:	pop	r13
0x4132de:	pop	r14
0x4132e0:	pop	r15
0x4132e2:	ret	
F 0x4252a9
0x41cc84:	add	dword ptr [rax], eax
0x41cc86:	add	byte ptr [rax], al
0x41cc88:	test	eax, eax
0x41cc8a:	setne	al
0x41cc8d:	add	rsp, 8
0x41cc91:	movzx	eax, al
0x41cc94:	ret	
F 0x4190d8
0x4182b8:	add	byte ptr [rbp + 0xe], dh
0x4182bb:	add	rsp, 0x18
0x4182bf:	ret	
F 0x42294c
0x42294c:	ret	0x8ee8
F 0x423c3b
0x417ab6:	add	rsp, 0x18
0x417aba:	ret	
F 0x41cc99
0x41cc99:	adc	eax, 0x1b0a2
0x41cc9e:	xor	eax, eax
0x41cca0:	test	edx, edx
0x41cca2:	setne	al
0x41cca5:	ret	
F 0x422958
0x422958:	add	byte ptr [rax - 0x77], cl
0x42295b:	ret	0x8b48
F 0x422145
0x4126b1:	pop	rbp
0x4126b2:	ret	
F 0x415f67
0x415f67:	add	al, ch
0x415f69:	ret	
F 0x413572
0x4132dc:	pop	r13
0x4132de:	pop	r14
0x4132e0:	pop	r15
0x4132e2:	ret	
F 0x41d473
0x41304c:	pop	r13
0x41304e:	ret	
F 0x41e6a3
0x410016:	ret	
F 0x41c626
0x41c626:	add	byte ptr [rax], al
0x41c628:	mov	edx, dword ptr [rip + 0x1b6ea]
0x41c62e:	xor	eax, eax
0x41c630:	test	edx, edx
0x41c632:	setne	al
0x41c635:	ret	
F 0x41dcd6
0x41dcd6:	add	byte ptr [rax], al
0x41dcd8:	test	eax, eax
0x41dcda:	pop	rbx
0x41dcdb:	setne	al
0x41dcde:	movzx	eax, al
0x41dce1:	ret	
F 0x425068
0x4182b8:	add	byte ptr [rbp + 0xe], dh
0x4182bb:	add	rsp, 0x18
0x4182bf:	ret	
F 0x4237db
0x410016:	ret	
F 0x415b8b
0x415b8b:	add	eax, 0x22070
0x415b90:	add	rsp, 8
0x415b94:	pop	rbx
0x415b95:	pop	rbp
0x415b96:	pop	r12
0x415b98:	pop	r13
0x415b9a:	ret	
F 0x41bbcc
0x41bbcc:	add	byte ptr [rax], al
0x41bbce:	add	byte ptr [rax], al
0x41bbd0:	mov	esi, dword ptr [rip + 0x1c0f2]
0x41bbd6:	xor	eax, eax
0x41bbd8:	test	esi, esi
0x41bbda:	setne	al
0x41bbdd:	ret	
F 0x4212ad
0x41b61f:	add	rsp, 0x18
0x41b623:	pop	rbx
0x41b624:	pop	rbp
0x41b625:	ret	
F 0x41356f
0x4132d9:	pop	rbp
0x4132da:	pop	r12
0x4132dc:	pop	r13
0x4132de:	pop	r14
0x4132e0:	pop	r15
0x4132e2:	ret	
F 0x422144
0x4186c4:	pop	rbx
0x4186c5:	pop	rbp
0x4186c6:	ret	
F 0x4158f0
0x4158f0:	mov	rax, qword ptr [rip + 0x22301]
0x4158f7:	ret	
F 0x415449
0x41503d:	mov	eax, esp
0x41503f:	pop	rbx
0x415040:	pop	rbp
0x415041:	pop	r12
0x415043:	pop	r13
0x415045:	pop	r14
0x415047:	pop	r15
0x415049:	ret	
F 0x418873
0x410016:	ret	
F 0x41901f
0x410016:	ret	
F 0x41350a
0x4132d8:	pop	rbx
0x4132d9:	pop	rbp
0x4132da:	pop	r12
0x4132dc:	pop	r13
0x4132de:	pop	r14
0x4132e0:	pop	r15
0x4132e2:	ret	
F 0x41bc94
0x419d64:	nop	dword ptr [rax]
0x419d68:	ret	
F 0x41eb24
0x41c62c:	add	dword ptr [rax], eax
0x41c62e:	xor	eax, eax
0x41c630:	test	edx, edx
0x41c632:	setne	al
0x41c635:	ret	
F 0x41503f
0x4132d8:	pop	rbx
0x4132d9:	pop	rbp
0x4132da:	pop	r12
0x4132dc:	pop	r13
0x4132de:	pop	r14
0x4132e0:	pop	r15
0x4132e2:	ret	
F 0x4160fd
0x415b93:	or	byte ptr [rbx + 0x5d], bl
0x415b96:	pop	r12
0x415b98:	pop	r13
0x415b9a:	ret	
F 0x420194
0x410c57:	ret	0
F 0x415867
0x415867:	cmove	rax, rdx
0x41586b:	ret	
F 0x418575
0x410016:	ret	
F 0x412f58
0x412f58:	inc	edi
0x412f5a:	add	eax, 0x24c4d
0x412f5f:	add	byte ptr [rax], al
0x412f61:	add	byte ptr [rax], al
0x412f63:	add	rsp, 8
0x412f67:	ret	
F 0x41ce87
0x418b9a:	adc	byte ptr [rbx + 0x5d], bl
0x418b9d:	pop	r12
0x418b9f:	ret	
F 0x417776
0x417776:	add	dword ptr [rax], eax
0x417778:	add	byte ptr [rax + 0x63], cl
0x41777b:	ret	
F 0x415558
0x410016:	ret	
F 0x41847d
0x41847d:	add	dword ptr [rax], eax
0x41847f:	add	byte ptr [rax], al
0x418481:	test	edx, edx
0x418483:	setne	al
0x418486:	add	rsp, 8
0x41848a:	ret	
F 0x424ba3
0x424ba3:	ret	0x8948
F 0x41bae8
0x410016:	ret	
F 0x41b2d2
0x4126b1:	pop	rbp
0x4126b2:	ret	
F 0x41c61d
0x410012:	add	rsp, 8
0x410016:	ret	
F 0x4252b5
0x41cc90:	or	byte ptr [rdi], cl
0x41cc92:	mov	dh, 0xc0
0x41cc94:	ret	
F 0x414321
0x4132dd:	pop	rbp
0x4132de:	pop	r14
0x4132e0:	pop	r15
0x4132e2:	ret	
F 0x412f63
0x410012:	add	rsp, 8
0x410016:	ret	
F 0x4138be
0x410016:	ret	
F 0x41c518
0x4182b8:	add	byte ptr [rbp + 0xe], dh
0x4182bb:	add	rsp, 0x18
0x4182bf:	ret	
F 0x41bbd3
0x41bbd3:	rol	byte ptr [rcx], 0
0x41bbd6:	xor	eax, eax
0x41bbd8:	test	esi, esi
0x41bbda:	setne	al
0x41bbdd:	ret	
F 0x41e9cb
0x417ab6:	add	rsp, 0x18
0x417aba:	ret	
F 0x4144d0
0x410016:	ret	
F 0x41cc9c
0x41c62c:	add	dword ptr [rax], eax
0x41c62e:	xor	eax, eax
0x41c630:	test	edx, edx
0x41c632:	setne	al
0x41c635:	ret	
F 0x414588
0x412da9:	pop	r12
0x412dab:	ret	
F 0x41ff08
0x4194ab:	and	byte ptr [rbx + 0x5d], bl
0x4194ae:	pop	r12
0x4194b0:	ret	
F 0x41ce7f
0x41ce7f:	add	byte ptr [rax], al
0x41ce81:	add	byte ptr [rbp + 0x6c], dh
0x41ce84:	add	rsp, 0x10
0x41ce88:	pop	rbx
0x41ce89:	pop	rbp
0x41ce8a:	pop	r12
0x41ce8c:	ret	
F 0x421d7c
0x421b8c:	or	byte ptr [rax - 0x77], cl
0x421b8f:	ret	
F 0x41eb2d
0x410016:	ret	
F 0x415e70
0x415e70:	mov	dword ptr [rip + 0x21d92], edi
0x415e76:	ret	
F 0x418378
0x4182b8:	add	byte ptr [rbp + 0xe], dh
0x4182bb:	add	rsp, 0x18
0x4182bf:	ret	
F 0x41e064
0x41e064:	add	byte ptr [rax], al
0x41e066:	add	rsp, 0x48
0x41e06a:	pop	rbx
0x41e06b:	pop	rbp
0x41e06c:	pop	r12
0x41e06e:	pop	r13
0x41e070:	pop	r14
0x41e072:	pop	r15
0x41e074:	ret	
F 0x41e5c6
0x4132e1:	pop	rdi
0x4132e2:	ret	
F 0x41585f
0x41585f:	add	byte ptr [rax - 0x73], cl
0x415862:	add	eax, 0x10d17
0x415867:	cmove	rax, rdx
0x41586b:	ret	
F 0x41b190
0x410016:	ret	
F 0x4136eb
0x41304a:	pop	r12
0x41304c:	pop	r13
0x41304e:	ret	
F 0x418e9b
0x417ab6:	add	rsp, 0x18
0x417aba:	ret	
F 0x415865
0x415865:	add	dword ptr [rax], eax
0x415867:	cmove	rax, rdx
0x41586b:	ret	
F 0x41a9bf
0x410016:	ret	
F 0x4132e0
0x4132e0:	pop	r15
0x4132e2:	ret	
F 0x41669b
0x41667a:	ret	0x8548
F 0x417b61
0x417b61:	and	eax, 0x18c48348
0x417b66:	ret	
F 0x41c623
0x41c623:	nop	dword ptr [rax + rax]
0x41c628:	mov	edx, dword ptr [rip + 0x1b6ea]
0x41c62e:	xor	eax, eax
0x41c630:	test	edx, edx
0x41c632:	setne	al
0x41c635:	ret	
F 0x4205a3
0x410016:	ret	
F 0x41f33b
0x4182b6:	add	byte ptr [rax], al
0x4182b8:	add	byte ptr [rbp + 0xe], dh
0x4182bb:	add	rsp, 0x18
0x4182bf:	ret	
F 0x41592c
0x41592c:	add	byte ptr [rax], al
0x41592e:	add	byte ptr [rax], al
0x415930:	mov	rax, qword ptr [rip + 0x222a1]
0x415937:	ret	
F 0x41bbd4
0x419c64:	add	dword ptr [rax], eax
0x419c66:	xor	eax, eax
0x419c68:	test	esi, esi
0x419c6a:	setne	al
0x419c6d:	ret	
F 0x413951
0x4136e9:	pop	rbx
0x4136ea:	pop	rbp
0x4136eb:	pop	r12
0x4136ed:	pop	r13
0x4136ef:	ret	
F 0x41c252
0x410016:	ret	
F 0x422695
0x4132da:	pop	r12
0x4132dc:	pop	r13
0x4132de:	pop	r14
0x4132e0:	pop	r15
0x4132e2:	ret	
F 0x4252f5
0x4252f5:	nop	dword ptr [rax]
0x4252f8:	mov	ecx, dword ptr [rip + 0x12c6a]
0x4252fe:	xor	eax, eax
0x425300:	test	ecx, ecx
0x425302:	setne	al
0x425305:	ret	
F 0x419c14
0x418480:	add	byte ptr [rbp - 0x3f6af02e], al
0x418486:	add	rsp, 8
0x41848a:	ret	
F 0x418f56
0x4182b6:	add	byte ptr [rax], al
0x4182b8:	add	byte ptr [rbp + 0xe], dh
0x4182bb:	add	rsp, 0x18
0x4182bf:	ret	
F 0x412f3a
0x410016:	ret	
F 0x421382
0x4158e2:	dec	dword ptr [rcx + rcx*4 - 0x20]
0x4158e6:	pop	r12
0x4158e8:	ret	
F 0x41d696
0x4182b6:	add	byte ptr [rax], al
0x4182b8:	add	byte ptr [rbp + 0xe], dh
0x4182bb:	add	rsp, 0x18
0x4182bf:	ret	
F 0x41818e
0x4132e1:	pop	rdi
0x4132e2:	ret	
F 0x420560
0x410016:	ret	
F 0x42244d
0x410016:	ret	
F 0x414cf8
0x410016:	ret	
F 0x41ec9d
0x414071:	dec	dword ptr [rax - 0x77]
0x414074:	ret	
F 0x418efb
0x417ab6:	add	rsp, 0x18
0x417aba:	ret	
F 0x424356
0x424356:	add	byte ptr [rcx], dh
0x424358:	shr	al, 0xd2
0x42435b:	ret	
F 0x41c34f
0x410012:	add	rsp, 8
0x410016:	ret	
F 0x418af8
0x410016:	ret	
F 0x414792
0x410016:	ret	
F 0x415930
0x415930:	mov	rax, qword ptr [rip + 0x222a1]
0x415937:	ret	
F 0x413636
0x410016:	ret	
F 0x413871
0x413631:	xor	eax, eax
0x413633:	pop	rbp
0x413634:	pop	r12
0x413636:	ret	
F 0x41cc87
0x41cc87:	add	byte ptr [rbp - 0x3f6af040], al
0x41cc8d:	add	rsp, 8
0x41cc91:	movzx	eax, al
0x41cc94:	ret	
F 0x41c5c6
0x412da9:	pop	r12
0x412dab:	ret	
F 0x422d71
0x418499:	leave	
0x41849a:	setne	al
0x41849d:	ret	
F 0x41818a
0x4132dd:	pop	rbp
0x4132de:	pop	r14
0x4132e0:	pop	r15
0x4132e2:	ret	
F 0x42242b
0x41cc92:	mov	dh, 0xc0
0x41cc94:	ret	
F 0x4251eb
0x417ab6:	add	rsp, 0x18
0x417aba:	ret	
F 0x41d1d5
0x41d1d5:	add	byte ptr [rax], r8b
0x41d1d8:	add	rsp, 0x58
0x41d1dc:	pop	rbx
0x41d1dd:	pop	rbp
0x41d1de:	pop	r12
0x41d1e0:	pop	r13
0x41d1e2:	pop	r14
0x41d1e4:	pop	r15
0x41d1e6:	ret	
F 0x422e2a
0x41c6ea:	test	byte ptr [rax], al
0x41c6ec:	add	byte ptr [rax], al
0x41c6ee:	add	byte ptr [rax], al
0x41c6f0:	ret	
F 0x422c88
0x4182b8:	add	byte ptr [rbp + 0xe], dh
0x4182bb:	add	rsp, 0x18
0x4182bf:	ret	
F 0x413049
0x413049:	pop	rbp
0x41304a:	pop	r12
0x41304c:	pop	r13
0x41304e:	ret	
F 0x4256ea
0x41304a:	pop	r12
0x41304c:	pop	r13
0x41304e:	ret	
F 0x41c870
0x412da9:	pop	r12
0x412dab:	ret	
F 0x4206ba
0x4206ba:	ret	
F 0x413bc1
0x4136e9:	pop	rbx
0x4136ea:	pop	rbp
0x4136eb:	pop	r12
0x4136ed:	pop	r13
0x4136ef:	ret	
F 0x41bef9
0x4194a6:	add	byte ptr [rax], al
0x4194a8:	add	rsp, 0x20
0x4194ac:	pop	rbx
0x4194ad:	pop	rbp
0x4194ae:	pop	r12
0x4194b0:	ret	
F 0x414782
0x414782:	add	byte ptr [rax], al
0x414784:	add	byte ptr [rbp + 0x1b], dh
0x414787:	add	rsp, 0x20
0x41478b:	mov	rax, r12
0x41478e:	pop	rbx
0x41478f:	pop	rbp
0x414790:	pop	r12
0x414792:	ret	
F 0x415902
0x415902:	add	eax, 0x222e9
0x415907:	ret	
F 0x4158f4
0x4158f4:	and	eax, dword ptr [rdx]
0x4158f6:	add	bl, al
0x4158f8:	nop	dword ptr [rax + rax]
0x415900:	mov	rax, qword ptr [rip + 0x222e9]
0x415907:	ret	
F 0x4207d0
0x410016:	ret	
F 0x418fbf
0x410016:	ret	
F 0x41dd21
0x41dd21:	adc	eax, 0x1a03a
0x41dd26:	xor	eax, eax
0x41dd28:	test	edx, edx
0x41dd2a:	setne	al
0x41dd2d:	ret	
F 0x424547
0x410012:	add	rsp, 8
0x410016:	ret	
F 0x41ff05
0x4194a8:	add	rsp, 0x20
0x4194ac:	pop	rbx
0x4194ad:	pop	rbp
0x4194ae:	pop	r12
0x4194b0:	ret	
F 0x41eb1d
0x41eb1d:	nop	dword ptr [rax]
0x41eb20:	mov	edx, dword ptr [rip + 0x192aa]
0x41eb26:	xor	eax, eax
0x41eb28:	test	edx, edx
0x41eb2a:	setne	al
0x41eb2d:	ret	
F 0x4209ef
0x410016:	ret	
F 0x418e9f
0x410016:	ret	
F 0x4213d2
0x41cc90:	or	byte ptr [rdi], cl
0x41cc92:	mov	dh, 0xc0
0x41cc94:	ret	
F 0x417c26
0x417c26:	add	byte ptr [rax], al
0x417c28:	add	rsp, 8
0x417c2c:	pop	rbp
0x417c2d:	pop	r12
0x417c2f:	pop	r13
0x417c31:	pop	r14
0x417c33:	ret	
F 0x4143ce
0x410016:	ret	
F 0x41d756
0x4182b6:	add	byte ptr [rax], al
0x4182b8:	add	byte ptr [rbp + 0xe], dh
0x4182bb:	add	rsp, 0x18
0x4182bf:	ret	
F 0x41befe
0x4194ab:	and	byte ptr [rbx + 0x5d], bl
0x4194ae:	pop	r12
0x4194b0:	ret	
F 0x419236
0x410016:	ret	
F 0x419c60
0x419c60:	mov	esi, dword ptr [rip + 0x1dfea]
0x419c66:	xor	eax, eax
0x419c68:	test	esi, esi
0x419c6a:	setne	al
0x419c6d:	ret	
F 0x418499
0x418499:	leave	
0x41849a:	setne	al
0x41849d:	ret	
F 0x415883
0x415883:	add	al, 0xd
0x415885:	add	dword ptr [rax], eax
0x415887:	ret	
F 0x41f089
0x418a09:	add	byte ptr [rax], al
0x418a0b:	add	byte ptr [rbp + 0x3a], dh
0x418a0e:	add	rsp, 0x18
0x418a12:	pop	rbp
0x418a13:	pop	r12
0x418a15:	ret	
F 0x41ba96
0x4182b6:	add	byte ptr [rax], al
0x4182b8:	add	byte ptr [rbp + 0xe], dh
0x4182bb:	add	rsp, 0x18
0x4182bf:	ret	
F 0x418493
0x418493:	test	dword ptr [rcx], 0x85c03100
0x418499:	leave	
0x41849a:	setne	al
0x41849d:	ret	
F 0x41c5c4
0x4158e4:	mov	eax, esp
0x4158e6:	pop	r12
0x4158e8:	ret	
F 0x4207cc
0x412c74:	add	byte ptr [rax], al
0x412c76:	add	byte ptr [rax], al
0x412c78:	ret	
F 0x4252b1
0x41cc8c:	ror	byte ptr [rax - 0x7d], 0xc4
0x41cc90:	or	byte ptr [rdi], cl
0x41cc92:	mov	dh, 0xc0
0x41cc94:	ret	
F 0x415860
0x415860:	lea	rax, [rip + 0x10d17]
0x415867:	cmove	rax, rdx
0x41586b:	ret	
F 0x41bb88
0x41847e:	add	byte ptr [rax], al
0x418480:	add	byte ptr [rbp - 0x3f6af02e], al
0x418486:	add	rsp, 8
0x41848a:	ret	
F 0x424ba2
0x424ba2:	ret	0x8948
F 0x418af7
0x4126b1:	pop	rbp
0x4126b2:	ret	
F 0x4158f6
0x4158f6:	add	bl, al
0x4158f8:	nop	dword ptr [rax + rax]
0x415900:	mov	rax, qword ptr [rip + 0x222e9]
0x415907:	ret	
F 0x414ef8
0x410016:	ret	
F 0x420c6f
0x420c6f:	pop	rbp
0x420c70:	adc	edi, edi
0x420c72:	dec	dword ptr [rcx + rcx*4 - 0x20]
0x420c76:	pop	r12
0x420c78:	ret	
F 0x41b9df
0x410016:	ret	
F 0x41b18b
0x418920:	add	rsp, 0x10
0x418924:	pop	rbp
0x418925:	ret	
F 0x419136
0x4182b6:	add	byte ptr [rax], al
0x4182b8:	add	byte ptr [rbp + 0xe], dh
0x4182bb:	add	rsp, 0x18
0x4182bf:	ret	
F 0x415e7a
0x415e7a:	test	byte ptr [rax], al
0x415e7c:	add	byte ptr [rax], al
0x415e7e:	add	byte ptr [rax], al
0x415e80:	mov	eax, dword ptr [rip + 0x21d82]
0x415e86:	ret	
F 0x41d465
0x41d465:	add	byte ptr [rbp + 0x49], dh
0x41d468:	add	rsp, 0x28
0x41d46c:	mov	eax, r12d
0x41d46f:	pop	rbx
0x41d470:	pop	rbp
0x41d471:	pop	r12
0x41d473:	pop	r13
0x41d475:	ret	
F 0x423d48
0x418483:	setne	al
0x418486:	add	rsp, 8
0x41848a:	ret	
F 0x418376
0x4182b6:	add	byte ptr [rax], al
0x4182b8:	add	byte ptr [rbp + 0xe], dh
0x4182bb:	add	rsp, 0x18
0x4182bf:	ret	
F 0x415916
0x415916:	add	bl, al
0x415918:	nop	dword ptr [rax + rax]
0x415920:	mov	rax, qword ptr [rip + 0x222b9]
0x415927:	ret	
F 0x41818d
0x4132e0:	pop	r15
0x4132e2:	ret	
F 0x41dd24
0x41c62c:	add	dword ptr [rax], eax
0x41c62e:	xor	eax, eax
0x41c630:	test	edx, edx
0x41c632:	setne	al
0x41c635:	ret	
F 0x41b18f
0x4126b1:	pop	rbp
0x4126b2:	ret	
F 0x415859
0x415859:	lea	rdx, [rip + 0x10d0e]
0x415860:	lea	rax, [rip + 0x10d17]
0x415867:	cmove	rax, rdx
0x41586b:	ret	
F 0x412cb0
0x412c6f:	jmp	rax
F 0x421384
0x4158e4:	mov	eax, esp
0x4158e6:	pop	r12
0x4158e8:	ret	
F 0x41e066
0x41e066:	add	rsp, 0x48
0x41e06a:	pop	rbx
0x41e06b:	pop	rbp
0x41e06c:	pop	r12
0x41e06e:	pop	r13
0x41e070:	pop	r14
0x41e072:	pop	r15
0x41e074:	ret	
F 0x41d1dc
0x4132d8:	pop	rbx
0x4132d9:	pop	rbp
0x4132da:	pop	r12
0x4132dc:	pop	r13
0x4132de:	pop	r14
0x4132e0:	pop	r15
0x4132e2:	ret	
F 0x41dcce
0x41dcce:	mov	dword ptr [rip + 0x1a08c], 1
0x41dcd8:	test	eax, eax
0x41dcda:	pop	rbx
0x41dcdb:	setne	al
0x41dcde:	movzx	eax, al
0x41dce1:	ret	
F 0x413ef0
0x4136e8:	sbb	byte ptr [rbx + 0x5d], bl
0x4136eb:	pop	r12
0x4136ed:	pop	r13
0x4136ef:	ret	
F 0x41848d
0x41848d:	add	byte ptr [rax], r8b
0x418490:	mov	ecx, dword ptr [rip + 0x1f77a]
0x418496:	xor	eax, eax
0x418498:	test	ecx, ecx
0x41849a:	setne	al
0x41849d:	ret	
F 0x416102
0x41304c:	pop	r13
0x41304e:	ret	
F 0x41fcf4
0x419d64:	nop	dword ptr [rax]
0x419d68:	ret	
F 0x422d21
0x41cc8a:	setne	al
0x41cc8d:	add	rsp, 8
0x41cc91:	movzx	eax, al
0x41cc94:	ret	
F 0x4131fe
0x410016:	ret	
F 0x41c5c8
0x410016:	ret	
F 0x41ba9f
0x410016:	ret	
F 0x41c896
0x410016:	ret	
F 0x41e218
0x410016:	ret	
F 0x41fecb
0x410016:	ret	
F 0x41356a
0x4134c8:	add	rsp, 8
0x4134cc:	pop	rbx
0x4134cd:	pop	rbp
0x4134ce:	pop	r12
0x4134d0:	pop	r13
0x4134d2:	pop	r14
0x4134d4:	pop	r15
0x4134d6:	ret	
F 0x419e31
0x410016:	ret	
F 0x4132df
0x4132df:	pop	rsi
0x4132e0:	pop	r15
0x4132e2:	ret	
F 0x415a5d
0x410016:	ret	
F 0x414bb8
0x414bb8:	add	byte ptr [rax], al
0x414bba:	add	rsp, 0x58
0x414bbe:	mov	rax, r14
0x414bc1:	pop	rbx
0x414bc2:	pop	rbp
0x414bc3:	pop	r12
0x414bc5:	pop	r13
0x414bc7:	pop	r14
0x414bc9:	pop	r15
0x414bcb:	ret	
F 0x413bba
0x41394a:	add	byte ptr [rbp + 0x1d], dh
0x41394d:	add	rsp, 0x18
0x413951:	pop	rbx
0x413952:	pop	rbp
0x413953:	pop	r12
0x413955:	pop	r13
0x413957:	ret	
F 0x417551
0x417551:	add	byte ptr [rax + 0x63], cl
0x417554:	ret	
F 0x4206e4
0x4158e4:	mov	eax, esp
0x4158e6:	pop	r12
0x4158e8:	ret	
F 0x413632
0x413632:	rcr	byte ptr [rbp + 0x41], 0x5c
0x413636:	ret	
F 0x413575
0x4132df:	pop	rsi
0x4132e0:	pop	r15
0x4132e2:	ret	
F 0x416088
0x410016:	ret	
F 0x4213f0
0x4213f0:	mov	edx, dword ptr [rip + 0x16a8a]
0x4213f6:	xor	eax, eax
0x4213f8:	test	edx, edx
0x4213fa:	setne	al
0x4213fd:	ret	
F 0x41e8e0
0x41e8e0:	add	byte ptr [rax - 0x77], cl
0x41e8e3:	ret	0xa7e8
F 0x4132d8
0x4132d8:	pop	rbx
0x4132d9:	pop	rbp
0x4132da:	pop	r12
0x4132dc:	pop	r13
0x4132de:	pop	r14
0x4132e0:	pop	r15
0x4132e2:	ret	
F 0x41fc08
0x41cc87:	add	byte ptr [rbp - 0x3f6af040], al
0x41cc8d:	add	rsp, 8
0x41cc91:	movzx	eax, al
0x41cc94:	ret	
F 0x42500f
0x410016:	ret	
F 0x4213ce
0x41cc8c:	ror	byte ptr [rax - 0x7d], 0xc4
0x41cc90:	or	byte ptr [rdi], cl
0x41cc92:	mov	dh, 0xc0
0x41cc94:	ret	
F 0x415c30
0x415c30:	add	al, byte ptr [rax]
0x415c32:	pop	r12
0x415c34:	ret	
F 0x415885
0x41587a:	add	dword ptr [rax], eax
0x41587c:	ret	
F 0x4157d0
0x4132dd:	pop	rbp
0x4132de:	pop	r14
0x4132e0:	pop	r15
0x4132e2:	ret	
F 0x413872
0x413632:	rcr	byte ptr [rbp + 0x41], 0x5c
0x413636:	ret	
F 0x422c26
0x4182b6:	add	byte ptr [rax], al
0x4182b8:	add	byte ptr [rbp + 0xe], dh
0x4182bb:	add	rsp, 0x18
0x4182bf:	ret	
F 0x41ff0b
0x412da9:	pop	r12
0x412dab:	ret	
F 0x415875
0x415875:	lea	rax, [rip + 0x10d17]
0x41587c:	ret	
F 0x42269b
0x4132e0:	pop	r15
0x4132e2:	ret	
F 0x419c0c
0x419c0c:	add	eax, 0x1e03f
0x419c11:	add	dword ptr [rax], eax
0x419c13:	add	byte ptr [rax], al
0x419c15:	test	edx, edx
0x419c17:	setne	al
0x419c1a:	add	rsp, 8
0x419c1e:	ret	
F 0x41587a
0x41587a:	add	dword ptr [rax], eax
0x41587c:	ret	
F 0x413bc6
0x4126b1:	pop	rbp
0x4126b2:	ret	
F 0x421b8c
0x421b8c:	or	byte ptr [rax - 0x77], cl
0x421b8f:	ret	
F 0x41d758
0x4182b8:	add	byte ptr [rbp + 0xe], dh
0x4182bb:	add	rsp, 0x18
0x4182bf:	ret	
F 0x418ef8
0x4182b8:	add	byte ptr [rbp + 0xe], dh
0x4182bb:	add	rsp, 0x18
0x4182bf:	ret	
F 0x422f4d
0x4132d9:	pop	rbp
0x4132da:	pop	r12
0x4132dc:	pop	r13
0x4132de:	pop	r14
0x4132e0:	pop	r15
0x4132e2:	ret	
F 0x412cea
0x412cea:	mov	ecx, 0x100024e
0x412cef:	pop	rbp
0x412cf0:	ret	
F 0x412cad
0x412cad:	sal	byte ptr [rax + rcx - 1], 0xe0
0x412cb2:	nop	word ptr [rax + rax]
0x412cb8:	ret	
F 0x41d2e1
0x41d2e1:	add	byte ptr [rax], al
0x41d2e3:	add	byte ptr [rbp + 5], dh
0x41d2e6:	add	rsp, 0x38
0x41d2ea:	ret	
F 0x41d1de
0x4132da:	pop	r12
0x4132dc:	pop	r13
0x4132de:	pop	r14
0x4132e0:	pop	r15
0x4132e2:	ret	
F 0x41c51b
0x417ab6:	add	rsp, 0x18
0x417aba:	ret	
F 0x414ef5
0x41374c:	add	byte ptr [rax - 0x77], cl
0x41374f:	ret	
F 0x415887
0x410016:	ret	
F 0x425302
0x41849a:	setne	al
0x41849d:	ret	
F 0x418491
0x418491:	or	eax, 0x1f77a
0x418496:	xor	eax, eax
0x418498:	test	ecx, ecx
0x41849a:	setne	al
0x41849d:	ret	
F 0x415453
0x4132e0:	pop	r15
0x4132e2:	ret	
F 0x41cc8b
0x41cc8b:	xchg	eax, ebp
0x41cc8c:	ror	byte ptr [rax - 0x7d], 0xc4
0x41cc90:	or	byte ptr [rdi], cl
0x41cc92:	mov	dh, 0xc0
0x41cc94:	ret	
F 0x413952
0x413049:	pop	rbp
0x41304a:	pop	r12
0x41304c:	pop	r13
0x41304e:	ret	
F 0x412c74
0x412c74:	add	byte ptr [rax], al
0x412c76:	add	byte ptr [rax], al
0x412c78:	ret	
F 0x4213c9
0x41cc87:	add	byte ptr [rbp - 0x3f6af040], al
0x41cc8d:	add	rsp, 8
0x41cc91:	movzx	eax, al
0x41cc94:	ret	
F 0x4158e9
0x4158e9:	nop	dword ptr [rax]
0x4158f0:	mov	rax, qword ptr [rip + 0x22301]
0x4158f7:	ret	
F 0x4208fd
0x418b97:	add	rsp, 0x10
0x418b9b:	pop	rbx
0x418b9c:	pop	rbp
0x418b9d:	pop	r12
0x418b9f:	ret	
F 0x416100
0x41304a:	pop	r12
0x41304c:	pop	r13
0x41304e:	ret	
F 0x417ab1
0x417ab1:	add	byte ptr [rax], al
0x417ab3:	add	byte ptr [rbp + 0x31], dh
0x417ab6:	add	rsp, 0x18
0x417aba:	ret	
F 0x41ce81
0x41ce81:	add	byte ptr [rbp + 0x6c], dh
0x41ce84:	add	rsp, 0x10
0x41ce88:	pop	rbx
0x41ce89:	pop	rbp
0x41ce8a:	pop	r12
0x41ce8c:	ret	
F 0x41ddda
0x41c6ea:	test	byte ptr [rax], al
0x41c6ec:	add	byte ptr [rax], al
0x41c6ee:	add	byte ptr [rax], al
0x41c6f0:	ret	
F 0x422d28
0x41cc91:	movzx	eax, al
0x41cc94:	ret	
F 0x41f095
0x410016:	ret	
F 0x4247da
0x4132d9:	pop	rbp
0x4132da:	pop	r12
0x4132dc:	pop	r13
0x4132de:	pop	r14
0x4132e0:	pop	r15
0x4132e2:	ret	
F 0x421f4f
0x410016:	ret	
F 0x412f19
0x412f19:	mov	dword ptr [rip + 0x24c8d], 1
0x412f23:	add	rsp, 8
0x412f27:	ret	
F 0x415046
0x4132df:	pop	rsi
0x4132e0:	pop	r15
0x4132e2:	ret	
F 0x418494
0x418494:	add	dword ptr [rax], eax
0x418496:	xor	eax, eax
0x418498:	test	ecx, ecx
0x41849a:	setne	al
0x41849d:	ret	
F 0x41cc95
0x41cc95:	nop	dword ptr [rax]
0x41cc98:	mov	edx, dword ptr [rip + 0x1b0a2]
0x41cc9e:	xor	eax, eax
0x41cca0:	test	edx, edx
0x41cca2:	setne	al
0x41cca5:	ret	
F 0x41eb20
0x41eb20:	mov	edx, dword ptr [rip + 0x192aa]
0x41eb26:	xor	eax, eax
0x41eb28:	test	edx, edx
0x41eb2a:	setne	al
0x41eb2d:	ret	
F 0x417c28
0x417c28:	add	rsp, 8
0x417c2c:	pop	rbp
0x417c2d:	pop	r12
0x417c2f:	pop	r13
0x417c31:	pop	r14
0x417c33:	ret	
F 0x4240c8
0x410016:	ret	
F 0x423c84
0x4158e4:	mov	eax, esp
0x4158e6:	pop	r12
0x4158e8:	ret	
F 0x41374c
0x41374c:	add	byte ptr [rax - 0x77], cl
0x41374f:	ret	
F 0x42403d
0x412da7:	pop	rbx
0x412da8:	pop	rbp
0x412da9:	pop	r12
0x412dab:	ret	
F 0x419d8d
0x410016:	ret	
F 0x414584
0x414584:	mov	eax, esp
0x414586:	pop	rbx
0x414587:	pop	rbp
0x414588:	pop	r12
0x41458a:	ret	
F 0x41f5ad
0x41f5ad:	add	byte ptr [rbp + 0x21], dh
0x41f5b0:	add	rsp, 0x18
0x41f5b4:	ret	
F 0x416da7
0x410016:	ret	
F 0x42269d
0x410016:	ret	
F 0x420c76
0x412da9:	pop	r12
0x412dab:	ret	
F 0x41a9b3
0x41a9b3:	add	byte ptr [rax], al
0x41a9b5:	pop	rbx
0x41a9b6:	pop	rbp
0x41a9b7:	pop	r12
0x41a9b9:	pop	r13
0x41a9bb:	pop	r14
0x41a9bd:	pop	r15
0x41a9bf:	ret	
F 0x420724
0x41c62c:	add	dword ptr [rax], eax
0x41c62e:	xor	eax, eax
0x41c630:	test	edx, edx
0x41c632:	setne	al
0x41c635:	ret	
F 0x41ba3f
0x410016:	ret	
F 0x421fab
0x417ab6:	add	rsp, 0x18
0x417aba:	ret	
F 0x41304d
0x4126b1:	pop	rbp
0x4126b2:	ret	
F 0x4157d2
0x4132df:	pop	rsi
0x4132e0:	pop	r15
0x4132e2:	ret	
F 0x41ba3b
0x417ab6:	add	rsp, 0x18
0x417aba:	ret	
F 0x418b9a
0x418b9a:	adc	byte ptr [rbx + 0x5d], bl
0x418b9d:	pop	r12
0x418b9f:	ret	
F 0x412f61
0x412f21:	add	byte ptr [rax], al
0x412f23:	add	rsp, 8
0x412f27:	ret	
F 0x41587c
0x410016:	ret	
F 0x420f21
0x417c2c:	pop	rbp
0x417c2d:	pop	r12
0x417c2f:	pop	r13
0x417c31:	pop	r14
0x417c33:	ret	
F 0x41cc98
0x41cc98:	mov	edx, dword ptr [rip + 0x1b0a2]
0x41cc9e:	xor	eax, eax
0x41cca0:	test	edx, edx
0x41cca2:	setne	al
0x41cca5:	ret	
F 0x41e5c1
0x4132dc:	pop	r13
0x4132de:	pop	r14
0x4132e0:	pop	r15
0x4132e2:	ret	
F 0x41e212
0x41e212:	stosb	byte ptr [rdi], al
0x41e213:	cmp	al, 0xff
0x41e215:	dec	dword ptr [rax - 0x77]
0x41e218:	ret	
F 0x41edf5
0x412da8:	pop	rbp
0x412da9:	pop	r12
0x412dab:	ret	
F 0x41cc9e
0x41c62e:	xor	eax, eax
0x41c630:	test	edx, edx
0x41c632:	setne	al
0x41c635:	ret	
F 0x425126
0x4182b6:	add	byte ptr [rax], al
0x4182b8:	add	byte ptr [rbp + 0xe], dh
0x4182bb:	add	rsp, 0x18
0x4182bf:	ret	
F 0x42243d
0x42243d:	nop	dword ptr [rax]
0x422440:	mov	edx, dword ptr [rip + 0x15a5a]
0x422446:	xor	eax, eax
0x422448:	test	edx, edx
0x42244a:	setne	al
0x42244d:	ret	
F 0x421807
0x421807:	and	eax, ebp
0x421809:	ret	
F 0x418e96
0x4182b6:	add	byte ptr [rax], al
0x4182b8:	add	byte ptr [rbp + 0xe], dh
0x4182bb:	add	rsp, 0x18
0x4182bf:	ret	
F 0x41590d
0x41590d:	add	byte ptr [rax], al
0x41590f:	add	byte ptr [rax - 0x75], cl
0x415912:	add	eax, 0x222d1
0x415917:	ret	
F 0x41dd19
0x41dd19:	add	dword ptr [rax], eax
0x41dd1b:	jmp	0x41dcce
F 0x415e75
0x415e75:	add	bl, al
0x415e77:	nop	word ptr [rax + rax]
0x415e80:	mov	eax, dword ptr [rip + 0x21d82]
0x415e86:	ret	
F 0x41b976
0x4182b6:	add	byte ptr [rax], al
0x4182b8:	add	byte ptr [rbp + 0xe], dh
0x4182bb:	add	rsp, 0x18
0x4182bf:	ret	
F 0x412cb6
0x412c76:	add	byte ptr [rax], al
0x412c78:	ret	
F 0x4134d4
0x4132e0:	pop	r15
0x4132e2:	ret	
F 0x413dd1
0x410016:	ret	
F 0x413577
0x4132e1:	pop	rdi
0x4132e2:	ret	
F 0x41849a
0x41849a:	setne	al
0x41849d:	ret	
F 0x414bc8
0x4132df:	pop	rsi
0x4132e0:	pop	r15
0x4132e2:	ret	
F 0x41922c
0x4191a6:	add	byte ptr [rax], al
0x4191a8:	add	byte ptr [rbp + 0xf], dh
0x4191ab:	add	rsp, 0x10
0x4191af:	pop	rbp
0x4191b0:	ret	
F 0x42447f
0x410016:	ret	
F 0x42072d
0x410016:	ret	
F 0x412cb3
0x412cb3:	nop	dword ptr [rax + rax]
0x412cb8:	ret	
F 0x41c578
0x4182b8:	add	byte ptr [rbp + 0xe], dh
0x4182bb:	add	rsp, 0x18
0x4182bf:	ret	
F 0x41fc34
0x41c62c:	add	dword ptr [rax], eax
0x41c62e:	xor	eax, eax
0x41c630:	test	edx, edx
0x41c632:	setne	al
0x41c635:	ret	
F 0x418a6f
0x410016:	ret	
F 0x4211a8
0x4182b8:	add	byte ptr [rbp + 0xe], dh
0x4182bb:	add	rsp, 0x18
0x4182bf:	ret	
F 0x4213ca
0x41cc88:	test	eax, eax
0x41cc8a:	setne	al
0x41cc8d:	add	rsp, 8
0x41cc91:	movzx	eax, al
0x41cc94:	ret	
F 0x412f23
0x410012:	add	rsp, 8
0x410016:	ret	
F 0x415a57
0x415a57:	add	byte ptr [rax - 1], bh
0x415a5d:	ret	
F 0x4194b0
0x410016:	ret	
F 0x41f3be
0x4191a6:	add	byte ptr [rax], al
0x4191a8:	add	byte ptr [rbp + 0xf], dh
0x4191ab:	add	rsp, 0x10
0x4191af:	pop	rbp
0x4191b0:	ret	
F 0x41fc01
0x41fc01:	sti	
F 0x421cac
0x421b8c:	or	byte ptr [rax - 0x77], cl
0x421b8f:	ret	
F 0x41e4a9
0x418a09:	add	byte ptr [rax], al
0x418a0b:	add	byte ptr [rbp + 0x3a], dh
0x418a0e:	add	rsp, 0x18
0x418a12:	pop	rbp
0x418a13:	pop	r12
0x418a15:	ret	
F 0x41ff0a
0x412da8:	pop	rbp
0x412da9:	pop	r12
0x412dab:	ret	
F 0x42403e
0x412da8:	pop	rbp
0x412da9:	pop	r12
0x412dab:	ret	
F 0x4258b4
0x4132da:	pop	r12
0x4132dc:	pop	r13
0x4132de:	pop	r14
0x4132e0:	pop	r15
0x4132e2:	ret	
F 0x415928
0x415928:	nop	dword ptr [rax + rax]
0x415930:	mov	rax, qword ptr [rip + 0x222a1]
0x415937:	ret	
F 0x41cc91
0x41cc91:	movzx	eax, al
0x41cc94:	ret	
F 0x414324
0x4132e0:	pop	r15
0x4132e2:	ret	
F 0x4160f8
0x415b8e:	add	al, byte ptr [rax]
0x415b90:	add	rsp, 8
0x415b94:	pop	rbx
0x415b95:	pop	rbp
0x415b96:	pop	r12
0x415b98:	pop	r13
0x415b9a:	ret	
F 0x418a12
0x412da8:	pop	rbp
0x412da9:	pop	r12
0x412dab:	ret	
F 0x4175ce
0x410016:	ret	
F 0x422e28
0x41c6e8:	nop	dword ptr [rax + rax]
0x41c6f0:	ret	
F 0x41dddc
0x412c74:	add	byte ptr [rax], al
0x412c76:	add	byte ptr [rax], al
0x412c78:	ret	
F 0x41bf03
0x410016:	ret	
F 0x41c621
0x410016:	ret	
F 0x41591c
0x41591c:	add	byte ptr [rax], al
0x41591e:	add	byte ptr [rax], al
0x415920:	mov	rax, qword ptr [rip + 0x222b9]
0x415927:	ret	
F 0x4213c7
0x41cc85:	add	byte ptr [rax], al
0x41cc87:	add	byte ptr [rbp - 0x3f6af040], al
0x41cc8d:	add	rsp, 8
0x41cc91:	movzx	eax, al
0x41cc94:	ret	
F 0x415925
0x4158f5:	add	al, byte ptr [rax]
0x4158f7:	ret	
F 0x41cc38
0x410016:	ret	
F 0x41458a
0x410016:	ret	
F 0x422d24
0x41cc8d:	add	rsp, 8
0x41cc91:	movzx	eax, al
0x41cc94:	ret	
F 0x423b7b
0x417ab6:	add	rsp, 0x18
0x417aba:	ret	
F 0x412efa
0x410016:	ret	
F 0x41bbce
0x41bbce:	add	byte ptr [rax], al
0x41bbd0:	mov	esi, dword ptr [rip + 0x1c0f2]
0x41bbd6:	xor	eax, eax
0x41bbd8:	test	esi, esi
0x41bbda:	setne	al
0x41bbdd:	ret	
F 0x42438c
0x42438c:	shr	al, 0x9e
0x42438f:	ret	
F 0x41cd3c
0x412c74:	add	byte ptr [rax], al
0x412c76:	add	byte ptr [rax], al
0x412c78:	ret	
F 0x4247df
0x4132de:	pop	r14
0x4132e0:	pop	r15
0x4132e2:	ret	
F 0x4247d3
0x4247d3:	add	byte ptr [rax], al
0x4247d5:	add	rsp, 0x38
0x4247d9:	pop	rbx
0x4247da:	pop	rbp
0x4247db:	pop	r12
0x4247dd:	pop	r13
0x4247df:	pop	r14
0x4247e1:	pop	r15
0x4247e3:	ret	
F 0x41dd22
0x41dd22:	cmp	ah, byte ptr [rax - 0x3fceffff]
0x41dd28:	test	edx, edx
0x41dd2a:	setne	al
0x41dd2d:	ret	
F 0x41d6f6
0x4182b6:	add	byte ptr [rax], al
0x4182b8:	add	byte ptr [rbp + 0xe], dh
0x4182bb:	add	rsp, 0x18
0x4182bf:	ret	
F 0x41c516
0x4182b6:	add	byte ptr [rax], al
0x4182b8:	add	byte ptr [rbp + 0xe], dh
0x4182bb:	add	rsp, 0x18
0x4182bf:	ret	
F 0x4132d9
0x4132d9:	pop	rbp
0x4132da:	pop	r12
0x4132dc:	pop	r13
0x4132de:	pop	r14
0x4132e0:	pop	r15
0x4132e2:	ret	
F 0x413ae0
0x413630:	pop	rbx
0x413631:	xor	eax, eax
0x413633:	pop	rbp
0x413634:	pop	r12
0x413636:	ret	
F 0x418f5f
0x410016:	ret	
F 0x420d8e
0x412c76:	add	byte ptr [rax], al
0x412c78:	ret	
F 0x41dae9
0x410016:	ret	
F 0x4256ec
0x41304c:	pop	r13
0x41304e:	ret	
F 0x4183c4
0x4158e4:	mov	eax, esp
0x4158e6:	pop	r12
0x4158e8:	ret	
F 0x413ef7
0x410016:	ret	
F 0x41eb00
0x41cc8b:	xchg	eax, ebp
0x41cc8c:	ror	byte ptr [rax - 0x7d], 0xc4
0x41cc90:	or	byte ptr [rdi], cl
0x41cc92:	mov	dh, 0xc0
0x41cc94:	ret	
F 0x419d64
0x419d64:	nop	dword ptr [rax]
0x419d68:	ret	
F 0x41c6f0
0x410016:	ret	
F 0x41bb8d
0x418483:	setne	al
0x418486:	add	rsp, 8
0x41848a:	ret	
F 0x414bc5
0x4132dc:	pop	r13
0x4132de:	pop	r14
0x4132e0:	pop	r15
0x4132e2:	ret	
F 0x4243bf
0x410016:	ret	
F 0x424598
0x419c68:	test	esi, esi
0x419c6a:	setne	al
0x419c6d:	ret	
F 0x41f08e
0x418a0e:	add	rsp, 0x18
0x418a12:	pop	rbp
0x418a13:	pop	r12
0x418a15:	ret	
F 0x41eb07
0x41cc92:	mov	dh, 0xc0
0x41cc94:	ret	
F 0x415a62
0x415a62:	sub	eax, dword ptr [rsi]
0x415a64:	ret	
F 0x4208e7
0x415f67:	add	al, ch
0x415f69:	ret	
F 0x4252fe
0x418496:	xor	eax, eax
0x418498:	test	ecx, ecx
0x41849a:	setne	al
0x41849d:	ret	
F 0x41f62b
0x41f5ab:	add	byte ptr [rax], al
0x41f5ad:	add	byte ptr [rbp + 0x21], dh
0x41f5b0:	add	rsp, 0x18
0x41f5b4:	ret	
F 0x424b9f
0x424b9f:	add	byte ptr [rax + 0xf], cl
0x424ba2:	ret	0x8948
F 0x4194ab
0x4194ab:	and	byte ptr [rbx + 0x5d], bl
0x4194ae:	pop	r12
0x4194b0:	ret	
F 0x41544d
0x4132da:	pop	r12
0x4132dc:	pop	r13
0x4132de:	pop	r14
0x4132e0:	pop	r15
0x4132e2:	ret	
F 0x41dd2d
0x410016:	ret	
F 0x413bbd
0x4136e5:	add	rsp, 0x18
0x4136e9:	pop	rbx
0x4136ea:	pop	rbp
0x4136eb:	pop	r12
0x4136ed:	pop	r13
0x4136ef:	ret	
F 0x42454b
0x410016:	ret	
F 0x4252b7
0x41cc92:	mov	dh, 0xc0
0x41cc94:	ret	
F 0x41f430
0x417ab6:	add	rsp, 0x18
0x417aba:	ret	
F 0x417c22
0x417c22:	nop	word ptr [rax + rax]
0x417c28:	add	rsp, 8
0x417c2c:	pop	rbp
0x417c2d:	pop	r12
0x417c2f:	pop	r13
0x417c31:	pop	r14
0x417c33:	ret	
F 0x423c3f
0x410016:	ret	
F 0x412e49
0x410016:	ret	
F 0x42244a
0x41849a:	setne	al
0x41849d:	ret	
F 0x420cc0
0x41cc88:	test	eax, eax
0x41cc8a:	setne	al
0x41cc8d:	add	rsp, 8
0x41cc91:	movzx	eax, al
0x41cc94:	ret	
F 0x41406f
0x410016:	ret	
F 0x423d54
0x419c64:	add	dword ptr [rax], eax
0x419c66:	xor	eax, eax
0x419c68:	test	esi, esi
0x419c6a:	setne	al
0x419c6d:	ret	
F 0x41c86f
0x412da8:	pop	rbp
0x412da9:	pop	r12
0x412dab:	ret	
F 0x4250cb
0x417ab6:	add	rsp, 0x18
0x417aba:	ret	
F 0x419c1a
0x410012:	add	rsp, 8
0x410016:	ret	
F 0x417c04
0x417c04:	add	byte ptr [rax], al
0x417c06:	add	byte ptr [rax - 0x77], cl
0x417c09:	ret	0x81e8
F 0x414174
0x410016:	ret	
F 0x420f20
0x420f20:	pop	rbx
0x420f21:	pop	rbp
0x420f22:	pop	r12
0x420f24:	pop	r13
0x420f26:	pop	r14
0x420f28:	ret	
F 0x417b66
0x410016:	ret	
F 0x4250cf
0x410016:	ret	
F 0x4140f4
0x410016:	ret	
F 0x412c78
0x410016:	ret	
F 0x41f4a0
0x417ab6:	add	rsp, 0x18
0x417aba:	ret	
F 0x41f2d6
0x4182b6:	add	byte ptr [rax], al
0x4182b8:	add	byte ptr [rbp + 0xe], dh
0x4182bb:	add	rsp, 0x18
0x4182bf:	ret	
F 0x412cb8
0x410016:	ret	
F 0x42500b
0x417ab6:	add	rsp, 0x18
0x417aba:	ret	
F 0x41d1e3
0x4132df:	pop	rsi
0x4132e0:	pop	r15
0x4132e2:	ret	
F 0x419e2e
0x414071:	dec	dword ptr [rax - 0x77]
0x414074:	ret	
F 0x41431b
0x41431b:	sbb	byte ptr [rbx + 0x5d], bl
0x41431e:	pop	r12
0x414320:	pop	r13
0x414322:	pop	r14
0x414324:	pop	r15
0x414326:	ret	
F 0x412da0
0x412da0:	add	byte ptr [rbp + 0x69], dh
0x412da3:	add	rsp, 0x60
0x412da7:	pop	rbx
0x412da8:	pop	rbp
0x412da9:	pop	r12
0x412dab:	ret	
F 0x42453e
0x41847d:	add	dword ptr [rax], eax
0x41847f:	add	byte ptr [rax], al
0x418481:	test	edx, edx
0x418483:	setne	al
0x418486:	add	rsp, 8
0x41848a:	ret	
F 0x417c23
0x417c23:	nop	dword ptr [rax + rax]
0x417c28:	add	rsp, 8
0x417c2c:	pop	rbp
0x417c2d:	pop	r12
0x417c2f:	pop	r13
0x417c31:	pop	r14
0x417c33:	ret	
F 0x41ff03
0x4194a6:	add	byte ptr [rax], al
0x4194a8:	add	rsp, 0x20
0x4194ac:	pop	rbx
0x4194ad:	pop	rbp
0x4194ae:	pop	r12
0x4194b0:	ret	
F 0x415911
0x415911:	mov	eax, dword ptr [rip + 0x222d1]
0x415917:	ret	
F 0x4208f8
0x4208f8:	add	byte ptr [rax], al
0x4208fa:	add	byte ptr [rbp + 0x61], dh
0x4208fd:	add	rsp, 0x10
0x420901:	pop	rbx
0x420902:	pop	rbp
0x420903:	pop	r12
0x420905:	ret	
F 0x41a9b9
0x4132dc:	pop	r13
0x4132de:	pop	r14
0x4132e0:	pop	r15
0x4132e2:	ret	
F 0x41d8f5
0x41d8f5:	sub	byte ptr [rcx + 0x5c], al
0x41d8f8:	pop	r13
0x41d8fa:	ret	
F 0x415e6e
0x415e6e:	add	byte ptr [rax + 0x1d923d89], dl
0x415e74:	add	al, byte ptr [rax]
0x415e76:	ret	
F 0x420fa6
0x410016:	ret	
F 0x413ef1
0x4136e9:	pop	rbx
0x4136ea:	pop	rbp
0x4136eb:	pop	r12
0x4136ed:	pop	r13
0x4136ef:	ret	
F 0x41bf00
0x412da8:	pop	rbp
0x412da9:	pop	r12
0x412dab:	ret	
F 0x420559
0x418a0e:	add	rsp, 0x18
0x418a12:	pop	rbp
0x418a13:	pop	r12
0x418a15:	ret	
F 0x41544f
0x4132dc:	pop	r13
0x4132de:	pop	r14
0x4132e0:	pop	r15
0x4132e2:	ret	
F 0x423ab6
0x4182b6:	add	byte ptr [rax], al
0x4182b8:	add	byte ptr [rbp + 0xe], dh
0x4182bb:	add	rsp, 0x18
0x4182bf:	ret	
F 0x41f534
0x41f534:	add	byte ptr [rax], al
0x41f536:	add	byte ptr [rbp + 0x21], dh
0x41f539:	add	rsp, 0x28
0x41f53d:	ret	
F 0x41e3f7
0x41e3f7:	adc	al, ch
0x41e3f9:	ret	
F 0x41ea40
0x4191a8:	add	byte ptr [rbp + 0xf], dh
0x4191ab:	add	rsp, 0x10
0x4191af:	pop	rbp
0x4191b0:	ret	
F 0x4132da
0x4132da:	pop	r12
0x4132dc:	pop	r13
0x4132de:	pop	r14
0x4132e0:	pop	r15
0x4132e2:	ret	
F 0x41ddd8
0x41c6e8:	nop	dword ptr [rax + rax]
0x41c6f0:	ret	
F 0x41585a
0x41585a:	lea	edx, [rip + 0x10d0e]
0x415860:	lea	rax, [rip + 0x10d17]
0x415867:	cmove	rax, rdx
0x41586b:	ret	
F 0x422d65
0x422d65:	nop	dword ptr [rax]
0x422d68:	mov	ecx, dword ptr [rip + 0x15172]
0x422d6e:	xor	eax, eax
0x422d70:	test	ecx, ecx
0x422d72:	setne	al
0x422d75:	ret	
F 0x41cd3a
0x41c6ea:	test	byte ptr [rax], al
0x41c6ec:	add	byte ptr [rax], al
0x41c6ee:	add	byte ptr [rax], al
0x41c6f0:	ret	
F 0x41e4b5
0x410016:	ret	
F 0x424fa8
0x4182b8:	add	byte ptr [rbp + 0xe], dh
0x4182bb:	add	rsp, 0x18
0x4182bf:	ret	
F 0x415e78
0x415e78:	nop	dword ptr [rax + rax]
0x415e80:	mov	eax, dword ptr [rip + 0x21d82]
0x415e86:	ret	
F 0x41edb6
0x410016:	ret	
F 0x42149e
0x412c76:	add	byte ptr [rax], al
0x412c78:	ret	
F 0x41d1d8
0x418181:	add	rsp, 0x58
0x418185:	pop	rbx
0x418186:	pop	rbp
0x418187:	pop	r12
0x418189:	pop	r13
0x41818b:	pop	r14
0x41818d:	pop	r15
0x41818f:	ret	
F 0x415f7f
0x410016:	ret	
F 0x4132dd
0x4132dd:	pop	rbp
0x4132de:	pop	r14
0x4132e0:	pop	r15
0x4132e2:	ret	
F 0x412cf0
0x410016:	ret	
F 0x41d638
0x4182b8:	add	byte ptr [rbp + 0xe], dh
0x4182bb:	add	rsp, 0x18
0x4182bf:	ret	
F 0x4157d4
0x4132e1:	pop	rdi
0x4132e2:	ret	
F 0x412f1a
0x412f1a:	add	eax, 0x24c8d
0x412f1f:	add	dword ptr [rax], eax
0x412f21:	add	byte ptr [rax], al
0x412f23:	add	rsp, 8
0x412f27:	ret	
F 0x417c32
0x417c32:	pop	rsi
0x417c33:	ret	
F 0x41db64
0x4158e4:	mov	eax, esp
0x4158e6:	pop	r12
0x4158e8:	ret	
F 0x41dde0
0x410016:	ret	
F 0x419b02
0x4158e2:	dec	dword ptr [rcx + rcx*4 - 0x20]
0x4158e6:	pop	r12
0x4158e8:	ret	
F 0x415b8a
0x415b8a:	mov	dword ptr [rip + 0x22070], eax
0x415b90:	add	rsp, 8
0x415b94:	pop	rbx
0x415b95:	pop	rbp
0x415b96:	pop	r12
0x415b98:	pop	r13
0x415b9a:	ret	
F 0x418f58
0x4182b8:	add	byte ptr [rbp + 0xe], dh
0x4182bb:	add	rsp, 0x18
0x4182bf:	ret	
F 0x422699
0x4132de:	pop	r14
0x4132e0:	pop	r15
0x4132e2:	ret	
F 0x4258bb
0x4132e1:	pop	rdi
0x4132e2:	ret	
F 0x41d8f9
0x4126b1:	pop	rbp
0x4126b2:	ret	
F 0x4127bf
0x410c57:	ret	0
F 0x41591e
0x41591e:	add	byte ptr [rax], al
0x415920:	mov	rax, qword ptr [rip + 0x222b9]
0x415927:	ret	
F 0x41ec94
0x41ec94:	or	byte ptr [rax], al
0x41ec96:	add	byte ptr [rax], al
0x41ec98:	add	al, ch
0x41ec9a:	sub	eax, 0x8948ffff
0x41eca0:	ret	
F 0x423abf
0x410016:	ret	
F 0x41d3c3
0x41d3c3:	and	eax, 0xffffffef
0x41d3c6:	add	rsp, 8
0x41d3ca:	ret	
F 0x422692
0x422692:	sub	byte ptr [rbx + 0x5d], bl
0x422695:	pop	r12
0x422697:	pop	r13
0x422699:	pop	r14
0x42269b:	pop	r15
0x42269d:	ret	
F 0x413510
0x4132de:	pop	r14
0x4132e0:	pop	r15
0x4132e2:	ret	
F 0x416103
0x4126b1:	pop	rbp
0x4126b2:	ret	
F 0x41cc32
0x4158e2:	dec	dword ptr [rcx + rcx*4 - 0x20]
0x4158e6:	pop	r12
0x4158e8:	ret	
F 0x422f51
0x4132dd:	pop	rbp
0x4132de:	pop	r14
0x4132e0:	pop	r15
0x4132e2:	ret	
F 0x41431d
0x4132d9:	pop	rbp
0x4132da:	pop	r12
0x4132dc:	pop	r13
0x4132de:	pop	r14
0x4132e0:	pop	r15
0x4132e2:	ret	
F 0x418185
0x4132d8:	pop	rbx
0x4132d9:	pop	rbp
0x4132da:	pop	r12
0x4132dc:	pop	r13
0x4132de:	pop	r14
0x4132e0:	pop	r15
0x4132e2:	ret	
F 0x41b624
0x4126b1:	pop	rbp
0x4126b2:	ret	
F 0x413f70
0x413f70:	add	byte ptr [rax], al
0x413f72:	add	byte ptr [rax - 0x77], cl
0x413f75:	ret	
F 0x4258b3
0x4132d9:	pop	rbp
0x4132da:	pop	r12
0x4132dc:	pop	r13
0x4132de:	pop	r14
0x4132e0:	pop	r15
0x4132e2:	ret	
F 0x4211ab
0x417ab6:	add	rsp, 0x18
0x417aba:	ret	
F 0x4160fe
0x4136e9:	pop	rbx
0x4136ea:	pop	rbp
0x4136eb:	pop	r12
0x4136ed:	pop	r13
0x4136ef:	ret	
F 0x415036
0x415036:	add	byte ptr [rax], al
0x415038:	add	rsp, 0x58
0x41503c:	mov	rax, r12
0x41503f:	pop	rbx
0x415040:	pop	rbp
0x415041:	pop	r12
0x415043:	pop	r13
0x415045:	pop	r14
0x415047:	pop	r15
0x415049:	ret	
F 0x41544b
0x4132d8:	pop	rbx
0x4132d9:	pop	rbp
0x4132da:	pop	r12
0x4132dc:	pop	r13
0x4132de:	pop	r14
0x4132e0:	pop	r15
0x4132e2:	ret	
F 0x415041
0x4132da:	pop	r12
0x4132dc:	pop	r13
0x4132de:	pop	r14
0x4132e0:	pop	r15
0x4132e2:	ret	
F 0x422440
0x422440:	mov	edx, dword ptr [rip + 0x15a5a]
0x422446:	xor	eax, eax
0x422448:	test	edx, edx
0x42244a:	setne	al
0x42244d:	ret	
F 0x4256e2
0x4256e2:	add	byte ptr [rax], al
0x4256e4:	add	rsp, 0x18
0x4256e8:	pop	rbx
0x4256e9:	pop	rbp
0x4256ea:	pop	r12
0x4256ec:	pop	r13
0x4256ee:	ret	
F 0x41847f
0x41847f:	add	byte ptr [rax], al
0x418481:	test	edx, edx
0x418483:	setne	al
0x418486:	add	rsp, 8
0x41848a:	ret	
F 0x41eaf9
0x41cc84:	add	dword ptr [rax], eax
0x41cc86:	add	byte ptr [rax], al
0x41cc88:	test	eax, eax
0x41cc8a:	setne	al
0x41cc8d:	add	rsp, 8
0x41cc91:	movzx	eax, al
0x41cc94:	ret	
F 0x4190d6
0x4182b6:	add	byte ptr [rax], al
0x4182b8:	add	byte ptr [rbp + 0xe], dh
0x4182bb:	add	rsp, 0x18
0x4182bf:	ret	
F 0x42269a
0x4132df:	pop	rsi
0x4132e0:	pop	r15
0x4132e2:	ret	
F 0x423edc
0x410016:	ret	
F 0x4244c4
0x4158e4:	mov	eax, esp
0x4158e6:	pop	r12
0x4158e8:	ret	
F 0x41bae4
0x4158e4:	mov	eax, esp
0x4158e6:	pop	r12
0x4158e8:	ret	
F 0x418fb8
0x4182b8:	add	byte ptr [rbp + 0xe], dh
0x4182bb:	add	rsp, 0x18
0x4182bf:	ret	
F 0x41fb88
0x410016:	ret	
F 0x4256e8
0x4136e9:	pop	rbx
0x4136ea:	pop	rbp
0x4136eb:	pop	r12
0x4136ed:	pop	r13
0x4136ef:	ret	
F 0x41d1e5
0x4132e1:	pop	rdi
0x4132e2:	ret	
F 0x414bc7
0x4132de:	pop	r14
0x4132e0:	pop	r15
0x4132e2:	ret	
F 0x41c958
0x418920:	add	rsp, 0x10
0x418924:	pop	rbp
0x418925:	ret	
F 0x4207c8
0x41c6e8:	nop	dword ptr [rax + rax]
0x41c6f0:	ret	
F 0x41a9be
0x4132e1:	pop	rdi
0x4132e2:	ret	
F 0x4247d9
0x4132d8:	pop	rbx
0x4132d9:	pop	rbp
0x4132da:	pop	r12
0x4132dc:	pop	r13
0x4132de:	pop	r14
0x4132e0:	pop	r15
0x4132e2:	ret	
F 0x41c725
0x410016:	ret	
F 0x41304c
0x41304c:	pop	r13
0x41304e:	ret	
F 0x415d09
0x415d09:	add	eax, ebp
0x415d0b:	jmp	rax
F 0x4206e8
0x410016:	ret	
F 0x4158fa
0x4158fa:	test	byte ptr [rax], al
0x4158fc:	add	byte ptr [rax], al
0x4158fe:	add	byte ptr [rax], al
0x415900:	mov	rax, qword ptr [rip + 0x222e9]
0x415907:	ret	
F 0x4254d9
0x410016:	ret	
F 0x413503
0x413503:	mov	qword ptr [rbx], rax
0x413506:	add	rsp, 8
0x41350a:	pop	rbx
0x41350b:	pop	rbp
0x41350c:	pop	r12
0x41350e:	pop	r13
0x413510:	pop	r14
0x413512:	pop	r15
0x413514:	ret	
F 0x4126af
0x4126af:	xor	eax, eax
0x4126b1:	pop	rbp
0x4126b2:	ret	
F 0x412c69
0x412c69:	add	byte ptr [rax - 0x7b], cl
0x412c6c:	sal	byte ptr [rcx + rcx - 1], 0xe0
0x412c71:	nop	dword ptr [rax]
0x412c78:	ret	
F 0x41cd75
0x410016:	ret	
F 0x41c250
0x4132e0:	pop	r15
0x4132e2:	ret	
F 0x42506b
0x417ab6:	add	rsp, 0x18
0x417aba:	ret	
F 0x41d2e3
0x41d2e3:	add	byte ptr [rbp + 5], dh
0x41d2e6:	add	rsp, 0x38
0x41d2ea:	ret	
F 0x424596
0x419c66:	xor	eax, eax
0x419c68:	test	esi, esi
0x419c6a:	setne	al
0x419c6d:	ret	
F 0x41cc90
0x41cc90:	or	byte ptr [rdi], cl
0x41cc92:	mov	dh, 0xc0
0x41cc94:	ret	
F 0x424538
0x424538:	mov	dword ptr [rip + 0x139fa], 1
0x424542:	test	edx, edx
0x424544:	setne	al
0x424547:	add	rsp, 8
0x42454b:	ret	
F 0x41a7a0
0x410016:	ret	
F 0x422d72
0x41849a:	setne	al
0x41849d:	ret	
F 0x41ce89
0x412da8:	pop	rbp
0x412da9:	pop	r12
0x412dab:	ret	
F 0x4139bf
0x410016:	ret	
F 0x4213c6
0x41cc84:	add	dword ptr [rax], eax
0x41cc86:	add	byte ptr [rax], al
0x41cc88:	test	eax, eax
0x41cc8a:	setne	al
0x41cc8d:	add	rsp, 8
0x41cc91:	movzx	eax, al
0x41cc94:	ret	
F 0x4144cb
0x4144cb:	mov	eax, esp
0x4144cd:	pop	rbp
0x4144ce:	pop	r12
0x4144d0:	ret	
F 0x413e5e
0x410016:	ret	
F 0x41f244
0x41e974:	add	eax, 0x18c48348
0x41e979:	ret	
F 0x41c622
0x41c622:	nop	word ptr [rax + rax]
0x41c628:	mov	edx, dword ptr [rip + 0x1b6ea]
0x41c62e:	xor	eax, eax
0x41c630:	test	edx, edx
0x41c632:	setne	al
0x41c635:	ret	
F 0x41d63f
0x410016:	ret	
F 0x4158f8
0x4158f8:	nop	dword ptr [rax + rax]
0x415900:	mov	rax, qword ptr [rip + 0x222e9]
0x415907:	ret	
F 0x41350f
0x4132dd:	pop	rbp
0x4132de:	pop	r14
0x4132e0:	pop	r15
0x4132e2:	ret	
F 0x4256e7
0x4136e8:	sbb	byte ptr [rbx + 0x5d], bl
0x4136eb:	pop	r12
0x4136ed:	pop	r13
0x4136ef:	ret	
F 0x424252
0x424252:	add	byte ptr [rax], al
0x424254:	add	rsp, 0x10
0x424258:	pop	rbx
0x424259:	ret	
F 0x41cc85
0x41cc85:	add	byte ptr [rax], al
0x41cc87:	add	byte ptr [rbp - 0x3f6af040], al
0x41cc8d:	add	rsp, 8
0x41cc91:	movzx	eax, al
0x41cc94:	ret	
F 0x4183c8
0x410016:	ret	
F 0x41dcdb
0x41dcdb:	setne	al
0x41dcde:	movzx	eax, al
0x41dce1:	ret	
F 0x413876
0x410016:	ret	
F 0x4149ab
0x410016:	ret	
F 0x414830
0x414582:	dec	dword ptr [rcx + rcx*4 - 0x20]
0x414586:	pop	rbx
0x414587:	pop	rbp
0x414588:	pop	r12
0x41458a:	ret	
F 0x424129
0x410016:	ret	
F 0x4160fa
0x415b90:	add	rsp, 8
0x415b94:	pop	rbx
0x415b95:	pop	rbp
0x415b96:	pop	r12
0x415b98:	pop	r13
0x415b9a:	ret	
F 0x4143cd
0x4132e1:	pop	rdi
0x4132e2:	ret	
F 0x41cc92
0x41cc92:	mov	dh, 0xc0
0x41cc94:	ret	
F 0x41b2d3
0x410016:	ret	
F 0x415c31
0x415c31:	add	byte ptr [rcx + 0x5c], al
0x415c34:	ret	
F 0x41beff
0x412da7:	pop	rbx
0x412da8:	pop	rbp
0x412da9:	pop	r12
0x412dab:	ret	
F 0x415876
0x415876:	lea	eax, [rip + 0x10d17]
0x41587c:	ret	
F 0x4253b8
0x41c6e8:	nop	dword ptr [rax + rax]
0x41c6f0:	ret	
F 0x41ba36
0x4182b6:	add	byte ptr [rax], al
0x4182b8:	add	byte ptr [rbp + 0xe], dh
0x4182bb:	add	rsp, 0x18
0x4182bf:	ret	
F 0x41e3f9
0x410016:	ret	
F 0x415c2c
0x415c2c:	mov	dword ptr [rip + 0x21fce], eax
0x415c32:	pop	r12
0x415c34:	ret	
F 0x41e072
0x4132e0:	pop	r15
0x4132e2:	ret	
F 0x41dd28
0x41c630:	test	edx, edx
0x41c632:	setne	al
0x41c635:	ret	
F 0x424041
0x410016:	ret	
F 0x423bdf
0x410016:	ret	
F 0x423b76
0x4182b6:	add	byte ptr [rax], al
0x4182b8:	add	byte ptr [rbp + 0xe], dh
0x4182bb:	add	rsp, 0x18
0x4182bf:	ret	
F 0x415556
0x412da9:	pop	r12
0x412dab:	ret	
F 0x4141fb
0x414071:	dec	dword ptr [rax - 0x77]
0x414074:	ret	
F 0x412da8
0x412da8:	pop	rbp
0x412da9:	pop	r12
0x412dab:	ret	
F 0x412cec
0x412cec:	add	al, byte ptr [rax]
0x412cee:	add	dword ptr [rbp - 0x3d], ebx
0x412cf1:	nop	dword ptr [rax]
0x412cf8:	ret	
F 0x41c628
0x41c628:	mov	edx, dword ptr [rip + 0x1b6ea]
0x41c62e:	xor	eax, eax
0x41c630:	test	edx, edx
0x41c632:	setne	al
0x41c635:	ret	
F 0x4175c4
0x4175c4:	add	byte ptr [rdi], cl
0x4175c6:	test	byte ptr [rip - 0x74fffffd], dh
0x4175cc:	add	byte ptr [rcx], bh
0x4175ce:	ret	
F 0x423ab8
0x4182b8:	add	byte ptr [rbp + 0xe], dh
0x4182bb:	add	rsp, 0x18
0x4182bf:	ret	
F 0x41901b
0x417ab6:	add	rsp, 0x18
0x417aba:	ret	
F 0x41d46d
0x41d46d:	mov	eax, esp
0x41d46f:	pop	rbx
0x41d470:	pop	rbp
0x41d471:	pop	r12
0x41d473:	pop	r13
0x41d475:	ret	
F 0x419298
0x4182b8:	add	byte ptr [rbp + 0xe], dh
0x4182bb:	add	rsp, 0x18
0x4182bf:	ret	
F 0x415862
0x415862:	add	eax, 0x10d17
0x415867:	cmove	rax, rdx
0x41586b:	ret	
F 0x41ebf4
0x419d64:	nop	dword ptr [rax]
0x419d68:	ret	
F 0x42269c
0x4132e1:	pop	rdi
0x4132e2:	ret	
F 0x421f4b
0x417ab6:	add	rsp, 0x18
0x417aba:	ret	
F 0x414cf0
0x414582:	dec	dword ptr [rcx + rcx*4 - 0x20]
0x414586:	pop	rbx
0x414587:	pop	rbp
0x414588:	pop	r12
0x41458a:	ret	
F 0x421ee6
0x4182b6:	add	byte ptr [rax], al
0x4182b8:	add	byte ptr [rbp + 0xe], dh
0x4182bb:	add	rsp, 0x18
0x4182bf:	ret	
F 0x41a9ae
0x41a9ae:	add	rsp, 0xe8
0x41a9b5:	pop	rbx
0x41a9b6:	pop	rbp
0x41a9b7:	pop	r12
0x41a9b9:	pop	r13
0x41a9bb:	pop	r14
0x41a9bd:	pop	r15
0x41a9bf:	ret	
F 0x4186c0
0x4186c0:	add	rsp, 0x28
0x4186c4:	pop	rbx
0x4186c5:	pop	rbp
0x4186c6:	ret	
F 0x41ba9b
0x417ab6:	add	rsp, 0x18
0x417aba:	ret	
F 0x42059f
0x410012:	add	rsp, 8
0x410016:	ret	
F 0x413fec
0x41374c:	add	byte ptr [rax - 0x77], cl
0x41374f:	ret	
F 0x414bc9
0x4132e0:	pop	r15
0x4132e2:	ret	
F 0x41ba38
0x4182b8:	add	byte ptr [rbp + 0xe], dh
0x4182bb:	add	rsp, 0x18
0x4182bf:	ret	
F 0x4132d4
0x4132d4:	sbb	byte ptr [rcx + rcx*4 - 0x18], cl
0x4132d8:	pop	rbx
0x4132d9:	pop	rbp
0x4132da:	pop	r12
0x4132dc:	pop	r13
0x4132de:	pop	r14
0x4132e0:	pop	r15
0x4132e2:	ret	
F 0x41b97f
0x410016:	ret	
F 0x413d15
0x410016:	ret	
F 0x4252b0
0x41cc8b:	xchg	eax, ebp
0x41cc8c:	ror	byte ptr [rax - 0x7d], 0xc4
0x41cc90:	or	byte ptr [rdi], cl
0x41cc92:	mov	dh, 0xc0
0x41cc94:	ret	
F 0x418479
0x418479:	xchg	eax, ebx
0x41847a:	test	dword ptr [rcx], 0x100
0x418480:	add	byte ptr [rbp - 0x3f6af02e], al
0x418486:	add	rsp, 8
0x41848a:	ret	
F 0x4132e2
0x410016:	ret	
F 0x4258b1
0x4134cb:	or	byte ptr [rbx + 0x5d], bl
0x4134ce:	pop	r12
0x4134d0:	pop	r13
0x4134d2:	pop	r14
0x4134d4:	pop	r15
0x4134d6:	ret	
F 0x4256e4
0x4136e5:	add	rsp, 0x18
0x4136e9:	pop	rbx
0x4136ea:	pop	rbp
0x4136eb:	pop	r12
0x4136ed:	pop	r13
0x4136ef:	ret	
F 0x41ebf8
0x410016:	ret	
F 0x41bb82
0x41bb82:	add	eax, 0x1c141
0x41bb87:	add	dword ptr [rax], eax
0x41bb89:	add	byte ptr [rax], al
0x41bb8b:	test	edx, edx
0x41bb8d:	setne	al
0x41bb90:	add	rsp, 8
0x41bb94:	ret	
F 0x415a53
0x410016:	ret	
F 0x4157cd
0x4132da:	pop	r12
0x4132dc:	pop	r13
0x4132de:	pop	r14
0x4132e0:	pop	r15
0x4132e2:	ret	
F 0x4158fd
0x4158fd:	add	byte ptr [rax], al
0x4158ff:	add	byte ptr [rax - 0x75], cl
0x415902:	add	eax, 0x222e9
0x415907:	ret	
F 0x4132dc
0x4132dc:	pop	r13
0x4132de:	pop	r14
0x4132e0:	pop	r15
0x4132e2:	ret	
F 0x418924
0x4126b1:	pop	rbp
0x4126b2:	ret	
F 0x41c625
0x41c625:	add	byte ptr [rax], r8b
0x41c628:	mov	edx, dword ptr [rip + 0x1b6ea]
0x41c62e:	xor	eax, eax
0x41c630:	test	edx, edx
0x41c632:	setne	al
0x41c635:	ret	
F 0x4151d8
0x410016:	ret	
F 0x41587d
0x41587d:	nop	dword ptr [rax]
0x415880:	lea	rax, [rip + 0x10d04]
0x415887:	ret	
F 0x423c88
0x410016:	ret	
F 0x4136ee
0x4126b1:	pop	rbp
0x4126b2:	ret	
F 0x422143
0x41b622:	sbb	byte ptr [rbx + 0x5d], bl
0x41b625:	ret	
F 0x416675
0x416675:	mov	dl, 0xff
0x416677:	dec	dword ptr [rax - 0x77]
0x41667a:	ret	0x8548
F 0x4258bc
0x410016:	ret	
F 0x4214a0
0x410016:	ret	
F 0x415905
0x4158f5:	add	al, byte ptr [rax]
0x4158f7:	ret	
F 0x418478
0x418478:	add	eax, 0x1f793
0x41847d:	add	dword ptr [rax], eax
0x41847f:	add	byte ptr [rax], al
0x418481:	test	edx, edx
0x418483:	setne	al
0x418486:	add	rsp, 8
0x41848a:	ret	
F 0x4213c8
0x41cc86:	add	byte ptr [rax], al
0x41cc88:	test	eax, eax
0x41cc8a:	setne	al
0x41cc8d:	add	rsp, 8
0x41cc91:	movzx	eax, al
0x41cc94:	ret	
F 0x415e81
0x415e81:	add	eax, 0x21d82
0x415e86:	ret	
F 0x41cd38
0x41c6e8:	nop	dword ptr [rax + rax]
0x41c6f0:	ret	
F 0x41f240
0x41e970:	add	byte ptr [rax], al
0x41e972:	add	byte ptr [rbp + 5], dh
0x41e975:	add	rsp, 0x18
0x41e979:	ret	
F 0x41bbd6
0x419c66:	xor	eax, eax
0x419c68:	test	esi, esi
0x419c6a:	setne	al
0x419c6d:	ret	
F 0x413bb8
0x413948:	add	byte ptr [rax], al
0x41394a:	add	byte ptr [rbp + 0x1d], dh
0x41394d:	add	rsp, 0x18
0x413951:	pop	rbx
0x413952:	pop	rbp
0x413953:	pop	r12
0x413955:	pop	r13
0x413957:	ret	
F 0x422146
0x410016:	ret	
F 0x421bdc
0x421b8c:	or	byte ptr [rax - 0x77], cl
0x421b8f:	ret	
F 0x422d2b
0x410016:	ret	
F 0x41c632
0x41849a:	setne	al
0x41849d:	ret	
F 0x424259
0x410016:	ret	
F 0x41e972
0x41e972:	add	byte ptr [rbp + 5], dh
0x41e975:	add	rsp, 0x18
0x41e979:	ret	
F 0x41cbef
0x410016:	ret	
F 0x422423
0x41cc8a:	setne	al
0x41cc8d:	add	rsp, 8
0x41cc91:	movzx	eax, al
0x41cc94:	ret	
F 0x41b2cb
0x41b188:	add	byte ptr [rbp + 0x32], dh
0x41b18b:	add	rsp, 0x10
0x41b18f:	pop	rbp
0x41b190:	ret	
F 0x423b1f
0x410016:	ret	
F 0x41cd3e
0x412c76:	add	byte ptr [rax], al
0x412c78:	ret	
F 0x420805
0x410016:	ret	
F 0x41a2be
0x410016:	ret	
F 0x41e06e
0x4132dc:	pop	r13
0x4132de:	pop	r14
0x4132e0:	pop	r15
0x4132e2:	ret	
F 0x4258b9
0x4132df:	pop	rsi
0x4132e0:	pop	r15
0x4132e2:	ret	
F 0x4213f4
0x41c62c:	add	dword ptr [rax], eax
0x41c62e:	xor	eax, eax
0x41c630:	test	edx, edx
0x41c632:	setne	al
0x41c635:	ret	
F 0x41fda0
0x410016:	ret	
F 0x42070a
0x42070a:	and	eax, edi
0x42070c:	add	eax, 0x17737
0x420711:	add	dword ptr [rax], eax
0x420713:	add	byte ptr [rax], al
0x420715:	ret	
F 0x41b228
0x41b188:	add	byte ptr [rbp + 0x32], dh
0x41b18b:	add	rsp, 0x10
0x41b18f:	pop	rbp
0x41b190:	ret	
F 0x41591f
0x41591f:	add	byte ptr [rax - 0x75], cl
0x415922:	add	eax, 0x222b9
0x415927:	ret	
F 0x413b2e
0x410016:	ret	
F 0x4157c9
0x41503d:	mov	eax, esp
0x41503f:	pop	rbx
0x415040:	pop	rbp
0x415041:	pop	r12
0x415043:	pop	r13
0x415045:	pop	r14
0x415047:	pop	r15
0x415049:	ret	
F 0x422d29
0x41cc92:	mov	dh, 0xc0
0x41cc94:	ret	
F 0x423c36
0x4182b6:	add	byte ptr [rax], al
0x4182b8:	add	byte ptr [rbp + 0xe], dh
0x4182bb:	add	rsp, 0x18
0x4182bf:	ret	
F 0x42438e
0x42438e:	sahf	
0x42438f:	ret	
F 0x4244c8
0x410016:	ret	
F 0x420f1f
0x420f1f:	and	byte ptr [rbx + 0x5d], bl
0x420f22:	pop	r12
0x420f24:	pop	r13
0x420f26:	pop	r14
0x420f28:	ret	
F 0x421bdf
0x410016:	ret	
F 0x41b97b
0x417ab6:	add	rsp, 0x18
0x417aba:	ret	
F 0x420cbd
0x41cc85:	add	byte ptr [rax], al
0x41cc87:	add	byte ptr [rbp - 0x3f6af040], al
0x41cc8d:	add	rsp, 8
0x41cc91:	movzx	eax, al
0x41cc94:	ret	
F 0x422e30
0x410016:	ret	
F 0x424a25
0x410016:	ret	
F 0x41a9b4
0x41a9b4:	add	byte ptr [rbx + 0x5d], bl
0x41a9b7:	pop	r12
0x41a9b9:	pop	r13
0x41a9bb:	pop	r14
0x41a9bd:	pop	r15
0x41a9bf:	ret	
F 0x422525
0x410016:	ret	
F 0x41bbd1
0x41bbd1:	xor	eax, 0x1c0f2
0x41bbd6:	xor	eax, eax
0x41bbd8:	test	esi, esi
0x41bbda:	setne	al
0x41bbdd:	ret	
F 0x4252f4
0x4252f4:	scasb	al, byte ptr [rdi]
0x4252f5:	nop	dword ptr [rax]
0x4252f8:	mov	ecx, dword ptr [rip + 0x12c6a]
0x4252fe:	xor	eax, eax
0x425300:	test	ecx, ecx
0x425302:	setne	al
0x425305:	ret	
F 0x41ec9a
0x41ec9a:	sub	eax, 0x8948ffff
0x41eca0:	ret	
F 0x4182bf
0x410016:	ret	
F 0x41c955
0x41b188:	add	byte ptr [rbp + 0x32], dh
0x41b18b:	add	rsp, 0x10
0x41b18f:	pop	rbp
0x41b190:	ret	
F 0x41c245
0x41c245:	and	byte ptr [rcx + rcx*4 - 0x20], cl
0x41c249:	pop	rbp
0x41c24a:	pop	r12
0x41c24c:	pop	r13
0x41c24e:	pop	r14
0x41c250:	pop	r15
0x41c252:	ret	
F 0x415868
0x415868:	cmove	eax, edx
0x41586b:	ret	
F 0x4252f8
0x4252f8:	mov	ecx, dword ptr [rip + 0x12c6a]
0x4252fe:	xor	eax, eax
0x425300:	test	ecx, ecx
0x425302:	setne	al
0x425305:	ret	
F 0x41e970
0x41e970:	add	byte ptr [rax], al
0x41e972:	add	byte ptr [rbp + 5], dh
0x41e975:	add	rsp, 0x18
0x41e979:	ret	
F 0x415e74
0x4158f5:	add	al, byte ptr [rax]
0x4158f7:	ret	
F 0x41d471
0x41304a:	pop	r12
0x41304c:	pop	r13
0x41304e:	ret	
F 0x41e9c6
0x4182b6:	add	byte ptr [rax], al
0x4182b8:	add	byte ptr [rbp + 0xe], dh
0x4182bb:	add	rsp, 0x18
0x4182bf:	ret	
F 0x419c64
0x419c64:	add	dword ptr [rax], eax
0x419c66:	xor	eax, eax
0x419c68:	test	esi, esi
0x419c6a:	setne	al
0x419c6d:	ret	
F 0x413506
0x4134c8:	add	rsp, 8
0x4134cc:	pop	rbx
0x4134cd:	pop	rbp
0x4134ce:	pop	r12
0x4134d0:	pop	r13
0x4134d2:	pop	r14
0x4134d4:	pop	r15
0x4134d6:	ret	
F 0x41907f
0x410016:	ret	
F 0x4212b1
0x4186c4:	pop	rbx
0x4186c5:	pop	rbp
0x4186c6:	ret	
F 0x425188
0x4182b8:	add	byte ptr [rbp + 0xe], dh
0x4182bb:	add	rsp, 0x18
0x4182bf:	ret	
F 0x412cef
0x4126b1:	pop	rbp
0x4126b2:	ret	
F 0x413567
0x413503:	mov	qword ptr [rbx], rax
0x413506:	add	rsp, 8
0x41350a:	pop	rbx
0x41350b:	pop	rbp
0x41350c:	pop	r12
0x41350e:	pop	r13
0x413510:	pop	r14
0x413512:	pop	r15
0x413514:	ret	
F 0x422f55
0x4132e1:	pop	rdi
0x4132e2:	ret	
F 0x418b9f
0x410016:	ret	
F 0x413948
0x413948:	add	byte ptr [rax], al
0x41394a:	add	byte ptr [rbp + 0x1d], dh
0x41394d:	add	rsp, 0x18
0x413951:	pop	rbx
0x413952:	pop	rbp
0x413953:	pop	r12
0x413955:	pop	r13
0x413957:	ret	
F 0x41e06f
0x4132dd:	pop	rbp
0x4132de:	pop	r14
0x4132e0:	pop	r15
0x4132e2:	ret	
F 0x4160f4
0x4160f4:	mov	dword ptr [rip + 0x21b06], eax
0x4160fa:	add	rsp, 8
0x4160fe:	pop	rbx
0x4160ff:	pop	rbp
0x416100:	pop	r12
0x416102:	pop	r13
0x416104:	ret	
F 0x41e5bc
0x41c247:	mov	eax, esp
0x41c249:	pop	rbp
0x41c24a:	pop	r12
0x41c24c:	pop	r13
0x41c24e:	pop	r14
0x41c250:	pop	r15
0x41c252:	ret	
F 0x41e69f
0x410012:	add	rsp, 8
0x410016:	ret	
F 0x41aeda
0x410016:	ret	
F 0x41b46e
0x41b3fe:	sbb	eax, 0x8c48348
0x41b403:	ret	
F 0x4186c3
0x4186c3:	sub	byte ptr [rbx + 0x5d], bl
0x4186c6:	ret	
F 0x41d46f
0x4136e9:	pop	rbx
0x4136ea:	pop	rbp
0x4136eb:	pop	r12
0x4136ed:	pop	r13
0x4136ef:	ret	
F 0x413509
0x4134cb:	or	byte ptr [rbx + 0x5d], bl
0x4134ce:	pop	r12
0x4134d0:	pop	r13
0x4134d2:	pop	r14
0x4134d4:	pop	r15
0x4134d6:	ret	
F 0x42163e
0x4132d8:	pop	rbx
0x4132d9:	pop	rbp
0x4132da:	pop	r12
0x4132dc:	pop	r13
0x4132de:	pop	r14
0x4132e0:	pop	r15
0x4132e2:	ret	
F 0x41913f
0x410016:	ret	
F 0x420cc2
0x41cc8a:	setne	al
0x41cc8d:	add	rsp, 8
0x41cc91:	movzx	eax, al
0x41cc94:	ret	
F 0x4252ad
0x41cc88:	test	eax, eax
0x41cc8a:	setne	al
0x41cc8d:	add	rsp, 8
0x41cc91:	movzx	eax, al
0x41cc94:	ret	
F 0x4158ff
0x4158ff:	add	byte ptr [rax - 0x75], cl
0x415902:	add	eax, 0x222e9
0x415907:	ret	
F 0x4194ad
0x412da8:	pop	rbp
0x412da9:	pop	r12
0x412dab:	ret	
F 0x42163f
0x4132d9:	pop	rbp
0x4132da:	pop	r12
0x4132dc:	pop	r13
0x4132de:	pop	r14
0x4132e0:	pop	r15
0x4132e2:	ret	
F 0x41fd1d
0x410016:	ret	
F 0x417ab3
0x417ab3:	add	byte ptr [rbp + 0x31], dh
0x417ab6:	add	rsp, 0x18
0x417aba:	ret	
F 0x422e2e
0x412c76:	add	byte ptr [rax], al
0x412c78:	ret	
F 0x41d69f
0x410016:	ret	
F 0x4201f4
0x410c57:	ret	0
F 0x425128
0x4182b8:	add	byte ptr [rbp + 0xe], dh
0x4182bb:	add	rsp, 0x18
0x4182bf:	ret	
F 0x41813f
0x410016:	ret	
F 0x421eef
0x410016:	ret	
F 0x414cf5
0x412da8:	pop	rbp
0x412da9:	pop	r12
0x412dab:	ret	
F 0x414074
0x410016:	ret	
F 0x425301
0x418499:	leave	
0x41849a:	setne	al
0x41849d:	ret	
F 0x41fc12
0x41cc91:	movzx	eax, al
0x41cc94:	ret	
F 0x41dcda
0x41dcda:	pop	rbx
0x41dcdb:	setne	al
0x41dcde:	movzx	eax, al
0x41dce1:	ret	
F 0x41b61f
0x41b61f:	add	rsp, 0x18
0x41b623:	pop	rbx
0x41b624:	pop	rbp
0x41b625:	ret	
F 0x422d75
0x410016:	ret	
F 0x424541
0x418480:	add	byte ptr [rbp - 0x3f6af02e], al
0x418486:	add	rsp, 8
0x41848a:	ret	
F 0x41d1e4
0x4132e0:	pop	r15
0x4132e2:	ret	
F 0x41b622
0x41b622:	sbb	byte ptr [rbx + 0x5d], bl
0x41b625:	ret	
F 0x419c5f
0x419c5f:	nop	
0x419c60:	mov	esi, dword ptr [rip + 0x1dfea]
0x419c66:	xor	eax, eax
0x419c68:	test	esi, esi
0x419c6a:	setne	al
0x419c6d:	ret	
F 0x41bb87
0x41847d:	add	dword ptr [rax], eax
0x41847f:	add	byte ptr [rax], al
0x418481:	test	edx, edx
0x418483:	setne	al
0x418486:	add	rsp, 8
0x41848a:	ret	
F 0x41cc84
0x41cc84:	add	dword ptr [rax], eax
0x41cc86:	add	byte ptr [rax], al
0x41cc88:	test	eax, eax
0x41cc8a:	setne	al
0x41cc8d:	add	rsp, 8
0x41cc91:	movzx	eax, al
0x41cc94:	ret	
F 0x419b04
0x4158e4:	mov	eax, esp
0x4158e6:	pop	r12
0x4158e8:	ret	
F 0x41f53d
0x410016:	ret	
F 0x422429
0x41cc90:	or	byte ptr [rdi], cl
0x41cc92:	mov	dh, 0xc0
0x41cc94:	ret	
F 0x41b473
0x410016:	ret	
F 0x420193
0x420193:	pop	rcx
0x420194:	ret	0
F 0x415935
0x4158f5:	add	al, byte ptr [rax]
0x4158f7:	ret	
F 0x41431e
0x4132da:	pop	r12
0x4132dc:	pop	r13
0x4132de:	pop	r14
0x4132e0:	pop	r15
0x4132e2:	ret	
F 0x41eb06
0x41cc91:	movzx	eax, al
0x41cc94:	ret	
F 0x413ae3
0x412da8:	pop	rbp
0x412da9:	pop	r12
0x412dab:	ret	
F 0x419d8a
0x41374c:	add	byte ptr [rax - 0x77], cl
0x41374f:	ret	
F 0x421645
0x4132df:	pop	rsi
0x4132e0:	pop	r15
0x4132e2:	ret	
F 0x4194a6
0x4194a6:	add	byte ptr [rax], al
0x4194a8:	add	rsp, 0x20
0x4194ac:	pop	rbx
0x4194ad:	pop	rbp
0x4194ae:	pop	r12
0x4194b0:	ret	
F 0x4251ef
0x410016:	ret	
F 0x41e9c8
0x4182b8:	add	byte ptr [rbp + 0xe], dh
0x4182bb:	add	rsp, 0x18
0x4182bf:	ret	
F 0x41c61b
0x412f21:	add	byte ptr [rax], al
0x412f23:	add	rsp, 8
0x412f27:	ret	
F 0x423d4e
0x423d4e:	or	bl, al
0x423d50:	mov	esi, dword ptr [rip + 0x141aa]
0x423d56:	xor	eax, eax
0x423d58:	test	esi, esi
0x423d5a:	setne	al
0x423d5d:	ret	
F 0x422426
0x41cc8d:	add	rsp, 8
0x41cc91:	movzx	eax, al
0x41cc94:	ret	
F 0x415a51
0x415a51:	sub	eax, ecx
0x415a53:	ret	
F 0x424fab
0x417ab6:	add	rsp, 0x18
0x417aba:	ret	
F 0x4160f5
0x4160f5:	add	eax, 0x21b06
0x4160fa:	add	rsp, 8
0x4160fe:	pop	rbx
0x4160ff:	pop	rbp
0x416100:	pop	r12
0x416102:	pop	r13
0x416104:	ret	
F 0x41e071
0x4132df:	pop	rsi
0x4132e0:	pop	r15
0x4132e2:	ret	
F 0x41bbda
0x41849a:	setne	al
0x41849d:	ret	
F 0x41e06a
0x4132d8:	pop	rbx
0x4132d9:	pop	rbp
0x4132da:	pop	r12
0x4132dc:	pop	r13
0x4132de:	pop	r14
0x4132e0:	pop	r15
0x4132e2:	ret	
F 0x4251e8
0x4182b8:	add	byte ptr [rbp + 0xe], dh
0x4182bb:	add	rsp, 0x18
0x4182bf:	ret	
F 0x41592f
0x41592f:	add	byte ptr [rax - 0x75], cl
0x415932:	add	eax, 0x222a1
0x415937:	ret	
F 0x41c6ea
0x41c6ea:	test	byte ptr [rax], al
0x41c6ec:	add	byte ptr [rax], al
0x41c6ee:	add	byte ptr [rax], al
0x41c6f0:	ret	
F 0x418481
0x418481:	test	edx, edx
0x418483:	setne	al
0x418486:	add	rsp, 8
0x41848a:	ret	
F 0x420cdd
0x420cdd:	nop	dword ptr [rax]
0x420ce0:	mov	edx, dword ptr [rip + 0x1717a]
0x420ce6:	xor	eax, eax
0x420ce8:	test	edx, edx
0x420cea:	setne	al
0x420ced:	ret	
F 0x413637
0x413637:	xor	eax, eax
0x413639:	ret	
F 0x41bb8b
0x418481:	test	edx, edx
0x418483:	setne	al
0x418486:	add	rsp, 8
0x41848a:	ret	
F 0x42435b
0x410016:	ret	
F 0x41356d
0x4134cb:	or	byte ptr [rbx + 0x5d], bl
0x4134ce:	pop	r12
0x4134d0:	pop	r13
0x4134d2:	pop	r14
0x4134d4:	pop	r15
0x4134d6:	ret	
F 0x421638
0x421638:	add	byte ptr [rax], al
0x42163a:	add	rsp, 0x78
0x42163e:	pop	rbx
0x42163f:	pop	rbp
0x421640:	pop	r12
0x421642:	pop	r13
0x421644:	pop	r14
0x421646:	pop	r15
0x421648:	ret	
F 0x410e72
0x410e72:	ret	0x248
F 0x41c6e8
0x41c6e8:	nop	dword ptr [rax + rax]
0x41c6f0:	ret	
F 0x420721
0x420721:	adc	eax, 0x17722
0x420726:	xor	eax, eax
0x420728:	test	edx, edx
0x42072a:	setne	al
0x42072d:	ret	
F 0x423bd8
0x4182b8:	add	byte ptr [rbp + 0xe], dh
0x4182bb:	add	rsp, 0x18
0x4182bf:	ret	
F 0x4186c6
0x410016:	ret	
F 0x41d6f8
0x4182b8:	add	byte ptr [rbp + 0xe], dh
0x4182bb:	add	rsp, 0x18
0x4182bf:	ret	
F 0x420674
0x410c57:	ret	0
F 0x414322
0x4132de:	pop	r14
0x4132e0:	pop	r15
0x4132e2:	ret	
F 0x41592d
0x41592d:	add	byte ptr [rax], al
0x41592f:	add	byte ptr [rax - 0x75], cl
0x415932:	add	eax, 0x222a1
0x415937:	ret	
F 0x41e213
0x41e213:	cmp	al, 0xff
0x41e215:	dec	dword ptr [rax - 0x77]
0x41e218:	ret	
F 0x414326
0x410016:	ret	
F 0x41edee
0x4194a6:	add	byte ptr [rax], al
0x4194a8:	add	rsp, 0x20
0x4194ac:	pop	rbx
0x4194ad:	pop	rbp
0x4194ae:	pop	r12
0x4194b0:	ret	
F 0x415a5c
0x415a5c:	inc	ebx
0x415a5e:	nop	
0x415a60:	mov	eax, dword ptr [rdi]
0x415a62:	sub	eax, dword ptr [rsi]
0x415a64:	ret	
F 0x415e77
0x415e77:	nop	word ptr [rax + rax]
0x415e80:	mov	eax, dword ptr [rip + 0x21d82]
0x415e86:	ret	
F 0x41585d
0x41585d:	or	eax, 0x8d480001
0x415862:	add	eax, 0x10d17
0x415867:	cmove	rax, rdx
0x41586b:	ret	
F 0x41886d
0x41886d:	add	rsp, 0x10
0x418871:	pop	r12
0x418873:	ret	
F 0x41b9d6
0x4182b6:	add	byte ptr [rax], al
0x4182b8:	add	byte ptr [rbp + 0xe], dh
0x4182bb:	add	rsp, 0x18
0x4182bf:	ret	
F 0x4247dd
0x4132dc:	pop	r13
0x4132de:	pop	r14
0x4132e0:	pop	r15
0x4132e2:	ret	
F 0x42241e
0x41cc85:	add	byte ptr [rax], al
0x41cc87:	add	byte ptr [rbp - 0x3f6af040], al
0x41cc8d:	add	rsp, 8
0x41cc91:	movzx	eax, al
0x41cc94:	ret	
F 0x424faf
0x410016:	ret	
F 0x415d07
0x415d07:	add	byte ptr [rcx + rax - 0x18], cl
0x415d0b:	jmp	rax
F 0x41c5bf
0x41c5bf:	or	eax, 0x4cffff5a
0x41c5c4:	mov	eax, esp
0x41c5c6:	pop	r12
0x41c5c8:	ret	
F 0x4250c8
0x4182b8:	add	byte ptr [rbp + 0xe], dh
0x4182bb:	add	rsp, 0x18
0x4182bf:	ret	
F 0x415924
0x415924:	and	al, byte ptr [rdx]
0x415926:	add	bl, al
0x415928:	nop	dword ptr [rax + rax]
0x415930:	mov	rax, qword ptr [rip + 0x222a1]
0x415937:	ret	
F 0x412f18
0x412f18:	inc	edi
0x412f1a:	add	eax, 0x24c8d
0x412f1f:	add	dword ptr [rax], eax
0x412f21:	add	byte ptr [rax], al
0x412f23:	add	rsp, 8
0x412f27:	ret	
F 0x415918
0x415918:	nop	dword ptr [rax + rax]
0x415920:	mov	rax, qword ptr [rip + 0x222b9]
0x415927:	ret	
F 0x416d6f
0x410016:	ret	
F 0x416104
0x410016:	ret	
F 0x41b978
0x4182b8:	add	byte ptr [rbp + 0xe], dh
0x4182bb:	add	rsp, 0x18
0x4182bf:	ret	
F 0x41c576
0x4182b6:	add	byte ptr [rax], al
0x4182b8:	add	byte ptr [rbp + 0xe], dh
0x4182bb:	add	rsp, 0x18
0x4182bf:	ret	
F 0x4143cb
0x4143cb:	add	al, ch
0x4143cd:	pop	rdi
0x4143ce:	ret	
F 0x4252aa
0x41cc85:	add	byte ptr [rax], al
0x41cc87:	add	byte ptr [rbp - 0x3f6af040], al
0x41cc8d:	add	rsp, 8
0x41cc91:	movzx	eax, al
0x41cc94:	ret	
F 0x415a60
0x415a60:	mov	eax, dword ptr [rdi]
0x415a62:	sub	eax, dword ptr [rsi]
0x415a64:	ret	
F 0x42013c
0x410c57:	ret	0
F 0x4144c9
0x4144c9:	sbb	byte ptr [rcx + rcx*4 - 0x20], cl
0x4144cd:	pop	rbp
0x4144ce:	pop	r12
0x4144d0:	ret	
F 0x415920
0x415920:	mov	rax, qword ptr [rip + 0x222b9]
0x415927:	ret	
F 0x419c68
0x419c68:	test	esi, esi
0x419c6a:	setne	al
0x419c6d:	ret	
F 0x41c353
0x410016:	ret	
F 0x42459a
0x41849a:	setne	al
0x41849d:	ret	
F 0x423d43
0x41847e:	add	byte ptr [rax], al
0x418480:	add	byte ptr [rbp - 0x3f6af02e], al
0x418486:	add	rsp, 8
0x41848a:	ret	
F 0x422424
0x41cc8b:	xchg	eax, ebp
0x41cc8c:	ror	byte ptr [rax - 0x7d], 0xc4
0x41cc90:	or	byte ptr [rdi], cl
0x41cc92:	mov	dh, 0xc0
0x41cc94:	ret	
F 0x420cc9
0x41cc91:	movzx	eax, al
0x41cc94:	ret	
F 0x415455
0x410016:	ret	
F 0x424478
0x4182b8:	add	byte ptr [rbp + 0xe], dh
0x4182bb:	add	rsp, 0x18
0x4182bf:	ret	
F 0x42027b
0x42027b:	ret	0
F 0x422f48
0x41e066:	add	rsp, 0x48
0x41e06a:	pop	rbx
0x41e06b:	pop	rbp
0x41e06c:	pop	r12
0x41e06e:	pop	r13
0x41e070:	pop	r14
0x41e072:	pop	r15
0x41e074:	ret	
F 0x4134c8
0x4134c8:	add	rsp, 8
0x4134cc:	pop	rbx
0x4134cd:	pop	rbp
0x4134ce:	pop	r12
0x4134d0:	pop	r13
0x4134d2:	pop	r14
0x4134d4:	pop	r15
0x4134d6:	ret	
F 0x4213fa
0x41849a:	setne	al
0x41849d:	ret	
F 0x415e71
0x415e71:	cmp	eax, 0x21d92
0x415e76:	ret	
F 0x42295b
0x42295b:	ret	0x8b48
F 0x4158ed
0x4158ed:	add	byte ptr [rax], al
0x4158ef:	add	byte ptr [rax - 0x75], cl
0x4158f2:	add	eax, 0x22301
0x4158f7:	ret	
F 0x414bc6
0x4132dd:	pop	rbp
0x4132de:	pop	r14
0x4132e0:	pop	r15
0x4132e2:	ret	
F 0x41bbd8
0x419c68:	test	esi, esi
0x419c6a:	setne	al
0x419c6d:	ret	
F 0x41c24a
0x4132da:	pop	r12
0x4132dc:	pop	r13
0x4132de:	pop	r14
0x4132e0:	pop	r15
0x4132e2:	ret	
F 0x415a4f
0x415a4f:	mov	eax, esi
0x415a51:	sub	eax, ecx
0x415a53:	ret	
F 0x423e20
0x410016:	ret	
F 0x4182bb
0x417ab6:	add	rsp, 0x18
0x417aba:	ret	
F 0x41dcdf
0x41cc92:	mov	dh, 0xc0
0x41cc94:	ret	
F 0x413fe5
0x410016:	ret	
F 0x416698
0x416677:	dec	dword ptr [rax - 0x77]
0x41667a:	ret	0x8548
F 0x41586f
0x41586f:	add	byte ptr [rbx + 0x137503ff], al
0x415875:	lea	rax, [rip + 0x10d17]
0x41587c:	ret	
F 0x412c6c
0x412c6c:	sal	byte ptr [rcx + rcx - 1], 0xe0
0x412c71:	nop	dword ptr [rax]
0x412c78:	ret	
F 0x412cb2
0x412cb2:	nop	word ptr [rax + rax]
0x412cb8:	ret	
F 0x41f340
0x417ab6:	add	rsp, 0x18
0x417aba:	ret	
F 0x421ee8
0x4182b8:	add	byte ptr [rbp + 0xe], dh
0x4182bb:	add	rsp, 0x18
0x4182bf:	ret	
F 0x4194a8
0x4194a8:	add	rsp, 0x20
0x4194ac:	pop	rbx
0x4194ad:	pop	rbp
0x4194ae:	pop	r12
0x4194b0:	ret	
F 0x41000d
0x41000d:	sal	byte ptr [rdx + rax - 1], 0xd0
0x410012:	add	rsp, 8
0x410016:	ret	
F 0x41eafb
0x41cc86:	add	byte ptr [rax], al
0x41cc88:	test	eax, eax
0x41cc8a:	setne	al
0x41cc8d:	add	rsp, 8
0x41cc91:	movzx	eax, al
0x41cc94:	ret	
F 0x4206c1
0x4206c1:	push	rax
0x4206c2:	ret	
F 0x41ec96
0x41ec96:	add	byte ptr [rax], al
0x41ec98:	add	al, ch
0x41ec9a:	sub	eax, 0x8948ffff
0x41eca0:	ret	
F 0x413ae2
0x413632:	rcr	byte ptr [rbp + 0x41], 0x5c
0x413636:	ret	
F 0x415add
0x4132e1:	pop	rdi
0x4132e2:	ret	
F 0x41478a
0x41478a:	and	byte ptr [rcx + rcx*4 - 0x20], cl
0x41478e:	pop	rbx
0x41478f:	pop	rbp
0x414790:	pop	r12
0x414792:	ret	
F 0x41de15
0x410016:	ret	
F 0x4158f5
0x4158f5:	add	al, byte ptr [rax]
0x4158f7:	ret	
F 0x4248a9
0x410016:	ret	
F 0x420d8c
0x412c74:	add	byte ptr [rax], al
0x412c76:	add	byte ptr [rax], al
0x412c78:	ret	
F 0x4160b0
0x410016:	ret	
F 0x421642
0x4132dc:	pop	r13
0x4132de:	pop	r14
0x4132e0:	pop	r15
0x4132e2:	ret	
F 0x413c94
0x41374c:	add	byte ptr [rax - 0x77], cl
0x41374f:	ret	
F 0x41ea98
0x410016:	ret	
F 0x418fb6
0x4182b6:	add	byte ptr [rax], al
0x4182b8:	add	byte ptr [rbp + 0xe], dh
0x4182bb:	add	rsp, 0x18
0x4182bf:	ret	
F 0x4134d1
0x4132dd:	pop	rbp
0x4132de:	pop	r14
0x4132e0:	pop	r15
0x4132e2:	ret	
F 0x412f1b
0x412f1b:	lea	ecx, [rdx + rax]
0x412f1f:	add	dword ptr [rax], eax
0x412f21:	add	byte ptr [rax], al
0x412f23:	add	rsp, 8
0x412f27:	ret	
F 0x42373d
0x414071:	dec	dword ptr [rax - 0x77]
0x414074:	ret	
F 0x420d8a
0x41c6ea:	test	byte ptr [rax], al
0x41c6ec:	add	byte ptr [rax], al
0x41c6ee:	add	byte ptr [rax], al
0x41c6f0:	ret	
F 0x412d9e
0x412d9e:	add	byte ptr [rax], al
0x412da0:	add	byte ptr [rbp + 0x69], dh
0x412da3:	add	rsp, 0x60
0x412da7:	pop	rbx
0x412da8:	pop	rbp
0x412da9:	pop	r12
0x412dab:	ret	
F 0x41dcde
0x41cc91:	movzx	eax, al
0x41cc94:	ret	
F 0x423d50
0x423d50:	mov	esi, dword ptr [rip + 0x141aa]
0x423d56:	xor	eax, eax
0x423d58:	test	esi, esi
0x423d5a:	setne	al
0x423d5d:	ret	
F 0x4149d6
0x41374c:	add	byte ptr [rax - 0x77], cl
0x41374f:	ret	
F 0x4251e6
0x4182b6:	add	byte ptr [rax], al
0x4182b8:	add	byte ptr [rbp + 0xe], dh
0x4182bb:	add	rsp, 0x18
0x4182bf:	ret	
F 0x422421
0x41cc88:	test	eax, eax
0x41cc8a:	setne	al
0x41cc8d:	add	rsp, 8
0x41cc91:	movzx	eax, al
0x41cc94:	ret	
F 0x415921
0x415921:	mov	eax, dword ptr [rip + 0x222b9]
0x415927:	ret	
F 0x418b92
0x418b92:	add	byte ptr [rax], al
0x418b94:	add	byte ptr [rbp + 0x2f], dh
0x418b97:	add	rsp, 0x10
0x418b9b:	pop	rbx
0x418b9c:	pop	rbp
0x418b9d:	pop	r12
0x418b9f:	ret	
F 0x41374f
0x410016:	ret	
F 0x41769b
0x410016:	ret	
F 0x422c8b
0x417ab6:	add	rsp, 0x18
0x417aba:	ret	
F 0x41ea47
0x4126b1:	pop	rbp
0x4126b2:	ret	
