T 0x415ae2
0x40bd52:	pop	r12
0x40bd54:	ret	
T 0x4135bd
0x4135bd:	mov	rax, r12
0x4135c0:	pop	rbx
0x4135c1:	pop	r12
0x4135c3:	ret	
T 0x40f37b
0x40f37b:	pop	rax
0x40f37c:	pop	rbx
0x40f37d:	pop	rbp
0x40f37e:	pop	r12
0x40f380:	pop	r13
0x40f382:	ret	
T 0x40f009
0x40bd52:	pop	r12
0x40bd54:	ret	
T 0x4135b9
0x4135b9:	add	rsp, 8
0x4135bd:	mov	rax, r12
0x4135c0:	pop	rbx
0x4135c1:	pop	r12
0x4135c3:	ret	
T 0x40e697
0x40bd52:	pop	r12
0x40bd54:	ret	
T 0x410458
0x410458:	mov	rax, r12
0x41045b:	pop	rbx
0x41045c:	pop	rbp
0x41045d:	pop	r12
0x41045f:	pop	r13
0x410461:	pop	r14
0x410463:	pop	r15
0x410465:	ret	
T 0x413950
0x40bd52:	pop	r12
0x40bd54:	ret	
T 0x4104e0
0x410458:	mov	rax, r12
0x41045b:	pop	rbx
0x41045c:	pop	rbp
0x41045d:	pop	r12
0x41045f:	pop	r13
0x410461:	pop	r14
0x410463:	pop	r15
0x410465:	ret	
T 0x415b90
0x40bd52:	pop	r12
0x40bd54:	ret	
T 0x41408a
0x410458:	mov	rax, r12
0x41045b:	pop	rbx
0x41045c:	pop	rbp
0x41045d:	pop	r12
0x41045f:	pop	r13
0x410461:	pop	r14
0x410463:	pop	r15
0x410465:	ret	
T 0x40f5a4
0x40ed07:	pop	r13
0x40ed09:	ret	
T 0x4137ff
0x4137ff:	mov	rax, r13
0x413802:	pop	rbx
0x413803:	pop	rbp
0x413804:	pop	r12
0x413806:	pop	r13
0x413808:	pop	r14
0x41380a:	pop	r15
0x41380c:	ret	
T 0x40f8df
0x40bd52:	pop	r12
0x40bd54:	ret	
T 0x4104dc
0x410454:	add	rsp, 8
0x410458:	mov	rax, r12
0x41045b:	pop	rbx
0x41045c:	pop	rbp
0x41045d:	pop	r12
0x41045f:	pop	r13
0x410461:	pop	r14
0x410463:	pop	r15
0x410465:	ret	
T 0x40e6d7
0x40bd52:	pop	r12
0x40bd54:	ret	
T 0x410454
0x410454:	add	rsp, 8
0x410458:	mov	rax, r12
0x41045b:	pop	rbx
0x41045c:	pop	rbp
0x41045d:	pop	r12
0x41045f:	pop	r13
0x410461:	pop	r14
0x410463:	pop	r15
0x410465:	ret	
T 0x4135c0
0x4135c0:	pop	rbx
0x4135c1:	pop	r12
0x4135c3:	ret	
T 0x40d633
0x40d633:	lea	eax, [rbx + 5]
0x40d636:	pop	rdx
0x40d637:	pop	rcx
0x40d638:	sub	rax, r12
0x40d63b:	pop	rbx
0x40d63c:	pop	rbp
0x40d63d:	pop	r12
0x40d63f:	pop	r13
0x40d641:	pop	r14
0x40d643:	ret	
T 0x4135be
0x4135be:	mov	eax, esp
0x4135c0:	pop	rbx
0x4135c1:	pop	r12
0x4135c3:	ret	
T 0x40d632
0x40d632:	lea	rax, [rbx + 5]
0x40d636:	pop	rdx
0x40d637:	pop	rcx
0x40d638:	sub	rax, r12
0x40d63b:	pop	rbx
0x40d63c:	pop	rbp
0x40d63d:	pop	r12
0x40d63f:	pop	r13
0x40d641:	pop	r14
0x40d643:	ret	
T 0x41402d
0x40bd52:	pop	r12
0x40bd54:	ret	
T 0x414086
0x414086:	add	rsp, 0x18
0x41408a:	mov	rax, r12
0x41408d:	pop	rbx
0x41408e:	pop	rbp
0x41408f:	pop	r12
0x414091:	pop	r13
0x414093:	pop	r14
0x414095:	pop	r15
0x414097:	ret	
T 0x410d06
0x40ed07:	pop	r13
0x40ed09:	ret	
T 0x4137fb
0x4137fb:	add	rsp, 0x28
0x4137ff:	mov	rax, r13
0x413802:	pop	rbx
0x413803:	pop	rbp
0x413804:	pop	r12
0x413806:	pop	r13
0x413808:	pop	r14
0x41380a:	pop	r15
0x41380c:	ret	
T 0x40d9e1
0x40b5aa:	pop	r14
0x40b5ac:	ret	
T 0x413ea1
0x413ea1:	jmp	0x413d7e
F 0x40d4c5
0x40d4c5:	add	dword ptr [r8], r8d
0x40d4c8:	mov	byte ptr [rdi], al
0x40d4ca:	mov	eax, 1
0x40d4cf:	ret	
F 0x40ed03
0x40ed03:	pop	rbx
0x40ed04:	pop	rbp
0x40ed05:	pop	r12
0x40ed07:	pop	r13
0x40ed09:	ret	
F 0x411e1b
0x411e1b:	jmp	0x411ddf
F 0x40e68d
0x40e68d:	inc	esi
0x40e68f:	sbb	eax, 0xd8890000
0x40e695:	pop	rbx
0x40e696:	pop	rbp
0x40e697:	pop	r12
0x40e699:	ret	
F 0x4101f7
0x40ea77:	add	byte ptr [rax], al
0x40ea79:	add	byte ptr [rbp + 0x47], dh
0x40ea7c:	add	rsp, 0x18
0x40ea80:	pop	rbx
0x40ea81:	pop	rbp
0x40ea82:	ret	
F 0x40e737
0x40acf6:	add	byte ptr [rax - 0x77], cl
0x40acf9:	ret	
F 0x40dc79
0x40dc2f:	mov	dword ptr [rdi], ecx
0x40dc31:	ret	
F 0x4130c7
0x40aa9b:	pop	rsi
0x40aa9c:	pop	r15
0x40aa9e:	ret	
F 0x40d37b
0x40d2fb:	add	eax, dword ptr [rax]
0x40d2fd:	add	byte ptr [rdx - 1], bh
0x40d303:	seta	al
0x40d306:	movzx	eax, al
0x40d309:	cmovb	eax, edx
0x40d30c:	ret	
F 0x40cd16
0x40ccd6:	movzx	eax, al
0x40ccd9:	cmovl	eax, edx
0x40ccdc:	ret	
F 0x40cdd9
0x40ccd9:	cmovl	eax, edx
0x40ccdc:	ret	
F 0x40ee4e
0x40ea80:	pop	rbx
0x40ea81:	pop	rbp
0x40ea82:	ret	
F 0x414539
0x414539:	and	byte ptr [rcx + rcx*4 - 0x40], al
0x41453d:	pop	rbx
0x41453e:	pop	rbp
0x41453f:	pop	r12
0x414541:	ret	
F 0x40d343
0x40cc53:	seta	al
0x40cc56:	movzx	eax, al
0x40cc59:	cmovb	eax, edx
0x40cc5c:	ret	
F 0x41037b
0x41037b:	dec	dword ptr [rax - 0x75]
0x41037e:	push	rbx
0x41037f:	xor	byte ptr [rax - 0x7d], cl
0x410382:	ret	
F 0x40d077
0x40d077:	mov	edx, 0xffffffff
0x40d07d:	seta	al
0x40d080:	movzx	eax, al
0x40d083:	cmovb	eax, edx
0x40d086:	ret	
F 0x41558c
0x41558c:	add	byte ptr [rax], al
0x41558e:	add	byte ptr [rax], al
0x415590:	mov	dword ptr [rip + 0x2de6e], 1
0x41559a:	ret	
F 0x412a9a
0x40a016:	ret	
F 0x40d2dd
0x40d2dd:	add	byte ptr [rax], al
0x40d2df:	add	byte ptr [rcx], dh
0x40d2e1:	leave	
0x40d2e2:	xor	eax, eax
0x40d2e4:	cmp	rdi, rcx
0x40d2e7:	seta	al
0x40d2ea:	ret	
F 0x40b1a6
0x40b126:	add	byte ptr [rax], al
0x40b128:	ret	
F 0x4141f1
0x4141f1:	add	byte ptr [rax - 0x77], cl
0x4141f4:	ret	0xd6e8
F 0x40cf4c
0x40a016:	ret	
F 0x40cf3e
0x40cc4e:	mov	edx, 0xffffffff
0x40cc53:	seta	al
0x40cc56:	movzx	eax, al
0x40cc59:	cmovb	eax, edx
0x40cc5c:	ret	
F 0x41003f
0x40ea7f:	sbb	byte ptr [rbx + 0x5d], bl
0x40ea82:	ret	
F 0x40cc78
0x40cc4e:	mov	edx, 0xffffffff
0x40cc53:	seta	al
0x40cc56:	movzx	eax, al
0x40cc59:	cmovb	eax, edx
0x40cc5c:	ret	
F 0x411d5e
0x40a016:	ret	
F 0x410ac2
0x410ac2:	movzx	eax, al
0x410ac5:	mov	dword ptr [rip + 0x32895], eax
0x410acb:	add	rsp, 8
0x410acf:	pop	rbx
0x410ad0:	pop	rbp
0x410ad1:	ret	
F 0x40dc08
0x40dc08:	add	byte ptr [rax], al
0x40dc0a:	mov	eax, 0x2d
0x40dc0f:	mov	word ptr [rdi], ax
0x40dc12:	mov	eax, 1
0x40dc17:	ret	
F 0x40cf0d
0x40a016:	ret	
F 0x40d20c
0x40ccce:	mov	edx, 0xffffffff
0x40ccd3:	setg	al
0x40ccd6:	movzx	eax, al
0x40ccd9:	cmovl	eax, edx
0x40ccdc:	ret	
F 0x40ce8e
0x40cc4e:	mov	edx, 0xffffffff
0x40cc53:	seta	al
0x40cc56:	movzx	eax, al
0x40cc59:	cmovb	eax, edx
0x40cc5c:	ret	
F 0x40e063
0x40e063:	add	byte ptr [rax], al
0x40e065:	mov	byte ptr [rdi + 2], 0
0x40e069:	mov	word ptr [rdi], ax
0x40e06c:	mov	eax, 2
0x40e071:	ret	
F 0x40fa6d
0x40a016:	ret	
F 0x410121
0x40b19f:	pop	rbp
0x40b1a0:	ret	
F 0x40dc13
0x40d4cb:	add	dword ptr [rax], eax
0x40d4cd:	add	byte ptr [rax], al
0x40d4cf:	ret	
F 0x40dc86
0x40dc86:	mov	eax, 1
0x40dc8b:	mov	word ptr [rdi], r8w
0x40dc8f:	ret	
F 0x40fc38
0x40d4ca:	mov	eax, 1
0x40d4cf:	ret	
F 0x4135b2
0x4135b2:	mov	qword ptr [rax], 0
0x4135b9:	add	rsp, 8
0x4135bd:	mov	rax, r12
0x4135c0:	pop	rbx
0x4135c1:	pop	r12
0x4135c3:	ret	
F 0x40eb7a
0x40eb17:	add	byte ptr [rax], al
0x40eb19:	add	byte ptr [rbp + 5], dh
0x40eb1c:	add	rsp, 0x18
0x40eb20:	ret	
F 0x40cc5c
0x40a016:	ret	
F 0x412ee1
0x40cc2e:	add	byte ptr [rax], al
0x40cc30:	xor	eax, eax
0x40cc32:	ret	
F 0x41132b
0x41132b:	mov	dword ptr [rip + 0x32047], edx
0x411331:	ret	
F 0x4102d7
0x40ea77:	add	byte ptr [rax], al
0x40ea79:	add	byte ptr [rbp + 0x47], dh
0x40ea7c:	add	rsp, 0x18
0x40ea80:	pop	rbx
0x40ea81:	pop	rbp
0x40ea82:	ret	
F 0x40f96b
0x40f96b:	add	byte ptr [rax], al
0x40f96d:	mov	dword ptr [rdi], 0x20202020
0x40f973:	mov	word ptr [rdi + 4], dx
0x40f977:	mov	eax, 5
0x40f97c:	ret	
F 0x40dc76
0x40dc76:	add	byte ptr [rsi + 0x44], ah
0x40dc79:	mov	dword ptr [rdi], ecx
0x40dc7b:	ret	
F 0x40d2fa
0x40d2fa:	movabs	al, byte ptr [0xffffffffba000003]
0x40d303:	seta	al
0x40d306:	movzx	eax, al
0x40d309:	cmovb	eax, edx
0x40d30c:	ret	
F 0x40cc61
0x40cc61:	mov	eax, dword ptr [rdi + 0x190]
0x40cc67:	sub	eax, dword ptr [rsi + 0x190]
0x40cc6d:	ret	
F 0x40f55b
0x40d6f2:	ret	0x8948
F 0x40cd56
0x40ccd6:	movzx	eax, al
0x40ccd9:	cmovl	eax, edx
0x40ccdc:	ret	
F 0x410ee1
0x40a016:	ret	
F 0x40fda0
0x40ea80:	pop	rbx
0x40ea81:	pop	rbp
0x40ea82:	ret	
F 0x414093
0x40aa9a:	pop	r14
0x40aa9c:	pop	r15
0x40aa9e:	ret	
F 0x40dcf3
0x40dc0d:	add	byte ptr [rax], al
0x40dc0f:	mov	word ptr [rdi], ax
0x40dc12:	mov	eax, 1
0x40dc17:	ret	
F 0x410d02
0x40ed03:	pop	rbx
0x40ed04:	pop	rbp
0x40ed05:	pop	r12
0x40ed07:	pop	r13
0x40ed09:	ret	
F 0x410b45
0x410b45:	add	dword ptr [rax], eax
0x410b47:	add	byte ptr [rax], al
0x410b49:	mov	dword ptr [rip + 0x32811], eax
0x410b4f:	add	rsp, 8
0x410b53:	pop	rbx
0x410b54:	pop	rbp
0x410b55:	ret	
F 0x40dc37
0x40dc37:	add	byte ptr [rdx + 0x3923], bh
0x40dc3d:	mov	byte ptr [rdi + 2], 0
0x40dc41:	mov	eax, 2
0x40dc46:	mov	word ptr [rdi], dx
0x40dc49:	ret	
F 0x4102e1
0x40b19f:	pop	rbp
0x40b1a0:	ret	
F 0x4108df
0x40aa95:	pop	rbp
0x40aa96:	pop	r12
0x40aa98:	pop	r13
0x40aa9a:	pop	r14
0x40aa9c:	pop	r15
0x40aa9e:	ret	
F 0x415b82
0x415b82:	inc	dword ptr [rbx - 0x6af0f6c8]
0x415b88:	ror	byte ptr [rdi], 0xb6
0x415b8b:	sal	bh, 0xd8
0x415b8e:	pop	rbx
0x415b8f:	pop	rbp
0x415b90:	pop	r12
0x415b92:	ret	
F 0x415bdb
0x40a016:	ret	
F 0x40fbbb
0x40b126:	add	byte ptr [rax], al
0x40b128:	ret	
F 0x415163
0x40a016:	ret	
F 0x40f871
0x40d4cb:	add	dword ptr [rax], eax
0x40d4cd:	add	byte ptr [rax], al
0x40d4cf:	ret	
F 0x410b53
0x40ea80:	pop	rbx
0x40ea81:	pop	rbp
0x40ea82:	ret	
F 0x40cf26
0x40cc56:	movzx	eax, al
0x40cc59:	cmovb	eax, edx
0x40cc5c:	ret	
F 0x40d039
0x40d039:	xchg	eax, eax
0x40d03b:	add	byte ptr [rax], al
0x40d03d:	add	byte ptr [rdx - 1], bh
0x40d043:	seta	al
0x40d046:	movzx	eax, al
0x40d049:	cmovb	eax, edx
0x40d04c:	ret	
F 0x40dc28
0x40dc28:	add	byte ptr [rax + 2], bh
0x40dc2e:	mov	word ptr [rdi], cx
0x40dc31:	ret	
F 0x40cdae
0x40ccce:	mov	edx, 0xffffffff
0x40ccd3:	setg	al
0x40ccd6:	movzx	eax, al
0x40ccd9:	cmovl	eax, edx
0x40ccdc:	ret	
F 0x413946
0x413946:	or	byte ptr [rax - 0x77], cl
0x413949:	add	cl, byte ptr [rax - 0x77]
0x41394c:	imul	ecx, dword ptr [rax], 0x5b
0x41394f:	pop	rbp
0x413950:	pop	r12
0x413952:	ret	
F 0x40cf43
0x40cc53:	seta	al
0x40cc56:	movzx	eax, al
0x40cc59:	cmovb	eax, edx
0x40cc5c:	ret	
F 0x40d22d
0x40d22d:	nop	dword ptr [rax]
0x40d230:	mov	eax, dword ptr [rdi + 0x18]
0x40d233:	sub	eax, dword ptr [rsi + 0x18]
0x40d236:	ret	
F 0x40ceea
0x40ceea:	movabs	al, byte ptr [0xffffffffba000001]
0x40cef3:	seta	al
0x40cef6:	movzx	eax, al
0x40cef9:	cmovb	eax, edx
0x40cefc:	ret	
F 0x40fa03
0x40a016:	ret	
F 0x40dc0b
0x40dc0b:	sub	eax, 0x66000000
0x40dc10:	mov	dword ptr [rdi], eax
0x40dc12:	mov	eax, 1
0x40dc17:	ret	
F 0x40d475
0x40d475:	add	esi, eax
0x40d477:	add	byte ptr [rbx], ch
0x40d479:	movsxd	rax, r8d
0x40d47c:	add	rax, rdi
0x40d47f:	mov	byte ptr [rax], 0
0x40d482:	mov	eax, r8d
0x40d485:	ret	
F 0x410acf
0x40ea80:	pop	rbx
0x40ea81:	pop	rbp
0x40ea82:	ret	
F 0x40dc22
0x40dc22:	cmp	byte ptr [rax], al
0x40dc24:	add	dh, al
0x40dc26:	add	r8b, byte ptr [r8]
0x40dc29:	mov	eax, 2
0x40dc2e:	mov	word ptr [rdi], cx
0x40dc31:	ret	
F 0x40d47e
0x40d47e:	clc	
0x40d47f:	mov	byte ptr [rax], 0
0x40d482:	mov	eax, r8d
0x40d485:	ret	
F 0x40cfe3
0x40cc53:	seta	al
0x40cc56:	movzx	eax, al
0x40cc59:	cmovb	eax, edx
0x40cc5c:	ret	
F 0x40dc6c
0x40dc6c:	add	byte ptr [rax], al
0x40dc6e:	mov	byte ptr [rdi + 2], 0
0x40dc72:	mov	eax, 2
0x40dc77:	mov	word ptr [rdi], r9w
0x40dc7b:	ret	
F 0x415c8a
0x40aa9c:	pop	r15
0x40aa9e:	ret	
F 0x411659
0x40a016:	ret	
F 0x41045f
0x40aa98:	pop	r13
0x40aa9a:	pop	r14
0x40aa9c:	pop	r15
0x40aa9e:	ret	
F 0x40d4fe
0x40a012:	add	rsp, 8
0x40a016:	ret	
F 0x415578
0x415578:	adc	byte ptr [rax - 0x77], cl
0x41557b:	ret	0x8548
F 0x40dce5
0x40dce5:	add	byte ptr [rax], al
0x40dce7:	mov	word ptr [rdi], r11w
0x40dceb:	ret	
F 0x40fe81
0x40b19f:	pop	rbp
0x40b1a0:	ret	
F 0x41402b
0x40bd50:	pop	rbx
0x40bd51:	pop	rbp
0x40bd52:	pop	r12
0x40bd54:	ret	
F 0x40db2a
0x40a016:	ret	
F 0x40b15d
0x40b15d:	sal	byte ptr [rax + rcx - 1], 0xe0
0x40b162:	nop	word ptr [rax + rax]
0x40b168:	ret	
F 0x40cf1e
0x40cc4e:	mov	edx, 0xffffffff
0x40cc53:	seta	al
0x40cc56:	movzx	eax, al
0x40cc59:	cmovb	eax, edx
0x40cc5c:	ret	
F 0x40f489
0x40a016:	ret	
F 0x40d6ef
0x40d6ef:	sub	ecx, dword ptr [rax + 0x29]
0x40d6f2:	ret	0x8948
F 0x40d230
0x40d230:	mov	eax, dword ptr [rdi + 0x18]
0x40d233:	sub	eax, dword ptr [rsi + 0x18]
0x40d236:	ret	
F 0x40b8de
0x40aa98:	pop	r13
0x40aa9a:	pop	r14
0x40aa9c:	pop	r15
0x40aa9e:	ret	
F 0x40dc98
0x40dc98:	add	byte ptr [rax], al
0x40dc9a:	add	bl, al
0x40dc9c:	nop	dword ptr [rax]
0x40dca0:	mov	dword ptr [rdi], 0x4c4449
0x40dca6:	mov	eax, 3
0x40dcab:	ret	
F 0x410edc
0x410edc:	add	rsp, 0x10
0x410ee0:	pop	rbx
0x410ee1:	ret	
F 0x40f98d
0x40a016:	ret	
F 0x40b19c
0x40b19c:	add	dword ptr [rax], eax
0x40b19e:	add	dword ptr [rbp - 0x3d], ebx
0x40b1a1:	nop	dword ptr [rax]
0x40b1a8:	ret	
F 0x40fb73
0x40dc0d:	add	byte ptr [rax], al
0x40dc0f:	mov	word ptr [rdi], ax
0x40dc12:	mov	eax, 1
0x40dc17:	ret	
F 0x410117
0x40ea77:	add	byte ptr [rax], al
0x40ea79:	add	byte ptr [rbp + 0x47], dh
0x40ea7c:	add	rsp, 0x18
0x40ea80:	pop	rbx
0x40ea81:	pop	rbp
0x40ea82:	ret	
F 0x40b8df
0x40aa99:	pop	rbp
0x40aa9a:	pop	r14
0x40aa9c:	pop	r15
0x40aa9e:	ret	
F 0x41011c
0x40ea7c:	add	rsp, 0x18
0x40ea80:	pop	rbx
0x40ea81:	pop	rbp
0x40ea82:	ret	
F 0x40e807
0x40bd52:	pop	r12
0x40bd54:	ret	
F 0x40d19b
0x40cccd:	add	byte ptr [rdx - 1], bh
0x40ccd3:	setg	al
0x40ccd6:	movzx	eax, al
0x40ccd9:	cmovl	eax, edx
0x40ccdc:	ret	
F 0x415ad9
0x415ad9:	add	byte ptr [rbp + 9], dh
0x415adc:	add	rsp, 0x40
0x415ae0:	pop	rbx
0x415ae1:	pop	rbp
0x415ae2:	pop	r12
0x415ae4:	ret	
F 0x40ab56
0x40a016:	ret	
F 0x415c8d
0x415c8d:	nop	dword ptr [rax]
0x415c90:	ret	
F 0x41393a
0x40d3c0:	ret	0x8b48
F 0x40ec3c
0x40d7ba:	add	rsp, 0x18
0x40d7be:	ret	
F 0x40fbf5
0x40dc0f:	mov	word ptr [rdi], ax
0x40dc12:	mov	eax, 1
0x40dc17:	ret	
F 0x40dc96
0x40dc96:	mov	eax, 3
0x40dc9b:	ret	
F 0x410bb1
0x410bb1:	mov	eax, ecx
0x410bb3:	cmovne	eax, edx
0x410bb6:	mov	dword ptr [rip + 0x11460], eax
0x410bbc:	xor	eax, eax
0x410bbe:	ret	
F 0x40dcde
0x40dcde:	mov	byte ptr [rdi + 2], 0
0x40dce2:	mov	eax, 2
0x40dce7:	mov	word ptr [rdi], r11w
0x40dceb:	ret	
F 0x40d4c8
0x40d4c8:	mov	byte ptr [rdi], al
0x40d4ca:	mov	eax, 1
0x40d4cf:	ret	
F 0x413e98
0x413e98:	add	eax, 0x2f54f
0x413e9d:	add	dword ptr [rax], eax
0x413e9f:	add	byte ptr [rax], al
0x413ea1:	jmp	0x413d7e
F 0x40d0fb
0x40cccd:	add	byte ptr [rdx - 1], bh
0x40ccd3:	setg	al
0x40ccd6:	movzx	eax, al
0x40ccd9:	cmovl	eax, edx
0x40ccdc:	ret	
F 0x40fb79
0x40d4cb:	add	dword ptr [rax], eax
0x40d4cd:	add	byte ptr [rax], al
0x40d4cf:	ret	
F 0x410f72
0x410f72:	add	byte ptr [rax], al
0x410f74:	add	byte ptr [rbp + 0x5d], dh
0x410f77:	add	rsp, 0x18
0x410f7b:	pop	rbx
0x410f7c:	pop	rbp
0x410f7d:	ret	
F 0x40f376
0x40f376:	add	byte ptr [rax], al
0x40f378:	add	rsp, 0x58
0x40f37c:	pop	rbx
0x40f37d:	pop	rbp
0x40f37e:	pop	r12
0x40f380:	pop	r13
0x40f382:	ret	
F 0x40d12a
0x40a016:	ret	
F 0x40d480
0x40d480:	add	byte ptr [rax], al
0x40d482:	mov	eax, r8d
0x40d485:	ret	
F 0x40e067
0x40e067:	add	al, byte ptr [rax]
0x40e069:	mov	word ptr [rdi], ax
0x40e06c:	mov	eax, 2
0x40e071:	ret	
F 0x40d1bb
0x40d1bb:	add	bl, al
0x40d1bd:	nop	dword ptr [rax]
0x40d1c0:	mov	eax, dword ptr [rdi]
0x40d1c2:	sub	eax, dword ptr [rsi]
0x40d1c4:	ret	
F 0x40b8e2
0x40aa9c:	pop	r15
0x40aa9e:	ret	
F 0x40edc1
0x40edc1:	add	byte ptr [rbx + 0x5d], bl
0x40edc4:	ret	
F 0x40d3da
0x40cc56:	movzx	eax, al
0x40cc59:	cmovb	eax, edx
0x40cc5c:	ret	
F 0x40f1c8
0x40eb1b:	add	eax, 0x18c48348
0x40eb20:	ret	
F 0x40ce79
0x40cc59:	cmovb	eax, edx
0x40cc5c:	ret	
F 0x40d029
0x40cc59:	cmovb	eax, edx
0x40cc5c:	ret	
F 0x40dcc4
0x40dcc4:	add	dh, al
0x40dcc6:	add	r8b, byte ptr [r8]
0x40dcc9:	mov	eax, 2
0x40dcce:	mov	word ptr [rdi], si
0x40dcd1:	ret	
F 0x4103b0
0x40a016:	ret	
F 0x40d39d
0x40cc4d:	add	byte ptr [rdx - 1], bh
0x40cc53:	seta	al
0x40cc56:	movzx	eax, al
0x40cc59:	cmovb	eax, edx
0x40cc5c:	ret	
F 0x4110c1
0x40a016:	ret	
F 0x413fce
0x413fce:	or	byte ptr [rax + 1], bh
0x413fd4:	pop	rbx
0x413fd5:	pop	rbp
0x413fd6:	pop	r12
0x413fd8:	pop	r13
0x413fda:	ret	
F 0x40cfe9
0x40cc59:	cmovb	eax, edx
0x40cc5c:	ret	
F 0x414785
0x414785:	cmp	edx, dword ptr [rax]
0x414788:	add	byte ptr [rax - 0x77], cl
0x41478b:	ret	0x3fe8
F 0x40f24d
0x40f24d:	pop	rbx
0x40f24f:	pop	rbp
0x40f250:	ret	
F 0x411dea
0x40aa9b:	pop	rsi
0x40aa9c:	pop	r15
0x40aa9e:	ret	
F 0x415b6b
0x40a016:	ret	
F 0x412edf
0x412edf:	xor	esi, dword ptr [rbx]
0x412ee1:	add	byte ptr [rax], al
0x412ee3:	xor	eax, eax
0x412ee5:	ret	
F 0x410b54
0x40b19f:	pop	rbp
0x40b1a0:	ret	
F 0x40cd6b
0x40cd2b:	add	dword ptr [rax], eax
0x40cd2d:	add	byte ptr [rdx - 1], bh
0x40cd33:	setg	al
0x40cd36:	movzx	eax, al
0x40cd39:	cmovl	eax, edx
0x40cd3c:	ret	
F 0x41445d
0x40a016:	ret	
F 0x40ce76
0x40cc56:	movzx	eax, al
0x40cc59:	cmovb	eax, edx
0x40cc5c:	ret	
F 0x40ce0b
0x40cc4b:	add	dword ptr [rax], eax
0x40cc4d:	add	byte ptr [rdx - 1], bh
0x40cc53:	seta	al
0x40cc56:	movzx	eax, al
0x40cc59:	cmovb	eax, edx
0x40cc5c:	ret	
F 0x4108e0
0x40aa96:	pop	r12
0x40aa98:	pop	r13
0x40aa9a:	pop	r14
0x40aa9c:	pop	r15
0x40aa9e:	ret	
F 0x411de3
0x40aa94:	pop	rbx
0x40aa95:	pop	rbp
0x40aa96:	pop	r12
0x40aa98:	pop	r13
0x40aa9a:	pop	r14
0x40aa9c:	pop	r15
0x40aa9e:	ret	
F 0x40d85f
0x40d85f:	sub	byte ptr [rax + 0x29], cl
0x40d862:	ret	0x8948
F 0x4145b3
0x4145b3:	add	byte ptr [rax], al
0x4145b5:	mov	dword ptr [rip + 0x2ee31], 0
0x4145bf:	ret	
F 0x40e6c7
0x40e6c7:	add	byte ptr [rdx + 0x2d], bh
0x40e6cd:	mov	eax, 1
0x40e6d2:	mov	word ptr [rdi], dx
0x40e6d5:	pop	rbx
0x40e6d6:	pop	rbp
0x40e6d7:	pop	r12
0x40e6d9:	ret	
F 0x40ce96
0x40cc56:	movzx	eax, al
0x40cc59:	cmovb	eax, edx
0x40cc5c:	ret	
F 0x40d349
0x40cc59:	cmovb	eax, edx
0x40cc5c:	ret	
F 0x40d3ac
0x40a016:	ret	
F 0x40ceaa
0x40ceaa:	add	byte ptr [rcx], 0
0x40cead:	add	byte ptr [rdx - 1], bh
0x40ceb3:	seta	al
0x40ceb6:	movzx	eax, al
0x40ceb9:	cmovb	eax, edx
0x40cebc:	ret	
F 0x40e639
0x40b19f:	pop	rbp
0x40b1a0:	ret	
F 0x40cc28
0x40cc28:	nop	dword ptr [rax + rax]
0x40cc30:	xor	eax, eax
0x40cc32:	ret	
F 0x40f867
0x40dc09:	add	byte ptr [rax + 0x2d], bh
0x40dc0f:	mov	word ptr [rdi], ax
0x40dc12:	mov	eax, 1
0x40dc17:	ret	
F 0x40dc68
0x40dc68:	mov	r9d, 0x5252
0x40dc6e:	mov	byte ptr [rdi + 2], 0
0x40dc72:	mov	eax, 2
0x40dc77:	mov	word ptr [rdi], r9w
0x40dc7b:	ret	
F 0x40b47e
0x40aa98:	pop	r13
0x40aa9a:	pop	r14
0x40aa9c:	pop	r15
0x40aa9e:	ret	
F 0x40ccc9
0x40ccc9:	xchg	eax, ebp
0x40cccb:	add	byte ptr [rax], al
0x40cccd:	add	byte ptr [rdx - 1], bh
0x40ccd3:	setg	al
0x40ccd6:	movzx	eax, al
0x40ccd9:	cmovl	eax, edx
0x40ccdc:	ret	
F 0x40ebd9
0x40eb19:	add	byte ptr [rbp + 5], dh
0x40eb1c:	add	rsp, 0x18
0x40eb20:	ret	
F 0x40ccab
0x40ccab:	add	bl, al
0x40ccad:	nop	dword ptr [rax]
0x40ccb0:	mov	rax, qword ptr [rdi + 0xe0]
0x40ccb7:	sub	eax, dword ptr [rsi + 0xe0]
0x40ccbd:	ret	
F 0x40d09a
0x40d09a:	rol	byte ptr [rax], 1
0x40d09c:	add	byte ptr [rax], al
0x40d09e:	mov	edx, 0xffffffff
0x40d0a3:	seta	al
0x40d0a6:	movzx	eax, al
0x40d0a9:	cmovb	eax, edx
0x40d0ac:	ret	
F 0x40d238
0x40d238:	nop	dword ptr [rax + rax]
0x40d240:	movsx	eax, byte ptr [rdi + 0x1c]
0x40d244:	movsx	edx, byte ptr [rsi + 0x1c]
0x40d248:	sub	eax, edx
0x40d24a:	ret	
F 0x411243
0x40aa94:	pop	rbx
0x40aa95:	pop	rbp
0x40aa96:	pop	r12
0x40aa98:	pop	r13
0x40aa9a:	pop	r14
0x40aa9c:	pop	r15
0x40aa9e:	ret	
F 0x40c299
0x40a016:	ret	
F 0x4102df
0x40ea7f:	sbb	byte ptr [rbx + 0x5d], bl
0x40ea82:	ret	
F 0x40cc53
0x40cc53:	seta	al
0x40cc56:	movzx	eax, al
0x40cc59:	cmovb	eax, edx
0x40cc5c:	ret	
F 0x40dc46
0x40dc46:	mov	word ptr [rdi], dx
0x40dc49:	ret	
F 0x40d04c
0x40a016:	ret	
F 0x413781
0x40a016:	ret	
F 0x40e55f
0x40e4e8:	ret	0x8d48
F 0x40f8c1
0x40e68f:	sbb	eax, 0xd8890000
0x40e695:	pop	rbx
0x40e696:	pop	rbp
0x40e697:	pop	r12
0x40e699:	ret	
F 0x40f957
0x40f957:	mov	eax, 5
0x40f95c:	add	rsp, 0x18
0x40f960:	ret	
F 0x4154c7
0x4154c7:	add	byte ptr [rax - 0x77], cl
0x4154ca:	ret	0xe8
F 0x411265
0x411265:	mov	dword ptr [rip + 0x10de5], ebp
0x41126b:	mov	qword ptr [rbp], rax
0x41126f:	jmp	0x41123c
F 0x40d05e
0x40cc4e:	mov	edx, 0xffffffff
0x40cc53:	seta	al
0x40cc56:	movzx	eax, al
0x40cc59:	cmovb	eax, edx
0x40cc5c:	ret	
F 0x40ee45
0x40ee45:	add	rsp, 0x18
0x40ee49:	mov	eax, 0x18
0x40ee4e:	pop	rbx
0x40ee4f:	pop	rbp
0x40ee50:	ret	
F 0x4108e2
0x40aa98:	pop	r13
0x40aa9a:	pop	r14
0x40aa9c:	pop	r15
0x40aa9e:	ret	
F 0x40fcc3
0x40dc0d:	add	byte ptr [rax], al
0x40dc0f:	mov	word ptr [rdi], ax
0x40dc12:	mov	eax, 1
0x40dc17:	ret	
F 0x40cc57
0x40cc57:	mov	dh, 0xc0
0x40cc59:	cmovb	eax, edx
0x40cc5c:	ret	
F 0x40fb6b
0x40fb2b:	nop	dword ptr [rax + rax]
0x40fb30:	mov	eax, 0x2d
0x40fb35:	mov	word ptr [rdi], ax
0x40fb38:	mov	eax, 1
0x40fb3d:	ret	
F 0x40ce4b
0x40cc4b:	add	dword ptr [rax], eax
0x40cc4d:	add	byte ptr [rdx - 1], bh
0x40cc53:	seta	al
0x40cc56:	movzx	eax, al
0x40cc59:	cmovb	eax, edx
0x40cc5c:	ret	
F 0x40dc56
0x40dc56:	mov	byte ptr [rdi + 2], 0
0x40dc5a:	mov	eax, 2
0x40dc5f:	mov	word ptr [rdi], r10w
0x40dc63:	ret	
F 0x40d159
0x40d0b9:	add	eax, dword ptr [rax]
0x40d0bb:	add	byte ptr [rdx - 1], bh
0x40d0c1:	setg	al
0x40d0c4:	movzx	eax, al
0x40d0c7:	cmovl	eax, edx
0x40d0ca:	ret	
F 0x40b197
0x40b197:	inc	esi
0x40b199:	add	eax, 0x16fa9
0x40b19e:	add	dword ptr [rbp - 0x3d], ebx
0x40b1a1:	nop	dword ptr [rax]
0x40b1a8:	ret	
F 0x40d637
0x40d637:	pop	rcx
0x40d638:	sub	rax, r12
0x40d63b:	pop	rbx
0x40d63c:	pop	rbp
0x40d63d:	pop	r12
0x40d63f:	pop	r13
0x40d641:	pop	r14
0x40d643:	ret	
F 0x40f250
0x40a016:	ret	
F 0x410376
0x410376:	shr	al, 0x24
0x410379:	movabs	eax, dword ptr [0x834830538b48ffff]
0x410382:	ret	
F 0x40b627
0x40b627:	pop	rbx
0x40b628:	ret	
F 0x413fd0
0x413fd0:	add	dword ptr [rax], eax
0x413fd2:	add	byte ptr [rax], al
0x413fd4:	pop	rbx
0x413fd5:	pop	rbp
0x413fd6:	pop	r12
0x413fd8:	pop	r13
0x413fda:	ret	
F 0x4112c3
0x4112c3:	nop	dword ptr [rax + rax]
0x4112c8:	add	rax, 1
0x4112cc:	ret	
F 0x40ceca
0x40ceca:	cwde	
0x40cecb:	add	dword ptr [rax], eax
0x40cecd:	add	byte ptr [rdx - 1], bh
0x40ced3:	seta	al
0x40ced6:	movzx	eax, al
0x40ced9:	cmovb	eax, edx
0x40cedc:	ret	
F 0x414bc9
0x40a016:	ret	
F 0x41380c
0x40a016:	ret	
F 0x40ce4c
0x40cc4c:	add	byte ptr [rax], al
0x40cc4e:	mov	edx, 0xffffffff
0x40cc53:	seta	al
0x40cc56:	movzx	eax, al
0x40cc59:	cmovb	eax, edx
0x40cc5c:	ret	
F 0x40fbf9
0x40d4cb:	add	dword ptr [rax], eax
0x40d4cd:	add	byte ptr [rax], al
0x40d4cf:	ret	
F 0x40d4c0
0x40d4c0:	movzx	eax, byte ptr [rsi + 0x1c]
0x40d4c4:	mov	byte ptr [rdi + 1], 0
0x40d4c8:	mov	byte ptr [rdi], al
0x40d4ca:	mov	eax, 1
0x40d4cf:	ret	
F 0x40cc80
0x40cc56:	movzx	eax, al
0x40cc59:	cmovb	eax, edx
0x40cc5c:	ret	
F 0x4112e8
0x40a016:	ret	
F 0x40fd0d
0x40a016:	ret	
F 0x40d13a
0x40cccc:	add	byte ptr [rax], al
0x40ccce:	mov	edx, 0xffffffff
0x40ccd3:	setg	al
0x40ccd6:	movzx	eax, al
0x40ccd9:	cmovl	eax, edx
0x40ccdc:	ret	
F 0x40b623
0x40b623:	add	dword ptr [rax], eax
0x40b625:	add	byte ptr [rax], al
0x40b627:	pop	rbx
0x40b628:	ret	
F 0x40e064
0x40e064:	add	dh, al
0x40e066:	add	r8b, byte ptr [r8]
0x40e069:	mov	word ptr [rdi], ax
0x40e06c:	mov	eax, 2
0x40e071:	ret	
F 0x410acb
0x410acb:	add	rsp, 8
0x410acf:	pop	rbx
0x410ad0:	pop	rbp
0x410ad1:	ret	
F 0x413fc9
0x413fc9:	mov	dword ptr [rax], ebp
0x413fcb:	add	rsp, 8
0x413fcf:	mov	eax, 1
0x413fd4:	pop	rbx
0x413fd5:	pop	rbp
0x413fd6:	pop	r12
0x413fd8:	pop	r13
0x413fda:	ret	
F 0x40d39b
0x40d2fb:	add	eax, dword ptr [rax]
0x40d2fd:	add	byte ptr [rdx - 1], bh
0x40d303:	seta	al
0x40d306:	movzx	eax, al
0x40d309:	cmovb	eax, edx
0x40d30c:	ret	
F 0x415c83
0x40aa95:	pop	rbp
0x40aa96:	pop	r12
0x40aa98:	pop	r13
0x40aa9a:	pop	r14
0x40aa9c:	pop	r15
0x40aa9e:	ret	
F 0x40bab1
0x40bab1:	mov	esi, 0x3948dead
0x40bab6:	ret	
F 0x40d21a
0x40a016:	ret	
F 0x40dcc8
0x40dcc8:	add	byte ptr [rax + 2], bh
0x40dcce:	mov	word ptr [rdi], si
0x40dcd1:	ret	
F 0x40d307
0x40cc57:	mov	dh, 0xc0
0x40cc59:	cmovb	eax, edx
0x40cc5c:	ret	
F 0x40cfa3
0x40cc59:	cmovb	eax, edx
0x40cc5c:	ret	
F 0x413f96
0x412d96:	xor	eax, eax
0x412d98:	pop	rbx
0x412d99:	pop	rbp
0x412d9a:	pop	r12
0x412d9c:	pop	r13
0x412d9e:	ret	
F 0x40eeea
0x40ea80:	pop	rbx
0x40ea81:	pop	rbp
0x40ea82:	ret	
F 0x40e695
0x40bd50:	pop	rbx
0x40bd51:	pop	rbp
0x40bd52:	pop	r12
0x40bd54:	ret	
F 0x40d199
0x40d0b9:	add	eax, dword ptr [rax]
0x40d0bb:	add	byte ptr [rdx - 1], bh
0x40d0c1:	setg	al
0x40d0c4:	movzx	eax, al
0x40d0c7:	cmovl	eax, edx
0x40d0ca:	ret	
F 0x41244f
0x41244f:	add	byte ptr [rax], al
0x412451:	add	byte ptr [rax - 0x77], cl
0x412454:	ret	
F 0x414092
0x40aa99:	pop	rbp
0x40aa9a:	pop	r14
0x40aa9c:	pop	r15
0x40aa9e:	ret	
F 0x41558e
0x41558e:	add	byte ptr [rax], al
0x415590:	mov	dword ptr [rip + 0x2de6e], 1
0x41559a:	ret	
F 0x40d23e
0x40d23e:	add	byte ptr [rax], al
0x40d240:	movsx	eax, byte ptr [rdi + 0x1c]
0x40d244:	movsx	edx, byte ptr [rsi + 0x1c]
0x40d248:	sub	eax, edx
0x40d24a:	ret	
F 0x4145bd
0x40b126:	add	byte ptr [rax], al
0x40b128:	ret	
F 0x40d01b
0x40cfdb:	add	byte ptr [rax], al
0x40cfdd:	add	byte ptr [rdx - 1], bh
0x40cfe3:	seta	al
0x40cfe6:	movzx	eax, al
0x40cfe9:	cmovb	eax, edx
0x40cfec:	ret	
F 0x413979
0x413979:	ret	0x51e8
F 0x40cdab
0x40cd2b:	add	dword ptr [rax], eax
0x40cd2d:	add	byte ptr [rdx - 1], bh
0x40cd33:	setg	al
0x40cd36:	movzx	eax, al
0x40cd39:	cmovl	eax, edx
0x40cd3c:	ret	
F 0x414531
0x414531:	add	byte ptr [rax], al
0x414533:	add	byte ptr [rbp + 0x37], dh
0x414536:	add	rsp, 0x20
0x41453a:	mov	eax, r8d
0x41453d:	pop	rbx
0x41453e:	pop	rbp
0x41453f:	pop	r12
0x414541:	ret	
F 0x40d165
0x40ccd7:	mov	dh, 0xc0
0x40ccd9:	cmovl	eax, edx
0x40ccdc:	ret	
F 0x40d16a
0x40a016:	ret	
F 0x40dd35
0x40d4fc:	add	byte ptr [rax], al
0x40d4fe:	add	rsp, 8
0x40d502:	ret	
F 0x40e6c6
0x40e6c6:	add	byte ptr [rax], al
0x40e6c8:	mov	edx, 0x2d
0x40e6cd:	mov	eax, 1
0x40e6d2:	mov	word ptr [rdi], dx
0x40e6d5:	pop	rbx
0x40e6d6:	pop	rbp
0x40e6d7:	pop	r12
0x40e6d9:	ret	
F 0x41377b
0x40a016:	ret	
F 0x40f381
0x40b19f:	pop	rbp
0x40b1a0:	ret	
F 0x40d33e
0x40cc4e:	mov	edx, 0xffffffff
0x40cc53:	seta	al
0x40cc56:	movzx	eax, al
0x40cc59:	cmovb	eax, edx
0x40cc5c:	ret	
F 0x410bdc
0x410bdc:	add	byte ptr [rax], al
0x410bde:	add	byte ptr [rax], al
0x410be0:	mov	dword ptr [rip + 0x11432], 0x100
0x410bea:	xor	eax, eax
0x410bec:	ret	
F 0x40cf97
0x40cf97:	and	byte ptr [rdx - 1], bh
0x40cf9d:	seta	al
0x40cfa0:	movzx	eax, al
0x40cfa3:	cmovb	eax, edx
0x40cfa6:	ret	
F 0x41038d
0x40a016:	ret	
F 0x40d0e5
0x40ccd7:	mov	dh, 0xc0
0x40ccd9:	cmovl	eax, edx
0x40ccdc:	ret	
F 0x40de68
0x40a016:	ret	
F 0x41354f
0x41354f:	add	byte ptr [rax - 0x77], cl
0x413552:	ret	0x78e8
F 0x411262
0x411262:	xor	eax, eax
0x411264:	mov	qword ptr [rip + 0x10de5], rbp
0x41126b:	mov	qword ptr [rbp], rax
0x41126f:	jmp	0x41123c
F 0x40d2df
0x40d2df:	add	byte ptr [rcx], dh
0x40d2e1:	leave	
0x40d2e2:	xor	eax, eax
0x40d2e4:	cmp	rdi, rcx
0x40d2e7:	seta	al
0x40d2ea:	ret	
F 0x40ec37
0x40eb17:	add	byte ptr [rax], al
0x40eb19:	add	byte ptr [rbp + 5], dh
0x40eb1c:	add	rsp, 0x18
0x40eb20:	ret	
F 0x40dcfd
0x40a016:	ret	
F 0x40f245
0x40f245:	add	byte ptr [rax], al
0x40f247:	add	byte ptr [rbp + 0x1d], dh
0x40f24a:	add	rsp, 0x48
0x40f24e:	pop	rbx
0x40f24f:	pop	rbp
0x40f250:	ret	
F 0x40cf93
0x40cf93:	and	byte ptr [rax + 0x39], cl
0x40cf96:	and	byte ptr [r10 - 1], r15b
0x40cf9d:	seta	al
0x40cfa0:	movzx	eax, al
0x40cfa3:	cmovb	eax, edx
0x40cfa6:	ret	
F 0x410b4f
0x410acb:	add	rsp, 8
0x410acf:	pop	rbx
0x410ad0:	pop	rbp
0x410ad1:	ret	
F 0x41558a
0x41558a:	test	byte ptr [rax], al
0x41558c:	add	byte ptr [rax], al
0x41558e:	add	byte ptr [rax], al
0x415590:	mov	dword ptr [rip + 0x2de6e], 1
0x41559a:	ret	
F 0x414235
0x40a016:	ret	
F 0x40d4cf
0x40a016:	ret	
F 0x41099c
0x40a016:	ret	
F 0x40d2e1
0x40d2e1:	leave	
0x40d2e2:	xor	eax, eax
0x40d2e4:	cmp	rdi, rcx
0x40d2e7:	seta	al
0x40d2ea:	ret	
F 0x413778
0x40b220:	dec	dword ptr [rax - 0x77]
0x40b223:	ret	
F 0x412eec
0x412eec:	add	byte ptr [rax], al
0x412eee:	add	byte ptr [rax], al
0x412ef0:	mov	qword ptr [rip + 0x30495], 0x303
0x412efb:	xor	eax, eax
0x412efd:	ret	
F 0x40fa60
0x40dc0a:	mov	eax, 0x2d
0x40dc0f:	mov	word ptr [rdi], ax
0x40dc12:	mov	eax, 1
0x40dc17:	ret	
F 0x4154ca
0x4154ca:	ret	0xe8
F 0x413800
0x413800:	mov	eax, ebp
0x413802:	pop	rbx
0x413803:	pop	rbp
0x413804:	pop	r12
0x413806:	pop	r13
0x413808:	pop	r14
0x41380a:	pop	r15
0x41380c:	ret	
F 0x41541d
0x41541d:	ret	0xade8
F 0x40fb39
0x40d4cb:	add	dword ptr [rax], eax
0x40d4cd:	add	byte ptr [rax], al
0x40d4cf:	ret	
F 0x40cd37
0x40ccd7:	mov	dh, 0xc0
0x40ccd9:	cmovl	eax, edx
0x40ccdc:	ret	
F 0x4137fe
0x4137fe:	sub	byte ptr [rcx + rcx*4 - 0x18], cl
0x413802:	pop	rbx
0x413803:	pop	rbp
0x413804:	pop	r12
0x413806:	pop	r13
0x413808:	pop	r14
0x41380a:	pop	r15
0x41380c:	ret	
F 0x40dc3b
0x40dc3b:	add	byte ptr [rax], al
0x40dc3d:	mov	byte ptr [rdi + 2], 0
0x40dc41:	mov	eax, 2
0x40dc46:	mov	word ptr [rdi], dx
0x40dc49:	ret	
F 0x411037
0x40ea7c:	add	rsp, 0x18
0x40ea80:	pop	rbx
0x40ea81:	pop	rbp
0x40ea82:	ret	
F 0x40effe
0x40effe:	add	byte ptr [rax], al
0x40f000:	add	byte ptr [rbp + 0x2b], dh
0x40f003:	add	rsp, 0x40
0x40f007:	pop	rbx
0x40f008:	pop	rbp
0x40f009:	pop	r12
0x40f00b:	ret	
F 0x40fb76
0x40dc10:	mov	dword ptr [rdi], eax
0x40dc12:	mov	eax, 1
0x40dc17:	ret	
F 0x4145b5
0x4145b5:	mov	dword ptr [rip + 0x2ee31], 0
0x4145bf:	ret	
F 0x40d476
0x40d476:	mov	byte ptr [rax], 0x2b
0x40d479:	movsxd	rax, r8d
0x40d47c:	add	rax, rdi
0x40d47f:	mov	byte ptr [rax], 0
0x40d482:	mov	eax, r8d
0x40d485:	ret	
F 0x40d3bb
0x40d3bb:	add	dword ptr [rax], eax
0x40d3bd:	add	byte ptr [rax - 0x77], cl
0x40d3c0:	ret	0x8b48
F 0x40ed05
0x40ed05:	pop	r12
0x40ed07:	pop	r13
0x40ed09:	ret	
F 0x412eea
0x412eea:	test	byte ptr [rax], al
0x412eec:	add	byte ptr [rax], al
0x412eee:	add	byte ptr [rax], al
0x412ef0:	mov	qword ptr [rip + 0x30495], 0x303
0x412efb:	xor	eax, eax
0x412efd:	ret	
F 0x40f59c
0x40ecff:	add	rsp, 0x18
0x40ed03:	pop	rbx
0x40ed04:	pop	rbp
0x40ed05:	pop	r12
0x40ed07:	pop	r13
0x40ed09:	ret	
F 0x413804
0x40aa96:	pop	r12
0x40aa98:	pop	r13
0x40aa9a:	pop	r14
0x40aa9c:	pop	r15
0x40aa9e:	ret	
F 0x41369a
0x40ea80:	pop	rbx
0x40ea81:	pop	rbp
0x40ea82:	ret	
F 0x40e54f
0x40e50f:	add	byte ptr [rax - 0x77], cl
0x40e512:	ret	0xf48
F 0x40f0d3
0x40f0d3:	sub	r8d, r9d
0x40f0d6:	mov	eax, r8d
0x40f0d9:	ret	
F 0x40d11a
0x40cccc:	add	byte ptr [rax], al
0x40ccce:	mov	edx, 0xffffffff
0x40ccd3:	setg	al
0x40ccd6:	movzx	eax, al
0x40ccd9:	cmovl	eax, edx
0x40ccdc:	ret	
F 0x40e9aa
0x40a016:	ret	
F 0x40d043
0x40cc53:	seta	al
0x40cc56:	movzx	eax, al
0x40cc59:	cmovb	eax, edx
0x40cc5c:	ret	
F 0x4145b1
0x4145b1:	add	byte ptr [rax], al
0x4145b3:	add	byte ptr [rax], al
0x4145b5:	mov	dword ptr [rip + 0x2ee31], 0
0x4145bf:	ret	
F 0x410bdb
0x410bdb:	add	byte ptr [rax], 0
0x410bde:	add	byte ptr [rax], al
0x410be0:	mov	dword ptr [rip + 0x11432], 0x100
0x410bea:	xor	eax, eax
0x410bec:	ret	
F 0x40dcd9
0x40dcd9:	mov	ebx, 0x5354
0x40dcde:	mov	byte ptr [rdi + 2], 0
0x40dce2:	mov	eax, 2
0x40dce7:	mov	word ptr [rdi], r11w
0x40dceb:	ret	
F 0x40fa68
0x40d4ca:	mov	eax, 1
0x40d4cf:	ret	
F 0x410bb7
0x410bb7:	add	eax, 0x11460
0x410bbc:	xor	eax, eax
0x410bbe:	ret	
F 0x40dc6f
0x40dc6f:	add	r8b, byte ptr [r8]
0x40dc72:	mov	eax, 2
0x40dc77:	mov	word ptr [rdi], r9w
0x40dc7b:	ret	
F 0x40dcf0
0x40dcf0:	mov	eax, 0x3f
0x40dcf5:	mov	word ptr [rdi], ax
0x40dcf8:	mov	eax, 1
0x40dcfd:	ret	
F 0x40e50f
0x40e50f:	add	byte ptr [rax - 0x77], cl
0x40e512:	ret	0xf48
F 0x40b11f
0x40b11f:	jmp	rax
F 0x40fd05
0x40dc0f:	mov	word ptr [rdi], ax
0x40dc12:	mov	eax, 1
0x40dc17:	ret	
F 0x412efc
0x412efc:	rol	bl, 0x66
0x412eff:	nop	
0x412f00:	mov	qword ptr [rip + 0x30485], 0xaa00
0x412f0b:	jmp	0x412ee3
F 0x40d63d
0x40b5a6:	pop	r12
0x40b5a8:	pop	r13
0x40b5aa:	pop	r14
0x40b5ac:	ret	
F 0x40a012
0x40a012:	add	rsp, 8
0x40a016:	ret	
F 0x40e552
0x40e512:	ret	0xf48
F 0x411de5
0x40aa96:	pop	r12
0x40aa98:	pop	r13
0x40aa9a:	pop	r14
0x40aa9c:	pop	r15
0x40aa9e:	ret	
F 0x40cd09
0x40cd09:	xchg	eax, edi
0x40cd0b:	add	byte ptr [rax], al
0x40cd0d:	add	byte ptr [rdx - 1], bh
0x40cd13:	setg	al
0x40cd16:	movzx	eax, al
0x40cd19:	cmovl	eax, edx
0x40cd1c:	ret	
F 0x40d0c7
0x40ccd9:	cmovl	eax, edx
0x40ccdc:	ret	
F 0x40cf2c
0x40a016:	ret	
F 0x413d8f
0x40a016:	ret	
F 0x4130bc
0x4130bc:	sbb	byte ptr [rcx + rcx*4 - 8], al
0x4130c0:	pop	rbx
0x4130c1:	pop	rbp
0x4130c2:	pop	r12
0x4130c4:	pop	r13
0x4130c6:	pop	r14
0x4130c8:	pop	r15
0x4130ca:	ret	
F 0x40cc90
0x40cc90:	mov	rax, qword ptr [rdi + 0xd8]
0x40cc97:	sub	eax, dword ptr [rsi + 0xd8]
0x40cc9d:	ret	
F 0x40d158
0x40d158:	add	byte ptr [rbx], 0
0x40d15b:	add	byte ptr [rdx - 1], bh
0x40d161:	setg	al
0x40d164:	movzx	eax, al
0x40d167:	cmovl	eax, edx
0x40d16a:	ret	
F 0x40fe7c
0x40ea7c:	add	rsp, 0x18
0x40ea80:	pop	rbx
0x40ea81:	pop	rbp
0x40ea82:	ret	
F 0x40b472
0x40b472:	mov	byte ptr [rax + rbx], 0
0x40b476:	add	rsp, 0x28
0x40b47a:	pop	rbx
0x40b47b:	pop	rbp
0x40b47c:	pop	r12
0x40b47e:	pop	r13
0x40b480:	pop	r14
0x40b482:	pop	r15
0x40b484:	ret	
F 0x4130be
0x4130be:	mov	eax, edi
0x4130c0:	pop	rbx
0x4130c1:	pop	rbp
0x4130c2:	pop	r12
0x4130c4:	pop	r13
0x4130c6:	pop	r14
0x4130c8:	pop	r15
0x4130ca:	ret	
F 0x41408b
0x410459:	mov	eax, esp
0x41045b:	pop	rbx
0x41045c:	pop	rbp
0x41045d:	pop	r12
0x41045f:	pop	r13
0x410461:	pop	r14
0x410463:	pop	r15
0x410465:	ret	
F 0x40f95a
0x40dd72:	add	byte ptr [rax], al
0x40dd74:	add	rsp, 0x18
0x40dd78:	ret	
F 0x410d01
0x410d01:	add	byte ptr [rbx + 0x5d], bl
0x410d04:	pop	r12
0x410d06:	pop	r13
0x410d08:	ret	
F 0x40dc3f
0x40dc3f:	add	al, byte ptr [rax]
0x40dc41:	mov	eax, 2
0x40dc46:	mov	word ptr [rdi], dx
0x40dc49:	ret	
F 0x40f864
0x40f864:	nop	dword ptr [rax]
0x40f868:	mov	eax, 0x2d
0x40f86d:	mov	word ptr [rdi], ax
0x40f870:	mov	eax, 1
0x40f875:	ret	
F 0x40e151
0x40a016:	ret	
F 0x415ae0
0x40bd50:	pop	rbx
0x40bd51:	pop	rbp
0x40bd52:	pop	r12
0x40bd54:	ret	
F 0x40cf89
0x40cc59:	cmovb	eax, edx
0x40cc5c:	ret	
F 0x40cc91
0x40cc91:	mov	eax, dword ptr [rdi + 0xd8]
0x40cc97:	sub	eax, dword ptr [rsi + 0xd8]
0x40cc9d:	ret	
F 0x40e06f
0x40b126:	add	byte ptr [rax], al
0x40b128:	ret	
F 0x40dc5a
0x40dc5a:	mov	eax, 2
0x40dc5f:	mov	word ptr [rdi], r10w
0x40dc63:	ret	
F 0x40b622
0x40b622:	mov	eax, 1
0x40b627:	pop	rbx
0x40b628:	ret	
F 0x40d1ea
0x40b126:	add	byte ptr [rax], al
0x40b128:	ret	
F 0x40e6cd
0x40e6cd:	mov	eax, 1
0x40e6d2:	mov	word ptr [rdi], dx
0x40e6d5:	pop	rbx
0x40e6d6:	pop	rbp
0x40e6d7:	pop	r12
0x40e6d9:	ret	
F 0x40d046
0x40cc56:	movzx	eax, al
0x40cc59:	cmovb	eax, edx
0x40cc5c:	ret	
F 0x40d105
0x40ccd7:	mov	dh, 0xc0
0x40ccd9:	cmovl	eax, edx
0x40ccdc:	ret	
F 0x410bbe
0x40a016:	ret	
F 0x40d33c
0x40cc4c:	add	byte ptr [rax], al
0x40cc4e:	mov	edx, 0xffffffff
0x40cc53:	seta	al
0x40cc56:	movzx	eax, al
0x40cc59:	cmovb	eax, edx
0x40cc5c:	ret	
F 0x40ceae
0x40cc4e:	mov	edx, 0xffffffff
0x40cc53:	seta	al
0x40cc56:	movzx	eax, al
0x40cc59:	cmovb	eax, edx
0x40cc5c:	ret	
F 0x40cc4e
0x40cc4e:	mov	edx, 0xffffffff
0x40cc53:	seta	al
0x40cc56:	movzx	eax, al
0x40cc59:	cmovb	eax, edx
0x40cc5c:	ret	
F 0x40bd9c
0x40a016:	ret	
F 0x40d482
0x40d482:	mov	eax, r8d
0x40d485:	ret	
F 0x4143f4
0x4143f4:	add	cl, byte ptr [rax - 0x77]
0x4143f7:	adc	byte ptr [r8 - 0x7d], r9b
0x4143fb:	ret	
F 0x41003c
0x40ea7c:	add	rsp, 0x18
0x40ea80:	pop	rbx
0x40ea81:	pop	rbp
0x40ea82:	ret	
F 0x4104eb
0x40aa9c:	pop	r15
0x40aa9e:	ret	
F 0x40d11c
0x40ccce:	mov	edx, 0xffffffff
0x40ccd3:	setg	al
0x40ccd6:	movzx	eax, al
0x40ccd9:	cmovl	eax, edx
0x40ccdc:	ret	
F 0x40ccfc
0x40a016:	ret	
F 0x40fb75
0x40dc0f:	mov	word ptr [rdi], ax
0x40dc12:	mov	eax, 1
0x40dc17:	ret	
F 0x40ceec
0x40cc4c:	add	byte ptr [rax], al
0x40cc4e:	mov	edx, 0xffffffff
0x40cc53:	seta	al
0x40cc56:	movzx	eax, al
0x40cc59:	cmovb	eax, edx
0x40cc5c:	ret	
F 0x40d1b4
0x40d1b4:	add	byte ptr [rax], al
0x40d1b6:	sub	eax, dword ptr [rsi + 0x364]
0x40d1bc:	ret	
F 0x40cc65
0x40cc65:	add	byte ptr [rax], al
0x40cc67:	sub	eax, dword ptr [rsi + 0x190]
0x40cc6d:	ret	
F 0x40ccd9
0x40ccd9:	cmovl	eax, edx
0x40ccdc:	ret	
F 0x40dcd1
0x40a016:	ret	
F 0x40de5b
0x40de5b:	add	byte ptr [rax + 0x31], dl
0x40de5e:	shr	al, 0xfc
0x40de61:	sar	edi, 0xff
0x40de64:	add	rsp, 0x18
0x40de68:	ret	
F 0x40dcc3
0x40dcc3:	add	byte ptr [rax], al
0x40dcc5:	mov	byte ptr [rdi + 2], 0
0x40dcc9:	mov	eax, 2
0x40dcce:	mov	word ptr [rdi], si
0x40dcd1:	ret	
F 0x40f868
0x40dc0a:	mov	eax, 0x2d
0x40dc0f:	mov	word ptr [rdi], ax
0x40dc12:	mov	eax, 1
0x40dc17:	ret	
F 0x40b199
0x40b199:	add	eax, 0x16fa9
0x40b19e:	add	dword ptr [rbp - 0x3d], ebx
0x40b1a1:	nop	dword ptr [rax]
0x40b1a8:	ret	
F 0x40f5a0
0x40ed03:	pop	rbx
0x40ed04:	pop	rbp
0x40ed05:	pop	r12
0x40ed07:	pop	r13
0x40ed09:	ret	
F 0x40f866
0x40f866:	add	byte ptr [rax + 0x2d], dil
0x40f86d:	mov	word ptr [rdi], ax
0x40f870:	mov	eax, 1
0x40f875:	ret	
F 0x40de59
0x40de59:	add	byte ptr [rax], al
0x40de5b:	add	byte ptr [rax + 0x31], dl
0x40de5e:	shr	al, 0xfc
0x40de61:	sar	edi, 0xff
0x40de64:	add	rsp, 0x18
0x40de68:	ret	
F 0x40d1b0
0x40d1b0:	mov	eax, dword ptr [rdi + 0x364]
0x40d1b6:	sub	eax, dword ptr [rsi + 0x364]
0x40d1bc:	ret	
F 0x40d4bf
0x40d4bf:	nop	
0x40d4c0:	movzx	eax, byte ptr [rsi + 0x1c]
0x40d4c4:	mov	byte ptr [rdi + 1], 0
0x40d4c8:	mov	byte ptr [rdi], al
0x40d4ca:	mov	eax, 1
0x40d4cf:	ret	
F 0x40fb2f
0x40dc09:	add	byte ptr [rax + 0x2d], bh
0x40dc0f:	mov	word ptr [rdi], ax
0x40dc12:	mov	eax, 1
0x40dc17:	ret	
F 0x40dcb2
0x40dcb2:	add	byte ptr [rax + 3], r15b
0x40dcbb:	ret	
F 0x40d1c2
0x40d1c2:	sub	eax, dword ptr [rsi]
0x40d1c4:	ret	
F 0x410461
0x40aa9a:	pop	r14
0x40aa9c:	pop	r15
0x40aa9e:	ret	
F 0x4112b0
0x4112b0:	mov	dword ptr [rip + 0x320c2], edx
0x4112b6:	ret	
F 0x40cdd7
0x40ccd7:	mov	dh, 0xc0
0x40ccd9:	cmovl	eax, edx
0x40ccdc:	ret	
F 0x413d8d
0x40aa9c:	pop	r15
0x40aa9e:	ret	
F 0x40f247
0x40f247:	add	byte ptr [rbp + 0x1d], dh
0x40f24a:	add	rsp, 0x48
0x40f24e:	pop	rbx
0x40f24f:	pop	rbp
0x40f250:	ret	
F 0x413fd4
0x40ed03:	pop	rbx
0x40ed04:	pop	rbp
0x40ed05:	pop	r12
0x40ed07:	pop	r13
0x40ed09:	ret	
F 0x40dc0a
0x40dc0a:	mov	eax, 0x2d
0x40dc0f:	mov	word ptr [rdi], ax
0x40dc12:	mov	eax, 1
0x40dc17:	ret	
F 0x40dc57
0x40dc57:	add	r8b, byte ptr [r8]
0x40dc5a:	mov	eax, 2
0x40dc5f:	mov	word ptr [rdi], r10w
0x40dc63:	ret	
F 0x40d1b9
0x40d1b9:	add	eax, dword ptr [rax]
0x40d1bb:	add	bl, al
0x40d1bd:	nop	dword ptr [rax]
0x40d1c0:	mov	eax, dword ptr [rdi]
0x40d1c2:	sub	eax, dword ptr [rsi]
0x40d1c4:	ret	
F 0x4103e3
0x4103b3:	add	byte ptr [rax], 0
0x4103b6:	add	byte ptr [rax], al
0x4103b8:	xor	eax, eax
0x4103ba:	ret	
F 0x410457
0x410457:	or	byte ptr [rcx + rcx*4 - 0x20], cl
0x41045b:	pop	rbx
0x41045c:	pop	rbp
0x41045d:	pop	r12
0x41045f:	pop	r13
0x410461:	pop	r14
0x410463:	pop	r15
0x410465:	ret	
F 0x4108de
0x40aa94:	pop	rbx
0x40aa95:	pop	rbp
0x40aa96:	pop	r12
0x40aa98:	pop	r13
0x40aa9a:	pop	r14
0x40aa9c:	pop	r15
0x40aa9e:	ret	
F 0x40e7ff
0x40e7ff:	pop	rbp
0x40e800:	mov	eax, 0x595affff
0x40e805:	pop	rbx
0x40e806:	pop	rbp
0x40e807:	pop	r12
0x40e809:	ret	
F 0x40d0da
0x40cccc:	add	byte ptr [rax], al
0x40ccce:	mov	edx, 0xffffffff
0x40ccd3:	setg	al
0x40ccd6:	movzx	eax, al
0x40ccd9:	cmovl	eax, edx
0x40ccdc:	ret	
F 0x40b47a
0x40aa94:	pop	rbx
0x40aa95:	pop	rbp
0x40aa96:	pop	r12
0x40aa98:	pop	r13
0x40aa9a:	pop	r14
0x40aa9c:	pop	r15
0x40aa9e:	ret	
F 0x40d0bc
0x40ccce:	mov	edx, 0xffffffff
0x40ccd3:	setg	al
0x40ccd6:	movzx	eax, al
0x40ccd9:	cmovl	eax, edx
0x40ccdc:	ret	
F 0x40dc6b
0x40dc6b:	push	rdx
0x40dc6c:	add	byte ptr [rax], al
0x40dc6e:	mov	byte ptr [rdi + 2], 0
0x40dc72:	mov	eax, 2
0x40dc77:	mov	word ptr [rdi], r9w
0x40dc7b:	ret	
F 0x40ec3b
0x40eb1b:	add	eax, 0x18c48348
0x40eb20:	ret	
F 0x40ce33
0x40cc53:	seta	al
0x40cc56:	movzx	eax, al
0x40cc59:	cmovb	eax, edx
0x40cc5c:	ret	
F 0x411325
0x411325:	or	byte ptr [rax - 0x448bffc8], al
0x41132b:	mov	dword ptr [rip + 0x32047], edx
0x411331:	ret	
F 0x41460c
0x40bd52:	pop	r12
0x40bd54:	ret	
F 0x40e065
0x40e065:	mov	byte ptr [rdi + 2], 0
0x40e069:	mov	word ptr [rdi], ax
0x40e06c:	mov	eax, 2
0x40e071:	ret	
F 0x4143fb
0x40a016:	ret	
F 0x40ce2c
0x40cc4c:	add	byte ptr [rax], al
0x40cc4e:	mov	edx, 0xffffffff
0x40cc53:	seta	al
0x40cc56:	movzx	eax, al
0x40cc59:	cmovb	eax, edx
0x40cc5c:	ret	
F 0x40d02c
0x40a016:	ret	
F 0x40d20a
0x40cccc:	add	byte ptr [rax], al
0x40ccce:	mov	edx, 0xffffffff
0x40ccd3:	setg	al
0x40ccd6:	movzx	eax, al
0x40ccd9:	cmovl	eax, edx
0x40ccdc:	ret	
F 0x40edbc
0x40edbc:	sbb	byte ptr [rax + 8], bh
0x40edc2:	pop	rbx
0x40edc3:	pop	rbp
0x40edc4:	ret	
F 0x40f484
0x40f484:	inc	dword ptr [rcx]
0x40f486:	add	byte ptr [rax - 0x77], cl
0x40f489:	ret	
F 0x40fbb9
0x40d4cb:	add	dword ptr [rax], eax
0x40d4cd:	add	byte ptr [rax], al
0x40d4cf:	ret	
F 0x415596
0x40d4cb:	add	dword ptr [rax], eax
0x40d4cd:	add	byte ptr [rax], al
0x40d4cf:	ret	
F 0x410ed9
0x410ed9:	add	byte ptr [rbp + 0x39], dh
0x410edc:	add	rsp, 0x10
0x410ee0:	pop	rbx
0x410ee1:	ret	
F 0x40cc59
0x40cc59:	cmovb	eax, edx
0x40cc5c:	ret	
F 0x40d2fe
0x40cc4e:	mov	edx, 0xffffffff
0x40cc53:	seta	al
0x40cc56:	movzx	eax, al
0x40cc59:	cmovb	eax, edx
0x40cc5c:	ret	
F 0x40fcfe
0x40f866:	add	byte ptr [rax + 0x2d], dil
0x40f86d:	mov	word ptr [rdi], ax
0x40f870:	mov	eax, 1
0x40f875:	ret	
F 0x413937
0x40d3bd:	add	byte ptr [rax - 0x77], cl
0x40d3c0:	ret	0x8b48
F 0x40dc61
0x40dc47:	mov	dword ptr [rdi], edx
0x40dc49:	ret	
F 0x40fcc5
0x40dc0f:	mov	word ptr [rdi], ax
0x40dc12:	mov	eax, 1
0x40dc17:	ret	
F 0x40cdaa
0x40cdaa:	and	byte ptr [rcx], al
0x40cdac:	add	byte ptr [rax], al
0x40cdae:	mov	edx, 0xffffffff
0x40cdb3:	setg	al
0x40cdb6:	movzx	eax, al
0x40cdb9:	cmovl	eax, edx
0x40cdbc:	ret	
F 0x40e6d3
0x40e6d3:	mov	dword ptr [rdi], edx
0x40e6d5:	pop	rbx
0x40e6d6:	pop	rbp
0x40e6d7:	pop	r12
0x40e6d9:	ret	
F 0x40fc6e
0x40dc08:	add	byte ptr [rax], al
0x40dc0a:	mov	eax, 0x2d
0x40dc0f:	mov	word ptr [rdi], ax
0x40dc12:	mov	eax, 1
0x40dc17:	ret	
F 0x41125f
0x41125f:	add	dword ptr [rax], eax
0x411261:	xor	r8d, r8d
0x411264:	mov	qword ptr [rip + 0x10de5], rbp
0x41126b:	mov	qword ptr [rbp], rax
0x41126f:	jmp	0x41123c
F 0x413fcf
0x413fcf:	mov	eax, 1
0x413fd4:	pop	rbx
0x413fd5:	pop	rbp
0x413fd6:	pop	r12
0x413fd8:	pop	r13
0x413fda:	ret	
F 0x410122
0x40a016:	ret	
F 0x40cf27
0x40cc57:	mov	dh, 0xc0
0x40cc59:	cmovb	eax, edx
0x40cc5c:	ret	
F 0x40d0c4
0x40ccd6:	movzx	eax, al
0x40ccd9:	cmovl	eax, edx
0x40ccdc:	ret	
F 0x40a016
0x40a016:	ret	
F 0x40d63f
0x40b5a8:	pop	r13
0x40b5aa:	pop	r14
0x40b5ac:	ret	
F 0x40aa96
0x40aa96:	pop	r12
0x40aa98:	pop	r13
0x40aa9a:	pop	r14
0x40aa9c:	pop	r15
0x40aa9e:	ret	
F 0x40cf1c
0x40cc4c:	add	byte ptr [rax], al
0x40cc4e:	mov	edx, 0xffffffff
0x40cc53:	seta	al
0x40cc56:	movzx	eax, al
0x40cc59:	cmovb	eax, edx
0x40cc5c:	ret	
F 0x40d1ab
0x40d1ab:	nop	dword ptr [rax + rax]
0x40d1b0:	mov	eax, dword ptr [rdi + 0x364]
0x40d1b6:	sub	eax, dword ptr [rsi + 0x364]
0x40d1bc:	ret	
F 0x40cfdc
0x40cc4c:	add	byte ptr [rax], al
0x40cc4e:	mov	edx, 0xffffffff
0x40cc53:	seta	al
0x40cc56:	movzx	eax, al
0x40cc59:	cmovb	eax, edx
0x40cc5c:	ret	
F 0x40b5aa
0x40b5aa:	pop	r14
0x40b5ac:	ret	
F 0x40fd09
0x40d4cb:	add	dword ptr [rax], eax
0x40d4cd:	add	byte ptr [rax], al
0x40d4cf:	ret	
F 0x40d642
0x40b5ab:	pop	rsi
0x40b5ac:	ret	
F 0x4137f9
0x4137f9:	add	byte ptr [rax], al
0x4137fb:	add	rsp, 0x28
0x4137ff:	mov	rax, r13
0x413802:	pop	rbx
0x413803:	pop	rbp
0x413804:	pop	r12
0x413806:	pop	r13
0x413808:	pop	r14
0x41380a:	pop	r15
0x41380c:	ret	
F 0x410b44
0x410b44:	mov	eax, 1
0x410b49:	mov	dword ptr [rip + 0x32811], eax
0x410b4f:	add	rsp, 8
0x410b53:	pop	rbx
0x410b54:	pop	rbp
0x410b55:	ret	
F 0x40cfb4
0x40cfb4:	cmp	qword ptr [rdi + 0x28], rax
0x40cfb8:	mov	edx, 0xffffffff
0x40cfbd:	seta	al
0x40cfc0:	movzx	eax, al
0x40cfc3:	cmovb	eax, edx
0x40cfc6:	ret	
F 0x40b4a9
0x40b4a9:	ret	0x21e8
F 0x40ddaf
0x40dd6f:	mov	eax, 0x10
0x40dd74:	add	rsp, 0x18
0x40dd78:	ret	
F 0x40ed04
0x40ed04:	pop	rbp
0x40ed05:	pop	r12
0x40ed07:	pop	r13
0x40ed09:	ret	
F 0x40eb1c
0x40d7ba:	add	rsp, 0x18
0x40d7be:	ret	
F 0x40e5e7
0x40b19f:	pop	rbp
0x40b1a0:	ret	
F 0x40d13c
0x40ccce:	mov	edx, 0xffffffff
0x40ccd3:	setg	al
0x40ccd6:	movzx	eax, al
0x40ccd9:	cmovl	eax, edx
0x40ccdc:	ret	
F 0x40f24f
0x40b19f:	pop	rbp
0x40b1a0:	ret	
F 0x40f37e
0x40ed05:	pop	r12
0x40ed07:	pop	r13
0x40ed09:	ret	
F 0x40b5a9
0x40b5a9:	pop	rbp
0x40b5aa:	pop	r14
0x40b5ac:	ret	
F 0x40cdb7
0x40ccd7:	mov	dh, 0xc0
0x40ccd9:	cmovl	eax, edx
0x40ccdc:	ret	
F 0x40b1a8
0x40a016:	ret	
F 0x40ea80
0x40ea80:	pop	rbx
0x40ea81:	pop	rbp
0x40ea82:	ret	
F 0x40b8e0
0x40aa9a:	pop	r14
0x40aa9c:	pop	r15
0x40aa9e:	ret	
F 0x40d502
0x40a016:	ret	
F 0x40fbb8
0x40d4ca:	mov	eax, 1
0x40d4cf:	ret	
F 0x40dc9a
0x40dc9a:	add	bl, al
0x40dc9c:	nop	dword ptr [rax]
0x40dca0:	mov	dword ptr [rdi], 0x4c4449
0x40dca6:	mov	eax, 3
0x40dcab:	ret	
F 0x40ccd6
0x40ccd6:	movzx	eax, al
0x40ccd9:	cmovl	eax, edx
0x40ccdc:	ret	
F 0x40f0d1
0x40f0d1:	mov	eax, edx
0x40f0d3:	sub	r8d, r9d
0x40f0d6:	mov	eax, r8d
0x40f0d9:	ret	
F 0x40dca6
0x40dc96:	mov	eax, 3
0x40dc9b:	ret	
F 0x410bec
0x40a016:	ret	
F 0x40dcf5
0x40dc0f:	mov	word ptr [rdi], ax
0x40dc12:	mov	eax, 1
0x40dc17:	ret	
F 0x40aef1
0x40acf6:	add	byte ptr [rax - 0x77], cl
0x40acf9:	ret	
F 0x40dc15
0x40b126:	add	byte ptr [rax], al
0x40b128:	ret	
F 0x40cded
0x40cc4d:	add	byte ptr [rdx - 1], bh
0x40cc53:	seta	al
0x40cc56:	movzx	eax, al
0x40cc59:	cmovb	eax, edx
0x40cc5c:	ret	
F 0x40d478
0x40d478:	sub	ecx, dword ptr [rcx + 0x63]
0x40d47b:	ror	byte ptr [rax + 1], 0xf8
0x40d47f:	mov	byte ptr [rax], 0
0x40d482:	mov	eax, r8d
0x40d485:	ret	
F 0x415c88
0x40aa9a:	pop	r14
0x40aa9c:	pop	r15
0x40aa9e:	ret	
F 0x40aa9d
0x40aa9d:	pop	rdi
0x40aa9e:	ret	
F 0x40fb6d
0x40fb2d:	add	byte ptr [rax], r8b
0x40fb30:	mov	eax, 0x2d
0x40fb35:	mov	word ptr [rdi], ax
0x40fb38:	mov	eax, 1
0x40fb3d:	ret	
F 0x40dcc9
0x40dcc9:	mov	eax, 2
0x40dcce:	mov	word ptr [rdi], si
0x40dcd1:	ret	
F 0x40dd72
0x40dd72:	add	byte ptr [rax], al
0x40dd74:	add	rsp, 0x18
0x40dd78:	ret	
F 0x4104e7
0x40aa98:	pop	r13
0x40aa9a:	pop	r14
0x40aa9c:	pop	r15
0x40aa9e:	ret	
F 0x40ddf0
0x40dd70:	adc	byte ptr [rax], al
0x40dd72:	add	byte ptr [rax], al
0x40dd74:	add	rsp, 0x18
0x40dd78:	ret	
F 0x40d073
0x40d073:	cmp	qword ptr [rdi + 0x40], rax
0x40d078:	mov	edx, 0xffffffff
0x40d07d:	seta	al
0x40d080:	movzx	eax, al
0x40d083:	cmovb	eax, edx
0x40d086:	ret	
F 0x40d009
0x40cc59:	cmovb	eax, edx
0x40cc5c:	ret	
F 0x40d9df
0x40b5a8:	pop	r13
0x40b5aa:	pop	r14
0x40b5ac:	ret	
F 0x40f9ff
0x40d4cb:	add	dword ptr [rax], eax
0x40d4cd:	add	byte ptr [rax], al
0x40d4cf:	ret	
F 0x40fc7b
0x40b126:	add	byte ptr [rax], al
0x40b128:	ret	
F 0x415b89
0x415b89:	movzx	eax, al
0x415b8c:	neg	eax
0x415b8e:	pop	rbx
0x415b8f:	pop	rbp
0x415b90:	pop	r12
0x415b92:	ret	
F 0x414a73
0x414a73:	add	byte ptr [rbx + 0xd61215], cl
0x414a79:	add	dh, dh
0x414a7b:	ret	0xf80
F 0x40d2e7
0x40d2e7:	seta	al
0x40d2ea:	ret	
F 0x415ae4
0x40a016:	ret	
F 0x40ce93
0x40cc53:	seta	al
0x40cc56:	movzx	eax, al
0x40cc59:	cmovb	eax, edx
0x40cc5c:	ret	
F 0x40d2e2
0x40d2e2:	xor	eax, eax
0x40d2e4:	cmp	rdi, rcx
0x40d2e7:	seta	al
0x40d2ea:	ret	
F 0x40cc60
0x40cc60:	mov	rax, qword ptr [rdi + 0x190]
0x40cc67:	sub	eax, dword ptr [rsi + 0x190]
0x40cc6d:	ret	
F 0x40fb30
0x40dc0a:	mov	eax, 0x2d
0x40dc0f:	mov	word ptr [rdi], ax
0x40dc12:	mov	eax, 1
0x40dc17:	ret	
F 0x40ccbd
0x40a016:	ret	
F 0x4103e4
0x40cc2c:	add	byte ptr [rax], al
0x40cc2e:	add	byte ptr [rax], al
0x40cc30:	xor	eax, eax
0x40cc32:	ret	
F 0x40d4fc
0x40d4fc:	add	byte ptr [rax], al
0x40d4fe:	add	rsp, 8
0x40d502:	ret	
F 0x40d4c7
0x40d4c7:	add	byte ptr [rax + 0x1b807], cl
0x40d4cd:	add	byte ptr [rax], al
0x40d4cf:	ret	
F 0x411248
0x40aa99:	pop	rbp
0x40aa9a:	pop	r14
0x40aa9c:	pop	r15
0x40aa9e:	ret	
F 0x41045d
0x40aa96:	pop	r12
0x40aa98:	pop	r13
0x40aa9a:	pop	r14
0x40aa9c:	pop	r15
0x40aa9e:	ret	
F 0x40f870
0x40d4ca:	mov	eax, 1
0x40d4cf:	ret	
F 0x40d36c
0x40a016:	ret	
F 0x40cffd
0x40cc4d:	add	byte ptr [rdx - 1], bh
0x40cc53:	seta	al
0x40cc56:	movzx	eax, al
0x40cc59:	cmovb	eax, edx
0x40cc5c:	ret	
F 0x40cfb7
0x40cfb7:	sub	byte ptr [rdx - 1], bh
0x40cfbd:	seta	al
0x40cfc0:	movzx	eax, al
0x40cfc3:	cmovb	eax, edx
0x40cfc6:	ret	
F 0x40cdf7
0x40cc57:	mov	dh, 0xc0
0x40cc59:	cmovb	eax, edx
0x40cc5c:	ret	
F 0x414139
0x40a016:	ret	
F 0x413e96
0x413e96:	inc	edi
0x413e98:	add	eax, 0x2f54f
0x413e9d:	add	dword ptr [rax], eax
0x413e9f:	add	byte ptr [rax], al
0x413ea1:	jmp	0x413d7e
F 0x413fb6
0x40b19f:	pop	rbp
0x40b1a0:	ret	
F 0x40f5a6
0x40a016:	ret	
F 0x40d178
0x40d178:	test	byte ptr [rbx], al
0x40d17a:	add	byte ptr [rax], al
0x40d17c:	mov	edx, 0xffffffff
0x40d181:	setg	al
0x40d184:	movzx	eax, al
0x40d187:	cmovl	eax, edx
0x40d18a:	ret	
F 0x410bd9
0x410bd9:	nop	dword ptr [rax]
0x410be0:	mov	dword ptr [rip + 0x11432], 0x100
0x410bea:	xor	eax, eax
0x410bec:	ret	
F 0x40cfb3
0x40cfb3:	sub	byte ptr [rax + 0x39], cl
0x40cfb6:	sub	byte ptr [r10 - 1], r15b
0x40cfbd:	seta	al
0x40cfc0:	movzx	eax, al
0x40cfc3:	cmovb	eax, edx
0x40cfc6:	ret	
F 0x4104ed
0x40a016:	ret	
F 0x410b52
0x410ace:	or	byte ptr [rbx + 0x5d], bl
0x410ad1:	ret	
F 0x40dca4
0x40dca4:	add	byte ptr [rax + 3], r15b
0x40dcab:	ret	
F 0x40d27d
0x40d27d:	cmp	ecx, eax
0x40d27f:	seta	al
0x40d282:	movzx	eax, al
0x40d285:	cmovb	eax, edx
0x40d288:	ret	
F 0x40dd70
0x40dd70:	adc	byte ptr [rax], al
0x40dd72:	add	byte ptr [rax], al
0x40dd74:	add	rsp, 0x18
0x40dd78:	ret	
F 0x4101fb
0x40ea7b:	add	rsp, 0x18
0x40ea80:	pop	rbx
0x40ea81:	pop	rbp
0x40ea82:	ret	
F 0x40ff5f
0x40ea7f:	sbb	byte ptr [rbx + 0x5d], bl
0x40ea82:	ret	
F 0x40f1c6
0x40eb19:	add	byte ptr [rbp + 5], dh
0x40eb1c:	add	rsp, 0x18
0x40eb20:	ret	
F 0x40e804
0x40e804:	pop	rcx
0x40e805:	pop	rbx
0x40e806:	pop	rbp
0x40e807:	pop	r12
0x40e809:	ret	
F 0x415598
0x40b126:	add	byte ptr [rax], al
0x40b128:	ret	
F 0x40d179
0x40d0b9:	add	eax, dword ptr [rax]
0x40d0bb:	add	byte ptr [rdx - 1], bh
0x40d0c1:	setg	al
0x40d0c4:	movzx	eax, al
0x40d0c7:	cmovl	eax, edx
0x40d0ca:	ret	
F 0x4145bb
0x40b124:	add	byte ptr [rax], al
0x40b126:	add	byte ptr [rax], al
0x40b128:	ret	
F 0x40dc71
0x40dc71:	add	byte ptr [rax + 2], bh
0x40dc77:	mov	word ptr [rdi], r9w
0x40dc7b:	ret	
F 0x411f0f
0x411f0f:	add	byte ptr [rcx - 0x77], al
0x411f12:	ret	
F 0x40fcc8
0x40d4ca:	mov	eax, 1
0x40d4cf:	ret	
F 0x40fbee
0x40dc08:	add	byte ptr [rax], al
0x40dc0a:	mov	eax, 0x2d
0x40dc0f:	mov	word ptr [rdi], ax
0x40dc12:	mov	eax, 1
0x40dc17:	ret	
F 0x40b5a2
0x40b5a2:	add	al, 0
0x40b5a4:	pop	rbx
0x40b5a5:	pop	rbp
0x40b5a6:	pop	r12
0x40b5a8:	pop	r13
0x40b5aa:	pop	r14
0x40b5ac:	ret	
F 0x410ee0
0x40b627:	pop	rbx
0x40b628:	ret	
F 0x40dce2
0x40dce2:	mov	eax, 2
0x40dce7:	mov	word ptr [rdi], r11w
0x40dceb:	ret	
F 0x40f9f6
0x40f9f6:	mov	eax, 0x2a
0x40f9fb:	mov	word ptr [rdi], ax
0x40f9fe:	mov	eax, 1
0x40fa03:	ret	
F 0x40d0ca
0x40a016:	ret	
F 0x40d00c
0x40a016:	ret	
F 0x40cdca
0x40cdca:	sub	byte ptr [rcx], al
0x40cdcc:	add	byte ptr [rax], al
0x40cdce:	mov	edx, 0xffffffff
0x40cdd3:	setg	al
0x40cdd6:	movzx	eax, al
0x40cdd9:	cmovl	eax, edx
0x40cddc:	ret	
F 0x40b19f
0x40b19f:	pop	rbp
0x40b1a0:	ret	
F 0x4130c4
0x40aa98:	pop	r13
0x40aa9a:	pop	r14
0x40aa9c:	pop	r15
0x40aa9e:	ret	
F 0x40fa5f
0x40fa5f:	nop	
0x40fa60:	mov	eax, 0x2d
0x40fa65:	mov	word ptr [rdi], ax
0x40fa68:	mov	eax, 1
0x40fa6d:	ret	
F 0x40d1b6
0x40d1b6:	sub	eax, dword ptr [rsi + 0x364]
0x40d1bc:	ret	
F 0x40d21d
0x40d21d:	add	byte ptr [rax], r8b
0x40d220:	mov	eax, dword ptr [rdi + 0x38c]
0x40d226:	sub	eax, dword ptr [rsi + 0x38c]
0x40d22c:	ret	
F 0x40eb1b
0x40eb1b:	add	eax, 0x18c48348
0x40eb20:	ret	
F 0x40cf1d
0x40cc4d:	add	byte ptr [rdx - 1], bh
0x40cc53:	seta	al
0x40cc56:	movzx	eax, al
0x40cc59:	cmovb	eax, edx
0x40cc5c:	ret	
F 0x413694
0x413694:	cmp	byte ptr [rcx], al
0x413696:	add	byte ptr [rax], al
0x413698:	xor	eax, eax
0x41369a:	pop	rbx
0x41369b:	pop	rbp
0x41369c:	ret	
F 0x40aa92
0x40aa92:	xor	eax, eax
0x40aa94:	pop	rbx
0x40aa95:	pop	rbp
0x40aa96:	pop	r12
0x40aa98:	pop	r13
0x40aa9a:	pop	r14
0x40aa9c:	pop	r15
0x40aa9e:	ret	
F 0x40d9de
0x40d9de:	pop	rbp
0x40d9df:	pop	r13
0x40d9e1:	pop	r14
0x40d9e3:	ret	
F 0x40b162
0x40b162:	nop	word ptr [rax + rax]
0x40b168:	ret	
F 0x40cd2d
0x40cccd:	add	byte ptr [rdx - 1], bh
0x40ccd3:	setg	al
0x40ccd6:	movzx	eax, al
0x40ccd9:	cmovl	eax, edx
0x40ccdc:	ret	
F 0x40d14a
0x40a016:	ret	
F 0x41244e
0x41244e:	add	byte ptr [rax], al
0x412451:	add	byte ptr [rax - 0x77], cl
0x412454:	ret	
F 0x40d47c
0x40d47c:	add	rax, rdi
0x40d47f:	mov	byte ptr [rax], 0
0x40d482:	mov	eax, r8d
0x40d485:	ret	
F 0x40dcb0
0x40dcb0:	mov	dword ptr [rdi], 0x4e4c44
0x40dcb6:	mov	eax, 3
0x40dcbb:	ret	
F 0x40dc78
0x40dc78:	mov	dword ptr [rdi], r9d
0x40dc7b:	ret	
F 0x40ce8c
0x40cc4c:	add	byte ptr [rax], al
0x40cc4e:	mov	edx, 0xffffffff
0x40cc53:	seta	al
0x40cc56:	movzx	eax, al
0x40cc59:	cmovb	eax, edx
0x40cc5c:	ret	
F 0x41453f
0x40bd52:	pop	r12
0x40bd54:	ret	
F 0x40cd97
0x40ccd7:	mov	dh, 0xc0
0x40ccd9:	cmovl	eax, edx
0x40ccdc:	ret	
F 0x4108e4
0x40aa9a:	pop	r14
0x40aa9c:	pop	r15
0x40aa9e:	ret	
F 0x40fccd
0x40a016:	ret	
F 0x40d8aa
0x40d4fc:	add	byte ptr [rax], al
0x40d4fe:	add	rsp, 8
0x40d502:	ret	
F 0x412d9c
0x40ed07:	pop	r13
0x40ed09:	ret	
F 0x414cfa
0x414cfa:	add	cl, ch
0x414cfc:	ret	
F 0x40fc2f
0x40dc09:	add	byte ptr [rax + 0x2d], bh
0x40dc0f:	mov	word ptr [rdi], ax
0x40dc12:	mov	eax, 1
0x40dc17:	ret	
F 0x40d242
0x40d242:	sbb	al, 0xf
0x40d245:	mov	esi, 0xd0291c56
0x40d24a:	ret	
F 0x40ec39
0x40eb19:	add	byte ptr [rbp + 5], dh
0x40eb1c:	add	rsp, 0x18
0x40eb20:	ret	
F 0x40f1cd
0x40a016:	ret	
F 0x40d639
0x40d639:	sub	eax, esp
0x40d63b:	pop	rbx
0x40d63c:	pop	rbp
0x40d63d:	pop	r12
0x40d63f:	pop	r13
0x40d641:	pop	r14
0x40d643:	ret	
F 0x413e97
0x413e97:	mov	dword ptr [rip + 0x2f54f], 1
0x413ea1:	jmp	0x413d7e
F 0x40d347
0x40cc57:	mov	dh, 0xc0
0x40cc59:	cmovb	eax, edx
0x40cc5c:	ret	
F 0x40d0dc
0x40ccce:	mov	edx, 0xffffffff
0x40ccd3:	setg	al
0x40ccd6:	movzx	eax, al
0x40ccd9:	cmovl	eax, edx
0x40ccdc:	ret	
F 0x40d4c3
0x40d4c3:	sbb	al, 0xc6
0x40d4c5:	add	dword ptr [r8], r8d
0x40d4c8:	mov	byte ptr [rdi], al
0x40d4ca:	mov	eax, 1
0x40d4cf:	ret	
F 0x40d1bc
0x40a016:	ret	
F 0x413807
0x40aa99:	pop	rbp
0x40aa9a:	pop	r14
0x40aa9c:	pop	r15
0x40aa9e:	ret	
F 0x41394f
0x40bd51:	pop	rbp
0x40bd52:	pop	r12
0x40bd54:	ret	
F 0x40cd1c
0x40a016:	ret	
F 0x40eeeb
0x40b19f:	pop	rbp
0x40b1a0:	ret	
F 0x40fd99
0x40ea79:	add	byte ptr [rbp + 0x47], dh
0x40ea7c:	add	rsp, 0x18
0x40ea80:	pop	rbx
0x40ea81:	pop	rbp
0x40ea82:	ret	
F 0x414a79
0x414a79:	add	dh, dh
0x414a7b:	ret	0xf80
F 0x415b88
0x415b88:	ror	byte ptr [rdi], 0xb6
0x415b8b:	sal	bh, 0xd8
0x415b8e:	pop	rbx
0x415b8f:	pop	rbp
0x415b90:	pop	r12
0x415b92:	ret	
F 0x40dca9
0x40b126:	add	byte ptr [rax], al
0x40b128:	ret	
F 0x40fe82
0x40a016:	ret	
F 0x415c81
0x415c81:	or	byte ptr [rbx + 0x5d], bl
0x415c84:	pop	r12
0x415c86:	pop	r13
0x415c88:	pop	r14
0x415c8a:	pop	r15
0x415c8c:	ret	
F 0x40d24a
0x40a016:	ret	
F 0x40b481
0x40aa9b:	pop	rsi
0x40aa9c:	pop	r15
0x40aa9e:	ret	
F 0x40dc36
0x40dc36:	add	byte ptr [rax], al
0x40dc38:	mov	edx, 0x3923
0x40dc3d:	mov	byte ptr [rdi + 2], 0
0x40dc41:	mov	eax, 2
0x40dc46:	mov	word ptr [rdi], dx
0x40dc49:	ret	
F 0x414606
0x414606:	add	rsp, 0x30
0x41460a:	pop	rbx
0x41460b:	pop	rbp
0x41460c:	pop	r12
0x41460e:	ret	
F 0x40d9da
0x40d9da:	lea	eax, [rsi + 8]
0x40d9dd:	pop	rbx
0x40d9de:	pop	rbp
0x40d9df:	pop	r13
0x40d9e1:	pop	r14
0x40d9e3:	ret	
F 0x40d06c
0x40a016:	ret	
F 0x40d22a
0x40b126:	add	byte ptr [rax], al
0x40b128:	ret	
F 0x415ba3
0x415ba3:	ret	0xffb8
F 0x40e149
0x40e149:	add	al, 0
0x40e14b:	add	byte ptr [rax], al
0x40e14d:	add	rsp, 0x18
0x40e151:	ret	
F 0x413fcb
0x413fcb:	add	rsp, 8
0x413fcf:	mov	eax, 1
0x413fd4:	pop	rbx
0x413fd5:	pop	rbp
0x413fd6:	pop	r12
0x413fd8:	pop	r13
0x413fda:	ret	
F 0x40dce6
0x40dce6:	add	byte ptr [rsi + 0x44], ah
0x40dce9:	mov	dword ptr [rdi], ebx
0x40dceb:	ret	
F 0x41045c
0x40aa95:	pop	rbp
0x40aa96:	pop	r12
0x40aa98:	pop	r13
0x40aa9a:	pop	r14
0x40aa9c:	pop	r15
0x40aa9e:	ret	
F 0x40eee9
0x40edc1:	add	byte ptr [rbx + 0x5d], bl
0x40edc4:	ret	
F 0x4112b4
0x4112b4:	add	eax, dword ptr [rax]
0x4112b6:	ret	
F 0x40ce57
0x40cc57:	mov	dh, 0xc0
0x40cc59:	cmovb	eax, edx
0x40cc5c:	ret	
F 0x40f8c5
0x40e693:	mov	eax, ebx
0x40e695:	pop	rbx
0x40e696:	pop	rbp
0x40e697:	pop	r12
0x40e699:	ret	
F 0x40ebdc
0x40d7ba:	add	rsp, 0x18
0x40d7be:	ret	
F 0x415ad7
0x415ad7:	add	byte ptr [rax], al
0x415ad9:	add	byte ptr [rbp + 9], dh
0x415adc:	add	rsp, 0x40
0x415ae0:	pop	rbx
0x415ae1:	pop	rbp
0x415ae2:	pop	r12
0x415ae4:	ret	
F 0x40d03b
0x40cfdb:	add	byte ptr [rax], al
0x40cfdd:	add	byte ptr [rdx - 1], bh
0x40cfe3:	seta	al
0x40cfe6:	movzx	eax, al
0x40cfe9:	cmovb	eax, edx
0x40cfec:	ret	
F 0x40d9ab
0x40a016:	ret	
F 0x40d187
0x40ccd9:	cmovl	eax, edx
0x40ccdc:	ret	
F 0x40fd00
0x40dc0a:	mov	eax, 0x2d
0x40dc0f:	mov	word ptr [rdi], ax
0x40dc12:	mov	eax, 1
0x40dc17:	ret	
F 0x40f0d6
0x40d482:	mov	eax, r8d
0x40d485:	ret	
F 0x41453b
0x41453b:	mov	eax, eax
0x41453d:	pop	rbx
0x41453e:	pop	rbp
0x41453f:	pop	r12
0x414541:	ret	
F 0x40fcfc
0x40f864:	nop	dword ptr [rax]
0x40f868:	mov	eax, 0x2d
0x40f86d:	mov	word ptr [rdi], ax
0x40f870:	mov	eax, 1
0x40f875:	ret	
F 0x40cf09
0x40cf09:	test	al, 1
0x40cf0b:	add	byte ptr [rax], al
0x40cf0d:	ret	
F 0x40fc75
0x40dc0f:	mov	word ptr [rdi], ax
0x40dc12:	mov	eax, 1
0x40dc17:	ret	
F 0x40cc7d
0x40cc53:	seta	al
0x40cc56:	movzx	eax, al
0x40cc59:	cmovb	eax, edx
0x40cc5c:	ret	
F 0x40ccdc
0x40a016:	ret	
F 0x4112c5
0x4112c5:	add	byte ptr [rax], r8b
0x4112c8:	add	rax, 1
0x4112cc:	ret	
F 0x40aa98
0x40aa98:	pop	r13
0x40aa9a:	pop	r14
0x40aa9c:	pop	r15
0x40aa9e:	ret	
F 0x40ccb0
0x40ccb0:	mov	rax, qword ptr [rdi + 0xe0]
0x40ccb7:	sub	eax, dword ptr [rsi + 0xe0]
0x40ccbd:	ret	
F 0x40cd9c
0x40a016:	ret	
F 0x40aa95
0x40aa95:	pop	rbp
0x40aa96:	pop	r12
0x40aa98:	pop	r13
0x40aa9a:	pop	r14
0x40aa9c:	pop	r15
0x40aa9e:	ret	
F 0x40aa8e
0x40aa8e:	sbb	byte ptr [rcx], al
0x40aa90:	add	byte ptr [rax], al
0x40aa92:	xor	eax, eax
0x40aa94:	pop	rbx
0x40aa95:	pop	rbp
0x40aa96:	pop	r12
0x40aa98:	pop	r13
0x40aa9a:	pop	r14
0x40aa9c:	pop	r15
0x40aa9e:	ret	
F 0x413fd6
0x40ed05:	pop	r12
0x40ed07:	pop	r13
0x40ed09:	ret	
F 0x40dc0d
0x40dc0d:	add	byte ptr [rax], al
0x40dc0f:	mov	word ptr [rdi], ax
0x40dc12:	mov	eax, 1
0x40dc17:	ret	
F 0x413f98
0x40ed03:	pop	rbx
0x40ed04:	pop	rbp
0x40ed05:	pop	r12
0x40ed07:	pop	r13
0x40ed09:	ret	
F 0x40fbb6
0x40dc10:	mov	dword ptr [rdi], eax
0x40dc12:	mov	eax, 1
0x40dc17:	ret	
F 0x411cf4
0x411cf4:	add	byte ptr [rax], al
0x411cf6:	add	byte ptr [rcx], ch
0x411cf8:	ret	
F 0x40ceb3
0x40cc53:	seta	al
0x40cc56:	movzx	eax, al
0x40cc59:	cmovb	eax, edx
0x40cc5c:	ret	
F 0x410f7d
0x40a016:	ret	
F 0x40d326
0x40cc56:	movzx	eax, al
0x40cc59:	cmovb	eax, edx
0x40cc5c:	ret	
F 0x40d1ae
0x40d1ae:	add	byte ptr [rax], al
0x40d1b0:	mov	eax, dword ptr [rdi + 0x364]
0x40d1b6:	sub	eax, dword ptr [rsi + 0x364]
0x40d1bc:	ret	
F 0x40f9f9
0x40dc0d:	add	byte ptr [rax], al
0x40dc0f:	mov	word ptr [rdi], ax
0x40dc12:	mov	eax, 1
0x40dc17:	ret	
F 0x40d03e
0x40cc4e:	mov	edx, 0xffffffff
0x40cc53:	seta	al
0x40cc56:	movzx	eax, al
0x40cc59:	cmovb	eax, edx
0x40cc5c:	ret	
F 0x4112c6
0x4112c6:	add	byte ptr [rax], al
0x4112c8:	add	rax, 1
0x4112cc:	ret	
F 0x40d3db
0x40cc57:	mov	dh, 0xc0
0x40cc59:	cmovb	eax, edx
0x40cc5c:	ret	
F 0x40f8d0
0x40f8d0:	mov	eax, 0x2d
0x40f8d5:	mov	word ptr [rdi], ax
0x40f8d8:	mov	eax, 1
0x40f8dd:	pop	rbx
0x40f8de:	pop	rbp
0x40f8df:	pop	r12
0x40f8e1:	ret	
F 0x4145b4
0x4145b4:	add	bh, al
0x4145b6:	add	eax, 0x2ee31
0x4145bb:	add	byte ptr [rax], al
0x4145bd:	add	byte ptr [rax], al
0x4145bf:	ret	
F 0x40ce2d
0x40cc4d:	add	byte ptr [rdx - 1], bh
0x40cc53:	seta	al
0x40cc56:	movzx	eax, al
0x40cc59:	cmovb	eax, edx
0x40cc5c:	ret	
F 0x40d1e6
0x40d1e6:	sub	eax, dword ptr [rsi + 0x358]
0x40d1ec:	ret	
F 0x40b8dc
0x40aa96:	pop	r12
0x40aa98:	pop	r13
0x40aa9a:	pop	r14
0x40aa9c:	pop	r15
0x40aa9e:	ret	
F 0x4113a1
0x40d6f2:	ret	0x8948
F 0x40cdad
0x40cccd:	add	byte ptr [rdx - 1], bh
0x40ccd3:	setg	al
0x40ccd6:	movzx	eax, al
0x40ccd9:	cmovl	eax, edx
0x40ccdc:	ret	
F 0x413948
0x413948:	mov	dword ptr [rdx], eax
0x41394a:	mov	qword ptr [rbx + 8], rbp
0x41394e:	pop	rbx
0x41394f:	pop	rbp
0x413950:	pop	r12
0x413952:	ret	
F 0x414788
0x414788:	add	byte ptr [rax - 0x77], cl
0x41478b:	ret	0x3fe8
F 0x413f9e
0x40a016:	ret	
F 0x40e6d0
0x40e6d0:	add	byte ptr [rax], al
0x40e6d2:	mov	word ptr [rdi], dx
0x40e6d5:	pop	rbx
0x40e6d6:	pop	rbp
0x40e6d7:	pop	r12
0x40e6d9:	ret	
F 0x410b26
0x410b26:	add	byte ptr [rax - 0x77], cl
0x410b29:	ret	0xa1e8
F 0x40fcff
0x40dc09:	add	byte ptr [rax + 0x2d], bh
0x40dc0f:	mov	word ptr [rdi], ax
0x40dc12:	mov	eax, 1
0x40dc17:	ret	
F 0x40cc6d
0x40a016:	ret	
F 0x40f0d7
0x40d483:	mov	eax, eax
0x40d485:	ret	
F 0x40d01e
0x40cc4e:	mov	edx, 0xffffffff
0x40cc53:	seta	al
0x40cc56:	movzx	eax, al
0x40cc59:	cmovb	eax, edx
0x40cc5c:	ret	
F 0x40fb2e
0x40dc08:	add	byte ptr [rax], al
0x40dc0a:	mov	eax, 0x2d
0x40dc0f:	mov	word ptr [rdi], ax
0x40dc12:	mov	eax, 1
0x40dc17:	ret	
F 0x40d2d8
0x40d2d8:	nop	dword ptr [rax + rax]
0x40d2e0:	xor	ecx, ecx
0x40d2e2:	xor	eax, eax
0x40d2e4:	cmp	rdi, rcx
0x40d2e7:	seta	al
0x40d2ea:	ret	
F 0x410bb3
0x410bb3:	cmovne	eax, edx
0x410bb6:	mov	dword ptr [rip + 0x11460], eax
0x410bbc:	xor	eax, eax
0x410bbe:	ret	
F 0x415c90
0x40a016:	ret	
F 0x410119
0x40ea79:	add	byte ptr [rbp + 0x47], dh
0x40ea7c:	add	rsp, 0x18
0x40ea80:	pop	rbx
0x40ea81:	pop	rbp
0x40ea82:	ret	
F 0x411dec
0x40aa9d:	pop	rdi
0x40aa9e:	ret	
F 0x40b5a3
0x40b5a3:	add	byte ptr [rbx + 0x5d], bl
0x40b5a6:	pop	r12
0x40b5a8:	pop	r13
0x40b5aa:	pop	r14
0x40b5ac:	ret	
F 0x40eb20
0x40a016:	ret	
F 0x40e069
0x40e069:	mov	word ptr [rdi], ax
0x40e06c:	mov	eax, 2
0x40e071:	ret	
F 0x410374
0x410374:	add	byte ptr [rcx], dh
0x410376:	shr	al, 0x24
0x410379:	movabs	eax, dword ptr [0x834830538b48ffff]
0x410382:	ret	
F 0x40dc12
0x40d4ca:	mov	eax, 1
0x40d4cf:	ret	
F 0x40f37d
0x40ed04:	pop	rbp
0x40ed05:	pop	r12
0x40ed07:	pop	r13
0x40ed09:	ret	
F 0x40cc9d
0x40a016:	ret	
F 0x40f8ce
0x40f8ce:	add	byte ptr [rax + 0x2d], dil
0x40f8d5:	mov	word ptr [rdi], ax
0x40f8d8:	mov	eax, 1
0x40f8dd:	pop	rbx
0x40f8de:	pop	rbp
0x40f8df:	pop	r12
0x40f8e1:	ret	
F 0x40ecfc
0x40ecfc:	add	byte ptr [rbp + 0xb], dh
0x40ecff:	add	rsp, 0x18
0x40ed03:	pop	rbx
0x40ed04:	pop	rbp
0x40ed05:	pop	r12
0x40ed07:	pop	r13
0x40ed09:	ret	
F 0x40f8d9
0x40f8d9:	add	dword ptr [rax], eax
0x40f8db:	add	byte ptr [rax], al
0x40f8dd:	pop	rbx
0x40f8de:	pop	rbp
0x40f8df:	pop	r12
0x40f8e1:	ret	
F 0x40d1a4
0x40ccd6:	movzx	eax, al
0x40ccd9:	cmovl	eax, edx
0x40ccdc:	ret	
F 0x40ce99
0x40cc59:	cmovb	eax, edx
0x40cc5c:	ret	
F 0x4114c0
0x40aa9c:	pop	r15
0x40aa9e:	ret	
F 0x410460
0x40aa99:	pop	rbp
0x40aa9a:	pop	r14
0x40aa9c:	pop	r15
0x40aa9e:	ret	
F 0x410037
0x40ea77:	add	byte ptr [rax], al
0x40ea79:	add	byte ptr [rbp + 0x47], dh
0x40ea7c:	add	rsp, 0x18
0x40ea80:	pop	rbx
0x40ea81:	pop	rbp
0x40ea82:	ret	
F 0x40e9a3
0x40e9a3:	nop	dword ptr [rax + rax]
0x40e9a8:	xor	eax, eax
0x40e9aa:	ret	
F 0x412451
0x40acf6:	add	byte ptr [rax - 0x77], cl
0x40acf9:	ret	
F 0x40fe7f
0x40ea7f:	sbb	byte ptr [rbx + 0x5d], bl
0x40ea82:	ret	
F 0x40d477
0x40d477:	add	byte ptr [rbx], ch
0x40d479:	movsxd	rax, r8d
0x40d47c:	add	rax, rdi
0x40d47f:	mov	byte ptr [rax], 0
0x40d482:	mov	eax, r8d
0x40d485:	ret	
F 0x40d03d
0x40cc4d:	add	byte ptr [rdx - 1], bh
0x40cc53:	seta	al
0x40cc56:	movzx	eax, al
0x40cc59:	cmovb	eax, edx
0x40cc5c:	ret	
F 0x413943
0x413943:	mov	rax, qword ptr [rbx + 8]
0x413947:	mov	qword ptr [rdx], rax
0x41394a:	mov	qword ptr [rbx + 8], rbp
0x41394e:	pop	rbx
0x41394f:	pop	rbp
0x413950:	pop	r12
0x413952:	ret	
F 0x413696
0x413696:	add	byte ptr [rax], al
0x413698:	xor	eax, eax
0x41369a:	pop	rbx
0x41369b:	pop	rbp
0x41369c:	ret	
F 0x40d026
0x40cc56:	movzx	eax, al
0x40cc59:	cmovb	eax, edx
0x40cc5c:	ret	
F 0x412ed8
0x412ed8:	mov	qword ptr [rip + 0x304ad], 0x3333
0x412ee3:	xor	eax, eax
0x412ee5:	ret	
F 0x40fa6b
0x40b126:	add	byte ptr [rax], al
0x40b128:	ret	
F 0x40cd0d
0x40cccd:	add	byte ptr [rdx - 1], bh
0x40ccd3:	setg	al
0x40ccd6:	movzx	eax, al
0x40ccd9:	cmovl	eax, edx
0x40ccdc:	ret	
F 0x40d31e
0x40cc4e:	mov	edx, 0xffffffff
0x40cc53:	seta	al
0x40cc56:	movzx	eax, al
0x40cc59:	cmovb	eax, edx
0x40cc5c:	ret	
F 0x40cf8c
0x40a016:	ret	
F 0x410b4d
0x410ac9:	add	eax, dword ptr [rax]
0x410acb:	add	rsp, 8
0x410acf:	pop	rbx
0x410ad0:	pop	rbp
0x410ad1:	ret	
F 0x411ded
0x40a016:	ret	
F 0x40cc8e
0x40cc8e:	add	byte ptr [rax], al
0x40cc90:	mov	rax, qword ptr [rdi + 0xd8]
0x40cc97:	sub	eax, dword ptr [rsi + 0xd8]
0x40cc9d:	ret	
F 0x40f8de
0x40bd51:	pop	rbp
0x40bd52:	pop	r12
0x40bd54:	ret	
F 0x4112b6
0x40a016:	ret	
F 0x40a829
0x40a016:	ret	
F 0x40fb70
0x40dc0a:	mov	eax, 0x2d
0x40dc0f:	mov	word ptr [rdi], ax
0x40dc12:	mov	eax, 1
0x40dc17:	ret	
F 0x40cf83
0x40cc53:	seta	al
0x40cc56:	movzx	eax, al
0x40cc59:	cmovb	eax, edx
0x40cc5c:	ret	
F 0x40ccf6
0x40ccd6:	movzx	eax, al
0x40ccd9:	cmovl	eax, edx
0x40ccdc:	ret	
F 0x41369b
0x40b19f:	pop	rbp
0x40b1a0:	ret	
F 0x40fb3b
0x40b126:	add	byte ptr [rax], al
0x40b128:	ret	
F 0x40cfb5
0x40cfb5:	cmp	dword ptr [rdi + 0x28], eax
0x40cfb8:	mov	edx, 0xffffffff
0x40cfbd:	seta	al
0x40cfc0:	movzx	eax, al
0x40cfc3:	cmovb	eax, edx
0x40cfc6:	ret	
F 0x40cf66
0x40cc56:	movzx	eax, al
0x40cc59:	cmovb	eax, edx
0x40cc5c:	ret	
F 0x413c31
0x413c31:	ret	0x99e8
F 0x40d1eb
0x40d1eb:	add	bl, al
0x40d1ed:	nop	dword ptr [rax]
0x40d1f0:	mov	eax, dword ptr [rdi + 0x35c]
0x40d1f6:	sub	eax, dword ptr [rsi + 0x35c]
0x40d1fc:	ret	
F 0x40dce8
0x40dce8:	mov	dword ptr [rdi], r11d
0x40dceb:	ret	
F 0x40cdf9
0x40cc59:	cmovb	eax, edx
0x40cc5c:	ret	
F 0x411f0d
0x411f0d:	add	dword ptr [rcx], eax
0x411f0f:	add	byte ptr [rcx - 0x77], al
0x411f12:	ret	
F 0x40d066
0x40cc56:	movzx	eax, al
0x40cc59:	cmovb	eax, edx
0x40cc5c:	ret	
F 0x40d4f9
0x40d4f9:	mov	eax, 1
0x40d4fe:	add	rsp, 8
0x40d502:	ret	
F 0x40eb7f
0x40d7ba:	add	rsp, 0x18
0x40d7be:	ret	
F 0x412ef9
0x40cc2e:	add	byte ptr [rax], al
0x40cc30:	xor	eax, eax
0x40cc32:	ret	
F 0x40f86e
0x40dc10:	mov	dword ptr [rdi], eax
0x40dc12:	mov	eax, 1
0x40dc17:	ret	
F 0x40b21e
0x40b21e:	add	byte ptr [rcx], dh
0x40b220:	dec	dword ptr [rax - 0x77]
0x40b223:	ret	
F 0x40d3cf
0x40d3cf:	cmp	rdx, rax
0x40d3d2:	mov	edx, 0xffffffff
0x40d3d7:	seta	al
0x40d3da:	movzx	eax, al
0x40d3dd:	cmovb	eax, edx
0x40d3e0:	ret	
F 0x40cd8e
0x40ccce:	mov	edx, 0xffffffff
0x40ccd3:	setg	al
0x40ccd6:	movzx	eax, al
0x40ccd9:	cmovl	eax, edx
0x40ccdc:	ret	
F 0x40fa61
0x40dc0b:	sub	eax, 0x66000000
0x40dc10:	mov	dword ptr [rdi], eax
0x40dc12:	mov	eax, 1
0x40dc17:	ret	
F 0x40bd52
0x40bd52:	pop	r12
0x40bd54:	ret	
F 0x40ce3c
0x40a016:	ret	
F 0x40dcec
0x40dcec:	nop	dword ptr [rax]
0x40dcf0:	mov	eax, 0x3f
0x40dcf5:	mov	word ptr [rdi], ax
0x40dcf8:	mov	eax, 1
0x40dcfd:	ret	
F 0x40ea7b
0x40ea7b:	add	rsp, 0x18
0x40ea80:	pop	rbx
0x40ea81:	pop	rbp
0x40ea82:	ret	
F 0x40b223
0x40a016:	ret	
F 0x40cffe
0x40cc4e:	mov	edx, 0xffffffff
0x40cc53:	seta	al
0x40cc56:	movzx	eax, al
0x40cc59:	cmovb	eax, edx
0x40cc5c:	ret	
F 0x40d127
0x40ccd9:	cmovl	eax, edx
0x40ccdc:	ret	
F 0x40ce9c
0x40a016:	ret	
F 0x40eb17
0x40eb17:	add	byte ptr [rax], al
0x40eb19:	add	byte ptr [rbp + 5], dh
0x40eb1c:	add	rsp, 0x18
0x40eb20:	ret	
F 0x40d081
0x40cc57:	mov	dh, 0xc0
0x40cc59:	cmovb	eax, edx
0x40cc5c:	ret	
F 0x40f748
0x40ed03:	pop	rbx
0x40ed04:	pop	rbp
0x40ed05:	pop	r12
0x40ed07:	pop	r13
0x40ed09:	ret	
F 0x40d379
0x40d379:	xchg	eax, eax
0x40d37b:	add	eax, dword ptr [rax]
0x40d37d:	add	byte ptr [rdx - 1], bh
0x40d383:	seta	al
0x40d386:	movzx	eax, al
0x40d389:	cmovb	eax, edx
0x40d38c:	ret	
F 0x40ee4f
0x40b19f:	pop	rbp
0x40b1a0:	ret	
F 0x40b33c
0x40b33c:	or	byte ptr [rax + 0x63], cl
0x40b33f:	ret	
F 0x40dce7
0x40dce7:	mov	word ptr [rdi], r11w
0x40dceb:	ret	
F 0x40dc9b
0x40a016:	ret	
F 0x40ce97
0x40cc57:	mov	dh, 0xc0
0x40cc59:	cmovb	eax, edx
0x40cc5c:	ret	
F 0x40f747
0x40ed02:	sbb	byte ptr [rbx + 0x5d], bl
0x40ed05:	pop	r12
0x40ed07:	pop	r13
0x40ed09:	ret	
F 0x413944
0x413944:	mov	eax, dword ptr [rbx + 8]
0x413947:	mov	qword ptr [rdx], rax
0x41394a:	mov	qword ptr [rbx + 8], rbp
0x41394e:	pop	rbx
0x41394f:	pop	rbp
0x413950:	pop	r12
0x413952:	ret	
F 0x415b87
0x415b87:	xchg	eax, ebp
0x415b88:	ror	byte ptr [rdi], 0xb6
0x415b8b:	sal	bh, 0xd8
0x415b8e:	pop	rbx
0x415b8f:	pop	rbp
0x415b90:	pop	r12
0x415b92:	ret	
F 0x40cdbc
0x40a016:	ret	
F 0x410bba
0x410bba:	add	dword ptr [rax], eax
0x410bbc:	xor	eax, eax
0x410bbe:	ret	
F 0x4130c0
0x40aa94:	pop	rbx
0x40aa95:	pop	rbp
0x40aa96:	pop	r12
0x40aa98:	pop	r13
0x40aa9a:	pop	r14
0x40aa9c:	pop	r15
0x40aa9e:	ret	
F 0x40e060
0x40e060:	mov	eax, 0x7878
0x40e065:	mov	byte ptr [rdi + 2], 0
0x40e069:	mov	word ptr [rdi], ax
0x40e06c:	mov	eax, 2
0x40e071:	ret	
F 0x40e809
0x40a016:	ret	
F 0x413f9d
0x40b19f:	pop	rbp
0x40b1a0:	ret	
F 0x40d13b
0x40cccd:	add	byte ptr [rdx - 1], bh
0x40ccd3:	setg	al
0x40ccd6:	movzx	eax, al
0x40ccd9:	cmovl	eax, edx
0x40ccdc:	ret	
F 0x415c84
0x40aa96:	pop	r12
0x40aa98:	pop	r13
0x40aa9a:	pop	r14
0x40aa9c:	pop	r15
0x40aa9e:	ret	
F 0x40fa65
0x40dc0f:	mov	word ptr [rdi], ax
0x40dc12:	mov	eax, 1
0x40dc17:	ret	
F 0x40cd59
0x40ccd9:	cmovl	eax, edx
0x40ccdc:	ret	
F 0x4104e4
0x40aa95:	pop	rbp
0x40aa96:	pop	r12
0x40aa98:	pop	r13
0x40aa9a:	pop	r14
0x40aa9c:	pop	r15
0x40aa9e:	ret	
F 0x40cd2a
0x40cd2a:	add	byte ptr [rcx], al
0x40cd2c:	add	byte ptr [rax], al
0x40cd2e:	mov	edx, 0xffffffff
0x40cd33:	setg	al
0x40cd36:	movzx	eax, al
0x40cd39:	cmovl	eax, edx
0x40cd3c:	ret	
F 0x40dc8c
0x40dc8c:	mov	dword ptr [rdi], r8d
0x40dc8f:	ret	
F 0x40cf79
0x40cf79:	xchg	eax, ecx
0x40cf7b:	add	dword ptr [rax], eax
0x40cf7d:	add	byte ptr [rdx - 1], bh
0x40cf83:	seta	al
0x40cf86:	movzx	eax, al
0x40cf89:	cmovb	eax, edx
0x40cf8c:	ret	
F 0x40f8bc
0x40f8bc:	add	byte ptr [rbx + 0x44c6ffff], ch
0x40f8c2:	sbb	eax, 0xd8890000
0x40f8c7:	pop	rbx
0x40f8c8:	pop	rbp
0x40f8c9:	pop	r12
0x40f8cb:	ret	
F 0x40d33a
0x40d33a:	mov	al, 3
0x40d33c:	add	byte ptr [rax], al
0x40d33e:	mov	edx, 0xffffffff
0x40d343:	seta	al
0x40d346:	movzx	eax, al
0x40d349:	cmovb	eax, edx
0x40d34c:	ret	
F 0x412efb
0x40cc30:	xor	eax, eax
0x40cc32:	ret	
F 0x4114c1
0x40aa9d:	pop	rdi
0x40aa9e:	ret	
F 0x41132a
0x41132a:	mov	ebx, 0x20471589
0x41132f:	add	eax, dword ptr [rax]
0x411331:	ret	
F 0x415160
0x40acf6:	add	byte ptr [rax - 0x77], cl
0x40acf9:	ret	
F 0x40f8db
0x40f8db:	add	byte ptr [rax], al
0x40f8dd:	pop	rbx
0x40f8de:	pop	rbp
0x40f8df:	pop	r12
0x40f8e1:	ret	
F 0x40dc54
0x40dc54:	add	byte ptr [rax], al
0x40dc56:	mov	byte ptr [rdi + 2], 0
0x40dc5a:	mov	eax, 2
0x40dc5f:	mov	word ptr [rdi], r10w
0x40dc63:	ret	
F 0x40ea81
0x40b19f:	pop	rbp
0x40b1a0:	ret	
F 0x40dc6e
0x40dc6e:	mov	byte ptr [rdi + 2], 0
0x40dc72:	mov	eax, 2
0x40dc77:	mov	word ptr [rdi], r9w
0x40dc7b:	ret	
F 0x40dccc
0x40dccc:	add	byte ptr [rax], al
0x40dcce:	mov	word ptr [rdi], si
0x40dcd1:	ret	
F 0x40d73a
0x40d73a:	mov	eax, 2
0x40d73f:	add	rsp, 8
0x40d743:	ret	
F 0x40cc9a
0x40cc9a:	add	byte ptr [rax], al
0x40cc9c:	add	bl, al
0x40cc9e:	nop	
0x40cca0:	mov	eax, dword ptr [rdi + 0x360]
0x40cca6:	sub	eax, dword ptr [rsi + 0x360]
0x40ccac:	ret	
F 0x40dc81
0x40dc81:	mov	eax, 0x42
0x40dc86:	mov	eax, 1
0x40dc8b:	mov	word ptr [rdi], r8w
0x40dc8f:	ret	
F 0x4114c2
0x40a016:	ret	
F 0x415b8f
0x40bd51:	pop	rbp
0x40bd52:	pop	r12
0x40bd54:	ret	
F 0x40cf49
0x40cc59:	cmovb	eax, edx
0x40cc5c:	ret	
F 0x411de2
0x411de2:	sbb	byte ptr [rbx + 0x5d], bl
0x411de5:	pop	r12
0x411de7:	pop	r13
0x411de9:	pop	r14
0x411deb:	pop	r15
0x411ded:	ret	
F 0x40e60e
0x40e4e8:	ret	0x8d48
F 0x40ce59
0x40cc59:	cmovb	eax, edx
0x40cc5c:	ret	
F 0x40e9a0
0x40e9a0:	mov	ecx, 0x1f0fffff
0x40e9a5:	add	byte ptr [rax], r8b
0x40e9a8:	xor	eax, eax
0x40e9aa:	ret	
F 0x40d05c
0x40cc4c:	add	byte ptr [rax], al
0x40cc4e:	mov	edx, 0xffffffff
0x40cc53:	seta	al
0x40cc56:	movzx	eax, al
0x40cc59:	cmovb	eax, edx
0x40cc5c:	ret	
F 0x410999
0x40b220:	dec	dword ptr [rax - 0x77]
0x40b223:	ret	
F 0x40f9f5
0x40f9f5:	adc	bh, byte ptr [rax + 0x2a]
0x40f9fb:	mov	word ptr [rdi], ax
0x40f9fe:	mov	eax, 1
0x40fa03:	ret	
F 0x40d641
0x40b5aa:	pop	r14
0x40b5ac:	ret	
F 0x40b8e4
0x40a016:	ret	
F 0x41038b
0x40bd52:	pop	r12
0x40bd54:	ret	
F 0x40d472
0x40d472:	add	r8d, 1
0x40d476:	mov	byte ptr [rax], 0x2b
0x40d479:	movsxd	rax, r8d
0x40d47c:	add	rax, rdi
0x40d47f:	mov	byte ptr [rax], 0
0x40d482:	mov	eax, r8d
0x40d485:	ret	
F 0x40b1a0
0x40a016:	ret	
F 0x40d3a7
0x40cc57:	mov	dh, 0xc0
0x40cc59:	cmovb	eax, edx
0x40cc5c:	ret	
F 0x40dcc0
0x40dcc0:	mov	esi, 0x3723
0x40dcc5:	mov	byte ptr [rdi + 2], 0
0x40dcc9:	mov	eax, 2
0x40dcce:	mov	word ptr [rdi], si
0x40dcd1:	ret	
F 0x40cc4d
0x40cc4d:	add	byte ptr [rdx - 1], bh
0x40cc53:	seta	al
0x40cc56:	movzx	eax, al
0x40cc59:	cmovb	eax, edx
0x40cc5c:	ret	
F 0x410383
0x410383:	xor	byte ptr [rax - 0x288a81c6], al
0x410389:	pop	rbx
0x41038a:	pop	rbp
0x41038b:	pop	r12
0x41038d:	ret	
F 0x40dce1
0x40dce1:	add	byte ptr [rax + 2], bh
0x40dce7:	mov	word ptr [rdi], r11w
0x40dceb:	ret	
F 0x40d0c1
0x40ccd3:	setg	al
0x40ccd6:	movzx	eax, al
0x40ccd9:	cmovl	eax, edx
0x40ccdc:	ret	
F 0x40c439
0x40a016:	ret	
F 0x40dc1f
0x40dc1f:	add	byte ptr [rcx + 0x3823], bh
0x40dc25:	mov	byte ptr [rdi + 2], 0
0x40dc29:	mov	eax, 2
0x40dc2e:	mov	word ptr [rdi], cx
0x40dc31:	ret	
F 0x40e6cc
0x40e6cc:	add	byte ptr [rax + 1], bh
0x40e6d2:	mov	word ptr [rdi], dx
0x40e6d5:	pop	rbx
0x40e6d6:	pop	rbp
0x40e6d7:	pop	r12
0x40e6d9:	ret	
F 0x40b8e1
0x40aa9b:	pop	rsi
0x40aa9c:	pop	r15
0x40aa9e:	ret	
F 0x4108da
0x40b476:	add	rsp, 0x28
0x40b47a:	pop	rbx
0x40b47b:	pop	rbp
0x40b47c:	pop	r12
0x40b47e:	pop	r13
0x40b480:	pop	r14
0x40b482:	pop	r15
0x40b484:	ret	
F 0x40cc4c
0x40cc4c:	add	byte ptr [rax], al
0x40cc4e:	mov	edx, 0xffffffff
0x40cc53:	seta	al
0x40cc56:	movzx	eax, al
0x40cc59:	cmovb	eax, edx
0x40cc5c:	ret	
F 0x40f24e
0x40ea80:	pop	rbx
0x40ea81:	pop	rbp
0x40ea82:	ret	
F 0x40d22b
0x40d22b:	add	bl, al
0x40d22d:	nop	dword ptr [rax]
0x40d230:	mov	eax, dword ptr [rdi + 0x18]
0x40d233:	sub	eax, dword ptr [rsi + 0x18]
0x40d236:	ret	
F 0x4112bc
0x40cc2c:	add	byte ptr [rax], al
0x40cc2e:	add	byte ptr [rax], al
0x40cc30:	xor	eax, eax
0x40cc32:	ret	
F 0x40d229
0x40d229:	add	eax, dword ptr [rax]
0x40d22b:	add	bl, al
0x40d22d:	nop	dword ptr [rax]
0x40d230:	mov	eax, dword ptr [rdi + 0x18]
0x40d233:	sub	eax, dword ptr [rsi + 0x18]
0x40d236:	ret	
F 0x40d4be
0x40d4be:	add	byte ptr [rax + 0x1c46b60f], dl
0x40d4c4:	mov	byte ptr [rdi + 1], 0
0x40d4c8:	mov	byte ptr [rdi], al
0x40d4ca:	mov	eax, 1
0x40d4cf:	ret	
F 0x40b620
0x40b620:	sbb	byte ptr [r8 + 1], dil
0x40b627:	pop	rbx
0x40b628:	ret	
F 0x40cd8b
0x40cd2b:	add	dword ptr [rax], eax
0x40cd2d:	add	byte ptr [rdx - 1], bh
0x40cd33:	setg	al
0x40cd36:	movzx	eax, al
0x40cd39:	cmovl	eax, edx
0x40cd3c:	ret	
F 0x40dcb6
0x40dc96:	mov	eax, 3
0x40dc9b:	ret	
F 0x40fbae
0x40dc08:	add	byte ptr [rax], al
0x40dc0a:	mov	eax, 0x2d
0x40dc0f:	mov	word ptr [rdi], ax
0x40dc12:	mov	eax, 1
0x40dc17:	ret	
F 0x40b1a4
0x40b124:	add	byte ptr [rax], al
0x40b126:	add	byte ptr [rax], al
0x40b128:	ret	
F 0x40dc52
0x40dc52:	add	byte ptr [rax], r8b
0x40dc56:	mov	byte ptr [rdi + 2], 0
0x40dc5a:	mov	eax, 2
0x40dc5f:	mov	word ptr [rdi], r10w
0x40dc63:	ret	
F 0x40d063
0x40cc53:	seta	al
0x40cc56:	movzx	eax, al
0x40cc59:	cmovb	eax, edx
0x40cc5c:	ret	
F 0x40cd76
0x40ccd6:	movzx	eax, al
0x40ccd9:	cmovl	eax, edx
0x40ccdc:	ret	
F 0x40ff61
0x40b19f:	pop	rbp
0x40b1a0:	ret	
F 0x40dc26
0x40dc26:	add	r8b, byte ptr [r8]
0x40dc29:	mov	eax, 2
0x40dc2e:	mov	word ptr [rdi], cx
0x40dc31:	ret	
F 0x40eb7c
0x40eb19:	add	byte ptr [rbp + 5], dh
0x40eb1c:	add	rsp, 0x18
0x40eb20:	ret	
F 0x40d4cd
0x40b126:	add	byte ptr [rax], al
0x40b128:	ret	
F 0x40d35e
0x40cc4e:	mov	edx, 0xffffffff
0x40cc53:	seta	al
0x40cc56:	movzx	eax, al
0x40cc59:	cmovb	eax, edx
0x40cc5c:	ret	
F 0x41124b
0x40aa9c:	pop	r15
0x40aa9e:	ret	
F 0x40d119
0x40d0b9:	add	eax, dword ptr [rax]
0x40d0bb:	add	byte ptr [rdx - 1], bh
0x40d0c1:	setg	al
0x40d0c4:	movzx	eax, al
0x40d0c7:	cmovl	eax, edx
0x40d0ca:	ret	
F 0x40fc6d
0x40fb2d:	add	byte ptr [rax], r8b
0x40fb30:	mov	eax, 0x2d
0x40fb35:	mov	word ptr [rdi], ax
0x40fb38:	mov	eax, 1
0x40fb3d:	ret	
F 0x40dcf8
0x40d4ca:	mov	eax, 1
0x40d4cf:	ret	
F 0x413fd1
0x413fd1:	add	byte ptr [rax], al
0x413fd3:	add	byte ptr [rbx + 0x5d], bl
0x413fd6:	pop	r12
0x413fd8:	pop	r13
0x413fda:	ret	
F 0x4112be
0x40cc2e:	add	byte ptr [rax], al
0x40cc30:	xor	eax, eax
0x40cc32:	ret	
F 0x410040
0x40ea80:	pop	rbx
0x40ea81:	pop	rbp
0x40ea82:	ret	
F 0x40cccc
0x40cccc:	add	byte ptr [rax], al
0x40ccce:	mov	edx, 0xffffffff
0x40ccd3:	setg	al
0x40ccd6:	movzx	eax, al
0x40ccd9:	cmovl	eax, edx
0x40ccdc:	ret	
F 0x40edb6
0x40edb6:	add	byte ptr [rbp + 0xc], dh
0x40edb9:	add	rsp, 0x18
0x40edbd:	mov	eax, 8
0x40edc2:	pop	rbx
0x40edc3:	pop	rbp
0x40edc4:	ret	
F 0x40d21e
0x40d21e:	add	byte ptr [rax], al
0x40d220:	mov	eax, dword ptr [rdi + 0x38c]
0x40d226:	sub	eax, dword ptr [rsi + 0x38c]
0x40d22c:	ret	
F 0x40cc32
0x40a016:	ret	
F 0x40cef6
0x40cc56:	movzx	eax, al
0x40cc59:	cmovb	eax, edx
0x40cc5c:	ret	
F 0x40b5ac
0x40a016:	ret	
F 0x41460b
0x40bd51:	pop	rbp
0x40bd52:	pop	r12
0x40bd54:	ret	
F 0x40fbf1
0x40dc0b:	sub	eax, 0x66000000
0x40dc10:	mov	dword ptr [rdi], eax
0x40dc12:	mov	eax, 1
0x40dc17:	ret	
F 0x40fa01
0x40b126:	add	byte ptr [rax], al
0x40b128:	ret	
F 0x415c8b
0x40aa9d:	pop	rdi
0x40aa9e:	ret	
F 0x40b5a6
0x40b5a6:	pop	r12
0x40b5a8:	pop	r13
0x40b5aa:	pop	r14
0x40b5ac:	ret	
F 0x40dcc5
0x40dcc5:	mov	byte ptr [rdi + 2], 0
0x40dcc9:	mov	eax, 2
0x40dcce:	mov	word ptr [rdi], si
0x40dcd1:	ret	
F 0x413f92
0x412d92:	add	rsp, 8
0x412d96:	xor	eax, eax
0x412d98:	pop	rbx
0x412d99:	pop	rbp
0x412d9a:	pop	r12
0x412d9c:	pop	r13
0x412d9e:	ret	
F 0x40fbfb
0x40b126:	add	byte ptr [rax], al
0x40b128:	ret	
F 0x412d98
0x40ed03:	pop	rbx
0x40ed04:	pop	rbp
0x40ed05:	pop	r12
0x40ed07:	pop	r13
0x40ed09:	ret	
F 0x40b61e
0x40b61e:	ror	dword ptr [rcx + 0x1b8184b], 0
0x40b625:	add	byte ptr [rax], al
0x40b627:	pop	rbx
0x40b628:	ret	
F 0x40d144
0x40ccd6:	movzx	eax, al
0x40ccd9:	cmovl	eax, edx
0x40ccdc:	ret	
F 0x413fb1
0x40ed03:	pop	rbx
0x40ed04:	pop	rbp
0x40ed05:	pop	r12
0x40ed07:	pop	r13
0x40ed09:	ret	
F 0x413808
0x40aa9a:	pop	r14
0x40aa9c:	pop	r15
0x40aa9e:	ret	
F 0x4112c0
0x40cc30:	xor	eax, eax
0x40cc32:	ret	
F 0x40d47d
0x40d47d:	add	eax, edi
0x40d47f:	mov	byte ptr [rax], 0
0x40d482:	mov	eax, r8d
0x40d485:	ret	
F 0x41103c
0x40b19f:	pop	rbp
0x40b1a0:	ret	
F 0x40fcc9
0x40d4cb:	add	dword ptr [rax], eax
0x40d4cd:	add	byte ptr [rax], al
0x40d4cf:	ret	
F 0x4112aa
0x4112aa:	or	byte ptr [rax + 0x10740038], al
0x4112b0:	mov	dword ptr [rip + 0x320c2], edx
0x4112b6:	ret	
F 0x40d086
0x40a016:	ret	
F 0x412ff2
0x40b11f:	jmp	rax
F 0x40ddf2
0x40dd72:	add	byte ptr [rax], al
0x40dd74:	add	rsp, 0x18
0x40dd78:	ret	
F 0x4103b4
0x40cc2c:	add	byte ptr [rax], al
0x40cc2e:	add	byte ptr [rax], al
0x40cc30:	xor	eax, eax
0x40cc32:	ret	
F 0x40cd6d
0x40cccd:	add	byte ptr [rdx - 1], bh
0x40ccd3:	setg	al
0x40ccd6:	movzx	eax, al
0x40ccd9:	cmovl	eax, edx
0x40ccdc:	ret	
F 0x40cf98
0x40cc4e:	mov	edx, 0xffffffff
0x40cc53:	seta	al
0x40cc56:	movzx	eax, al
0x40cc59:	cmovb	eax, edx
0x40cc5c:	ret	
F 0x410f76
0x410f76:	pop	rbp
0x410f77:	add	rsp, 0x18
0x410f7b:	pop	rbx
0x410f7c:	pop	rbp
0x410f7d:	ret	
F 0x40b11c
0x40b11c:	sal	byte ptr [rcx + rcx - 1], 0xe0
0x40b121:	nop	dword ptr [rax]
0x40b128:	ret	
F 0x40d0b9
0x40d0b9:	add	eax, dword ptr [rax]
0x40d0bb:	add	byte ptr [rdx - 1], bh
0x40d0c1:	setg	al
0x40d0c4:	movzx	eax, al
0x40d0c7:	cmovl	eax, edx
0x40d0ca:	ret	
F 0x410cff
0x410cff:	adc	byte ptr [rax], al
0x410d01:	add	byte ptr [rbx + 0x5d], bl
0x410d04:	pop	r12
0x410d06:	pop	r13
0x410d08:	ret	
F 0x41124a
0x40aa9b:	pop	rsi
0x40aa9c:	pop	r15
0x40aa9e:	ret	
F 0x40e691
0x40e691:	add	byte ptr [rax], al
0x40e693:	mov	eax, ebx
0x40e695:	pop	rbx
0x40e696:	pop	rbp
0x40e697:	pop	r12
0x40e699:	ret	
F 0x412d9a
0x40ed05:	pop	r12
0x40ed07:	pop	r13
0x40ed09:	ret	
F 0x40ec40
0x40a016:	ret	
F 0x412d96
0x412d96:	xor	eax, eax
0x412d98:	pop	rbx
0x412d99:	pop	rbp
0x412d9a:	pop	r12
0x412d9c:	pop	r13
0x412d9e:	ret	
F 0x413552
0x413552:	ret	0x78e8
F 0x40f8c0
0x40e68e:	mov	byte ptr [rbp + rbx], 0
0x40e693:	mov	eax, ebx
0x40e695:	pop	rbx
0x40e696:	pop	rbp
0x40e697:	pop	r12
0x40e699:	ret	
F 0x412ed5
0x412ed5:	nop	dword ptr [rax]
0x412ed8:	mov	qword ptr [rip + 0x304ad], 0x3333
0x412ee3:	xor	eax, eax
0x412ee5:	ret	
F 0x40e14d
0x40d7ba:	add	rsp, 0x18
0x40d7be:	ret	
F 0x40d8b0
0x40a016:	ret	
F 0x40cf29
0x40cc59:	cmovb	eax, edx
0x40cc5c:	ret	
F 0x41132f
0x4112b4:	add	eax, dword ptr [rax]
0x4112b6:	ret	
F 0x40dcc6
0x40dcc6:	add	r8b, byte ptr [r8]
0x40dcc9:	mov	eax, 2
0x40dcce:	mov	word ptr [rdi], si
0x40dcd1:	ret	
F 0x413d8b
0x40aa9a:	pop	r14
0x40aa9c:	pop	r15
0x40aa9e:	ret	
F 0x40d15b
0x40cccd:	add	byte ptr [rdx - 1], bh
0x40ccd3:	setg	al
0x40ccd6:	movzx	eax, al
0x40ccd9:	cmovl	eax, edx
0x40ccdc:	ret	
F 0x40d209
0x40d0b9:	add	eax, dword ptr [rax]
0x40d0bb:	add	byte ptr [rdx - 1], bh
0x40d0c1:	setg	al
0x40d0c4:	movzx	eax, al
0x40d0c7:	cmovl	eax, edx
0x40d0ca:	ret	
F 0x40cf01
0x40cf01:	mov	eax, dword ptr [rdi + 0x1a8]
0x40cf07:	sub	eax, dword ptr [rsi + 0x1a8]
0x40cf0d:	ret	
F 0x40d107
0x40ccd9:	cmovl	eax, edx
0x40ccdc:	ret	
F 0x41126c
0x41126c:	mov	dword ptr [rbp], eax
0x41126f:	jmp	0x41123c
F 0x40de60
0x40de60:	cld	
0x40de61:	sar	edi, 0xff
0x40de64:	add	rsp, 0x18
0x40de68:	ret	
F 0x40d19c
0x40ccce:	mov	edx, 0xffffffff
0x40ccd3:	setg	al
0x40ccd6:	movzx	eax, al
0x40ccd9:	cmovl	eax, edx
0x40ccdc:	ret	
F 0x41394e
0x40bd50:	pop	rbx
0x40bd51:	pop	rbp
0x40bd52:	pop	r12
0x40bd54:	ret	
F 0x40cd96
0x40ccd6:	movzx	eax, al
0x40ccd9:	cmovl	eax, edx
0x40ccdc:	ret	
F 0x40ddf4
0x40d7ba:	add	rsp, 0x18
0x40d7be:	ret	
F 0x40f59a
0x40f59a:	add	byte ptr [rax], al
0x40f59c:	add	rsp, 0x18
0x40f5a0:	pop	rbx
0x40f5a1:	pop	rbp
0x40f5a2:	pop	r12
0x40f5a4:	pop	r13
0x40f5a6:	ret	
F 0x40f8d5
0x40f8d5:	mov	word ptr [rdi], ax
0x40f8d8:	mov	eax, 1
0x40f8dd:	pop	rbx
0x40f8de:	pop	rbp
0x40f8df:	pop	r12
0x40f8e1:	ret	
F 0x413691
0x413691:	add	rsp, 0x138
0x413698:	xor	eax, eax
0x41369a:	pop	rbx
0x41369b:	pop	rbp
0x41369c:	ret	
F 0x40dc44
0x40dc44:	add	byte ptr [rax], al
0x40dc46:	mov	word ptr [rdi], dx
0x40dc49:	ret	
F 0x40d03a
0x40d03a:	rol	byte ptr [rax], 0
0x40d03d:	add	byte ptr [rdx - 1], bh
0x40d043:	seta	al
0x40d046:	movzx	eax, al
0x40d049:	cmovb	eax, edx
0x40d04c:	ret	
F 0x40d228
0x40d228:	mov	word ptr [rbx], es
0x40d22a:	add	byte ptr [rax], al
0x40d22c:	ret	
F 0x40cffb
0x40cfdb:	add	byte ptr [rax], al
0x40cfdd:	add	byte ptr [rdx - 1], bh
0x40cfe3:	seta	al
0x40cfe6:	movzx	eax, al
0x40cfe9:	cmovb	eax, edx
0x40cfec:	ret	
F 0x40dc27
0x40dc27:	add	al, byte ptr [rax]
0x40dc29:	mov	eax, 2
0x40dc2e:	mov	word ptr [rdi], cx
0x40dc31:	ret	
F 0x40b8e3
0x40aa9d:	pop	rdi
0x40aa9e:	ret	
F 0x40ccac
0x40a016:	ret	
F 0x415b92
0x40a016:	ret	
F 0x415c89
0x40aa9b:	pop	rsi
0x40aa9c:	pop	r15
0x40aa9e:	ret	
F 0x40d285
0x40cc59:	cmovb	eax, edx
0x40cc5c:	ret	
F 0x40cd4b
0x40cd2b:	add	dword ptr [rax], eax
0x40cd2d:	add	byte ptr [rdx - 1], bh
0x40cd33:	setg	al
0x40cd36:	movzx	eax, al
0x40cd39:	cmovl	eax, edx
0x40cd3c:	ret	
F 0x40d3a6
0x40cc56:	movzx	eax, al
0x40cc59:	cmovb	eax, edx
0x40cc5c:	ret	
F 0x40cc9e
0x40cc9e:	nop	
0x40cca0:	mov	eax, dword ptr [rdi + 0x360]
0x40cca6:	sub	eax, dword ptr [rsi + 0x360]
0x40ccac:	ret	
F 0x40e806
0x40bd51:	pop	rbp
0x40bd52:	pop	r12
0x40bd54:	ret	
F 0x40dc2f
0x40dc2f:	mov	dword ptr [rdi], ecx
0x40dc31:	ret	
F 0x40dcaa
0x40dcaa:	add	bl, al
0x40dcac:	nop	dword ptr [rax]
0x40dcb0:	mov	dword ptr [rdi], 0x4e4c44
0x40dcb6:	mov	eax, 3
0x40dcbb:	ret	
F 0x40d1ed
0x40d1ed:	nop	dword ptr [rax]
0x40d1f0:	mov	eax, dword ptr [rdi + 0x35c]
0x40d1f6:	sub	eax, dword ptr [rsi + 0x35c]
0x40d1fc:	ret	
F 0x40dcf6
0x40dc10:	mov	dword ptr [rdi], eax
0x40dc12:	mov	eax, 1
0x40dc17:	ret	
F 0x40cf46
0x40cc56:	movzx	eax, al
0x40cc59:	cmovb	eax, edx
0x40cc5c:	ret	
F 0x40edc2
0x40ea80:	pop	rbx
0x40ea81:	pop	rbp
0x40ea82:	ret	
F 0x40d485
0x40a016:	ret	
F 0x40b708
0x40a016:	ret	
F 0x40d1aa
0x40a016:	ret	
F 0x40ced7
0x40cc57:	mov	dh, 0xc0
0x40cc59:	cmovb	eax, edx
0x40cc5c:	ret	
F 0x40edbf
0x40edbf:	add	byte ptr [rax], al
0x40edc1:	add	byte ptr [rbx + 0x5d], bl
0x40edc4:	ret	
F 0x40d35c
0x40cc4c:	add	byte ptr [rax], al
0x40cc4e:	mov	edx, 0xffffffff
0x40cc53:	seta	al
0x40cc56:	movzx	eax, al
0x40cc59:	cmovb	eax, edx
0x40cc5c:	ret	
F 0x40d003
0x40cc53:	seta	al
0x40cc56:	movzx	eax, al
0x40cc59:	cmovb	eax, edx
0x40cc5c:	ret	
F 0x413fd2
0x410d00:	add	byte ptr [rax], al
0x410d02:	pop	rbx
0x410d03:	pop	rbp
0x410d04:	pop	r12
0x410d06:	pop	r13
0x410d08:	ret	
F 0x40cd17
0x40ccd7:	mov	dh, 0xc0
0x40ccd9:	cmovl	eax, edx
0x40ccdc:	ret	
F 0x41558f
0x41558f:	add	bh, al
0x415591:	add	eax, 0x2de6e
0x415596:	add	dword ptr [rax], eax
0x415598:	add	byte ptr [rax], al
0x41559a:	ret	
F 0x40fe77
0x40ea77:	add	byte ptr [rax], al
0x40ea79:	add	byte ptr [rbp + 0x47], dh
0x40ea7c:	add	rsp, 0x18
0x40ea80:	pop	rbx
0x40ea81:	pop	rbp
0x40ea82:	ret	
F 0x410ad0
0x40b19f:	pop	rbp
0x40b1a0:	ret	
F 0x40cf07
0x40cf07:	sub	eax, dword ptr [rsi + 0x1a8]
0x40cf0d:	ret	
F 0x415adc
0x40f003:	add	rsp, 0x40
0x40f007:	pop	rbx
0x40f008:	pop	rbp
0x40f009:	pop	r12
0x40f00b:	ret	
F 0x413d7c
0x413d7c:	add	byte ptr [rax], al
0x413d7e:	add	rsp, 0x28
0x413d82:	mov	rax, r14
0x413d85:	pop	rbx
0x413d86:	pop	rbp
0x413d87:	pop	r12
0x413d89:	pop	r13
0x413d8b:	pop	r14
0x413d8d:	pop	r15
0x413d8f:	ret	
F 0x40d1f0
0x40d1f0:	mov	eax, dword ptr [rdi + 0x35c]
0x40d1f6:	sub	eax, dword ptr [rsi + 0x35c]
0x40d1fc:	ret	
F 0x40dc0f
0x40dc0f:	mov	word ptr [rdi], ax
0x40dc12:	mov	eax, 1
0x40dc17:	ret	
F 0x41557b
0x4142e0:	ret	0x8548
F 0x40e9a6
0x40cc2e:	add	byte ptr [rax], al
0x40cc30:	xor	eax, eax
0x40cc32:	ret	
F 0x410baf
0x410baf:	test	al, 7
0x410bb1:	mov	eax, ecx
0x410bb3:	cmovne	eax, edx
0x410bb6:	mov	dword ptr [rip + 0x11460], eax
0x410bbc:	xor	eax, eax
0x410bbe:	ret	
F 0x40cc4a
0x40cc4a:	mov	byte ptr [rcx], al
0x40cc4c:	add	byte ptr [rax], al
0x40cc4e:	mov	edx, 0xffffffff
0x40cc53:	seta	al
0x40cc56:	movzx	eax, al
0x40cc59:	cmovb	eax, edx
0x40cc5c:	ret	
F 0x40cecc
0x40cc4c:	add	byte ptr [rax], al
0x40cc4e:	mov	edx, 0xffffffff
0x40cc53:	seta	al
0x40cc56:	movzx	eax, al
0x40cc59:	cmovb	eax, edx
0x40cc5c:	ret	
F 0x41478b
0x41478b:	ret	0x3fe8
F 0x410f7c
0x40b19f:	pop	rbp
0x40b1a0:	ret	
F 0x40dc89
0x40dc89:	add	byte ptr [rax], al
0x40dc8b:	mov	word ptr [rdi], r8w
0x40dc8f:	ret	
F 0x413fd9
0x40b19f:	pop	rbp
0x40b1a0:	ret	
F 0x40e6c8
0x40e6c8:	mov	edx, 0x2d
0x40e6cd:	mov	eax, 1
0x40e6d2:	mov	word ptr [rdi], dx
0x40e6d5:	pop	rbx
0x40e6d6:	pop	rbp
0x40e6d7:	pop	r12
0x40e6d9:	ret	
F 0x40cd99
0x40ccd9:	cmovl	eax, edx
0x40ccdc:	ret	
F 0x40d1a5
0x40ccd7:	mov	dh, 0xc0
0x40ccd9:	cmovl	eax, edx
0x40ccdc:	ret	
F 0x413806
0x40aa98:	pop	r13
0x40aa9a:	pop	r14
0x40aa9c:	pop	r15
0x40aa9e:	ret	
F 0x410fb2
0x410fb2:	ret	0x110
F 0x413947
0x413947:	mov	qword ptr [rdx], rax
0x41394a:	mov	qword ptr [rbx + 8], rbp
0x41394e:	pop	rbx
0x41394f:	pop	rbp
0x413950:	pop	r12
0x413952:	ret	
F 0x40f18b
0x40f18b:	ret	0
F 0x40bd4c
0x40bd4c:	add	rsp, 0x20
0x40bd50:	pop	rbx
0x40bd51:	pop	rbp
0x40bd52:	pop	r12
0x40bd54:	ret	
F 0x40b5a5
0x40b5a5:	pop	rbp
0x40b5a6:	pop	r12
0x40b5a8:	pop	r13
0x40b5aa:	pop	r14
0x40b5ac:	ret	
F 0x410b47
0x410b47:	add	byte ptr [rax], al
0x410b49:	mov	dword ptr [rip + 0x32811], eax
0x410b4f:	add	rsp, 8
0x410b53:	pop	rbx
0x410b54:	pop	rbp
0x410b55:	ret	
F 0x40ceb6
0x40cc56:	movzx	eax, al
0x40cc59:	cmovb	eax, edx
0x40cc5c:	ret	
F 0x40e9a5
0x40e9a5:	add	byte ptr [rax], r8b
0x40e9a8:	xor	eax, eax
0x40e9aa:	ret	
F 0x40f8c2
0x40e690:	sbb	eax, 0xd8890000
0x40e695:	pop	rbx
0x40e696:	pop	rbp
0x40e697:	pop	r12
0x40e699:	ret	
F 0x411cf6
0x411cf6:	add	byte ptr [rcx], ch
0x411cf8:	ret	
F 0x40b19a
0x40b19a:	test	eax, 0x100016f
0x40b19f:	pop	rbp
0x40b1a0:	ret	
F 0x40d17c
0x40ccce:	mov	edx, 0xffffffff
0x40ccd3:	setg	al
0x40ccd6:	movzx	eax, al
0x40ccd9:	cmovl	eax, edx
0x40ccdc:	ret	
F 0x415b8b
0x415b8b:	sal	bh, 0xd8
0x415b8e:	pop	rbx
0x415b8f:	pop	rbp
0x415b90:	pop	r12
0x415b92:	ret	
F 0x40bd54
0x40a016:	ret	
F 0x415591
0x415591:	add	eax, 0x2de6e
0x415596:	add	dword ptr [rax], eax
0x415598:	add	byte ptr [rax], al
0x41559a:	ret	
F 0x40e690
0x40e690:	sbb	eax, 0xd8890000
0x40e695:	pop	rbx
0x40e696:	pop	rbp
0x40e697:	pop	r12
0x40e699:	ret	
F 0x414091
0x40aa98:	pop	r13
0x40aa9a:	pop	r14
0x40aa9c:	pop	r15
0x40aa9e:	ret	
F 0x40d3bd
0x40d3bd:	add	byte ptr [rax - 0x77], cl
0x40d3c0:	ret	0x8b48
F 0x40cfdb
0x40cfdb:	add	byte ptr [rax], al
0x40cfdd:	add	byte ptr [rdx - 1], bh
0x40cfe3:	seta	al
0x40cfe6:	movzx	eax, al
0x40cfe9:	cmovb	eax, edx
0x40cfec:	ret	
F 0x40d862
0x40d6f2:	ret	0x8948
F 0x4104ea
0x40aa9b:	pop	rsi
0x40aa9c:	pop	r15
0x40aa9e:	ret	
F 0x40d303
0x40cc53:	seta	al
0x40cc56:	movzx	eax, al
0x40cc59:	cmovb	eax, edx
0x40cc5c:	ret	
F 0x40dce9
0x40dce9:	mov	dword ptr [rdi], ebx
0x40dceb:	ret	
F 0x40ce4e
0x40cc4e:	mov	edx, 0xffffffff
0x40cc53:	seta	al
0x40cc56:	movzx	eax, al
0x40cc59:	cmovb	eax, edx
0x40cc5c:	ret	
F 0x4145b6
0x4145b6:	add	eax, 0x2ee31
0x4145bb:	add	byte ptr [rax], al
0x4145bd:	add	byte ptr [rax], al
0x4145bf:	ret	
F 0x413fd5
0x40ed04:	pop	rbp
0x40ed05:	pop	r12
0x40ed07:	pop	r13
0x40ed09:	ret	
F 0x40ff60
0x40ea80:	pop	rbx
0x40ea81:	pop	rbp
0x40ea82:	ret	
F 0x40acf6
0x40acf6:	add	byte ptr [rax - 0x77], cl
0x40acf9:	ret	
F 0x40b480
0x40aa9a:	pop	r14
0x40aa9c:	pop	r15
0x40aa9e:	ret	
F 0x40ccbb
0x40b126:	add	byte ptr [rax], al
0x40b128:	ret	
F 0x411ddf
0x411ddf:	add	rsp, 0x18
0x411de3:	pop	rbx
0x411de4:	pop	rbp
0x411de5:	pop	r12
0x411de7:	pop	r13
0x411de9:	pop	r14
0x411deb:	pop	r15
0x411ded:	ret	
F 0x4135b3
0x4135b3:	mov	dword ptr [rax], 0
0x4135b9:	add	rsp, 8
0x4135bd:	mov	rax, r12
0x4135c0:	pop	rbx
0x4135c1:	pop	r12
0x4135c3:	ret	
F 0x4112ba
0x40cc2a:	test	byte ptr [rax], al
0x40cc2c:	add	byte ptr [rax], al
0x40cc2e:	add	byte ptr [rax], al
0x40cc30:	xor	eax, eax
0x40cc32:	ret	
F 0x40fc31
0x40dc0b:	sub	eax, 0x66000000
0x40dc10:	mov	dword ptr [rdi], eax
0x40dc12:	mov	eax, 1
0x40dc17:	ret	
F 0x413d81
0x413d81:	sub	byte ptr [rcx + rcx*4 - 0x10], cl
0x413d85:	pop	rbx
0x413d86:	pop	rbp
0x413d87:	pop	r12
0x413d89:	pop	r13
0x413d8b:	pop	r14
0x413d8d:	pop	r15
0x413d8f:	ret	
F 0x40cfbd
0x40cc53:	seta	al
0x40cc56:	movzx	eax, al
0x40cc59:	cmovb	eax, edx
0x40cc5c:	ret	
F 0x412a97
0x40acf6:	add	byte ptr [rax - 0x77], cl
0x40acf9:	ret	
F 0x40ce13
0x40cc53:	seta	al
0x40cc56:	movzx	eax, al
0x40cc59:	cmovb	eax, edx
0x40cc5c:	ret	
F 0x40ea7c
0x40ea7c:	add	rsp, 0x18
0x40ea80:	pop	rbx
0x40ea81:	pop	rbp
0x40ea82:	ret	
F 0x40f977
0x40f977:	mov	eax, 5
0x40f97c:	ret	
F 0x40f96d
0x40f96d:	mov	dword ptr [rdi], 0x20202020
0x40f973:	mov	word ptr [rdi + 4], dx
0x40f977:	mov	eax, 5
0x40f97c:	ret	
F 0x4130ca
0x40a016:	ret	
F 0x4104e8
0x40aa99:	pop	rbp
0x40aa9a:	pop	r14
0x40aa9c:	pop	r15
0x40aa9e:	ret	
F 0x41045b
0x40aa94:	pop	rbx
0x40aa95:	pop	rbp
0x40aa96:	pop	r12
0x40aa98:	pop	r13
0x40aa9a:	pop	r14
0x40aa9c:	pop	r15
0x40aa9e:	ret	
F 0x4104e3
0x40aa94:	pop	rbx
0x40aa95:	pop	rbp
0x40aa96:	pop	r12
0x40aa98:	pop	r13
0x40aa9a:	pop	r14
0x40aa9c:	pop	r15
0x40aa9e:	ret	
F 0x413d85
0x40aa94:	pop	rbx
0x40aa95:	pop	rbp
0x40aa96:	pop	r12
0x40aa98:	pop	r13
0x40aa9a:	pop	r14
0x40aa9c:	pop	r15
0x40aa9e:	ret	
F 0x40d366
0x40cc56:	movzx	eax, al
0x40cc59:	cmovb	eax, edx
0x40cc5c:	ret	
F 0x40ea77
0x40ea77:	add	byte ptr [rax], al
0x40ea79:	add	byte ptr [rbp + 0x47], dh
0x40ea7c:	add	rsp, 0x18
0x40ea80:	pop	rbx
0x40ea81:	pop	rbp
0x40ea82:	ret	
F 0x40dcd8
0x40dcd8:	mov	r11d, 0x5354
0x40dcde:	mov	byte ptr [rdi + 2], 0
0x40dce2:	mov	eax, 2
0x40dce7:	mov	word ptr [rdi], r11w
0x40dceb:	ret	
F 0x40cca6
0x40cca6:	sub	eax, dword ptr [rsi + 0x360]
0x40ccac:	ret	
F 0x40c56d
0x40a016:	ret	
F 0x40ceeb
0x40cc4b:	add	dword ptr [rax], eax
0x40cc4d:	add	byte ptr [rdx - 1], bh
0x40cc53:	seta	al
0x40cc56:	movzx	eax, al
0x40cc59:	cmovb	eax, edx
0x40cc5c:	ret	
F 0x414536
0x414536:	add	rsp, 0x20
0x41453a:	mov	eax, r8d
0x41453d:	pop	rbx
0x41453e:	pop	rbp
0x41453f:	pop	r12
0x414541:	ret	
F 0x40cf96
0x40cf96:	and	byte ptr [r10 - 1], r15b
0x40cf9d:	seta	al
0x40cfa0:	movzx	eax, al
0x40cfa3:	cmovb	eax, edx
0x40cfa6:	ret	
F 0x40cef3
0x40cc53:	seta	al
0x40cc56:	movzx	eax, al
0x40cc59:	cmovb	eax, edx
0x40cc5c:	ret	
F 0x414a7b
0x414a7b:	ret	0xf80
F 0x40ccf7
0x40ccd7:	mov	dh, 0xc0
0x40ccd9:	cmovl	eax, edx
0x40ccdc:	ret	
F 0x4136be
0x4136be:	ror	dword ptr [rax - 0x7d], 1
0x4136c1:	ret	
F 0x40dc93
0x40dc93:	push	rbx
0x40dc94:	add	byte ptr [r8 + 3], r15b
0x40dc9b:	ret	
F 0x413698
0x413698:	xor	eax, eax
0x41369a:	pop	rbx
0x41369b:	pop	rbp
0x41369c:	ret	
F 0x40fc78
0x40d4ca:	mov	eax, 1
0x40d4cf:	ret	
F 0x40d1f4
0x40d1f4:	add	byte ptr [rax], al
0x40d1f6:	sub	eax, dword ptr [rsi + 0x35c]
0x40d1fc:	ret	
F 0x40f0cc
0x40f0cc:	nop	dword ptr [rax]
0x40f0d0:	mov	r8d, edx
0x40f0d3:	sub	r8d, r9d
0x40f0d6:	mov	eax, r8d
0x40f0d9:	ret	
F 0x40d15a
0x40cccc:	add	byte ptr [rax], al
0x40ccce:	mov	edx, 0xffffffff
0x40ccd3:	setg	al
0x40ccd6:	movzx	eax, al
0x40ccd9:	cmovl	eax, edx
0x40ccdc:	ret	
F 0x40f97c
0x40a016:	ret	
F 0x40dc31
0x40a016:	ret	
F 0x40d0ea
0x40a016:	ret	
F 0x41132c
0x41132c:	adc	eax, 0x32047
0x411331:	ret	
F 0x40fc71
0x40dc0b:	sub	eax, 0x66000000
0x40dc10:	mov	dword ptr [rdi], eax
0x40dc12:	mov	eax, 1
0x40dc17:	ret	
F 0x40f373
0x40f373:	test	dword ptr [rdi + 1], ebx
0x40f376:	add	byte ptr [rax], al
0x40f378:	add	rsp, 0x58
0x40f37c:	pop	rbx
0x40f37d:	pop	rbp
0x40f37e:	pop	r12
0x40f380:	pop	r13
0x40f382:	ret	
F 0x40f749
0x40ed04:	pop	rbp
0x40ed05:	pop	r12
0x40ed07:	pop	r13
0x40ed09:	ret	
F 0x40f486
0x40acf6:	add	byte ptr [rax - 0x77], cl
0x40acf9:	ret	
F 0x40e601
0x40e512:	ret	0xf48
F 0x40f00b
0x40a016:	ret	
F 0x40f8c9
0x40bd52:	pop	r12
0x40bd54:	ret	
F 0x41126f
0x41126f:	jmp	0x41123c
F 0x40b5ab
0x40b5ab:	pop	rsi
0x40b5ac:	ret	
F 0x40edbe
0x40edbe:	or	byte ptr [rax], al
0x40edc0:	add	byte ptr [rax], al
0x40edc2:	pop	rbx
0x40edc3:	pop	rbp
0x40edc4:	ret	
F 0x41139c
0x41139c:	add	byte ptr [rax], al
0x41139e:	add	byte ptr [rax - 0x77], cl
0x4113a1:	ret	0x8948
F 0x410bae
0x410bae:	test	al, 7
0x410bb1:	mov	eax, ecx
0x410bb3:	cmovne	eax, edx
0x410bb6:	mov	dword ptr [rip + 0x11460], eax
0x410bbc:	xor	eax, eax
0x410bbe:	ret	
F 0x40fd9c
0x40ea7c:	add	rsp, 0x18
0x40ea80:	pop	rbx
0x40ea81:	pop	rbp
0x40ea82:	ret	
F 0x40d9e0
0x40b5a9:	pop	rbp
0x40b5aa:	pop	r14
0x40b5ac:	ret	
F 0x4130c6
0x40aa9a:	pop	r14
0x40aa9c:	pop	r15
0x40aa9e:	ret	
F 0x411328
0x411328:	add	byte ptr [rbx + rdi*4 - 0x77], dh
0x41132c:	adc	eax, 0x32047
0x411331:	ret	
F 0x40d1e0
0x40d1e0:	mov	eax, dword ptr [rdi + 0x358]
0x40d1e6:	sub	eax, dword ptr [rsi + 0x358]
0x40d1ec:	ret	
F 0x40cecb
0x40cc4b:	add	dword ptr [rax], eax
0x40cc4d:	add	byte ptr [rdx - 1], bh
0x40cc53:	seta	al
0x40cc56:	movzx	eax, al
0x40cc59:	cmovb	eax, edx
0x40cc5c:	ret	
F 0x40d643
0x40a016:	ret	
F 0x4110bb
0x4110bb:	xor	eax, eax
0x4110bd:	add	rsp, 8
0x4110c1:	ret	
F 0x414089
0x414089:	sbb	byte ptr [rcx + rcx*4 - 0x20], cl
0x41408d:	pop	rbx
0x41408e:	pop	rbp
0x41408f:	pop	r12
0x414091:	pop	r13
0x414093:	pop	r14
0x414095:	pop	r15
0x414097:	ret	
F 0x40d1c5
0x40d1c5:	nop	word ptr cs:[rax + rax]
0x40d1d0:	mov	eax, dword ptr [rdi + 4]
0x40d1d3:	sub	eax, dword ptr [rsi + 4]
0x40d1d6:	ret	
F 0x40d3d2
0x40cc4e:	mov	edx, 0xffffffff
0x40cc53:	seta	al
0x40cc56:	movzx	eax, al
0x40cc59:	cmovb	eax, edx
0x40cc5c:	ret	
F 0x40d306
0x40cc56:	movzx	eax, al
0x40cc59:	cmovb	eax, edx
0x40cc5c:	ret	
F 0x40d059
0x40d059:	xchg	eax, ecx
0x40d05b:	add	byte ptr [rax], al
0x40d05d:	add	byte ptr [rdx - 1], bh
0x40d063:	seta	al
0x40d066:	movzx	eax, al
0x40d069:	cmovb	eax, edx
0x40d06c:	ret	
F 0x4104e5
0x40aa96:	pop	r12
0x40aa98:	pop	r13
0x40aa9a:	pop	r14
0x40aa9c:	pop	r15
0x40aa9e:	ret	
F 0x40d167
0x40ccd9:	cmovl	eax, edx
0x40ccdc:	ret	
F 0x40d104
0x40ccd6:	movzx	eax, al
0x40ccd9:	cmovl	eax, edx
0x40ccdc:	ret	
F 0x40cc75
0x40cc75:	cmp	dword ptr [rdi + 0x30], eax
0x40cc78:	mov	edx, 0xffffffff
0x40cc7d:	seta	al
0x40cc80:	movzx	eax, al
0x40cc83:	cmovb	eax, edx
0x40cc86:	ret	
F 0x40d22c
0x40a016:	ret	
F 0x40f317
0x40a016:	ret	
F 0x40ddef
0x40dd6f:	mov	eax, 0x10
0x40dd74:	add	rsp, 0x18
0x40dd78:	ret	
F 0x415c7e
0x415c7e:	add	rsp, 8
0x415c82:	pop	rbx
0x415c83:	pop	rbp
0x415c84:	pop	r12
0x415c86:	pop	r13
0x415c88:	pop	r14
0x415c8a:	pop	r15
0x415c8c:	ret	
F 0x40cfa1
0x40cc57:	mov	dh, 0xc0
0x40cc59:	cmovb	eax, edx
0x40cc5c:	ret	
F 0x414094
0x40aa9b:	pop	rsi
0x40aa9c:	pop	r15
0x40aa9e:	ret	
F 0x40b33f
0x40a016:	ret	
F 0x40f8bf
0x40e68d:	inc	esi
0x40e68f:	sbb	eax, 0xd8890000
0x40e695:	pop	rbx
0x40e696:	pop	rbp
0x40e697:	pop	r12
0x40e699:	ret	
F 0x40b483
0x40aa9d:	pop	rdi
0x40aa9e:	ret	
F 0x410201
0x40b19f:	pop	rbp
0x40b1a0:	ret	
F 0x40e800
0x40e800:	mov	eax, 0x595affff
0x40e805:	pop	rbx
0x40e806:	pop	rbp
0x40e807:	pop	r12
0x40e809:	ret	
F 0x410389
0x40bd50:	pop	rbx
0x40bd51:	pop	rbp
0x40bd52:	pop	r12
0x40bd54:	ret	
F 0x40d240
0x40d240:	movsx	eax, byte ptr [rdi + 0x1c]
0x40d244:	movsx	edx, byte ptr [rsi + 0x1c]
0x40d248:	sub	eax, edx
0x40d24a:	ret	
F 0x4130c9
0x40aa9d:	pop	rdi
0x40aa9e:	ret	
F 0x40de5e
0x40de5e:	shr	al, 0xfc
0x40de61:	sar	edi, 0xff
0x40de64:	add	rsp, 0x18
0x40de68:	ret	
F 0x40b168
0x40a016:	ret	
F 0x40ce7c
0x40a016:	ret	
F 0x40bab6
0x40a016:	ret	
F 0x40cf5c
0x40cc4c:	add	byte ptr [rax], al
0x40cc4e:	mov	edx, 0xffffffff
0x40cc53:	seta	al
0x40cc56:	movzx	eax, al
0x40cc59:	cmovb	eax, edx
0x40cc5c:	ret	
F 0x40f1c4
0x40eb17:	add	byte ptr [rax], al
0x40eb19:	add	byte ptr [rbp + 5], dh
0x40eb1c:	add	rsp, 0x18
0x40eb20:	ret	
F 0x4102d9
0x40ea79:	add	byte ptr [rbp + 0x47], dh
0x40ea7c:	add	rsp, 0x18
0x40ea80:	pop	rbx
0x40ea81:	pop	rbp
0x40ea82:	ret	
F 0x4108dd
0x40b479:	sub	byte ptr [rbx + 0x5d], bl
0x40b47c:	pop	r12
0x40b47e:	pop	r13
0x40b480:	pop	r14
0x40b482:	pop	r15
0x40b484:	ret	
F 0x4108e3
0x40aa99:	pop	rbp
0x40aa9a:	pop	r14
0x40aa9c:	pop	r15
0x40aa9e:	ret	
F 0x40aa8b
0x40aa8b:	add	rsp, 0x118
0x40aa92:	xor	eax, eax
0x40aa94:	pop	rbx
0x40aa95:	pop	rbp
0x40aa96:	pop	r12
0x40aa98:	pop	r13
0x40aa9a:	pop	r14
0x40aa9c:	pop	r15
0x40aa9e:	ret	
F 0x40dd78
0x40a016:	ret	
F 0x40cc95
0x40cc95:	add	byte ptr [rax], al
0x40cc97:	sub	eax, dword ptr [rsi + 0xd8]
0x40cc9d:	ret	
F 0x410bdf
0x410bdf:	add	bh, al
0x410be1:	add	eax, 0x11432
0x410be6:	add	byte ptr [rcx], al
0x410be8:	add	byte ptr [rax], al
0x410bea:	xor	eax, eax
0x410bec:	ret	
F 0x40d4fa
0x40d4fa:	add	dword ptr [rax], eax
0x40d4fc:	add	byte ptr [rax], al
0x40d4fe:	add	rsp, 8
0x40d502:	ret	
F 0x40cc67
0x40cc67:	sub	eax, dword ptr [rsi + 0x190]
0x40cc6d:	ret	
F 0x4135c1
0x40bd52:	pop	r12
0x40bd54:	ret	
F 0x413e9f
0x413e9f:	add	byte ptr [rax], al
0x413ea1:	jmp	0x413d7e
F 0x40f8b3
0x40a016:	ret	
F 0x41408e
0x40aa95:	pop	rbp
0x40aa96:	pop	r12
0x40aa98:	pop	r13
0x40aa9a:	pop	r14
0x40aa9c:	pop	r15
0x40aa9e:	ret	
F 0x41453d
0x40bd50:	pop	rbx
0x40bd51:	pop	rbp
0x40bd52:	pop	r12
0x40bd54:	ret	
F 0x40bd50
0x40bd50:	pop	rbx
0x40bd51:	pop	rbp
0x40bd52:	pop	r12
0x40bd54:	ret	
F 0x415588
0x415588:	nop	dword ptr [rax + rax]
0x415590:	mov	dword ptr [rip + 0x2de6e], 1
0x41559a:	ret	
F 0x4109f7
0x40a016:	ret	
F 0x411de7
0x40aa98:	pop	r13
0x40aa9a:	pop	r14
0x40aa9c:	pop	r15
0x40aa9e:	ret	
F 0x40f5a1
0x40ed04:	pop	rbp
0x40ed05:	pop	r12
0x40ed07:	pop	r13
0x40ed09:	ret	
F 0x40edbd
0x40edbd:	mov	eax, 8
0x40edc2:	pop	rbx
0x40edc3:	pop	rbp
0x40edc4:	ret	
F 0x410bde
0x410bde:	add	byte ptr [rax], al
0x410be0:	mov	dword ptr [rip + 0x11432], 0x100
0x410bea:	xor	eax, eax
0x410bec:	ret	
F 0x4112b5
0x4112b5:	add	bl, al
0x4112b7:	nop	word ptr [rax + rax]
0x4112c0:	xor	eax, eax
0x4112c2:	ret	
F 0x412454
0x40a016:	ret	
F 0x4112b1
0x4112b1:	adc	eax, 0x320c2
0x4112b6:	ret	
F 0x40ce36
0x40cc56:	movzx	eax, al
0x40cc59:	cmovb	eax, edx
0x40cc5c:	ret	
F 0x40cfb8
0x40cc4e:	mov	edx, 0xffffffff
0x40cc53:	seta	al
0x40cc56:	movzx	eax, al
0x40cc59:	cmovb	eax, edx
0x40cc5c:	ret	
F 0x41126b
0x41126b:	mov	qword ptr [rbp], rax
0x41126f:	jmp	0x41123c
F 0x41123c
0x41123c:	add	rsp, 0x18
0x411240:	mov	rax, r8
0x411243:	pop	rbx
0x411244:	pop	rbp
0x411245:	pop	r12
0x411247:	pop	r13
0x411249:	pop	r14
0x41124b:	pop	r15
0x41124d:	ret	
F 0x40d473
0x40d473:	add	eax, 1
0x40d476:	mov	byte ptr [rax], 0x2b
0x40d479:	movsxd	rax, r8d
0x40d47c:	add	rax, rdi
0x40d47f:	mov	byte ptr [rax], 0
0x40d482:	mov	eax, r8d
0x40d485:	ret	
F 0x40f649
0x40f649:	ret	0x3948
F 0x4112b8
0x40cc28:	nop	dword ptr [rax + rax]
0x40cc30:	xor	eax, eax
0x40cc32:	ret	
F 0x40fc35
0x40dc0f:	mov	word ptr [rdi], ax
0x40dc12:	mov	eax, 1
0x40dc17:	ret	
F 0x415bef
0x40a016:	ret	
F 0x40cd0a
0x40cd0a:	clc	
0x40cd0b:	add	byte ptr [rax], al
0x40cd0d:	add	byte ptr [rdx - 1], bh
0x40cd13:	setg	al
0x40cd16:	movzx	eax, al
0x40cd19:	cmovl	eax, edx
0x40cd1c:	ret	
F 0x40dcbe
0x40dcbe:	add	byte ptr [rsi + 0x3723], dil
0x40dcc5:	mov	byte ptr [rdi + 2], 0
0x40dcc9:	mov	eax, 2
0x40dcce:	mov	word ptr [rdi], si
0x40dcd1:	ret	
F 0x40b198
0x40b198:	mov	byte ptr [rip + 0x16fa9], 1
0x40b19f:	pop	rbp
0x40b1a0:	ret	
F 0x40dcab
0x40a016:	ret	
F 0x40acf4
0x40acf4:	mov	ch, 0
0x40acf6:	add	byte ptr [rax - 0x77], cl
0x40acf9:	ret	
F 0x40d125
0x40ccd7:	mov	dh, 0xc0
0x40ccd9:	cmovl	eax, edx
0x40ccdc:	ret	
F 0x40d047
0x40cc57:	mov	dh, 0xc0
0x40cc59:	cmovb	eax, edx
0x40cc5c:	ret	
F 0x4145ff
0x4145ff:	add	byte ptr [rdi], cl
0x414601:	test	dword ptr [rsi + 0xf], ecx
0x414604:	add	byte ptr [rax], al
0x414606:	add	rsp, 0x30
0x41460a:	pop	rbx
0x41460b:	pop	rbp
0x41460c:	pop	r12
0x41460e:	ret	
F 0x40dcb3
0x40dcb3:	add	byte ptr [rax + 3], r15b
0x40dcbb:	ret	
F 0x41369c
0x40a016:	ret	
F 0x40f86d
0x40dc0f:	mov	word ptr [rdi], ax
0x40dc12:	mov	eax, 1
0x40dc17:	ret	
F 0x40b61d
0x40b61d:	mov	ecx, eax
0x40b61f:	mov	dword ptr [rbx + 0x18], ecx
0x40b622:	mov	eax, 1
0x40b627:	pop	rbx
0x40b628:	ret	
F 0x40cf69
0x40cc59:	cmovb	eax, edx
0x40cc5c:	ret	
F 0x40b124
0x40b124:	add	byte ptr [rax], al
0x40b126:	add	byte ptr [rax], al
0x40b128:	ret	
F 0x40fbf8
0x40d4ca:	mov	eax, 1
0x40d4cf:	ret	
F 0x40cc56
0x40cc56:	movzx	eax, al
0x40cc59:	cmovb	eax, edx
0x40cc5c:	ret	
F 0x412d99
0x40ed04:	pop	rbp
0x40ed05:	pop	r12
0x40ed07:	pop	r13
0x40ed09:	ret	
F 0x40d09c
0x40cc4c:	add	byte ptr [rax], al
0x40cc4e:	mov	edx, 0xffffffff
0x40cc53:	seta	al
0x40cc56:	movzx	eax, al
0x40cc59:	cmovb	eax, edx
0x40cc5c:	ret	
F 0x4143e2
0x40d3c0:	ret	0x8b48
F 0x410be1
0x410be1:	add	eax, 0x11432
0x410be6:	add	byte ptr [rcx], al
0x410be8:	add	byte ptr [rax], al
0x410bea:	xor	eax, eax
0x410bec:	ret	
F 0x40d20b
0x40cccd:	add	byte ptr [rdx - 1], bh
0x40ccd3:	setg	al
0x40ccd6:	movzx	eax, al
0x40ccd9:	cmovl	eax, edx
0x40ccdc:	ret	
F 0x40eea0
0x40d6f2:	ret	0x8948
F 0x40ce1c
0x40a016:	ret	
F 0x410465
0x40a016:	ret	
F 0x413fa9
0x413fa9:	mov	qword ptr [r12], r13
0x413fad:	add	rsp, 8
0x413fb1:	pop	rbx
0x413fb2:	pop	rbp
0x413fb3:	pop	r12
0x413fb5:	pop	r13
0x413fb7:	ret	
F 0x40d39c
0x40cc4c:	add	byte ptr [rax], al
0x40cc4e:	mov	edx, 0xffffffff
0x40cc53:	seta	al
0x40cc56:	movzx	eax, al
0x40cc59:	cmovb	eax, edx
0x40cc5c:	ret	
F 0x412ff0
0x412ff0:	add	eax, ebp
0x412ff2:	jmp	rax
F 0x41103d
0x40a016:	ret	
F 0x40d309
0x40cc59:	cmovb	eax, edx
0x40cc5c:	ret	
F 0x40d3d7
0x40cc53:	seta	al
0x40cc56:	movzx	eax, al
0x40cc59:	cmovb	eax, edx
0x40cc5c:	ret	
F 0x40aa9b
0x40aa9b:	pop	rsi
0x40aa9c:	pop	r15
0x40aa9e:	ret	
F 0x40dcbb
0x40a016:	ret	
F 0x410459
0x410459:	mov	eax, esp
0x41045b:	pop	rbx
0x41045c:	pop	rbp
0x41045d:	pop	r12
0x41045f:	pop	r13
0x410461:	pop	r14
0x410463:	pop	r15
0x410465:	ret	
F 0x40cdea
0x40cdea:	xor	byte ptr [rcx], al
0x40cdec:	add	byte ptr [rax], al
0x40cdee:	mov	edx, 0xffffffff
0x40cdf3:	seta	al
0x40cdf6:	movzx	eax, al
0x40cdf9:	cmovb	eax, edx
0x40cdfc:	ret	
F 0x40d248
0x40d248:	sub	eax, edx
0x40d24a:	ret	
F 0x40d139
0x40d0b9:	add	eax, dword ptr [rax]
0x40d0bb:	add	byte ptr [rdx - 1], bh
0x40d0c1:	setg	al
0x40d0c4:	movzx	eax, al
0x40d0c7:	cmovl	eax, edx
0x40d0ca:	ret	
F 0x40cf7e
0x40cc4e:	mov	edx, 0xffffffff
0x40cc53:	seta	al
0x40cc56:	movzx	eax, al
0x40cc59:	cmovb	eax, edx
0x40cc5c:	ret	
F 0x415c82
0x40aa94:	pop	rbx
0x40aa95:	pop	rbp
0x40aa96:	pop	r12
0x40aa98:	pop	r13
0x40aa9a:	pop	r14
0x40aa9c:	pop	r15
0x40aa9e:	ret	
F 0x40ce0e
0x40cc4e:	mov	edx, 0xffffffff
0x40cc53:	seta	al
0x40cc56:	movzx	eax, al
0x40cc59:	cmovb	eax, edx
0x40cc5c:	ret	
F 0x40b5a0
0x40b5a0:	adc	byte ptr [rax], al
0x40b5a2:	add	al, 0
0x40b5a4:	pop	rbx
0x40b5a5:	pop	rbp
0x40b5a6:	pop	r12
0x40b5a8:	pop	r13
0x40b5aa:	pop	r14
0x40b5ac:	ret	
F 0x40d007
0x40cc57:	mov	dh, 0xc0
0x40cc59:	cmovb	eax, edx
0x40cc5c:	ret	
F 0x40ee48
0x40ee48:	sbb	byte ptr [rax + 0x18], bh
0x40ee4e:	pop	rbx
0x40ee4f:	pop	rbp
0x40ee50:	ret	
F 0x40b8db
0x40aa95:	pop	rbp
0x40aa96:	pop	r12
0x40aa98:	pop	r13
0x40aa9a:	pop	r14
0x40aa9c:	pop	r15
0x40aa9e:	ret	
F 0x40e9a8
0x40cc30:	xor	eax, eax
0x40cc32:	ret	
F 0x40d9dc
0x40d9dc:	or	byte ptr [rbx + 0x5d], bl
0x40d9df:	pop	r13
0x40d9e1:	pop	r14
0x40d9e3:	ret	
F 0x410d00
0x410d00:	add	byte ptr [rax], al
0x410d02:	pop	rbx
0x410d03:	pop	rbp
0x410d04:	pop	r12
0x410d06:	pop	r13
0x410d08:	ret	
F 0x40d636
0x40d636:	pop	rdx
0x40d637:	pop	rcx
0x40d638:	sub	rax, r12
0x40d63b:	pop	rbx
0x40d63c:	pop	rbp
0x40d63d:	pop	r12
0x40d63f:	pop	r13
0x40d641:	pop	r14
0x40d643:	ret	
F 0x40fc6b
0x40fb2b:	nop	dword ptr [rax + rax]
0x40fb30:	mov	eax, 0x2d
0x40fb35:	mov	word ptr [rdi], ax
0x40fb38:	mov	eax, 1
0x40fb3d:	ret	
F 0x40f9fb
0x40dc0f:	mov	word ptr [rdi], ax
0x40dc12:	mov	eax, 1
0x40dc17:	ret	
F 0x40d3c0
0x40d3c0:	ret	0x8b48
F 0x415c86
0x40aa98:	pop	r13
0x40aa9a:	pop	r14
0x40aa9c:	pop	r15
0x40aa9e:	ret	
F 0x40f97a
0x40b126:	add	byte ptr [rax], al
0x40b128:	ret	
F 0x40dc3d
0x40dc3d:	mov	byte ptr [rdi + 2], 0
0x40dc41:	mov	eax, 2
0x40dc46:	mov	word ptr [rdi], dx
0x40dc49:	ret	
F 0x40b166
0x40b126:	add	byte ptr [rax], al
0x40b128:	ret	
F 0x40d327
0x40cc57:	mov	dh, 0xc0
0x40cc59:	cmovb	eax, edx
0x40cc5c:	ret	
F 0x4101f9
0x40ea79:	add	byte ptr [rbp + 0x47], dh
0x40ea7c:	add	rsp, 0x18
0x40ea80:	pop	rbx
0x40ea81:	pop	rbp
0x40ea82:	ret	
F 0x41037f
0x41037f:	xor	byte ptr [rax - 0x7d], cl
0x410382:	ret	
F 0x40d743
0x40a016:	ret	
F 0x40cd5c
0x40a016:	ret	
F 0x410379
0x410379:	movabs	eax, dword ptr [0x834830538b48ffff]
0x410382:	ret	
F 0x40aa9e
0x40a016:	ret	
F 0x40eedc
0x40eedc:	add	byte ptr [rax], al
0x40eede:	add	byte ptr [rbp + 0x1a], dh
0x40eee1:	add	rsp, 0x18
0x40eee5:	mov	eax, 6
0x40eeea:	pop	rbx
0x40eeeb:	pop	rbp
0x40eeec:	ret	
F 0x40fb71
0x40dc0b:	sub	eax, 0x66000000
0x40dc10:	mov	dword ptr [rdi], eax
0x40dc12:	mov	eax, 1
0x40dc17:	ret	
F 0x413d8c
0x40aa9b:	pop	rsi
0x40aa9c:	pop	r15
0x40aa9e:	ret	
F 0x40fcc6
0x40dc10:	mov	dword ptr [rdi], eax
0x40dc12:	mov	eax, 1
0x40dc17:	ret	
F 0x40dc5e
0x40dc5e:	add	byte ptr [rsi + 0x44], ah
0x40dc61:	mov	dword ptr [rdi], edx
0x40dc63:	ret	
F 0x40dc24
0x40dc24:	add	dh, al
0x40dc26:	add	r8b, byte ptr [r8]
0x40dc29:	mov	eax, 2
0x40dc2e:	mov	word ptr [rdi], cx
0x40dc31:	ret	
F 0x40fbab
0x40fb2b:	nop	dword ptr [rax + rax]
0x40fb30:	mov	eax, 0x2d
0x40fb35:	mov	word ptr [rdi], ax
0x40fb38:	mov	eax, 1
0x40fb3d:	ret	
F 0x40cc9c
0x40cc9c:	add	bl, al
0x40cc9e:	nop	
0x40cca0:	mov	eax, dword ptr [rdi + 0x360]
0x40cca6:	sub	eax, dword ptr [rsi + 0x360]
0x40ccac:	ret	
F 0x40fa69
0x40d4cb:	add	dword ptr [rax], eax
0x40d4cd:	add	byte ptr [rax], al
0x40d4cf:	ret	
F 0x40ecff
0x40ecff:	add	rsp, 0x18
0x40ed03:	pop	rbx
0x40ed04:	pop	rbp
0x40ed05:	pop	r12
0x40ed07:	pop	r13
0x40ed09:	ret	
F 0x40f8c8
0x40bd51:	pop	rbp
0x40bd52:	pop	r12
0x40bd54:	ret	
F 0x40ed02
0x40ed02:	sbb	byte ptr [rbx + 0x5d], bl
0x40ed05:	pop	r12
0x40ed07:	pop	r13
0x40ed09:	ret	
F 0x40f1c9
0x40d7ba:	add	rsp, 0x18
0x40d7be:	ret	
F 0x413945
0x413945:	or	byte ptr [r8 - 0x77], cl
0x413949:	add	cl, byte ptr [rax - 0x77]
0x41394c:	imul	ecx, dword ptr [rax], 0x5b
0x41394f:	pop	rbp
0x413950:	pop	r12
0x413952:	ret	
F 0x40cd73
0x40ccd3:	setg	al
0x40ccd6:	movzx	eax, al
0x40ccd9:	cmovl	eax, edx
0x40ccdc:	ret	
F 0x40e51f
0x40e4e8:	ret	0x8d48
F 0x40d237
0x40d237:	nop	word ptr [rax + rax]
0x40d240:	movsx	eax, byte ptr [rdi + 0x1c]
0x40d244:	movsx	edx, byte ptr [rsi + 0x1c]
0x40d248:	sub	eax, edx
0x40d24a:	ret	
F 0x40f974
0x40f974:	mov	dword ptr [rdi + 4], edx
0x40f977:	mov	eax, 5
0x40f97c:	ret	
F 0x40e7fb
0x40e7fb:	add	byte ptr [rax], al
0x40e7fd:	add	al, ch
0x40e7ff:	pop	rbp
0x40e800:	mov	eax, 0x595affff
0x40e805:	pop	rbx
0x40e806:	pop	rbp
0x40e807:	pop	r12
0x40e809:	ret	
F 0x40dc95
0x40dc95:	add	byte ptr [rax + 3], bh
0x40dc9b:	ret	
F 0x40dc5f
0x40dc5f:	mov	word ptr [rdi], r10w
0x40dc63:	ret	
F 0x40b61f
0x40b61f:	mov	dword ptr [rbx + 0x18], ecx
0x40b622:	mov	eax, 1
0x40b627:	pop	rbx
0x40b628:	ret	
F 0x40ccb7
0x40ccb7:	sub	eax, dword ptr [rsi + 0xe0]
0x40ccbd:	ret	
F 0x410d07
0x40b19f:	pop	rbp
0x40b1a0:	ret	
F 0x40e066
0x40e066:	add	r8b, byte ptr [r8]
0x40e069:	mov	word ptr [rdi], ax
0x40e06c:	mov	eax, 2
0x40e071:	ret	
F 0x40d243
0x40d243:	sbb	al, 0xf
0x40d245:	mov	esi, 0xd0291c56
0x40d24a:	ret	
F 0x40dcdd
0x40dcdd:	add	dh, al
0x40dcdf:	add	r8b, byte ptr [r8]
0x40dce2:	mov	eax, 2
0x40dce7:	mov	word ptr [rdi], r11w
0x40dceb:	ret	
F 0x40d220
0x40d220:	mov	eax, dword ptr [rdi + 0x38c]
0x40d226:	sub	eax, dword ptr [rsi + 0x38c]
0x40d22c:	ret	
F 0x40ccad
0x40ccad:	nop	dword ptr [rax]
0x40ccb0:	mov	rax, qword ptr [rdi + 0xe0]
0x40ccb7:	sub	eax, dword ptr [rsi + 0xe0]
0x40ccbd:	ret	
F 0x40d067
0x40cc57:	mov	dh, 0xc0
0x40cc59:	cmovb	eax, edx
0x40cc5c:	ret	
F 0x4110bd
0x40a012:	add	rsp, 8
0x40a016:	ret	
F 0x412ee3
0x40cc30:	xor	eax, eax
0x40cc32:	ret	
F 0x4114ba
0x40aa96:	pop	r12
0x40aa98:	pop	r13
0x40aa9a:	pop	r14
0x40aa9c:	pop	r15
0x40aa9e:	ret	
F 0x40fe7b
0x40ea7b:	add	rsp, 0x18
0x40ea80:	pop	rbx
0x40ea81:	pop	rbp
0x40ea82:	ret	
F 0x40fbb5
0x40dc0f:	mov	word ptr [rdi], ax
0x40dc12:	mov	eax, 1
0x40dc17:	ret	
F 0x4138a8
0x40a016:	ret	
F 0x40dc75
0x40dc75:	add	byte ptr [rax], al
0x40dc77:	mov	word ptr [rdi], r9w
0x40dc7b:	ret	
F 0x40dc8b
0x40dc8b:	mov	word ptr [rdi], r8w
0x40dc8f:	ret	
F 0x415b83
0x415b83:	cmp	dword ptr [rax], 9
0x415b86:	setne	al
0x415b89:	movzx	eax, al
0x415b8c:	neg	eax
0x415b8e:	pop	rbx
0x415b8f:	pop	rbp
0x415b90:	pop	r12
0x415b92:	ret	
F 0x40d788
0x40d788:	or	byte ptr [rax + 0x29], cl
0x40d78b:	ret	0x8948
F 0x41394d
0x41394d:	or	byte ptr [rbx + 0x5d], bl
0x413950:	pop	r12
0x413952:	ret	
F 0x40cca4
0x40cca4:	add	byte ptr [rax], al
0x40cca6:	sub	eax, dword ptr [rsi + 0x360]
0x40ccac:	ret	
F 0x40cd4a
0x40cd4a:	or	byte ptr [rcx], al
0x40cd4c:	add	byte ptr [rax], al
0x40cd4e:	mov	edx, 0xffffffff
0x40cd53:	setg	al
0x40cd56:	movzx	eax, al
0x40cd59:	cmovl	eax, edx
0x40cd5c:	ret	
F 0x411266
0x411266:	sub	eax, 0x10de5
0x41126b:	mov	qword ptr [rbp], rax
0x41126f:	jmp	0x41123c
F 0x41123a
0x41123a:	add	al, 0x24
0x41123c:	add	rsp, 0x18
0x411240:	mov	rax, r8
0x411243:	pop	rbx
0x411244:	pop	rbp
0x411245:	pop	r12
0x411247:	pop	r13
0x411249:	pop	r14
0x41124b:	pop	r15
0x41124d:	ret	
F 0x40cd57
0x40ccd7:	mov	dh, 0xc0
0x40ccd9:	cmovl	eax, edx
0x40ccdc:	ret	
F 0x40f8d8
0x40f8d8:	mov	eax, 1
0x40f8dd:	pop	rbx
0x40f8de:	pop	rbp
0x40f8df:	pop	r12
0x40f8e1:	ret	
F 0x40dc29
0x40dc29:	mov	eax, 2
0x40dc2e:	mov	word ptr [rdi], cx
0x40dc31:	ret	
F 0x40dc58
0x40dc58:	add	al, byte ptr [rax]
0x40dc5a:	mov	eax, 2
0x40dc5f:	mov	word ptr [rdi], r10w
0x40dc63:	ret	
F 0x40cfec
0x40a016:	ret	
F 0x4101fc
0x40ea7c:	add	rsp, 0x18
0x40ea80:	pop	rbx
0x40ea81:	pop	rbp
0x40ea82:	ret	
F 0x40dc9c
0x40dc9c:	nop	dword ptr [rax]
0x40dca0:	mov	dword ptr [rdi], 0x4c4449
0x40dca6:	mov	eax, 3
0x40dcab:	ret	
F 0x40cf59
0x40cf59:	xchg	eax, eax
0x40cf5b:	add	dword ptr [rax], eax
0x40cf5d:	add	byte ptr [rdx - 1], bh
0x40cf63:	seta	al
0x40cf66:	movzx	eax, al
0x40cf69:	cmovb	eax, edx
0x40cf6c:	ret	
F 0x40ce0a
0x40ce0a:	cmp	byte ptr [rcx], al
0x40ce0c:	add	byte ptr [rax], al
0x40ce0e:	mov	edx, 0xffffffff
0x40ce13:	seta	al
0x40ce16:	movzx	eax, al
0x40ce19:	cmovb	eax, edx
0x40ce1c:	ret	
F 0x410ac6
0x410ac6:	add	eax, 0x32895
0x410acb:	add	rsp, 8
0x410acf:	pop	rbx
0x410ad0:	pop	rbp
0x410ad1:	ret	
F 0x40bd7f
0x40a016:	ret	
F 0x40d1fa
0x40b126:	add	byte ptr [rax], al
0x40b128:	ret	
F 0x40dc8a
0x40dc8a:	add	byte ptr [rsi + 0x44], ah
0x40dc8d:	mov	dword ptr [rdi], eax
0x40dc8f:	ret	
F 0x4130c2
0x40aa96:	pop	r12
0x40aa98:	pop	r13
0x40aa9a:	pop	r14
0x40aa9c:	pop	r15
0x40aa9e:	ret	
F 0x4145bf
0x40a016:	ret	
F 0x415ba0
0x415ba0:	dec	dword ptr [rax - 0x77]
0x415ba3:	ret	0xffb8
F 0x413d82
0x413d82:	mov	rax, r14
0x413d85:	pop	rbx
0x413d86:	pop	rbp
0x413d87:	pop	r12
0x413d89:	pop	r13
0x413d8b:	pop	r14
0x413d8d:	pop	r15
0x413d8f:	ret	
F 0x40dcdc
0x40dcdc:	add	byte ptr [rax], al
0x40dcde:	mov	byte ptr [rdi + 2], 0
0x40dce2:	mov	eax, 2
0x40dce7:	mov	word ptr [rdi], r11w
0x40dceb:	ret	
F 0x40d2fd
0x40cc4d:	add	byte ptr [rdx - 1], bh
0x40cc53:	seta	al
0x40cc56:	movzx	eax, al
0x40cc59:	cmovb	eax, edx
0x40cc5c:	ret	
F 0x40d78b
0x40d6f2:	ret	0x8948
F 0x40cf0b
0x40b126:	add	byte ptr [rax], al
0x40b128:	ret	
F 0x40aa9c
0x40aa9c:	pop	r15
0x40aa9e:	ret	
F 0x40d217
0x40ccd9:	cmovl	eax, edx
0x40ccdc:	ret	
F 0x40cdb3
0x40ccd3:	setg	al
0x40ccd6:	movzx	eax, al
0x40ccd9:	cmovl	eax, edx
0x40ccdc:	ret	
F 0x413fd3
0x410d01:	add	byte ptr [rbx + 0x5d], bl
0x410d04:	pop	r12
0x410d06:	pop	r13
0x410d08:	ret	
F 0x40fda2
0x40a016:	ret	
F 0x40eee7
0x40edbf:	add	byte ptr [rax], al
0x40edc1:	add	byte ptr [rbx + 0x5d], bl
0x40edc4:	ret	
F 0x4114bf
0x40aa9b:	pop	rsi
0x40aa9c:	pop	r15
0x40aa9e:	ret	
F 0x40dcdf
0x40dcdf:	add	r8b, byte ptr [r8]
0x40dce2:	mov	eax, 2
0x40dce7:	mov	word ptr [rdi], r11w
0x40dceb:	ret	
F 0x40cfe7
0x40cc57:	mov	dh, 0xc0
0x40cc59:	cmovb	eax, edx
0x40cc5c:	ret	
F 0x411653
0x411653:	or	byte ptr [rax - 0x7af0ffc8], al
0x411659:	ret	
F 0x40b61c
0x40b61c:	mov	rcx, rax
0x40b61f:	mov	dword ptr [rbx + 0x18], ecx
0x40b622:	mov	eax, 1
0x40b627:	pop	rbx
0x40b628:	ret	
F 0x41402c
0x40bd51:	pop	rbp
0x40bd52:	pop	r12
0x40bd54:	ret	
F 0x4103e6
0x40cc2e:	add	byte ptr [rax], al
0x40cc30:	xor	eax, eax
0x40cc32:	ret	
F 0x413fb3
0x40ed05:	pop	r12
0x40ed07:	pop	r13
0x40ed09:	ret	
F 0x40cf05
0x40cf05:	add	byte ptr [rax], al
0x40cf07:	sub	eax, dword ptr [rsi + 0x1a8]
0x40cf0d:	ret	
F 0x40cd77
0x40ccd7:	mov	dh, 0xc0
0x40ccd9:	cmovl	eax, edx
0x40ccdc:	ret	
F 0x411245
0x40aa96:	pop	r12
0x40aa98:	pop	r13
0x40aa9a:	pop	r14
0x40aa9c:	pop	r15
0x40aa9e:	ret	
F 0x40d37c
0x40cc4c:	add	byte ptr [rax], al
0x40cc4e:	mov	edx, 0xffffffff
0x40cc53:	seta	al
0x40cc56:	movzx	eax, al
0x40cc59:	cmovb	eax, edx
0x40cc5c:	ret	
F 0x40dd37
0x40a012:	add	rsp, 8
0x40a016:	ret	
F 0x414609
0x414609:	xor	byte ptr [rbx + 0x5d], bl
0x41460c:	pop	r12
0x41460e:	ret	
F 0x40d01d
0x40cc4d:	add	byte ptr [rdx - 1], bh
0x40cc53:	seta	al
0x40cc56:	movzx	eax, al
0x40cc59:	cmovb	eax, edx
0x40cc5c:	ret	
F 0x41380a
0x40aa9c:	pop	r15
0x40aa9e:	ret	
F 0x4130bf
0x4130bf:	clc	
0x4130c0:	pop	rbx
0x4130c1:	pop	rbp
0x4130c2:	pop	r12
0x4130c4:	pop	r13
0x4130c6:	pop	r14
0x4130c8:	pop	r15
0x4130ca:	ret	
F 0x40cf67
0x40cc57:	mov	dh, 0xc0
0x40cc59:	cmovb	eax, edx
0x40cc5c:	ret	
F 0x40cfc3
0x40cc59:	cmovb	eax, edx
0x40cc5c:	ret	
F 0x40dc84
0x40dc84:	add	byte ptr [rax], al
0x40dc86:	mov	eax, 1
0x40dc8b:	mov	word ptr [rdi], r8w
0x40dc8f:	ret	
F 0x40d33b
0x40d2fb:	add	eax, dword ptr [rax]
0x40d2fd:	add	byte ptr [rdx - 1], bh
0x40d303:	seta	al
0x40d306:	movzx	eax, al
0x40d309:	cmovb	eax, edx
0x40d30c:	ret	
F 0x40d9a8
0x40d9a8:	add	ecx, dword ptr [rax + 0x29]
0x40d9ab:	ret	
F 0x40fc36
0x40dc10:	mov	dword ptr [rdi], eax
0x40dc12:	mov	eax, 1
0x40dc17:	ret	
F 0x40b47f
0x40aa99:	pop	rbp
0x40aa9a:	pop	r14
0x40aa9c:	pop	r15
0x40aa9e:	ret	
F 0x40d21b
0x40d21b:	nop	dword ptr [rax + rax]
0x40d220:	mov	eax, dword ptr [rdi + 0x38c]
0x40d226:	sub	eax, dword ptr [rsi + 0x38c]
0x40d22c:	ret	
F 0x40edb4
0x40edb4:	add	byte ptr [rax], al
0x40edb6:	add	byte ptr [rbp + 0xc], dh
0x40edb9:	add	rsp, 0x18
0x40edbd:	mov	eax, 8
0x40edc2:	pop	rbx
0x40edc3:	pop	rbp
0x40edc4:	ret	
F 0x40fc70
0x40dc0a:	mov	eax, 0x2d
0x40dc0f:	mov	word ptr [rdi], ax
0x40dc12:	mov	eax, 1
0x40dc17:	ret	
F 0x411de4
0x40aa95:	pop	rbp
0x40aa96:	pop	r12
0x40aa98:	pop	r13
0x40aa9a:	pop	r14
0x40aa9c:	pop	r15
0x40aa9e:	ret	
F 0x40cfc1
0x40cc57:	mov	dh, 0xc0
0x40cc59:	cmovb	eax, edx
0x40cc5c:	ret	
F 0x40dca5
0x40dc95:	add	byte ptr [rax + 3], bh
0x40dc9b:	ret	
F 0x40d4c6
0x40d4c6:	add	dword ptr [rax], eax
0x40d4c8:	mov	byte ptr [rdi], al
0x40d4ca:	mov	eax, 1
0x40d4cf:	ret	
F 0x410cfe
0x410cfe:	test	al, 0x10
0x410d00:	add	byte ptr [rax], al
0x410d02:	pop	rbx
0x410d03:	pop	rbp
0x410d04:	pop	r12
0x410d06:	pop	r13
0x410d08:	ret	
F 0x40cf1b
0x40cc4b:	add	dword ptr [rax], eax
0x40cc4d:	add	byte ptr [rdx - 1], bh
0x40cc53:	seta	al
0x40cc56:	movzx	eax, al
0x40cc59:	cmovb	eax, edx
0x40cc5c:	ret	
F 0x4112b7
0x4112b7:	nop	word ptr [rax + rax]
0x4112c0:	xor	eax, eax
0x4112c2:	ret	
F 0x4136c1
0x40a016:	ret	
F 0x40b8da
0x40aa94:	pop	rbx
0x40aa95:	pop	rbp
0x40aa96:	pop	r12
0x40aa98:	pop	r13
0x40aa9a:	pop	r14
0x40aa9c:	pop	r15
0x40aa9e:	ret	
F 0x40ebd7
0x40eb17:	add	byte ptr [rax], al
0x40eb19:	add	byte ptr [rbp + 5], dh
0x40eb1c:	add	rsp, 0x18
0x40eb20:	ret	
F 0x40dcac
0x40dcac:	nop	dword ptr [rax]
0x40dcb0:	mov	dword ptr [rdi], 0x4e4c44
0x40dcb6:	mov	eax, 3
0x40dcbb:	ret	
F 0x40e696
0x40bd51:	pop	rbp
0x40bd52:	pop	r12
0x40bd54:	ret	
F 0x40cc73
0x40cc73:	xor	byte ptr [rax + 0x39], cl
0x40cc76:	xor	byte ptr [r10 - 1], r15b
0x40cc7d:	seta	al
0x40cc80:	movzx	eax, al
0x40cc83:	cmovb	eax, edx
0x40cc86:	ret	
F 0x415b86
0x415b86:	setne	al
0x415b89:	movzx	eax, al
0x415b8c:	neg	eax
0x415b8e:	pop	rbx
0x415b8f:	pop	rbp
0x415b90:	pop	r12
0x415b92:	ret	
F 0x40cd4d
0x40cccd:	add	byte ptr [rdx - 1], bh
0x40ccd3:	setg	al
0x40ccd6:	movzx	eax, al
0x40ccd9:	cmovl	eax, edx
0x40ccdc:	ret	
F 0x40d2d7
0x40a016:	ret	
F 0x40d083
0x40cc59:	cmovb	eax, edx
0x40cc5c:	ret	
F 0x40d076
0x40d076:	mov	edx, 0xffffffff
0x40d07d:	seta	al
0x40d080:	movzx	eax, al
0x40d083:	cmovb	eax, edx
0x40d086:	ret	
F 0x412a94
0x41244e:	add	byte ptr [rax], al
0x412451:	add	byte ptr [rax - 0x77], cl
0x412454:	ret	
F 0x410bb6
0x410bb6:	mov	dword ptr [rip + 0x11460], eax
0x410bbc:	xor	eax, eax
0x410bbe:	ret	
F 0x410bab
0x410bab:	add	al, byte ptr [rax + 0x7a840ce]
0x410bb1:	mov	eax, ecx
0x410bb3:	cmovne	eax, edx
0x410bb6:	mov	dword ptr [rip + 0x11460], eax
0x410bbc:	xor	eax, eax
0x410bbe:	ret	
F 0x40dcfb
0x40b126:	add	byte ptr [rax], al
0x40b128:	ret	
F 0x40ce6e
0x40cc4e:	mov	edx, 0xffffffff
0x40cc53:	seta	al
0x40cc56:	movzx	eax, al
0x40cc59:	cmovb	eax, edx
0x40cc5c:	ret	
F 0x40d0a3
0x40cc53:	seta	al
0x40cc56:	movzx	eax, al
0x40cc59:	cmovb	eax, edx
0x40cc5c:	ret	
F 0x40eee4
0x40eee4:	sbb	byte ptr [rax + 6], bh
0x40eeea:	pop	rbx
0x40eeeb:	pop	rbp
0x40eeec:	ret	
F 0x413bc5
0x413bc5:	ret	0x5e8
F 0x40d05b
0x40cfdb:	add	byte ptr [rax], al
0x40cfdd:	add	byte ptr [rdx - 1], bh
0x40cfe3:	seta	al
0x40cfe6:	movzx	eax, al
0x40cfe9:	cmovb	eax, edx
0x40cfec:	ret	
F 0x40b47b
0x40aa95:	pop	rbp
0x40aa96:	pop	r12
0x40aa98:	pop	r13
0x40aa9a:	pop	r14
0x40aa9c:	pop	r15
0x40aa9e:	ret	
F 0x40fb31
0x40dc0b:	sub	eax, 0x66000000
0x40dc10:	mov	dword ptr [rdi], eax
0x40dc12:	mov	eax, 1
0x40dc17:	ret	
F 0x40dd2e
0x40dd2e:	ret	
F 0x40dd32
0x40d4f9:	mov	eax, 1
0x40d4fe:	add	rsp, 8
0x40d502:	ret	
F 0x40d1c8
0x40d1c8:	nop	dword ptr [rax + rax]
0x40d1d0:	mov	eax, dword ptr [rdi + 4]
0x40d1d3:	sub	eax, dword ptr [rsi + 4]
0x40d1d6:	ret	
F 0x412769
0x40a016:	ret	
F 0x415adf
0x40f006:	pop	rbx
0x40f008:	pop	rbp
0x40f009:	pop	r12
0x40f00b:	ret	
F 0x40d07d
0x40cc53:	seta	al
0x40cc56:	movzx	eax, al
0x40cc59:	cmovb	eax, edx
0x40cc5c:	ret	
F 0x40ccaa
0x40b126:	add	byte ptr [rax], al
0x40b128:	ret	
F 0x41103a
0x40ea7f:	sbb	byte ptr [rbx + 0x5d], bl
0x40ea82:	ret	
F 0x40cd8c
0x40cccc:	add	byte ptr [rax], al
0x40ccce:	mov	edx, 0xffffffff
0x40ccd3:	setg	al
0x40ccd6:	movzx	eax, al
0x40ccd9:	cmovl	eax, edx
0x40ccdc:	ret	
F 0x40d0ba
0x40cccc:	add	byte ptr [rax], al
0x40ccce:	mov	edx, 0xffffffff
0x40ccd3:	setg	al
0x40ccd6:	movzx	eax, al
0x40ccd9:	cmovl	eax, edx
0x40ccdc:	ret	
F 0x410041
0x40b19f:	pop	rbp
0x40b1a0:	ret	
F 0x40cebc
0x40a016:	ret	
F 0x40cd79
0x40ccd9:	cmovl	eax, edx
0x40ccdc:	ret	
F 0x40cddc
0x40a016:	ret	
F 0x40cdf6
0x40cc56:	movzx	eax, al
0x40cc59:	cmovb	eax, edx
0x40cc5c:	ret	
F 0x41394b
0x41394b:	mov	dword ptr [rbx + 8], ebp
0x41394e:	pop	rbx
0x41394f:	pop	rbp
0x413950:	pop	r12
0x413952:	ret	
F 0x40cdac
0x40cccc:	add	byte ptr [rax], al
0x40ccce:	mov	edx, 0xffffffff
0x40ccd3:	setg	al
0x40ccd6:	movzx	eax, al
0x40ccd9:	cmovl	eax, edx
0x40ccdc:	ret	
F 0x4112c2
0x40a016:	ret	
F 0x40fc3d
0x40a016:	ret	
F 0x40dc53
0x40dc53:	add	byte ptr [rax], r8b
0x40dc56:	mov	byte ptr [rdi + 2], 0
0x40dc5a:	mov	eax, 2
0x40dc5f:	mov	word ptr [rdi], r10w
0x40dc63:	ret	
F 0x40b621
0x40b621:	sbb	byte ptr [rax + 1], bh
0x40b627:	pop	rbx
0x40b628:	ret	
F 0x40fa5b
0x40fa5b:	add	dword ptr [rsi - 0x476f0001], esp
0x40fa61:	sub	eax, 0x66000000
0x40fa66:	mov	dword ptr [rdi], eax
0x40fa68:	mov	eax, 1
0x40fa6d:	ret	
F 0x410d03
0x40ed04:	pop	rbp
0x40ed05:	pop	r12
0x40ed07:	pop	r13
0x40ed09:	ret	
F 0x40d37d
0x40cc4d:	add	byte ptr [rdx - 1], bh
0x40cc53:	seta	al
0x40cc56:	movzx	eax, al
0x40cc59:	cmovb	eax, edx
0x40cc5c:	ret	
F 0x410b4b
0x410b4b:	adc	dword ptr [rax], ebp
0x410b4d:	add	eax, dword ptr [rax]
0x410b4f:	add	rsp, 8
0x410b53:	pop	rbx
0x410b54:	pop	rbp
0x410b55:	ret	
F 0x40fc7d
0x40a016:	ret	
F 0x40f74a
0x40ed05:	pop	r12
0x40ed07:	pop	r13
0x40ed09:	ret	
F 0x413803
0x40aa95:	pop	rbp
0x40aa96:	pop	r12
0x40aa98:	pop	r13
0x40aa9a:	pop	r14
0x40aa9c:	pop	r15
0x40aa9e:	ret	
F 0x40d141
0x40ccd3:	setg	al
0x40ccd6:	movzx	eax, al
0x40ccd9:	cmovl	eax, edx
0x40ccdc:	ret	
F 0x40f973
0x40f973:	mov	word ptr [rdi + 4], dx
0x40f977:	mov	eax, 5
0x40f97c:	ret	
F 0x40d481
0x40d481:	add	byte ptr [rcx + rcx*4 - 0x40], al
0x40d485:	ret	
F 0x40cc86
0x40a016:	ret	
F 0x4114bc
0x40aa98:	pop	r13
0x40aa9a:	pop	r14
0x40aa9c:	pop	r15
0x40aa9e:	ret	
F 0x415ca4
0x40a016:	ret	
F 0x40dd3b
0x40a016:	ret	
F 0x40fbbd
0x40a016:	ret	
F 0x40fb7d
0x40a016:	ret	
F 0x4103b1
0x4103b1:	nop	dword ptr [rax]
0x4103b8:	xor	eax, eax
0x4103ba:	ret	
F 0x40d3cd
0x40d3cd:	add	byte ptr [rax], al
0x40d3cf:	cmp	rdx, rax
0x40d3d2:	mov	edx, 0xffffffff
0x40d3d7:	seta	al
0x40d3da:	movzx	eax, al
0x40d3dd:	cmovb	eax, edx
0x40d3e0:	ret	
F 0x40cfa0
0x40cc56:	movzx	eax, al
0x40cc59:	cmovb	eax, edx
0x40cc5c:	ret	
F 0x40fc6f
0x40dc09:	add	byte ptr [rax + 0x2d], bh
0x40dc0f:	mov	word ptr [rdi], ax
0x40dc12:	mov	eax, 1
0x40dc17:	ret	
F 0x4104e1
0x410459:	mov	eax, esp
0x41045b:	pop	rbx
0x41045c:	pop	rbp
0x41045d:	pop	r12
0x41045f:	pop	r13
0x410461:	pop	r14
0x410463:	pop	r15
0x410465:	ret	
F 0x40d121
0x40ccd3:	setg	al
0x40ccd6:	movzx	eax, al
0x40ccd9:	cmovl	eax, edx
0x40ccdc:	ret	
F 0x412efd
0x40a016:	ret	
F 0x40f869
0x40dc0b:	sub	eax, 0x66000000
0x40dc10:	mov	dword ptr [rdi], eax
0x40dc12:	mov	eax, 1
0x40dc17:	ret	
F 0x414604
0x414604:	add	byte ptr [rax], al
0x414606:	add	rsp, 0x30
0x41460a:	pop	rbx
0x41460b:	pop	rbp
0x41460c:	pop	r12
0x41460e:	ret	
F 0x40dceb
0x40a016:	ret	
F 0x40ced3
0x40cc53:	seta	al
0x40cc56:	movzx	eax, al
0x40cc59:	cmovb	eax, edx
0x40cc5c:	ret	
F 0x40dc50
0x40dc50:	mov	r10d, 0x4646
0x40dc56:	mov	byte ptr [rdi + 2], 0
0x40dc5a:	mov	eax, 2
0x40dc5f:	mov	word ptr [rdi], r10w
0x40dc63:	ret	
F 0x41038a
0x40bd51:	pop	rbp
0x40bd52:	pop	r12
0x40bd54:	ret	
F 0x411261
0x411261:	xor	r8d, r8d
0x411264:	mov	qword ptr [rip + 0x10de5], rbp
0x41126b:	mov	qword ptr [rbp], rax
0x41126f:	jmp	0x41123c
F 0x40ce8b
0x40cc4b:	add	dword ptr [rax], eax
0x40cc4d:	add	byte ptr [rdx - 1], bh
0x40cc53:	seta	al
0x40cc56:	movzx	eax, al
0x40cc59:	cmovb	eax, edx
0x40cc5c:	ret	
F 0x40f59f
0x40ed02:	sbb	byte ptr [rbx + 0x5d], bl
0x40ed05:	pop	r12
0x40ed07:	pop	r13
0x40ed09:	ret	
F 0x40cf7c
0x40cc4c:	add	byte ptr [rax], al
0x40cc4e:	mov	edx, 0xffffffff
0x40cc53:	seta	al
0x40cc56:	movzx	eax, al
0x40cc59:	cmovb	eax, edx
0x40cc5c:	ret	
F 0x40fbb3
0x40dc0d:	add	byte ptr [rax], al
0x40dc0f:	mov	word ptr [rdi], ax
0x40dc12:	mov	eax, 1
0x40dc17:	ret	
F 0x40d329
0x40cc59:	cmovb	eax, edx
0x40cc5c:	ret	
F 0x413fa4
0x413fa4:	mov	eax, 1
0x413fa9:	mov	qword ptr [r12], r13
0x413fad:	add	rsp, 8
0x413fb1:	pop	rbx
0x413fb2:	pop	rbp
0x413fb3:	pop	r12
0x413fb5:	pop	r13
0x413fb7:	ret	
F 0x40ee49
0x40ee49:	mov	eax, 0x18
0x40ee4e:	pop	rbx
0x40ee4f:	pop	rbp
0x40ee50:	ret	
F 0x40cd7c
0x40a016:	ret	
F 0x40f006
0x40f006:	pop	rbx
0x40f008:	pop	rbp
0x40f009:	pop	r12
0x40f00b:	ret	
F 0x40f8d3
0x40f8d3:	add	byte ptr [rax], al
0x40f8d5:	mov	word ptr [rdi], ax
0x40f8d8:	mov	eax, 1
0x40f8dd:	pop	rbx
0x40f8de:	pop	rbp
0x40f8df:	pop	r12
0x40f8e1:	ret	
F 0x415be9
0x415be9:	inc	dword ptr [rbp + 0x5b0275c0]
0x415bef:	ret	
F 0x4110b7
0x4110b7:	mov	byte ptr [rax + 0x3f], 0
0x4110bb:	xor	eax, eax
0x4110bd:	add	rsp, 8
0x4110c1:	ret	
F 0x4112cc
0x40a016:	ret	
F 0x40f24a
0x40f24a:	add	rsp, 0x48
0x40f24e:	pop	rbx
0x40f24f:	pop	rbp
0x40f250:	ret	
F 0x40d1e9
0x40d1e9:	add	eax, dword ptr [rax]
0x40d1eb:	add	bl, al
0x40d1ed:	nop	dword ptr [rax]
0x40d1f0:	mov	eax, dword ptr [rdi + 0x35c]
0x40d1f6:	sub	eax, dword ptr [rsi + 0x35c]
0x40d1fc:	ret	
F 0x40ddf8
0x40a016:	ret	
F 0x40d224
0x40d224:	add	byte ptr [rax], al
0x40d226:	sub	eax, dword ptr [rsi + 0x38c]
0x40d22c:	ret	
F 0x411cf8
0x40a016:	ret	
F 0x40dc69
0x40dc69:	mov	ecx, 0x5252
0x40dc6e:	mov	byte ptr [rdi + 2], 0
0x40dc72:	mov	eax, 2
0x40dc77:	mov	word ptr [rdi], r9w
0x40dc7b:	ret	
F 0x410bbc
0x40cc30:	xor	eax, eax
0x40cc32:	ret	
F 0x41515e
0x41244f:	add	byte ptr [rax], al
0x412451:	add	byte ptr [rax - 0x77], cl
0x412454:	ret	
F 0x40dcdb
0x40dcdb:	push	rbx
0x40dcdc:	add	byte ptr [rax], al
0x40dcde:	mov	byte ptr [rdi + 2], 0
0x40dce2:	mov	eax, 2
0x40dce7:	mov	word ptr [rdi], r11w
0x40dceb:	ret	
F 0x40cf3d
0x40cc4d:	add	byte ptr [rdx - 1], bh
0x40cc53:	seta	al
0x40cc56:	movzx	eax, al
0x40cc59:	cmovb	eax, edx
0x40cc5c:	ret	
F 0x40dc55
0x40dc55:	add	dh, al
0x40dc57:	add	r8b, byte ptr [r8]
0x40dc5a:	mov	eax, 2
0x40dc5f:	mov	word ptr [rdi], r10w
0x40dc63:	ret	
F 0x40abbf
0x40abbf:	mov	ch, 0
0x40abc1:	add	byte ptr [rax - 0x77], cl
0x40abc4:	ret	0x6e8
F 0x410462
0x40aa9b:	pop	rsi
0x40aa9c:	pop	r15
0x40aa9e:	ret	
F 0x40f7e5
0x40f649:	ret	0x3948
F 0x40dc85
0x40dc85:	add	byte ptr [rax + 1], bh
0x40dc8b:	mov	word ptr [rdi], r8w
0x40dc8f:	ret	
F 0x41037e
0x41037e:	push	rbx
0x41037f:	xor	byte ptr [rax - 0x7d], cl
0x410382:	ret	
F 0x40ee4c
0x40edc0:	add	byte ptr [rax], al
0x40edc2:	pop	rbx
0x40edc3:	pop	rbp
0x40edc4:	ret	
F 0x4112c9
0x4112c9:	add	eax, 1
0x4112cc:	ret	
F 0x411264
0x411264:	mov	qword ptr [rip + 0x10de5], rbp
0x41126b:	mov	qword ptr [rbp], rax
0x41126f:	jmp	0x41123c
F 0x40ced9
0x40cc59:	cmovb	eax, edx
0x40cc5c:	ret	
F 0x40dc2c
0x40dc2c:	add	byte ptr [rax], al
0x40dc2e:	mov	word ptr [rdi], cx
0x40dc31:	ret	
F 0x412ee5
0x40a016:	ret	
F 0x41124c
0x40aa9d:	pop	rdi
0x40aa9e:	ret	
F 0x40e693
0x40e693:	mov	eax, ebx
0x40e695:	pop	rbx
0x40e696:	pop	rbp
0x40e697:	pop	r12
0x40e699:	ret	
F 0x412d90
0x412d90:	add	al, byte ptr [rax]
0x412d92:	add	rsp, 8
0x412d96:	xor	eax, eax
0x412d98:	pop	rbx
0x412d99:	pop	rbp
0x412d9a:	pop	r12
0x412d9c:	pop	r13
0x412d9e:	ret	
F 0x41390d
0x41390d:	add	byte ptr [rax], al
0x41390f:	add	byte ptr [rax - 0x77], cl
0x413912:	ret	0x8b48
F 0x40dca3
0x40dca3:	add	byte ptr [rax + 3], r15b
0x40dcab:	ret	
F 0x40cf47
0x40cc57:	mov	dh, 0xc0
0x40cc59:	cmovb	eax, edx
0x40cc5c:	ret	
F 0x40d27f
0x40cc53:	seta	al
0x40cc56:	movzx	eax, al
0x40cc59:	cmovb	eax, edx
0x40cc5c:	ret	
F 0x40dcb9
0x40b126:	add	byte ptr [rax], al
0x40b128:	ret	
F 0x40eee5
0x40eee5:	mov	eax, 6
0x40eeea:	pop	rbx
0x40eeeb:	pop	rbp
0x40eeec:	ret	
F 0x410120
0x40ea80:	pop	rbx
0x40ea81:	pop	rbp
0x40ea82:	ret	
F 0x4112e3
0x4112e3:	sal	byte ptr [rdx + 0x31], 0xc0
0x4112e8:	ret	
F 0x40cfc0
0x40cc56:	movzx	eax, al
0x40cc59:	cmovb	eax, edx
0x40cc5c:	ret	
F 0x40d147
0x40ccd9:	cmovl	eax, edx
0x40ccdc:	ret	
F 0x40cf5d
0x40cc4d:	add	byte ptr [rdx - 1], bh
0x40cc53:	seta	al
0x40cc56:	movzx	eax, al
0x40cc59:	cmovb	eax, edx
0x40cc5c:	ret	
F 0x40cd13
0x40ccd3:	setg	al
0x40ccd6:	movzx	eax, al
0x40ccd9:	cmovl	eax, edx
0x40ccdc:	ret	
F 0x40cd0b
0x40cccb:	add	byte ptr [rax], al
0x40cccd:	add	byte ptr [rdx - 1], bh
0x40ccd3:	setg	al
0x40ccd6:	movzx	eax, al
0x40ccd9:	cmovl	eax, edx
0x40ccdc:	ret	
F 0x40fd97
0x40ea77:	add	byte ptr [rax], al
0x40ea79:	add	byte ptr [rbp + 0x47], dh
0x40ea7c:	add	rsp, 0x18
0x40ea80:	pop	rbx
0x40ea81:	pop	rbp
0x40ea82:	ret	
F 0x410ac0
0x410ac0:	xchg	eax, ebx
0x410ac1:	ror	byte ptr [rdi], 0xb6
0x410ac4:	ror	byte ptr [rcx + 0x3289505], 0
0x410acb:	add	rsp, 8
0x410acf:	pop	rbx
0x410ad0:	pop	rbp
0x410ad1:	ret	
F 0x40d069
0x40cc59:	cmovb	eax, edx
0x40cc5c:	ret	
F 0x40d346
0x40cc56:	movzx	eax, al
0x40cc59:	cmovb	eax, edx
0x40cc5c:	ret	
F 0x413f8c
0x40a016:	ret	
F 0x413c2e
0x413c2e:	add	byte ptr [rax - 0x77], cl
0x413c31:	ret	0x99e8
F 0x410ace
0x410ace:	or	byte ptr [rbx + 0x5d], bl
0x410ad1:	ret	
F 0x410042
0x40a016:	ret	
F 0x40f5a5
0x40b19f:	pop	rbp
0x40b1a0:	ret	
F 0x40cdd6
0x40ccd6:	movzx	eax, al
0x40ccd9:	cmovl	eax, edx
0x40ccdc:	ret	
F 0x40fcbe
0x40dc08:	add	byte ptr [rax], al
0x40dc0a:	mov	eax, 0x2d
0x40dc0f:	mov	word ptr [rdi], ax
0x40dc12:	mov	eax, 1
0x40dc17:	ret	
F 0x40cdeb
0x40cc4b:	add	dword ptr [rax], eax
0x40cc4d:	add	byte ptr [rdx - 1], bh
0x40cc53:	seta	al
0x40cc56:	movzx	eax, al
0x40cc59:	cmovb	eax, edx
0x40cc5c:	ret	
F 0x410b42
0x410b42:	add	eax, dword ptr [rax]
0x410b44:	mov	eax, 1
0x410b49:	mov	dword ptr [rip + 0x32811], eax
0x410b4f:	add	rsp, 8
0x410b53:	pop	rbx
0x410b54:	pop	rbp
0x410b55:	ret	
F 0x40edc0
0x40edc0:	add	byte ptr [rax], al
0x40edc2:	pop	rbx
0x40edc3:	pop	rbp
0x40edc4:	ret	
F 0x40dcb4
0x40dcb4:	add	byte ptr [rax + 3], r15b
0x40dcbb:	ret	
F 0x40d30c
0x40a016:	ret	
F 0x40b15a
0x40b15a:	add	byte ptr [rax - 0x7b], cl
0x40b15d:	sal	byte ptr [rax + rcx - 1], 0xe0
0x40b162:	nop	word ptr [rax + rax]
0x40b168:	ret	
F 0x413fab
0x413fab:	sub	al, 0x24
0x413fad:	add	rsp, 8
0x413fb1:	pop	rbx
0x413fb2:	pop	rbp
0x413fb3:	pop	r12
0x413fb5:	pop	r13
0x413fb7:	ret	
F 0x40d1ec
0x40a016:	ret	
F 0x40b8d8
0x40aa92:	xor	eax, eax
0x40aa94:	pop	rbx
0x40aa95:	pop	rbp
0x40aa96:	pop	r12
0x40aa98:	pop	r13
0x40aa9a:	pop	r14
0x40aa9c:	pop	r15
0x40aa9e:	ret	
F 0x4104df
0x410457:	or	byte ptr [rcx + rcx*4 - 0x20], cl
0x41045b:	pop	rbx
0x41045c:	pop	rbp
0x41045d:	pop	r12
0x41045f:	pop	r13
0x410461:	pop	r14
0x410463:	pop	r15
0x410465:	ret	
F 0x40ff59
0x40ea79:	add	byte ptr [rbp + 0x47], dh
0x40ea7c:	add	rsp, 0x18
0x40ea80:	pop	rbx
0x40ea81:	pop	rbp
0x40ea82:	ret	
F 0x40d37e
0x40cc4e:	mov	edx, 0xffffffff
0x40cc53:	seta	al
0x40cc56:	movzx	eax, al
0x40cc59:	cmovb	eax, edx
0x40cc5c:	ret	
F 0x40cef9
0x40cc59:	cmovb	eax, edx
0x40cc5c:	ret	
F 0x410ac3
0x410ac3:	mov	dh, 0xc0
0x410ac5:	mov	dword ptr [rip + 0x32895], eax
0x410acb:	add	rsp, 8
0x410acf:	pop	rbx
0x410ad0:	pop	rbp
0x410ad1:	ret	
F 0x41408d
0x40aa94:	pop	rbx
0x40aa95:	pop	rbp
0x40aa96:	pop	r12
0x40aa98:	pop	r13
0x40aa9a:	pop	r14
0x40aa9c:	pop	r15
0x40aa9e:	ret	
F 0x40b163
0x40b163:	nop	dword ptr [rax + rax]
0x40b168:	ret	
F 0x40d078
0x40cc4e:	mov	edx, 0xffffffff
0x40cc53:	seta	al
0x40cc56:	movzx	eax, al
0x40cc59:	cmovb	eax, edx
0x40cc5c:	ret	
F 0x40ff62
0x40a016:	ret	
F 0x40cc9b
0x40b126:	add	byte ptr [rax], al
0x40b128:	ret	
F 0x40ce77
0x40cc57:	mov	dh, 0xc0
0x40cc59:	cmovb	eax, edx
0x40cc5c:	ret	
F 0x40cedc
0x40a016:	ret	
F 0x40d10a
0x40a016:	ret	
F 0x40b625
0x40b625:	add	byte ptr [rax], al
0x40b627:	pop	rbx
0x40b628:	ret	
F 0x4130c8
0x40aa9c:	pop	r15
0x40aa9e:	ret	
F 0x4135bc
0x4135bc:	or	byte ptr [rcx + rcx*4 - 0x20], cl
0x4135c0:	pop	rbx
0x4135c1:	pop	r12
0x4135c3:	ret	
F 0x40cd6a
0x40cd6a:	adc	byte ptr [rcx], al
0x40cd6c:	add	byte ptr [rax], al
0x40cd6e:	mov	edx, 0xffffffff
0x40cd73:	setg	al
0x40cd76:	movzx	eax, al
0x40cd79:	cmovl	eax, edx
0x40cd7c:	ret	
F 0x4103b8
0x40cc30:	xor	eax, eax
0x40cc32:	ret	
F 0x411f12
0x40a016:	ret	
F 0x40ce73
0x40cc53:	seta	al
0x40cc56:	movzx	eax, al
0x40cc59:	cmovb	eax, edx
0x40cc5c:	ret	
F 0x411ec1
0x40a016:	ret	
F 0x40dc51
0x40dc51:	mov	edx, 0x4646
0x40dc56:	mov	byte ptr [rdi + 2], 0
0x40dc5a:	mov	eax, 2
0x40dc5f:	mov	word ptr [rdi], r10w
0x40dc63:	ret	
F 0x410f74
0x410f74:	add	byte ptr [rbp + 0x5d], dh
0x410f77:	add	rsp, 0x18
0x410f7b:	pop	rbx
0x410f7c:	pop	rbp
0x410f7d:	ret	
F 0x411034
0x410f74:	add	byte ptr [rbp + 0x5d], dh
0x410f77:	add	rsp, 0x18
0x410f7b:	pop	rbx
0x410f7c:	pop	rbp
0x410f7d:	ret	
F 0x40e681
0x40a016:	ret	
F 0x40d211
0x40ccd3:	setg	al
0x40ccd6:	movzx	eax, al
0x40ccd9:	cmovl	eax, edx
0x40ccdc:	ret	
F 0x40d09d
0x40cc4d:	add	byte ptr [rdx - 1], bh
0x40cc53:	seta	al
0x40cc56:	movzx	eax, al
0x40cc59:	cmovb	eax, edx
0x40cc5c:	ret	
F 0x40cf1a
0x40cf1a:	mov	al, 1
0x40cf1c:	add	byte ptr [rax], al
0x40cf1e:	mov	edx, 0xffffffff
0x40cf23:	seta	al
0x40cf26:	movzx	eax, al
0x40cf29:	cmovb	eax, edx
0x40cf2c:	ret	
F 0x40dc72
0x40dc72:	mov	eax, 2
0x40dc77:	mov	word ptr [rdi], r9w
0x40dc7b:	ret	
F 0x40cfda
0x40cfda:	test	al, 0
0x40cfdc:	add	byte ptr [rax], al
0x40cfde:	mov	edx, 0xffffffff
0x40cfe3:	seta	al
0x40cfe6:	movzx	eax, al
0x40cfe9:	cmovb	eax, edx
0x40cfec:	ret	
F 0x40f8d1
0x40f8d1:	sub	eax, 0x66000000
0x40f8d6:	mov	dword ptr [rdi], eax
0x40f8d8:	mov	eax, 1
0x40f8dd:	pop	rbx
0x40f8de:	pop	rbp
0x40f8df:	pop	r12
0x40f8e1:	ret	
F 0x41377e
0x41377e:	ror	byte ptr [rdi], 0x84
0x413781:	ret	
F 0x40d074
0x40d074:	cmp	qword ptr [rdi + 0x40], rax
0x40d078:	mov	edx, 0xffffffff
0x40d07d:	seta	al
0x40d080:	movzx	eax, al
0x40d083:	cmovb	eax, edx
0x40d086:	ret	
F 0x40d283
0x40cc57:	mov	dh, 0xc0
0x40cc59:	cmovb	eax, edx
0x40cc5c:	ret	
F 0x410be8
0x40cc2e:	add	byte ptr [rax], al
0x40cc30:	xor	eax, eax
0x40cc32:	ret	
F 0x40cfa6
0x40a016:	ret	
F 0x40cced
0x40cccd:	add	byte ptr [rdx - 1], bh
0x40ccd3:	setg	al
0x40ccd6:	movzx	eax, al
0x40ccd9:	cmovl	eax, edx
0x40ccdc:	ret	
F 0x40ab51
0x40ab51:	sal	byte ptr [rsi + rdi*2 + 0x48], 0x89
0x40ab56:	ret	
F 0x40f0d0
0x40f0d0:	mov	r8d, edx
0x40f0d3:	sub	r8d, r9d
0x40f0d6:	mov	eax, r8d
0x40f0d9:	ret	
F 0x4103ea
0x40a016:	ret	
F 0x40fc79
0x40d4cb:	add	dword ptr [rax], eax
0x40d4cd:	add	byte ptr [rax], al
0x40d4cf:	ret	
F 0x40d9db
0x40d9db:	or	byte ptr [rbx + 0x5d], r11b
0x40d9df:	pop	r13
0x40d9e1:	pop	r14
0x40d9e3:	ret	
F 0x40b4a6
0x40b4a6:	add	byte ptr [rax - 0x77], cl
0x40b4a9:	ret	0x21e8
F 0x40dc41
0x40dc41:	mov	eax, 2
0x40dc46:	mov	word ptr [rdi], dx
0x40dc49:	ret	
F 0x413d8a
0x40aa99:	pop	rbp
0x40aa9a:	pop	r14
0x40aa9c:	pop	r15
0x40aa9e:	ret	
F 0x40e731
0x40e731:	dec	dword ptr [rbx + 0x34c2835]
0x40e737:	add	byte ptr [rax - 0x77], cl
0x40e73a:	ret	
F 0x40d9d5
0x40d9d5:	add	rsp, 0x28
0x40d9d9:	lea	eax, [r14 + 8]
0x40d9dd:	pop	rbx
0x40d9de:	pop	rbp
0x40d9df:	pop	r13
0x40d9e1:	pop	r14
0x40d9e3:	ret	
F 0x40d33d
0x40cc4d:	add	byte ptr [rdx - 1], bh
0x40cc53:	seta	al
0x40cc56:	movzx	eax, al
0x40cc59:	cmovb	eax, edx
0x40cc5c:	ret	
F 0x4114b2
0x4114b2:	add	byte ptr [rax], al
0x4114b4:	add	rsp, 0x48
0x4114b8:	pop	rbx
0x4114b9:	pop	rbp
0x4114ba:	pop	r12
0x4114bc:	pop	r13
0x4114be:	pop	r14
0x4114c0:	pop	r15
0x4114c2:	ret	
F 0x40d4c1
0x40d4c1:	mov	dh, 0x46
0x40d4c3:	sbb	al, 0xc6
0x40d4c5:	add	dword ptr [r8], r8d
0x40d4c8:	mov	byte ptr [rdi], al
0x40d4ca:	mov	eax, 1
0x40d4cf:	ret	
F 0x410be6
0x410be6:	add	byte ptr [rcx], al
0x410be8:	add	byte ptr [rax], al
0x410bea:	xor	eax, eax
0x410bec:	ret	
F 0x40dc59
0x40dc59:	add	byte ptr [rax + 2], bh
0x40dc5f:	mov	word ptr [rdi], r10w
0x40dc63:	ret	
F 0x40b5a8
0x40b5a8:	pop	r13
0x40b5aa:	pop	r14
0x40b5ac:	ret	
F 0x410f7a
0x40ea7f:	sbb	byte ptr [rbx + 0x5d], bl
0x40ea82:	ret	
F 0x40ce2a
0x40ce2a:	add	dword ptr [rax], eax
0x40ce2d:	add	byte ptr [rdx - 1], bh
0x40ce33:	seta	al
0x40ce36:	movzx	eax, al
0x40ce39:	cmovb	eax, edx
0x40ce3c:	ret	
F 0x412ef0
0x412ef0:	mov	qword ptr [rip + 0x30495], 0x303
0x412efb:	xor	eax, eax
0x412efd:	ret	
F 0x413802
0x40aa94:	pop	rbx
0x40aa95:	pop	rbp
0x40aa96:	pop	r12
0x40aa98:	pop	r13
0x40aa9a:	pop	r14
0x40aa9c:	pop	r15
0x40aa9e:	ret	
F 0x40d386
0x40cc56:	movzx	eax, al
0x40cc59:	cmovb	eax, edx
0x40cc5c:	ret	
F 0x40cd2b
0x40cd2b:	add	dword ptr [rax], eax
0x40cd2d:	add	byte ptr [rdx - 1], bh
0x40cd33:	setg	al
0x40cd36:	movzx	eax, al
0x40cd39:	cmovl	eax, edx
0x40cd3c:	ret	
F 0x40ccf3
0x40ccd3:	setg	al
0x40ccd6:	movzx	eax, al
0x40ccd9:	cmovl	eax, edx
0x40ccdc:	ret	
F 0x40cf9d
0x40cc53:	seta	al
0x40cc56:	movzx	eax, al
0x40cc59:	cmovb	eax, edx
0x40cc5c:	ret	
F 0x40cfde
0x40cc4e:	mov	edx, 0xffffffff
0x40cc53:	seta	al
0x40cc56:	movzx	eax, al
0x40cc59:	cmovb	eax, edx
0x40cc5c:	ret	
F 0x40f742
0x40f59a:	add	byte ptr [rax], al
0x40f59c:	add	rsp, 0x18
0x40f5a0:	pop	rbx
0x40f5a1:	pop	rbp
0x40f5a2:	pop	r12
0x40f5a4:	pop	r13
0x40f5a6:	ret	
F 0x40dcf9
0x40d4cb:	add	dword ptr [rax], eax
0x40d4cd:	add	byte ptr [rax], al
0x40d4cf:	ret	
F 0x40d2e3
0x40d2e3:	ror	byte ptr [rax + 0x39], 0xcf
0x40d2e7:	seta	al
0x40d2ea:	ret	
F 0x40dc92
0x40dc92:	push	r11
0x40dc94:	add	byte ptr [r8 + 3], r15b
0x40dc9b:	ret	
F 0x40d0e1
0x40ccd3:	setg	al
0x40ccd6:	movzx	eax, al
0x40ccd9:	cmovl	eax, edx
0x40ccdc:	ret	
F 0x40cf3b
0x40cc4b:	add	dword ptr [rax], eax
0x40cc4d:	add	byte ptr [rdx - 1], bh
0x40cc53:	seta	al
0x40cc56:	movzx	eax, al
0x40cc59:	cmovb	eax, edx
0x40cc5c:	ret	
F 0x412efa
0x412efa:	add	byte ptr [rcx], dh
0x412efc:	rol	bl, 0x66
0x412eff:	nop	
0x412f00:	mov	qword ptr [rip + 0x30485], 0xaa00
0x412f0b:	jmp	0x412ee3
F 0x413d89
0x40aa98:	pop	r13
0x40aa9a:	pop	r14
0x40aa9c:	pop	r15
0x40aa9e:	ret	
F 0x40cdb6
0x40ccd6:	movzx	eax, al
0x40ccd9:	cmovl	eax, edx
0x40ccdc:	ret	
F 0x40f873
0x40b126:	add	byte ptr [rax], al
0x40b128:	ret	
F 0x40ce17
0x40cc57:	mov	dh, 0xc0
0x40cc59:	cmovb	eax, edx
0x40cc5c:	ret	
F 0x40f37c
0x40ed03:	pop	rbx
0x40ed04:	pop	rbp
0x40ed05:	pop	r12
0x40ed07:	pop	r13
0x40ed09:	ret	
F 0x40fb6f
0x40dc09:	add	byte ptr [rax + 0x2d], bh
0x40dc0f:	mov	word ptr [rdi], ax
0x40dc12:	mov	eax, 1
0x40dc17:	ret	
F 0x4114b4
0x4114b4:	add	rsp, 0x48
0x4114b8:	pop	rbx
0x4114b9:	pop	rbp
0x4114ba:	pop	r12
0x4114bc:	pop	r13
0x4114be:	pop	r14
0x4114c0:	pop	r15
0x4114c2:	ret	
F 0x40dc38
0x40dc38:	mov	edx, 0x3923
0x40dc3d:	mov	byte ptr [rdi + 2], 0
0x40dc41:	mov	eax, 2
0x40dc46:	mov	word ptr [rdi], dx
0x40dc49:	ret	
F 0x40d19a
0x40cccc:	add	byte ptr [rax], al
0x40ccce:	mov	edx, 0xffffffff
0x40ccd3:	setg	al
0x40ccd6:	movzx	eax, al
0x40ccd9:	cmovl	eax, edx
0x40ccdc:	ret	
F 0x41003b
0x40ea7b:	add	rsp, 0x18
0x40ea80:	pop	rbx
0x40ea81:	pop	rbp
0x40ea82:	ret	
F 0x40dc09
0x40dc09:	add	byte ptr [rax + 0x2d], bh
0x40dc0f:	mov	word ptr [rdi], ax
0x40dc12:	mov	eax, 1
0x40dc17:	ret	
F 0x412d9d
0x40b19f:	pop	rbp
0x40b1a0:	ret	
F 0x40d0c5
0x40ccd7:	mov	dh, 0xc0
0x40ccd9:	cmovl	eax, edx
0x40ccdc:	ret	
F 0x40d27c
0x40d27c:	cmp	rcx, rax
0x40d27f:	seta	al
0x40d282:	movzx	eax, al
0x40d285:	cmovb	eax, edx
0x40d288:	ret	
F 0x40d63b
0x40b5a4:	pop	rbx
0x40b5a5:	pop	rbp
0x40b5a6:	pop	r12
0x40b5a8:	pop	r13
0x40b5aa:	pop	r14
0x40b5ac:	ret	
F 0x40d389
0x40cc59:	cmovb	eax, edx
0x40cc5c:	ret	
F 0x413fad
0x413fad:	add	rsp, 8
0x413fb1:	pop	rbx
0x413fb2:	pop	rbp
0x413fb3:	pop	r12
0x413fb5:	pop	r13
0x413fb7:	ret	
F 0x40f249
0x40f249:	sbb	eax, 0x48c48348
0x40f24e:	pop	rbx
0x40f24f:	pop	rbp
0x40f250:	ret	
F 0x40fb78
0x40d4ca:	mov	eax, 1
0x40d4cf:	ret	
F 0x411331
0x40a016:	ret	
F 0x40d31c
0x40cc4c:	add	byte ptr [rax], al
0x40cc4e:	mov	edx, 0xffffffff
0x40cc53:	seta	al
0x40cc56:	movzx	eax, al
0x40cc59:	cmovb	eax, edx
0x40cc5c:	ret	
F 0x40d049
0x40cc59:	cmovb	eax, edx
0x40cc5c:	ret	
F 0x40d73f
0x40a012:	add	rsp, 8
0x40a016:	ret	
F 0x40ceac
0x40cc4c:	add	byte ptr [rax], al
0x40cc4e:	mov	edx, 0xffffffff
0x40cc53:	seta	al
0x40cc56:	movzx	eax, al
0x40cc59:	cmovb	eax, edx
0x40cc5c:	ret	
F 0x4104e9
0x40aa9a:	pop	r14
0x40aa9c:	pop	r15
0x40aa9e:	ret	
F 0x4108e8
0x40a016:	ret	
F 0x40d244
0x40d244:	movsx	edx, byte ptr [rsi + 0x1c]
0x40d248:	sub	eax, edx
0x40d24a:	ret	
F 0x40d0fc
0x40ccce:	mov	edx, 0xffffffff
0x40ccd3:	setg	al
0x40ccd6:	movzx	eax, al
0x40ccd9:	cmovl	eax, edx
0x40ccdc:	ret	
F 0x40d282
0x40cc56:	movzx	eax, al
0x40cc59:	cmovb	eax, edx
0x40cc5c:	ret	
F 0x40e699
0x40a016:	ret	
F 0x4130c1
0x40aa95:	pop	rbp
0x40aa96:	pop	r12
0x40aa98:	pop	r13
0x40aa9a:	pop	r14
0x40aa9c:	pop	r15
0x40aa9e:	ret	
F 0x411244
0x40aa95:	pop	rbp
0x40aa96:	pop	r12
0x40aa98:	pop	r13
0x40aa9a:	pop	r14
0x40aa9c:	pop	r15
0x40aa9e:	ret	
F 0x40fbef
0x40dc09:	add	byte ptr [rax + 0x2d], bh
0x40dc0f:	mov	word ptr [rdi], ax
0x40dc12:	mov	eax, 1
0x40dc17:	ret	
F 0x40fa63
0x40dc0d:	add	byte ptr [rax], al
0x40dc0f:	mov	word ptr [rdi], ax
0x40dc12:	mov	eax, 1
0x40dc17:	ret	
F 0x40dc3c
0x40dc3c:	add	dh, al
0x40dc3e:	add	r8b, byte ptr [r8]
0x40dc41:	mov	eax, 2
0x40dc46:	mov	word ptr [rdi], dx
0x40dc49:	ret	
F 0x40d075
0x40d075:	cmp	dword ptr [rdi + 0x40], eax
0x40d078:	mov	edx, 0xffffffff
0x40d07d:	seta	al
0x40d080:	movzx	eax, al
0x40d083:	cmovb	eax, edx
0x40d086:	ret	
F 0x40cce9
0x40cce9:	xchg	eax, esi
0x40cceb:	add	byte ptr [rax], al
0x40cced:	add	byte ptr [rdx - 1], bh
0x40ccf3:	setg	al
0x40ccf6:	movzx	eax, al
0x40ccf9:	cmovl	eax, edx
0x40ccfc:	ret	
F 0x40acf9
0x40a016:	ret	
F 0x40dd33
0x40d4fa:	add	dword ptr [rax], eax
0x40d4fc:	add	byte ptr [rax], al
0x40d4fe:	add	rsp, 8
0x40d502:	ret	
F 0x40b157
0x40b157:	lea	ebp, [rsi + 1]
0x40b15a:	add	byte ptr [rax - 0x7b], cl
0x40b15d:	sal	byte ptr [rax + rcx - 1], 0xe0
0x40b162:	nop	word ptr [rax + rax]
0x40b168:	ret	
F 0x410382
0x40a016:	ret	
F 0x40b484
0x40a016:	ret	
F 0x40d1d3
0x40d1d3:	sub	eax, dword ptr [rsi + 4]
0x40d1d6:	ret	
F 0x40cf86
0x40cc56:	movzx	eax, al
0x40cc59:	cmovb	eax, edx
0x40cc5c:	ret	
F 0x40fb7b
0x40b126:	add	byte ptr [rax], al
0x40b128:	ret	
F 0x40f971
0x40f971:	and	byte ptr [rax], ah
0x40f973:	mov	word ptr [rdi + 4], dx
0x40f977:	mov	eax, 5
0x40f97c:	ret	
F 0x40e512
0x40e512:	ret	0xf48
F 0x40b705
0x40b220:	dec	dword ptr [rax - 0x77]
0x40b223:	ret	
F 0x40cd0c
0x40cccc:	add	byte ptr [rax], al
0x40ccce:	mov	edx, 0xffffffff
0x40ccd3:	setg	al
0x40ccd6:	movzx	eax, al
0x40ccd9:	cmovl	eax, edx
0x40ccdc:	ret	
F 0x4147b0
0x4147b0:	ret	0x6348
F 0x4135b5
0x4135b5:	add	byte ptr [rax], al
0x4135b7:	add	byte ptr [rax], al
0x4135b9:	add	rsp, 8
0x4135bd:	mov	rax, r12
0x4135c0:	pop	rbx
0x4135c1:	pop	r12
0x4135c3:	ret	
F 0x40d006
0x40cc56:	movzx	eax, al
0x40cc59:	cmovb	eax, edx
0x40cc5c:	ret	
F 0x40d0e4
0x40ccd6:	movzx	eax, al
0x40ccd9:	cmovl	eax, edx
0x40ccdc:	ret	
F 0x40fc2b
0x40fb2b:	nop	dword ptr [rax + rax]
0x40fb30:	mov	eax, 0x2d
0x40fb35:	mov	word ptr [rdi], ax
0x40fb38:	mov	eax, 1
0x40fb3d:	ret	
F 0x40d0ac
0x40a016:	ret	
F 0x4112c8
0x4112c8:	add	rax, 1
0x4112cc:	ret	
F 0x4112b2
0x4112b2:	ret	0x320
F 0x40d383
0x40cc53:	seta	al
0x40cc56:	movzx	eax, al
0x40cc59:	cmovb	eax, edx
0x40cc5c:	ret	
F 0x40d1ba
0x40b126:	add	byte ptr [rax], al
0x40b128:	ret	
F 0x40ce0d
0x40cc4d:	add	byte ptr [rdx - 1], bh
0x40cc53:	seta	al
0x40cc56:	movzx	eax, al
0x40cc59:	cmovb	eax, edx
0x40cc5c:	ret	
F 0x40ea79
0x40ea79:	add	byte ptr [rbp + 0x47], dh
0x40ea7c:	add	rsp, 0x18
0x40ea80:	pop	rbx
0x40ea81:	pop	rbp
0x40ea82:	ret	
F 0x40ccf9
0x40ccd9:	cmovl	eax, edx
0x40ccdc:	ret	
F 0x40d35b
0x40d2fb:	add	eax, dword ptr [rax]
0x40d2fd:	add	byte ptr [rdx - 1], bh
0x40d303:	seta	al
0x40d306:	movzx	eax, al
0x40d309:	cmovb	eax, edx
0x40d30c:	ret	
F 0x40cead
0x40cc4d:	add	byte ptr [rdx - 1], bh
0x40cc53:	seta	al
0x40cc56:	movzx	eax, al
0x40cc59:	cmovb	eax, edx
0x40cc5c:	ret	
F 0x40fbb1
0x40dc0b:	sub	eax, 0x66000000
0x40dc10:	mov	dword ptr [rdi], eax
0x40dc12:	mov	eax, 1
0x40dc17:	ret	
F 0x413fb2
0x40ed04:	pop	rbp
0x40ed05:	pop	r12
0x40ed07:	pop	r13
0x40ed09:	ret	
F 0x4103e0
0x40a016:	ret	
F 0x40ff5c
0x40ea7c:	add	rsp, 0x18
0x40ea80:	pop	rbx
0x40ea81:	pop	rbp
0x40ea82:	ret	
F 0x40cdd3
0x40ccd3:	setg	al
0x40ccd6:	movzx	eax, al
0x40ccd9:	cmovl	eax, edx
0x40ccdc:	ret	
F 0x40f8c3
0x40e691:	add	byte ptr [rax], al
0x40e693:	mov	eax, ebx
0x40e695:	pop	rbx
0x40e696:	pop	rbp
0x40e697:	pop	r12
0x40e699:	ret	
F 0x40d73d
0x40d4fc:	add	byte ptr [rax], al
0x40d4fe:	add	rsp, 8
0x40d502:	ret	
F 0x40d31b
0x40d2fb:	add	eax, dword ptr [rax]
0x40d2fd:	add	byte ptr [rdx - 1], bh
0x40d303:	seta	al
0x40d306:	movzx	eax, al
0x40d309:	cmovb	eax, edx
0x40d30c:	ret	
F 0x4112b3
0x4112b3:	and	byte ptr [rbx], al
0x4112b5:	add	bl, al
0x4112b7:	nop	word ptr [rax + rax]
0x4112c0:	xor	eax, eax
0x4112c2:	ret	
F 0x40f8d6
0x40f8d6:	mov	dword ptr [rdi], eax
0x40f8d8:	mov	eax, 1
0x40f8dd:	pop	rbx
0x40f8de:	pop	rbp
0x40f8df:	pop	r12
0x40f8e1:	ret	
F 0x40ed08
0x40b19f:	pop	rbp
0x40b1a0:	ret	
F 0x411240
0x411240:	mov	rax, r8
0x411243:	pop	rbx
0x411244:	pop	rbp
0x411245:	pop	r12
0x411247:	pop	r13
0x411249:	pop	r14
0x41124b:	pop	r15
0x41124d:	ret	
F 0x40fd0b
0x40b126:	add	byte ptr [rax], al
0x40b128:	ret	
F 0x40dccf
0x40dccf:	mov	dword ptr [rdi], esi
0x40dcd1:	ret	
F 0x40eee8
0x40edc0:	add	byte ptr [rax], al
0x40edc2:	pop	rbx
0x40edc3:	pop	rbp
0x40edc4:	ret	
F 0x40b121
0x40b121:	nop	dword ptr [rax]
0x40b128:	ret	
F 0x40cc30
0x40cc30:	xor	eax, eax
0x40cc32:	ret	
F 0x413f9c
0x40ed07:	pop	r13
0x40ed09:	ret	
F 0x40d11b
0x40cccd:	add	byte ptr [rdx - 1], bh
0x40ccd3:	setg	al
0x40ccd6:	movzx	eax, al
0x40ccd9:	cmovl	eax, edx
0x40ccdc:	ret	
F 0x40fbf6
0x40dc10:	mov	dword ptr [rdi], eax
0x40dc12:	mov	eax, 1
0x40dc17:	ret	
F 0x40d023
0x40cc53:	seta	al
0x40cc56:	movzx	eax, al
0x40cc59:	cmovb	eax, edx
0x40cc5c:	ret	
F 0x40d640
0x40b5a9:	pop	rbp
0x40b5aa:	pop	r14
0x40b5ac:	ret	
F 0x40d214
0x40ccd6:	movzx	eax, al
0x40ccd9:	cmovl	eax, edx
0x40ccdc:	ret	
F 0x4138a5
0x40acf6:	add	byte ptr [rax - 0x77], cl
0x40acf9:	ret	
F 0x40fc73
0x40dc0d:	add	byte ptr [rax], al
0x40dc0f:	mov	word ptr [rdi], ax
0x40dc12:	mov	eax, 1
0x40dc17:	ret	
F 0x40d0f9
0x40d0b9:	add	eax, dword ptr [rax]
0x40d0bb:	add	byte ptr [rdx - 1], bh
0x40d0c1:	setg	al
0x40d0c4:	movzx	eax, al
0x40d0c7:	cmovl	eax, edx
0x40d0ca:	ret	
F 0x4112af
0x4112af:	adc	byte ptr [rcx + 0x320c215], cl
0x4112b5:	add	bl, al
0x4112b7:	nop	word ptr [rax + rax]
0x4112c0:	xor	eax, eax
0x4112c2:	ret	
F 0x4112ad
0x4112ad:	add	byte ptr [rax + rdx - 0x77], dh
0x4112b1:	adc	eax, 0x320c2
0x4112b6:	ret	
F 0x40b47c
0x40aa96:	pop	r12
0x40aa98:	pop	r13
0x40aa9a:	pop	r14
0x40aa9c:	pop	r15
0x40aa9e:	ret	
F 0x40f007
0x40bd50:	pop	rbx
0x40bd51:	pop	rbp
0x40bd52:	pop	r12
0x40bd54:	ret	
F 0x40f921
0x40f921:	jmp	0x40f974
F 0x40ccd7
0x40ccd7:	mov	dh, 0xc0
0x40ccd9:	cmovl	eax, edx
0x40ccdc:	ret	
F 0x40d027
0x40cc57:	mov	dh, 0xc0
0x40cc59:	cmovb	eax, edx
0x40cc5c:	ret	
F 0x414095
0x40aa9c:	pop	r15
0x40aa9e:	ret	
F 0x40b474
0x40b474:	sbb	byte ptr [rax], al
0x40b476:	add	rsp, 0x28
0x40b47a:	pop	rbx
0x40b47b:	pop	rbp
0x40b47c:	pop	r12
0x40b47e:	pop	r13
0x40b480:	pop	r14
0x40b482:	pop	r15
0x40b484:	ret	
F 0x40ce0c
0x40cc4c:	add	byte ptr [rax], al
0x40cc4e:	mov	edx, 0xffffffff
0x40cc53:	seta	al
0x40cc56:	movzx	eax, al
0x40cc59:	cmovb	eax, edx
0x40cc5c:	ret	
F 0x410463
0x40aa9c:	pop	r15
0x40aa9e:	ret	
F 0x40b1a3
0x40b123:	add	byte ptr [rax], 0
0x40b126:	add	byte ptr [rax], al
0x40b128:	ret	
F 0x40abc4
0x40abc4:	ret	0x6e8
F 0x40cd8d
0x40cccd:	add	byte ptr [rdx - 1], bh
0x40ccd3:	setg	al
0x40ccd6:	movzx	eax, al
0x40ccd9:	cmovl	eax, edx
0x40ccdc:	ret	
F 0x40e54d
0x40e50d:	add	byte ptr [rax], al
0x40e50f:	add	byte ptr [rax - 0x77], cl
0x40e512:	ret	0xf48
F 0x40dc1e
0x40dc1e:	add	byte ptr [rax], al
0x40dc20:	mov	ecx, 0x3823
0x40dc25:	mov	byte ptr [rdi + 2], 0
0x40dc29:	mov	eax, 2
0x40dc2e:	mov	word ptr [rdi], cx
0x40dc31:	ret	
F 0x410ad1
0x40a016:	ret	
F 0x411de8
0x40aa99:	pop	rbp
0x40aa9a:	pop	r14
0x40aa9c:	pop	r15
0x40aa9e:	ret	
F 0x40dcbf
0x40dcbf:	add	byte ptr [rsi + 0x3723], bh
0x40dcc5:	mov	byte ptr [rdi + 2], 0
0x40dcc9:	mov	eax, 2
0x40dcce:	mov	word ptr [rdi], si
0x40dcd1:	ret	
F 0x40e6d6
0x40bd51:	pop	rbp
0x40bd52:	pop	r12
0x40bd54:	ret	
F 0x40cc77
0x40cc77:	xor	byte ptr [rdx - 1], bh
0x40cc7d:	seta	al
0x40cc80:	movzx	eax, al
0x40cc83:	cmovb	eax, edx
0x40cc86:	ret	
F 0x410039
0x40ea79:	add	byte ptr [rbp + 0x47], dh
0x40ea7c:	add	rsp, 0x18
0x40ea80:	pop	rbx
0x40ea81:	pop	rbp
0x40ea82:	ret	
F 0x40dc10
0x40dc10:	mov	dword ptr [rdi], eax
0x40dc12:	mov	eax, 1
0x40dc17:	ret	
F 0x40e6d2
0x40e6d2:	mov	word ptr [rdi], dx
0x40e6d5:	pop	rbx
0x40e6d6:	pop	rbp
0x40e6d7:	pop	r12
0x40e6d9:	ret	
F 0x40cdee
0x40cc4e:	mov	edx, 0xffffffff
0x40cc53:	seta	al
0x40cc56:	movzx	eax, al
0x40cc59:	cmovb	eax, edx
0x40cc5c:	ret	
F 0x40d2ea
0x40a016:	ret	
F 0x4114b8
0x40aa94:	pop	rbx
0x40aa95:	pop	rbp
0x40aa96:	pop	r12
0x40aa98:	pop	r13
0x40aa9a:	pop	r14
0x40aa9c:	pop	r15
0x40aa9e:	ret	
F 0x410bac
0x410bac:	or	dh, 0x40
0x410baf:	test	al, 7
0x410bb1:	mov	eax, ecx
0x410bb3:	cmovne	eax, edx
0x410bb6:	mov	dword ptr [rip + 0x11460], eax
0x410bbc:	xor	eax, eax
0x410bbe:	ret	
F 0x40d1f6
0x40d1f6:	sub	eax, dword ptr [rsi + 0x35c]
0x40d1fc:	ret	
F 0x40fb35
0x40dc0f:	mov	word ptr [rdi], ax
0x40dc12:	mov	eax, 1
0x40dc17:	ret	
F 0x413d86
0x40aa95:	pop	rbp
0x40aa96:	pop	r12
0x40aa98:	pop	r13
0x40aa9a:	pop	r14
0x40aa9c:	pop	r15
0x40aa9e:	ret	
F 0x40cccb
0x40cccb:	add	byte ptr [rax], al
0x40cccd:	add	byte ptr [rdx - 1], bh
0x40ccd3:	setg	al
0x40ccd6:	movzx	eax, al
0x40ccd9:	cmovl	eax, edx
0x40ccdc:	ret	
F 0x40cdb9
0x40ccd9:	cmovl	eax, edx
0x40ccdc:	ret	
F 0x40cd36
0x40ccd6:	movzx	eax, al
0x40ccd9:	cmovl	eax, edx
0x40ccdc:	ret	
F 0x40cdcd
0x40cccd:	add	byte ptr [rdx - 1], bh
0x40ccd3:	setg	al
0x40ccd6:	movzx	eax, al
0x40ccd9:	cmovl	eax, edx
0x40ccdc:	ret	
F 0x40b234
0x40b234:	ret	0x4850
F 0x4143de
0x4143de:	add	byte ptr [rax - 0x77], cl
0x4143e2:	ret	0x8b48
F 0x40d4cb
0x40d4cb:	add	dword ptr [rax], eax
0x40d4cd:	add	byte ptr [rax], al
0x40d4cf:	ret	
F 0x40d2fb
0x40d2fb:	add	eax, dword ptr [rax]
0x40d2fd:	add	byte ptr [rdx - 1], bh
0x40d303:	seta	al
0x40d306:	movzx	eax, al
0x40d309:	cmovb	eax, edx
0x40d30c:	ret	
F 0x4139a6
0x40b4a6:	add	byte ptr [rax - 0x77], cl
0x40b4a9:	ret	0x21e8
F 0x410f7b
0x40ea80:	pop	rbx
0x40ea81:	pop	rbp
0x40ea82:	ret	
F 0x40d1de
0x40d1de:	add	byte ptr [rax], al
0x40d1e0:	mov	eax, dword ptr [rdi + 0x358]
0x40d1e6:	sub	eax, dword ptr [rsi + 0x358]
0x40d1ec:	ret	
F 0x40a00d
0x40a00d:	sal	byte ptr [rdx + rax - 1], 0xd0
0x40a012:	add	rsp, 8
0x40a016:	ret	
F 0x40d363
0x40cc53:	seta	al
0x40cc56:	movzx	eax, al
0x40cc59:	cmovb	eax, edx
0x40cc5c:	ret	
F 0x40d39e
0x40cc4e:	mov	edx, 0xffffffff
0x40cc53:	seta	al
0x40cc56:	movzx	eax, al
0x40cc59:	cmovb	eax, edx
0x40cc5c:	ret	
F 0x40e803
0x40e803:	pop	rdx
0x40e804:	pop	rcx
0x40e805:	pop	rbx
0x40e806:	pop	rbp
0x40e807:	pop	r12
0x40e809:	ret	
F 0x40ebe0
0x40a016:	ret	
F 0x4103b3
0x4103b3:	add	byte ptr [rax], 0
0x4103b6:	add	byte ptr [rax], al
0x4103b8:	xor	eax, eax
0x4103ba:	ret	
F 0x40cd19
0x40ccd9:	cmovl	eax, edx
0x40ccdc:	ret	
F 0x413fc8
0x413fc8:	mov	qword ptr [rax], r13
0x413fcb:	add	rsp, 8
0x413fcf:	mov	eax, 1
0x413fd4:	pop	rbx
0x413fd5:	pop	rbp
0x413fd6:	pop	r12
0x413fd8:	pop	r13
0x413fda:	ret	
F 0x40fb6e
0x40dc08:	add	byte ptr [rax], al
0x40dc0a:	mov	eax, 0x2d
0x40dc0f:	mov	word ptr [rdi], ax
0x40dc12:	mov	eax, 1
0x40dc17:	ret	
F 0x40d323
0x40cc53:	seta	al
0x40cc56:	movzx	eax, al
0x40cc59:	cmovb	eax, edx
0x40cc5c:	ret	
F 0x40f95c
0x40d7ba:	add	rsp, 0x18
0x40d7be:	ret	
F 0x40d2dc
0x40d2dc:	add	byte ptr [rax], al
0x40d2de:	add	byte ptr [rax], al
0x40d2e0:	xor	ecx, ecx
0x40d2e2:	xor	eax, eax
0x40d2e4:	cmp	rdi, rcx
0x40d2e7:	seta	al
0x40d2ea:	ret	
F 0x414231
0x414231:	sal	byte ptr [rbp + rax - 0x7d], cl
0x414235:	ret	
F 0x415b7f
0x415b7f:	sbb	eax, 0x83ffff45
0x415b84:	cmp	byte ptr [rcx], cl
0x415b86:	setne	al
0x415b89:	movzx	eax, al
0x415b8c:	neg	eax
0x415b8e:	pop	rbx
0x415b8f:	pop	rbp
0x415b90:	pop	r12
0x415b92:	ret	
F 0x40d9d9
0x40d9d9:	lea	eax, [r14 + 8]
0x40d9dd:	pop	rbx
0x40d9de:	pop	rbp
0x40d9df:	pop	r13
0x40d9e1:	pop	r14
0x40d9e3:	ret	
F 0x40a00a
0x40a00a:	add	byte ptr [rax - 0x7b], cl
0x40a00d:	sal	byte ptr [rdx + rax - 1], 0xd0
0x40a012:	add	rsp, 8
0x40a016:	ret	
F 0x410ac4
0x410ac4:	ror	byte ptr [rcx + 0x3289505], 0
0x410acb:	add	rsp, 8
0x410acf:	pop	rbx
0x410ad0:	pop	rbp
0x410ad1:	ret	
F 0x40ed09
0x40a016:	ret	
F 0x41460a
0x40bd50:	pop	rbx
0x40bd51:	pop	rbp
0x40bd52:	pop	r12
0x40bd54:	ret	
F 0x410b29
0x410b29:	ret	0xa1e8
F 0x40b160
0x40b11f:	jmp	rax
F 0x413faa
0x413faa:	mov	dword ptr [rsp], ebp
0x413fad:	add	rsp, 8
0x413fb1:	pop	rbx
0x413fb2:	pop	rbp
0x413fb3:	pop	r12
0x413fb5:	pop	r13
0x413fb7:	ret	
F 0x40d2e4
0x40d2e4:	cmp	rdi, rcx
0x40d2e7:	seta	al
0x40d2ea:	ret	
F 0x40cc2a
0x40cc2a:	test	byte ptr [rax], al
0x40cc2c:	add	byte ptr [rax], al
0x40cc2e:	add	byte ptr [rax], al
0x40cc30:	xor	eax, eax
0x40cc32:	ret	
F 0x40d1ce
0x40d1ce:	add	byte ptr [rax], al
0x40d1d0:	mov	eax, dword ptr [rdi + 4]
0x40d1d3:	sub	eax, dword ptr [rsi + 4]
0x40d1d6:	ret	
F 0x4103e1
0x4103b1:	nop	dword ptr [rax]
0x4103b8:	xor	eax, eax
0x4103ba:	ret	
F 0x40b8d4
0x40b8d4:	add	rsp, 0x28
0x40b8d8:	xor	eax, eax
0x40b8da:	pop	rbx
0x40b8db:	pop	rbp
0x40b8dc:	pop	r12
0x40b8de:	pop	r13
0x40b8e0:	pop	r14
0x40b8e2:	pop	r15
0x40b8e4:	ret	
F 0x40cca0
0x40cca0:	mov	eax, dword ptr [rdi + 0x360]
0x40cca6:	sub	eax, dword ptr [rsi + 0x360]
0x40ccac:	ret	
F 0x415b8e
0x40bd50:	pop	rbx
0x40bd51:	pop	rbp
0x40bd52:	pop	r12
0x40bd54:	ret	
F 0x413e9d
0x413e9d:	add	dword ptr [rax], eax
0x413e9f:	add	byte ptr [rax], al
0x413ea1:	jmp	0x413d7e
F 0x40fd01
0x40dc0b:	sub	eax, 0x66000000
0x40dc10:	mov	dword ptr [rdi], eax
0x40dc12:	mov	eax, 1
0x40dc17:	ret	
F 0x40f8cb
0x40a016:	ret	
F 0x410202
0x40a016:	ret	
F 0x4141f4
0x4141f4:	ret	0xd6e8
F 0x40dc6d
0x40dc6d:	add	dh, al
0x40dc6f:	add	r8b, byte ptr [r8]
0x40dc72:	mov	eax, 2
0x40dc77:	mov	word ptr [rdi], r9w
0x40dc7b:	ret	
F 0x40fd08
0x40d4ca:	mov	eax, 1
0x40d4cf:	ret	
F 0x40cd2e
0x40ccce:	mov	edx, 0xffffffff
0x40ccd3:	setg	al
0x40ccd6:	movzx	eax, al
0x40ccd9:	cmovl	eax, edx
0x40ccdc:	ret	
F 0x40d367
0x40cc57:	mov	dh, 0xc0
0x40cc59:	cmovb	eax, edx
0x40cc5c:	ret	
F 0x40fbad
0x40fb2d:	add	byte ptr [rax], r8b
0x40fb30:	mov	eax, 0x2d
0x40fb35:	mov	word ptr [rdi], ax
0x40fb38:	mov	eax, 1
0x40fb3d:	ret	
F 0x40ccb1
0x40ccb1:	mov	eax, dword ptr [rdi + 0xe0]
0x40ccb7:	sub	eax, dword ptr [rsi + 0xe0]
0x40ccbd:	ret	
F 0x41559a
0x40a016:	ret	
F 0x40d399
0x40d399:	xchg	eax, ecx
0x40d39b:	add	eax, dword ptr [rax]
0x40d39d:	add	byte ptr [rdx - 1], bh
0x40d3a3:	seta	al
0x40d3a6:	movzx	eax, al
0x40d3a9:	cmovb	eax, edx
0x40d3ac:	ret	
F 0x40dd2f
0x40a016:	ret	
F 0x40d47b
0x40d47b:	ror	byte ptr [rax + 1], 0xf8
0x40d47f:	mov	byte ptr [rax], 0
0x40d482:	mov	eax, r8d
0x40d485:	ret	
F 0x4130b7
0x4130b7:	test	dword ptr [rcx], 0x18c48348
0x4130bd:	mov	eax, r15d
0x4130c0:	pop	rbx
0x4130c1:	pop	rbp
0x4130c2:	pop	r12
0x4130c4:	pop	r13
0x4130c6:	pop	r14
0x4130c8:	pop	r15
0x4130ca:	ret	
F 0x40cc83
0x40cc59:	cmovb	eax, edx
0x40cc5c:	ret	
F 0x40de64
0x40d7ba:	add	rsp, 0x18
0x40d7be:	ret	
F 0x40f8c7
0x40bd50:	pop	rbx
0x40bd51:	pop	rbp
0x40bd52:	pop	r12
0x40bd54:	ret	
F 0x40eb7e
0x40eb1b:	add	eax, 0x18c48348
0x40eb20:	ret	
F 0x40db24
0x40db24:	add	byte ptr [rax], al
0x40db26:	add	byte ptr [rbp + rcx*4 + 5], cl
0x40db2a:	ret	
F 0x4143f8
0x4143f8:	adc	byte ptr [rax - 0x7d], cl
0x4143fb:	ret	
F 0x40d479
0x40d479:	movsxd	rax, r8d
0x40d47c:	add	rax, rdi
0x40d47f:	mov	byte ptr [rax], 0
0x40d482:	mov	eax, r8d
0x40d485:	ret	
F 0x40d080
0x40cc56:	movzx	eax, al
0x40cc59:	cmovb	eax, edx
0x40cc5c:	ret	
F 0x413809
0x40aa9b:	pop	rsi
0x40aa9c:	pop	r15
0x40aa9e:	ret	
F 0x40d8a7
0x40d8a7:	mov	eax, 3
0x40d8ac:	add	rsp, 8
0x40d8b0:	ret	
F 0x40dc40
0x40dc40:	add	byte ptr [rax + 2], bh
0x40dc46:	mov	word ptr [rdi], dx
0x40dc49:	ret	
F 0x40dc60
0x40dc60:	mov	dword ptr [rdi], r10d
0x40dc63:	ret	
F 0x40cd4e
0x40ccce:	mov	edx, 0xffffffff
0x40ccd3:	setg	al
0x40ccd6:	movzx	eax, al
0x40ccd9:	cmovl	eax, edx
0x40ccdc:	ret	
F 0x40d9e2
0x40b5ab:	pop	rsi
0x40b5ac:	ret	
F 0x40bd4f
0x40bd4f:	and	byte ptr [rbx + 0x5d], bl
0x40bd52:	pop	r12
0x40bd54:	ret	
F 0x40dc7b
0x40a016:	ret	
F 0x40dc23
0x40dc23:	add	byte ptr [rax], al
0x40dc25:	mov	byte ptr [rdi + 2], 0
0x40dc29:	mov	eax, 2
0x40dc2e:	mov	word ptr [rdi], cx
0x40dc31:	ret	
F 0x40dc2e
0x40dc2e:	mov	word ptr [rdi], cx
0x40dc31:	ret	
F 0x40fcbf
0x40dc09:	add	byte ptr [rax + 0x2d], bh
0x40dc0f:	mov	word ptr [rdi], ax
0x40dc12:	mov	eax, 1
0x40dc17:	ret	
F 0x40d277
0x40d277:	mov	edx, 0xffffffff
0x40d27c:	cmp	rcx, rax
0x40d27f:	seta	al
0x40d282:	movzx	eax, al
0x40d285:	cmovb	eax, edx
0x40d288:	ret	
F 0x41139e
0x41139e:	add	byte ptr [rax - 0x77], cl
0x4113a1:	ret	0x8948
F 0x40cd0e
0x40ccce:	mov	edx, 0xffffffff
0x40ccd3:	setg	al
0x40ccd6:	movzx	eax, al
0x40ccd9:	cmovl	eax, edx
0x40ccdc:	ret	
F 0x40cf94
0x40cf94:	cmp	qword ptr [rdi + 0x20], rax
0x40cf98:	mov	edx, 0xffffffff
0x40cf9d:	seta	al
0x40cfa0:	movzx	eax, al
0x40cfa3:	cmovb	eax, edx
0x40cfa6:	ret	
F 0x40d31a
0x40d31a:	test	al, 3
0x40d31c:	add	byte ptr [rax], al
0x40d31e:	mov	edx, 0xffffffff
0x40d323:	seta	al
0x40d326:	movzx	eax, al
0x40d329:	cmovb	eax, edx
0x40d32c:	ret	
F 0x40e6cb
0x40e6cb:	add	byte ptr [rax], al
0x40e6cd:	mov	eax, 1
0x40e6d2:	mov	word ptr [rdi], dx
0x40e6d5:	pop	rbx
0x40e6d6:	pop	rbp
0x40e6d7:	pop	r12
0x40e6d9:	ret	
F 0x410be0
0x410be0:	mov	dword ptr [rip + 0x11432], 0x100
0x410bea:	xor	eax, eax
0x410bec:	ret	
F 0x40fd9f
0x40ea7f:	sbb	byte ptr [rbx + 0x5d], bl
0x40ea82:	ret	
F 0x40ebdb
0x40eb1b:	add	eax, 0x18c48348
0x40eb20:	ret	
F 0x40fb33
0x40dc0d:	add	byte ptr [rax], al
0x40dc0f:	mov	word ptr [rdi], ax
0x40dc12:	mov	eax, 1
0x40dc17:	ret	
F 0x40d32c
0x40a016:	ret	
F 0x4143df
0x40d3bd:	add	byte ptr [rax - 0x77], cl
0x40d3c0:	ret	0x8b48
F 0x40d1a7
0x40ccd9:	cmovl	eax, edx
0x40ccdc:	ret	
F 0x40cf7b
0x40cc4b:	add	dword ptr [rax], eax
0x40cc4d:	add	byte ptr [rdx - 1], bh
0x40cc53:	seta	al
0x40cc56:	movzx	eax, al
0x40cc59:	cmovb	eax, edx
0x40cc5c:	ret	
F 0x40d099
0x40d099:	xchg	eax, edx
0x40d09b:	add	byte ptr [rax], al
0x40d09d:	add	byte ptr [rdx - 1], bh
0x40d0a3:	seta	al
0x40d0a6:	movzx	eax, al
0x40d0a9:	cmovb	eax, edx
0x40d0ac:	ret	
F 0x415575
0x415575:	or	byte ptr [rax - 0x77], cl
0x415578:	adc	byte ptr [rax - 0x77], cl
0x41557b:	ret	0x8548
F 0x40d1c7
0x40d1c7:	nop	dword ptr cs:[rax + rax]
0x40d1d0:	mov	eax, dword ptr [rdi + 4]
0x40d1d3:	sub	eax, dword ptr [rsi + 4]
0x40d1d6:	ret	
F 0x40d1ad
0x40d1ad:	add	byte ptr [rax], r8b
0x40d1b0:	mov	eax, dword ptr [rdi + 0x364]
0x40d1b6:	sub	eax, dword ptr [rsi + 0x364]
0x40d1bc:	ret	
F 0x4114b7
0x4114b7:	pop	rbx
0x4114b9:	pop	rbp
0x4114ba:	pop	r12
0x4114bc:	pop	r13
0x4114be:	pop	r14
0x4114c0:	pop	r15
0x4114c2:	ret	
F 0x40ee50
0x40a016:	ret	
F 0x40f74c
0x40ed07:	pop	r13
0x40ed09:	ret	
F 0x4101ff
0x40ea7f:	sbb	byte ptr [rbx + 0x5d], bl
0x40ea82:	ret	
F 0x4102e0
0x40ea80:	pop	rbx
0x40ea81:	pop	rbp
0x40ea82:	ret	
F 0x40cf23
0x40cc53:	seta	al
0x40cc56:	movzx	eax, al
0x40cc59:	cmovb	eax, edx
0x40cc5c:	ret	
F 0x40fbed
0x40fb2d:	add	byte ptr [rax], r8b
0x40fb30:	mov	eax, 0x2d
0x40fb35:	mov	word ptr [rdi], ax
0x40fb38:	mov	eax, 1
0x40fb3d:	ret	
F 0x40fb38
0x40d4ca:	mov	eax, 1
0x40d4cf:	ret	
F 0x40dd74
0x40d7ba:	add	rsp, 0x18
0x40d7be:	ret	
F 0x40e071
0x40a016:	ret	
F 0x410b4a
0x410b4a:	add	eax, 0x32811
0x410b4f:	add	rsp, 8
0x410b53:	pop	rbx
0x410b54:	pop	rbp
0x410b55:	ret	
F 0x40aa9a
0x40aa9a:	pop	r14
0x40aa9c:	pop	r15
0x40aa9e:	ret	
F 0x40fcc1
0x40dc0b:	sub	eax, 0x66000000
0x40dc10:	mov	dword ptr [rdi], eax
0x40dc12:	mov	eax, 1
0x40dc17:	ret	
F 0x40b126
0x40b126:	add	byte ptr [rax], al
0x40b128:	ret	
F 0x41124d
0x40a016:	ret	
F 0x415b85
0x415b85:	or	dword ptr [rdi], ecx
0x415b87:	xchg	eax, ebp
0x415b88:	ror	byte ptr [rdi], 0xb6
0x415b8b:	sal	bh, 0xd8
0x415b8e:	pop	rbx
0x415b8f:	pop	rbp
0x415b90:	pop	r12
0x415b92:	ret	
F 0x40b19e
0x40b19e:	add	dword ptr [rbp - 0x3d], ebx
0x40b1a1:	nop	dword ptr [rax]
0x40b1a8:	ret	
F 0x40e68b
0x40e68b:	mov	ebp, 0x44c6ffff
0x40e690:	sbb	eax, 0xd8890000
0x40e695:	pop	rbx
0x40e696:	pop	rbp
0x40e697:	pop	r12
0x40e699:	ret	
F 0x40f74e
0x40a016:	ret	
F 0x40d9e3
0x40a016:	ret	
F 0x40d3a3
0x40cc53:	seta	al
0x40cc56:	movzx	eax, al
0x40cc59:	cmovb	eax, edx
0x40cc5c:	ret	
F 0x40d3d0
0x40d3d0:	cmp	edx, eax
0x40d3d2:	mov	edx, 0xffffffff
0x40d3d7:	seta	al
0x40d3da:	movzx	eax, al
0x40d3dd:	cmovb	eax, edx
0x40d3e0:	ret	
F 0x413fda
0x40a016:	ret	
F 0x40fbfd
0x40a016:	ret	
F 0x41380b
0x40aa9d:	pop	rdi
0x40aa9e:	ret	
F 0x40fd9b
0x40ea7b:	add	rsp, 0x18
0x40ea80:	pop	rbx
0x40ea81:	pop	rbp
0x40ea82:	ret	
F 0x40dca0
0x40dca0:	mov	dword ptr [rdi], 0x4c4449
0x40dca6:	mov	eax, 3
0x40dcab:	ret	
F 0x40e5e8
0x40a016:	ret	
F 0x40fc76
0x40dc10:	mov	dword ptr [rdi], eax
0x40dc12:	mov	eax, 1
0x40dc17:	ret	
F 0x40f9fe
0x40d4ca:	mov	eax, 1
0x40d4cf:	ret	
F 0x40d0a6
0x40cc56:	movzx	eax, al
0x40cc59:	cmovb	eax, edx
0x40cc5c:	ret	
F 0x40e06a
0x40e06a:	mov	dword ptr [rdi], eax
0x40e06c:	mov	eax, 2
0x40e071:	ret	
F 0x40ce4d
0x40cc4d:	add	byte ptr [rdx - 1], bh
0x40cc53:	seta	al
0x40cc56:	movzx	eax, al
0x40cc59:	cmovb	eax, edx
0x40cc5c:	ret	
F 0x40d124
0x40ccd6:	movzx	eax, al
0x40ccd9:	cmovl	eax, edx
0x40ccdc:	ret	
F 0x40ccec
0x40cccc:	add	byte ptr [rax], al
0x40ccce:	mov	edx, 0xffffffff
0x40ccd3:	setg	al
0x40ccd6:	movzx	eax, al
0x40ccd9:	cmovl	eax, edx
0x40ccdc:	ret	
F 0x40dc7c
0x40dc7c:	nop	dword ptr [rax]
0x40dc80:	mov	r8d, 0x42
0x40dc86:	mov	eax, 1
0x40dc8b:	mov	word ptr [rdi], r8w
0x40dc8f:	ret	
F 0x40f003
0x40f003:	add	rsp, 0x40
0x40f007:	pop	rbx
0x40f008:	pop	rbp
0x40f009:	pop	r12
0x40f00b:	ret	
F 0x40db26
0x40db26:	add	byte ptr [rbp + rcx*4 + 5], cl
0x40db2a:	ret	
F 0x413912
0x40d3c0:	ret	0x8b48
F 0x40f8cf
0x40f8cf:	add	byte ptr [rax + 0x2d], bh
0x40f8d5:	mov	word ptr [rdi], ax
0x40f8d8:	mov	eax, 1
0x40f8dd:	pop	rbx
0x40f8de:	pop	rbp
0x40f8df:	pop	r12
0x40f8e1:	ret	
F 0x40fe79
0x40ea79:	add	byte ptr [rbp + 0x47], dh
0x40ea7c:	add	rsp, 0x18
0x40ea80:	pop	rbx
0x40ea81:	pop	rbp
0x40ea82:	ret	
F 0x40d38c
0x40a016:	ret	
F 0x4135c3
0x40a016:	ret	
F 0x40d288
0x40a016:	ret	
F 0x40d17b
0x40cccd:	add	byte ptr [rdx - 1], bh
0x40ccd3:	setg	al
0x40ccd6:	movzx	eax, al
0x40ccd9:	cmovl	eax, edx
0x40ccdc:	ret	
F 0x412767
0x412767:	add	al, ch
0x412769:	ret	
F 0x40dd6f
0x40dd6f:	mov	eax, 0x10
0x40dd74:	add	rsp, 0x18
0x40dd78:	ret	
F 0x40ff5b
0x40ea7b:	add	rsp, 0x18
0x40ea80:	pop	rbx
0x40ea81:	pop	rbp
0x40ea82:	ret	
F 0x4114b9
0x40aa95:	pop	rbp
0x40aa96:	pop	r12
0x40aa98:	pop	r13
0x40aa9a:	pop	r14
0x40aa9c:	pop	r15
0x40aa9e:	ret	
F 0x414cfc
0x40a016:	ret	
F 0x40dc63
0x40a016:	ret	
F 0x40aef4
0x40a016:	ret	
F 0x40e06c
0x40e06c:	mov	eax, 2
0x40e071:	ret	
F 0x4103e8
0x40cc30:	xor	eax, eax
0x40cc32:	ret	
F 0x411032
0x410f72:	add	byte ptr [rax], al
0x410f74:	add	byte ptr [rbp + 0x5d], dh
0x410f77:	add	rsp, 0x18
0x410f7b:	pop	rbx
0x410f7c:	pop	rbp
0x410f7d:	ret	
F 0x40d0d9
0x40d0b9:	add	eax, dword ptr [rax]
0x40d0bb:	add	byte ptr [rdx - 1], bh
0x40d0c1:	setg	al
0x40d0c4:	movzx	eax, al
0x40d0c7:	cmovl	eax, edx
0x40d0ca:	ret	
F 0x413d8e
0x40aa9d:	pop	rdi
0x40aa9e:	ret	
F 0x40ee4a
0x40ee4a:	sbb	byte ptr [rax], al
0x40ee4c:	add	byte ptr [rax], al
0x40ee4e:	pop	rbx
0x40ee4f:	pop	rbp
0x40ee50:	ret	
F 0x40ce6c
0x40cc4c:	add	byte ptr [rax], al
0x40cc4e:	mov	edx, 0xffffffff
0x40cc53:	seta	al
0x40cc56:	movzx	eax, al
0x40cc59:	cmovb	eax, edx
0x40cc5c:	ret	
F 0x40cd2c
0x40cccc:	add	byte ptr [rax], al
0x40ccce:	mov	edx, 0xffffffff
0x40ccd3:	setg	al
0x40ccd6:	movzx	eax, al
0x40ccd9:	cmovl	eax, edx
0x40ccdc:	ret	
F 0x412765
0x412765:	add	byte ptr [rax], al
0x412767:	add	al, ch
0x412769:	ret	
F 0x40fcc0
0x40dc0a:	mov	eax, 0x2d
0x40dc0f:	mov	word ptr [rdi], ax
0x40dc12:	mov	eax, 1
0x40dc17:	ret	
F 0x414096
0x40aa9d:	pop	rdi
0x40aa9e:	ret	
F 0x4103ba
0x40a016:	ret	
F 0x40ce8d
0x40cc4d:	add	byte ptr [rdx - 1], bh
0x40cc53:	seta	al
0x40cc56:	movzx	eax, al
0x40cc59:	cmovb	eax, edx
0x40cc5c:	ret	
F 0x40f8dd
0x40bd50:	pop	rbx
0x40bd51:	pop	rbp
0x40bd52:	pop	r12
0x40bd54:	ret	
F 0x40f371
0x40f371:	add	byte ptr [rdi], cl
0x40f373:	test	dword ptr [rdi + 1], ebx
0x40f376:	add	byte ptr [rax], al
0x40f378:	add	rsp, 0x58
0x40f37c:	pop	rbx
0x40f37d:	pop	rbp
0x40f37e:	pop	r12
0x40f380:	pop	r13
0x40f382:	ret	
F 0x40ee40
0x40ee40:	add	byte ptr [rax], al
0x40ee42:	add	byte ptr [rbp + 0xc], dh
0x40ee45:	add	rsp, 0x18
0x40ee49:	mov	eax, 0x18
0x40ee4e:	pop	rbx
0x40ee4f:	pop	rbp
0x40ee50:	ret	
F 0x415c8c
0x40a016:	ret	
F 0x413949
0x413949:	add	cl, byte ptr [rax - 0x77]
0x41394c:	imul	ecx, dword ptr [rax], 0x5b
0x41394f:	pop	rbp
0x413950:	pop	r12
0x413952:	ret	
F 0x411241
0x411241:	mov	eax, eax
0x411243:	pop	rbx
0x411244:	pop	rbp
0x411245:	pop	r12
0x411247:	pop	r13
0x411249:	pop	r14
0x41124b:	pop	r15
0x41124d:	ret	
F 0x40b128
0x40a016:	ret	
F 0x410464
0x40aa9d:	pop	rdi
0x40aa9e:	ret	
F 0x41368f
0x41368f:	add	byte ptr [rax], al
0x413691:	add	rsp, 0x138
0x413698:	xor	eax, eax
0x41369a:	pop	rbx
0x41369b:	pop	rbp
0x41369c:	ret	
F 0x415b8a
0x415b8a:	mov	dh, 0xc0
0x415b8c:	neg	eax
0x415b8e:	pop	rbx
0x415b8f:	pop	rbp
0x415b90:	pop	r12
0x415b92:	ret	
F 0x40fa66
0x40dc10:	mov	dword ptr [rdi], eax
0x40dc12:	mov	eax, 1
0x40dc17:	ret	
F 0x411e19
0x411e19:	xor	eax, eax
0x411e1b:	jmp	0x411ddf
F 0x40f744
0x40ecff:	add	rsp, 0x18
0x40ed03:	pop	rbx
0x40ed04:	pop	rbp
0x40ed05:	pop	r12
0x40ed07:	pop	r13
0x40ed09:	ret	
F 0x413942
0x413942:	cmc	
0x413943:	mov	rax, qword ptr [rbx + 8]
0x413947:	mov	qword ptr [rdx], rax
0x41394a:	mov	qword ptr [rbx + 8], rbp
0x41394e:	pop	rbx
0x41394f:	pop	rbp
0x413950:	pop	r12
0x413952:	ret	
F 0x40fc39
0x40d4cb:	add	dword ptr [rax], eax
0x40d4cd:	add	byte ptr [rax], al
0x40d4cf:	ret	
F 0x40d4ca
0x40d4ca:	mov	eax, 1
0x40d4cf:	ret	
F 0x40e68f
0x40e68f:	sbb	eax, 0xd8890000
0x40e695:	pop	rbx
0x40e696:	pop	rbp
0x40e697:	pop	r12
0x40e699:	ret	
F 0x40cd3c
0x40a016:	ret	
F 0x40d6f2
0x40d6f2:	ret	0x8948
F 0x40dcee
0x40dcee:	add	byte ptr [rax + 0x3f], dil
0x40dcf5:	mov	word ptr [rdi], ax
0x40dcf8:	mov	eax, 1
0x40dcfd:	ret	
F 0x40d2fc
0x40cc4c:	add	byte ptr [rax], al
0x40cc4e:	mov	edx, 0xffffffff
0x40cc53:	seta	al
0x40cc56:	movzx	eax, al
0x40cc59:	cmovb	eax, edx
0x40cc5c:	ret	
F 0x40dc99
0x40b126:	add	byte ptr [rax], al
0x40b128:	ret	
F 0x40cd6c
0x40cccc:	add	byte ptr [rax], al
0x40ccce:	mov	edx, 0xffffffff
0x40ccd3:	setg	al
0x40ccd6:	movzx	eax, al
0x40ccd9:	cmovl	eax, edx
0x40ccdc:	ret	
F 0x40fc2d
0x40fb2d:	add	byte ptr [rax], r8b
0x40fb30:	mov	eax, 0x2d
0x40fb35:	mov	word ptr [rdi], ax
0x40fb38:	mov	eax, 1
0x40fb3d:	ret	
F 0x40cd4c
0x40cccc:	add	byte ptr [rax], al
0x40ccce:	mov	edx, 0xffffffff
0x40ccd3:	setg	al
0x40ccd6:	movzx	eax, al
0x40ccd9:	cmovl	eax, edx
0x40ccdc:	ret	
F 0x40d3e0
0x40a016:	ret	
F 0x40ea82
0x40a016:	ret	
F 0x40fc30
0x40dc0a:	mov	eax, 0x2d
0x40dc0f:	mov	word ptr [rdi], ax
0x40dc12:	mov	eax, 1
0x40dc17:	ret	
F 0x40dc8f
0x40a016:	ret	
F 0x415bee
0x40b627:	pop	rbx
0x40b628:	ret	
F 0x40ed07
0x40ed07:	pop	r13
0x40ed09:	ret	
F 0x40d245
0x40d245:	mov	esi, 0xd0291c56
0x40d24a:	ret	
F 0x4108e5
0x40aa9b:	pop	rsi
0x40aa9c:	pop	r15
0x40aa9e:	ret	
F 0x40ee4b
0x40edbf:	add	byte ptr [rax], al
0x40edc1:	add	byte ptr [rbx + 0x5d], bl
0x40edc4:	ret	
F 0x40cf5b
0x40cc4b:	add	dword ptr [rax], eax
0x40cc4d:	add	byte ptr [rdx - 1], bh
0x40cc53:	seta	al
0x40cc56:	movzx	eax, al
0x40cc59:	cmovb	eax, edx
0x40cc5c:	ret	
F 0x40d47f
0x40d47f:	mov	byte ptr [rax], 0
0x40d482:	mov	eax, r8d
0x40d485:	ret	
F 0x40b5a1
0x40b5a1:	add	byte ptr [rax + rax], al
0x40b5a4:	pop	rbx
0x40b5a5:	pop	rbp
0x40b5a6:	pop	r12
0x40b5a8:	pop	r13
0x40b5aa:	pop	r14
0x40b5ac:	ret	
F 0x40ddb2
0x40dd72:	add	byte ptr [rax], al
0x40dd74:	add	rsp, 0x18
0x40dd78:	ret	
F 0x40dc17
0x40a016:	ret	
F 0x41011b
0x40ea7b:	add	rsp, 0x18
0x40ea80:	pop	rbx
0x40ea81:	pop	rbp
0x40ea82:	ret	
F 0x40e4e8
0x40e4e8:	ret	0x8d48
F 0x40ff57
0x40ea77:	add	byte ptr [rax], al
0x40ea79:	add	byte ptr [rbp + 0x47], dh
0x40ea7c:	add	rsp, 0x18
0x40ea80:	pop	rbx
0x40ea81:	pop	rbp
0x40ea82:	ret	
F 0x40f382
0x40a016:	ret	
F 0x40ce37
0x40cc57:	mov	dh, 0xc0
0x40cc59:	cmovb	eax, edx
0x40cc5c:	ret	
F 0x40e73a
0x40a016:	ret	
F 0x40cf5e
0x40cc4e:	mov	edx, 0xffffffff
0x40cc53:	seta	al
0x40cc56:	movzx	eax, al
0x40cc59:	cmovb	eax, edx
0x40cc5c:	ret	
F 0x414cf8
0x414cf8:	sub	al, byte ptr [rax]
0x414cfa:	add	cl, ch
0x414cfc:	ret	
F 0x40fccb
0x40b126:	add	byte ptr [rax], al
0x40b128:	ret	
F 0x40d2de
0x40d2de:	add	byte ptr [rax], al
0x40d2e0:	xor	ecx, ecx
0x40d2e2:	xor	eax, eax
0x40d2e4:	cmp	rdi, rcx
0x40d2e7:	seta	al
0x40d2ea:	ret	
F 0x40d1c4
0x40a016:	ret	
F 0x40cfdd
0x40cc4d:	add	byte ptr [rdx - 1], bh
0x40cc53:	seta	al
0x40cc56:	movzx	eax, al
0x40cc59:	cmovb	eax, edx
0x40cc5c:	ret	
F 0x40f9fc
0x40dc10:	mov	dword ptr [rdi], eax
0x40dc12:	mov	eax, 1
0x40dc17:	ret	
F 0x410372
0x410372:	add	byte ptr [rax], al
0x410374:	add	byte ptr [rcx], dh
0x410376:	shr	al, 0x24
0x410379:	movabs	eax, dword ptr [0x834830538b48ffff]
0x410382:	ret	
F 0x413d83
0x413d83:	mov	eax, esi
0x413d85:	pop	rbx
0x413d86:	pop	rbp
0x413d87:	pop	r12
0x413d89:	pop	r13
0x413d8b:	pop	r14
0x413d8d:	pop	r15
0x413d8f:	ret	
F 0x40cc76
0x40cc76:	xor	byte ptr [r10 - 1], r15b
0x40cc7d:	seta	al
0x40cc80:	movzx	eax, al
0x40cc83:	cmovb	eax, edx
0x40cc86:	ret	
F 0x40dc3e
0x40dc3e:	add	r8b, byte ptr [r8]
0x40dc41:	mov	eax, 2
0x40dc46:	mov	word ptr [rdi], dx
0x40dc49:	ret	
F 0x413bc2
0x413bc2:	add	byte ptr [rax - 0x77], cl
0x413bc5:	ret	0x5e8
F 0x40cffc
0x40cc4c:	add	byte ptr [rax], al
0x40cc4e:	mov	edx, 0xffffffff
0x40cc53:	seta	al
0x40cc56:	movzx	eax, al
0x40cc59:	cmovb	eax, edx
0x40cc5c:	ret	
F 0x40d31d
0x40cc4d:	add	byte ptr [rdx - 1], bh
0x40cc53:	seta	al
0x40cc56:	movzx	eax, al
0x40cc59:	cmovb	eax, edx
0x40cc5c:	ret	
F 0x40cefd
0x40cefd:	nop	dword ptr [rax]
0x40cf00:	mov	rax, qword ptr [rdi + 0x1a8]
0x40cf07:	sub	eax, dword ptr [rsi + 0x1a8]
0x40cf0d:	ret	
F 0x40cc6b
0x40b126:	add	byte ptr [rax], al
0x40b128:	ret	
F 0x40bd4a
0x40bd4a:	add	byte ptr [rax], al
0x40bd4c:	add	rsp, 0x20
0x40bd50:	pop	rbx
0x40bd51:	pop	rbp
0x40bd52:	pop	r12
0x40bd54:	ret	
F 0x40cd8a
0x40cd8a:	sbb	byte ptr [rcx], al
0x40cd8c:	add	byte ptr [rax], al
0x40cd8e:	mov	edx, 0xffffffff
0x40cd93:	setg	al
0x40cd96:	movzx	eax, al
0x40cd99:	cmovl	eax, edx
0x40cd9c:	ret	
F 0x40d1a1
0x40ccd3:	setg	al
0x40ccd6:	movzx	eax, al
0x40ccd9:	cmovl	eax, edx
0x40ccdc:	ret	
F 0x40d483
0x40d483:	mov	eax, eax
0x40d485:	ret	
F 0x40b479
0x40b479:	sub	byte ptr [rbx + 0x5d], bl
0x40b47c:	pop	r12
0x40b47e:	pop	r13
0x40b480:	pop	r14
0x40b482:	pop	r15
0x40b484:	ret	
F 0x413fa7
0x413fa7:	add	byte ptr [rax], al
0x413fa9:	mov	qword ptr [r12], r13
0x413fad:	add	rsp, 8
0x413fb1:	pop	rbx
0x413fb2:	pop	rbp
0x413fb3:	pop	r12
0x413fb5:	pop	r13
0x413fb7:	ret	
F 0x40cf87
0x40cc57:	mov	dh, 0xc0
0x40cc59:	cmovb	eax, edx
0x40cc5c:	ret	
F 0x40fe80
0x40ea80:	pop	rbx
0x40ea81:	pop	rbp
0x40ea82:	ret	
F 0x40ee4d
0x40edc1:	add	byte ptr [rbx + 0x5d], bl
0x40edc4:	ret	
F 0x4102dc
0x40ea7c:	add	rsp, 0x18
0x40ea80:	pop	rbx
0x40ea81:	pop	rbp
0x40ea82:	ret	
F 0x40bd51
0x40bd51:	pop	rbp
0x40bd52:	pop	r12
0x40bd54:	ret	
F 0x413d87
0x40aa96:	pop	r12
0x40aa98:	pop	r13
0x40aa9a:	pop	r14
0x40aa9c:	pop	r15
0x40aa9e:	ret	
F 0x4142e0
0x4142e0:	ret	0x8548
F 0x40f380
0x40ed07:	pop	r13
0x40ed09:	ret	
F 0x40f86b
0x40dc0d:	add	byte ptr [rax], al
0x40dc0f:	mov	word ptr [rdi], ax
0x40dc12:	mov	eax, 1
0x40dc17:	ret	
F 0x410d04
0x40ed05:	pop	r12
0x40ed07:	pop	r13
0x40ed09:	ret	
F 0x40d18a
0x40a016:	ret	
F 0x4108e7
0x40aa9d:	pop	rdi
0x40aa9e:	ret	
F 0x40f8dc
0x40f8dc:	add	byte ptr [rbx + 0x5d], bl
0x40f8df:	pop	r12
0x40f8e1:	ret	
F 0x40cc74
0x40cc74:	cmp	qword ptr [rdi + 0x30], rax
0x40cc78:	mov	edx, 0xffffffff
0x40cc7d:	seta	al
0x40cc80:	movzx	eax, al
0x40cc83:	cmovb	eax, edx
0x40cc86:	ret	
F 0x40be7d
0x40a016:	ret	
F 0x415c87
0x40aa99:	pop	rbp
0x40aa9a:	pop	r14
0x40aa9c:	pop	r15
0x40aa9e:	ret	
F 0x40b165
0x40b165:	add	byte ptr [rax], r8b
0x40b168:	ret	
F 0x40eb83
0x40a016:	ret	
F 0x40ceed
0x40cc4d:	add	byte ptr [rdx - 1], bh
0x40cc53:	seta	al
0x40cc56:	movzx	eax, al
0x40cc59:	cmovb	eax, edx
0x40cc5c:	ret	
F 0x40f74d
0x40b19f:	pop	rbp
0x40b1a0:	ret	
F 0x410ac5
0x410ac5:	mov	dword ptr [rip + 0x32895], eax
0x410acb:	add	rsp, 8
0x410acf:	pop	rbx
0x410ad0:	pop	rbp
0x410ad1:	ret	
F 0x41394c
0x41394c:	imul	ecx, dword ptr [rax], 0x5b
0x41394f:	pop	rbp
0x413950:	pop	r12
0x413952:	ret	
F 0x412ef1
0x412ef1:	mov	dword ptr [rip + 0x30495], 0x303
0x412efb:	xor	eax, eax
0x412efd:	ret	
F 0x40cc81
0x40cc57:	mov	dh, 0xc0
0x40cc59:	cmovb	eax, edx
0x40cc5c:	ret	
F 0x41103b
0x40ea80:	pop	rbx
0x40ea81:	pop	rbp
0x40ea82:	ret	
F 0x40d4c2
0x40d4c2:	sbb	al, 0xc6
0x40d4c5:	add	dword ptr [r8], r8d
0x40d4c8:	mov	byte ptr [rdi], al
0x40d4ca:	mov	eax, 1
0x40d4cf:	ret	
F 0x40d9dd
0x40d9dd:	pop	rbx
0x40d9de:	pop	rbp
0x40d9df:	pop	r13
0x40d9e1:	pop	r14
0x40d9e3:	ret	
F 0x40fbf0
0x40dc0a:	mov	eax, 0x2d
0x40dc0f:	mov	word ptr [rdi], ax
0x40dc12:	mov	eax, 1
0x40dc17:	ret	
F 0x41453e
0x40bd51:	pop	rbp
0x40bd52:	pop	r12
0x40bd54:	ret	
F 0x40dcc7
0x40dcc7:	add	al, byte ptr [rax]
0x40dcc9:	mov	eax, 2
0x40dcce:	mov	word ptr [rdi], si
0x40dcd1:	ret	
F 0x40ce16
0x40cc56:	movzx	eax, al
0x40cc59:	cmovb	eax, edx
0x40cc5c:	ret	
F 0x41123f
0x41123f:	sbb	byte ptr [rcx + rcx*4 - 0x40], cl
0x411243:	pop	rbx
0x411244:	pop	rbp
0x411245:	pop	r12
0x411247:	pop	r13
0x411249:	pop	r14
0x41124b:	pop	r15
0x41124d:	ret	
F 0x410abf
0x410abf:	setae	al
0x410ac2:	movzx	eax, al
0x410ac5:	mov	dword ptr [rip + 0x32895], eax
0x410acb:	add	rsp, 8
0x410acf:	pop	rbx
0x410ad0:	pop	rbp
0x410ad1:	ret	
F 0x40cf5a
0x40cf5a:	rol	byte ptr [rcx], 0
0x40cf5d:	add	byte ptr [rdx - 1], bh
0x40cf63:	seta	al
0x40cf66:	movzx	eax, al
0x40cf69:	cmovb	eax, edx
0x40cf6c:	ret	
F 0x4130bd
0x4130bd:	mov	eax, r15d
0x4130c0:	pop	rbx
0x4130c1:	pop	rbp
0x4130c2:	pop	r12
0x4130c4:	pop	r13
0x4130c6:	pop	r14
0x4130c8:	pop	r15
0x4130ca:	ret	
F 0x40d222
0x40d222:	mov	word ptr [rbx], es
0x40d224:	add	byte ptr [rax], al
0x40d226:	sub	eax, dword ptr [rsi + 0x38c]
0x40d22c:	ret	
F 0x40cc9f
0x40cc9f:	nop	
0x40cca0:	mov	eax, dword ptr [rdi + 0x360]
0x40cca6:	sub	eax, dword ptr [rsi + 0x360]
0x40ccac:	ret	
F 0x413fb5
0x40ed07:	pop	r13
0x40ed09:	ret	
F 0x40cdec
0x40cc4c:	add	byte ptr [rax], al
0x40cc4e:	mov	edx, 0xffffffff
0x40cc53:	seta	al
0x40cc56:	movzx	eax, al
0x40cc59:	cmovb	eax, edx
0x40cc5c:	ret	
F 0x40fc2e
0x40dc08:	add	byte ptr [rax], al
0x40dc0a:	mov	eax, 0x2d
0x40dc0f:	mov	word ptr [rdi], ax
0x40dc12:	mov	eax, 1
0x40dc17:	ret	
F 0x412d92
0x412d92:	add	rsp, 8
0x412d96:	xor	eax, eax
0x412d98:	pop	rbx
0x412d99:	pop	rbp
0x412d9a:	pop	r12
0x412d9c:	pop	r13
0x412d9e:	ret	
F 0x40e68a
0x40e68a:	xor	bh, byte ptr [rbp + 0x44c6ffff]
0x40e690:	sbb	eax, 0xd8890000
0x40e695:	pop	rbx
0x40e696:	pop	rbp
0x40e697:	pop	r12
0x40e699:	ret	
F 0x40d9d8
0x40d9d8:	sub	byte ptr [rcx - 0x73], al
0x40d9db:	or	byte ptr [rbx + 0x5d], r11b
0x40d9df:	pop	r13
0x40d9e1:	pop	r14
0x40d9e3:	ret	
F 0x4112e6
0x40cc30:	xor	eax, eax
0x40cc32:	ret	
F 0x413f99
0x40ed04:	pop	rbp
0x40ed05:	pop	r12
0x40ed07:	pop	r13
0x40ed09:	ret	
F 0x415c77
0x40a016:	ret	
F 0x413952
0x40a016:	ret	
F 0x411269
0x411269:	add	dword ptr [rax], eax
0x41126b:	mov	qword ptr [rbp], rax
0x41126f:	jmp	0x41123c
F 0x40fbf3
0x40dc0d:	add	byte ptr [rax], al
0x40dc0f:	mov	word ptr [rdi], ax
0x40dc12:	mov	eax, 1
0x40dc17:	ret	
F 0x40d7ba
0x40d7ba:	add	rsp, 0x18
0x40d7be:	ret	
F 0x415bd8
0x415bd8:	and	byte ptr [rax - 0x77], cl
0x415bdb:	ret	
F 0x412eda
0x412eda:	add	eax, 0x304ad
0x412edf:	xor	esi, dword ptr [rbx]
0x412ee1:	add	byte ptr [rax], al
0x412ee3:	xor	eax, eax
0x412ee5:	ret	
F 0x40aa94
0x40aa94:	pop	rbx
0x40aa95:	pop	rbp
0x40aa96:	pop	r12
0x40aa98:	pop	r13
0x40aa9a:	pop	r14
0x40aa9c:	pop	r15
0x40aa9e:	ret	
F 0x40e805
0x40bd50:	pop	rbx
0x40bd51:	pop	rbp
0x40bd52:	pop	r12
0x40bd54:	ret	
F 0x40dc49
0x40a016:	ret	
F 0x40d7be
0x40a016:	ret	
F 0x40d5ef
0x40d5ef:	add	byte ptr [rax], al
0x40d5f1:	add	byte ptr [rax - 0x7d], cl
0x40d5f4:	ret	
F 0x40f8da
0x40f8da:	add	byte ptr [rax], al
0x40f8dc:	add	byte ptr [rbx + 0x5d], bl
0x40f8df:	pop	r12
0x40f8e1:	ret	
F 0x40ceb7
0x40cc57:	mov	dh, 0xc0
0x40cc59:	cmovb	eax, edx
0x40cc5c:	ret	
F 0x412ed9
0x412ed9:	mov	dword ptr [rip + 0x304ad], 0x3333
0x412ee3:	xor	eax, eax
0x412ee5:	ret	
F 0x40dc25
0x40dc25:	mov	byte ptr [rdi + 2], 0
0x40dc29:	mov	eax, 2
0x40dc2e:	mov	word ptr [rdi], cx
0x40dc31:	ret	
F 0x4143f7
0x4143f7:	adc	byte ptr [r8 - 0x7d], r9b
0x4143fb:	ret	
F 0x40f008
0x40bd51:	pop	rbp
0x40bd52:	pop	r12
0x40bd54:	ret	
F 0x40cece
0x40cc4e:	mov	edx, 0xffffffff
0x40cc53:	seta	al
0x40cc56:	movzx	eax, al
0x40cc59:	cmovb	eax, edx
0x40cc5c:	ret	
F 0x40dcef
0x40dcef:	add	byte ptr [rax + 0x3f], bh
0x40dcf5:	mov	word ptr [rdi], ax
0x40dcf8:	mov	eax, 1
0x40dcfd:	ret	
F 0x40fbaf
0x40dc09:	add	byte ptr [rax + 0x2d], bh
0x40dc0f:	mov	word ptr [rdi], ax
0x40dc12:	mov	eax, 1
0x40dc17:	ret	
F 0x40cf6c
0x40a016:	ret	
F 0x40d2e0
0x40d2e0:	xor	ecx, ecx
0x40d2e2:	xor	eax, eax
0x40d2e4:	cmp	rdi, rcx
0x40d2e7:	seta	al
0x40d2ea:	ret	
F 0x4114be
0x40aa9a:	pop	r14
0x40aa9c:	pop	r15
0x40aa9e:	ret	
F 0x410ed7
0x410ed7:	add	byte ptr [rax], al
0x410ed9:	add	byte ptr [rbp + 0x39], dh
0x410edc:	add	rsp, 0x10
0x410ee0:	pop	rbx
0x410ee1:	ret	
F 0x40cc5d
0x40cc5d:	nop	dword ptr [rax]
0x40cc60:	mov	rax, qword ptr [rdi + 0x190]
0x40cc67:	sub	eax, dword ptr [rsi + 0x190]
0x40cc6d:	ret	
F 0x40d01c
0x40cc4c:	add	byte ptr [rax], al
0x40cc4e:	mov	edx, 0xffffffff
0x40cc53:	seta	al
0x40cc56:	movzx	eax, al
0x40cc59:	cmovb	eax, edx
0x40cc5c:	ret	
F 0x413d7e
0x413d7e:	add	rsp, 0x28
0x413d82:	mov	rax, r14
0x413d85:	pop	rbx
0x413d86:	pop	rbp
0x413d87:	pop	r12
0x413d89:	pop	r13
0x413d8b:	pop	r14
0x413d8d:	pop	r15
0x413d8f:	ret	
F 0x40d8ac
0x40a012:	add	rsp, 8
0x40a016:	ret	
F 0x40cfb6
0x40cfb6:	sub	byte ptr [r10 - 1], r15b
0x40cfbd:	seta	al
0x40cfc0:	movzx	eax, al
0x40cfc3:	cmovb	eax, edx
0x40cfc6:	ret	
F 0x40cd53
0x40ccd3:	setg	al
0x40ccd6:	movzx	eax, al
0x40ccd9:	cmovl	eax, edx
0x40ccdc:	ret	
F 0x40e63a
0x40a016:	ret	
F 0x40d185
0x40ccd7:	mov	dh, 0xc0
0x40ccd9:	cmovl	eax, edx
0x40ccdc:	ret	
F 0x40d184
0x40ccd6:	movzx	eax, al
0x40ccd9:	cmovl	eax, edx
0x40ccdc:	ret	
F 0x40cecd
0x40cc4d:	add	byte ptr [rdx - 1], bh
0x40cc53:	seta	al
0x40cc56:	movzx	eax, al
0x40cc59:	cmovb	eax, edx
0x40cc5c:	ret	
F 0x41541a
0x41541a:	add	byte ptr [rax - 0x77], cl
0x41541d:	ret	0xade8
F 0x40d1d6
0x40a016:	ret	
F 0x40d101
0x40ccd3:	setg	al
0x40ccd6:	movzx	eax, al
0x40ccd9:	cmovl	eax, edx
0x40ccdc:	ret	
F 0x40d09e
0x40cc4e:	mov	edx, 0xffffffff
0x40cc53:	seta	al
0x40cc56:	movzx	eax, al
0x40cc59:	cmovb	eax, edx
0x40cc5c:	ret	
F 0x40f378
0x40f378:	add	rsp, 0x58
0x40f37c:	pop	rbx
0x40f37d:	pop	rbp
0x40f37e:	pop	r12
0x40f380:	pop	r13
0x40f382:	ret	
F 0x40f0d9
0x40a016:	ret	
F 0x40dc90
0x40dc90:	mov	dword ptr [rdi], 0x4f5349
0x40dc96:	mov	eax, 3
0x40dc9b:	ret	
F 0x40d145
0x40ccd7:	mov	dh, 0xc0
0x40ccd9:	cmovl	eax, edx
0x40ccdc:	ret	
F 0x415b8c
0x415b8c:	neg	eax
0x415b8e:	pop	rbx
0x415b8f:	pop	rbp
0x415b90:	pop	r12
0x415b92:	ret	
F 0x40b5a4
0x40b5a4:	pop	rbx
0x40b5a5:	pop	rbp
0x40b5a6:	pop	r12
0x40b5a8:	pop	r13
0x40b5aa:	pop	r14
0x40b5ac:	ret	
F 0x412a95
0x41244f:	add	byte ptr [rax], al
0x412451:	add	byte ptr [rax - 0x77], cl
0x412454:	ret	
F 0x40d0fa
0x40cccc:	add	byte ptr [rax], al
0x40ccce:	mov	edx, 0xffffffff
0x40ccd3:	setg	al
0x40ccd6:	movzx	eax, al
0x40ccd9:	cmovl	eax, edx
0x40ccdc:	ret	
F 0x40fb2b
0x40fb2b:	nop	dword ptr [rax + rax]
0x40fb30:	mov	eax, 0x2d
0x40fb35:	mov	word ptr [rdi], ax
0x40fb38:	mov	eax, 1
0x40fb3d:	ret	
F 0x411de9
0x40aa9a:	pop	r14
0x40aa9c:	pop	r15
0x40aa9e:	ret	
F 0x40dc70
0x40dc70:	add	al, byte ptr [rax]
0x40dc72:	mov	eax, 2
0x40dc77:	mov	word ptr [rdi], r9w
0x40dc7b:	ret	
F 0x413976
0x413976:	add	byte ptr [rax - 0x77], cl
0x413979:	ret	0x51e8
F 0x40b8d2
0x40b8d2:	add	byte ptr [rax], al
0x40b8d4:	add	rsp, 0x28
0x40b8d8:	xor	eax, eax
0x40b8da:	pop	rbx
0x40b8db:	pop	rbp
0x40b8dc:	pop	r12
0x40b8de:	pop	r13
0x40b8e0:	pop	r14
0x40b8e2:	pop	r15
0x40b8e4:	ret	
F 0x40dc20
0x40dc20:	mov	ecx, 0x3823
0x40dc25:	mov	byte ptr [rdi + 2], 0
0x40dc29:	mov	eax, 2
0x40dc2e:	mov	word ptr [rdi], cx
0x40dc31:	ret	
F 0x40eee1
0x40eee1:	add	rsp, 0x18
0x40eee5:	mov	eax, 6
0x40eeea:	pop	rbx
0x40eeeb:	pop	rbp
0x40eeec:	ret	
F 0x40cfe6
0x40cc56:	movzx	eax, al
0x40cc59:	cmovb	eax, edx
0x40cc5c:	ret	
F 0x40beaa
0x40a016:	ret	
F 0x4130c5
0x40aa99:	pop	rbp
0x40aa9a:	pop	r14
0x40aa9c:	pop	r15
0x40aa9e:	ret	
F 0x413fb7
0x40a016:	ret	
F 0x40c56f
0x40a016:	ret	
F 0x41460e
0x40a016:	ret	
F 0x410bea
0x40cc30:	xor	eax, eax
0x40cc32:	ret	
F 0x4141ee
0x4141ee:	rcl	byte ptr [rbp], cl
0x4141f1:	add	byte ptr [rax - 0x77], cl
0x4141f4:	ret	0xd6e8
F 0x40fb3d
0x40a016:	ret	
F 0x415bd0
0x415bd0:	or	eax, 0xff44cae8
0x415bd5:	inc	dword ptr [rbx - 0x76b7dfc8]
0x415bdb:	ret	
F 0x41011f
0x40ea7f:	sbb	byte ptr [rbx + 0x5d], bl
0x40ea82:	ret	
F 0x40e50d
0x40e50d:	add	byte ptr [rax], al
0x40e50f:	add	byte ptr [rax - 0x77], cl
0x40e512:	ret	0xf48
F 0x40cd93
0x40ccd3:	setg	al
0x40ccd6:	movzx	eax, al
0x40ccd9:	cmovl	eax, edx
0x40ccdc:	ret	
F 0x40f000
0x40f000:	add	byte ptr [rbp + 0x2b], dh
0x40f003:	add	rsp, 0x40
0x40f007:	pop	rbx
0x40f008:	pop	rbp
0x40f009:	pop	r12
0x40f00b:	ret	
F 0x40f960
0x40a016:	ret	
F 0x4142dd
0x4142dd:	dec	dword ptr [rax - 0x77]
0x4142e0:	ret	0x8548
F 0x410b55
0x40a016:	ret	
F 0x40d5f4
0x40a016:	ret	
F 0x40d638
0x40d638:	sub	rax, r12
0x40d63b:	pop	rbx
0x40d63c:	pop	rbp
0x40d63d:	pop	r12
0x40d63f:	pop	r13
0x40d641:	pop	r14
0x40d643:	ret	
F 0x40ccce
0x40ccce:	mov	edx, 0xffffffff
0x40ccd3:	setg	al
0x40ccd6:	movzx	eax, al
0x40ccd9:	cmovl	eax, edx
0x40ccdc:	ret	
F 0x410200
0x40ea80:	pop	rbx
0x40ea81:	pop	rbp
0x40ea82:	ret	
F 0x40fbeb
0x40fb2b:	nop	dword ptr [rax + rax]
0x40fb30:	mov	eax, 0x2d
0x40fb35:	mov	word ptr [rdi], ax
0x40fb38:	mov	eax, 1
0x40fb3d:	ret	
F 0x40b1a1
0x40b121:	nop	dword ptr [rax]
0x40b128:	ret	
F 0x40b482
0x40aa9c:	pop	r15
0x40aa9e:	ret	
F 0x40ee42
0x40ee42:	add	byte ptr [rbp + 0xc], dh
0x40ee45:	add	rsp, 0x18
0x40ee49:	mov	eax, 0x18
0x40ee4e:	pop	rbx
0x40ee4f:	pop	rbp
0x40ee50:	ret	
F 0x410ba8
0x410ba8:	ret	0xcd80
F 0x40d0a9
0x40cc59:	cmovb	eax, edx
0x40cc5c:	ret	
F 0x410ac1
0x410ac1:	ror	byte ptr [rdi], 0xb6
0x410ac4:	ror	byte ptr [rcx + 0x3289505], 0
0x410acb:	add	rsp, 8
0x410acf:	pop	rbx
0x410ad0:	pop	rbp
0x410ad1:	ret	
F 0x40ceb9
0x40cc59:	cmovb	eax, edx
0x40cc5c:	ret	
F 0x4103b6
0x40cc2e:	add	byte ptr [rax], al
0x40cc30:	xor	eax, eax
0x40cc32:	ret	
F 0x413fd8
0x40ed07:	pop	r13
0x40ed09:	ret	
F 0x411247
0x40aa98:	pop	r13
0x40aa9a:	pop	r14
0x40aa9c:	pop	r15
0x40aa9e:	ret	
F 0x40dc47
0x40dc47:	mov	dword ptr [rdi], edx
0x40dc49:	ret	
F 0x40dca2
0x40dca2:	add	byte ptr [rax + 3], r15b
0x40dcab:	ret	
F 0x40d1c6
0x40d1c6:	nop	word ptr cs:[rax + rax]
0x40d1d0:	mov	eax, dword ptr [rdi + 4]
0x40d1d3:	sub	eax, dword ptr [rsi + 4]
0x40d1d6:	ret	
F 0x4108e6
0x40aa9c:	pop	r15
0x40aa9e:	ret	
F 0x415587
0x415587:	nop	dword ptr cs:[rax + rax]
0x415590:	mov	dword ptr [rip + 0x2de6e], 1
0x41559a:	ret	
F 0x40cf03
0x40cf03:	test	al, 1
0x40cf05:	add	byte ptr [rax], al
0x40cf07:	sub	eax, dword ptr [rsi + 0x1a8]
0x40cf0d:	ret	
F 0x40cf3c
0x40cc4c:	add	byte ptr [rax], al
0x40cc4e:	mov	edx, 0xffffffff
0x40cc53:	seta	al
0x40cc56:	movzx	eax, al
0x40cc59:	cmovb	eax, edx
0x40cc5c:	ret	
F 0x410d08
0x40a016:	ret	
F 0x40cd33
0x40ccd3:	setg	al
0x40ccd6:	movzx	eax, al
0x40ccd9:	cmovl	eax, edx
0x40ccdc:	ret	
F 0x414601
0x414601:	test	dword ptr [rsi + 0xf], ecx
0x414604:	add	byte ptr [rax], al
0x414606:	add	rsp, 0x30
0x41460a:	pop	rbx
0x41460b:	pop	rbp
0x41460c:	pop	r12
0x41460e:	ret	
F 0x415590
0x415590:	mov	dword ptr [rip + 0x2de6e], 1
0x41559a:	ret	
F 0x40d05d
0x40cc4d:	add	byte ptr [rdx - 1], bh
0x40cc53:	seta	al
0x40cc56:	movzx	eax, al
0x40cc59:	cmovb	eax, edx
0x40cc5c:	ret	
F 0x40f706
0x40d6f2:	ret	0x8948
F 0x40d164
0x40ccd6:	movzx	eax, al
0x40ccd9:	cmovl	eax, edx
0x40ccdc:	ret	
F 0x40cdfc
0x40a016:	ret	
F 0x40d1d0
0x40d1d0:	mov	eax, dword ptr [rdi + 4]
0x40d1d3:	sub	eax, dword ptr [rsi + 4]
0x40d1d6:	ret	
F 0x40ce6b
0x40cc4b:	add	dword ptr [rax], eax
0x40cc4d:	add	byte ptr [rdx - 1], bh
0x40cc53:	seta	al
0x40cc56:	movzx	eax, al
0x40cc59:	cmovb	eax, edx
0x40cc5c:	ret	
F 0x40dcce
0x40dcce:	mov	word ptr [rdi], si
0x40dcd1:	ret	
F 0x415b84
0x415b84:	cmp	byte ptr [rcx], cl
0x415b86:	setne	al
0x415b89:	movzx	eax, al
0x415b8c:	neg	eax
0x415b8e:	pop	rbx
0x415b8f:	pop	rbp
0x415b90:	pop	r12
0x415b92:	ret	
F 0x410f77
0x40ea7c:	add	rsp, 0x18
0x40ea80:	pop	rbx
0x40ea81:	pop	rbp
0x40ea82:	ret	
F 0x40ce19
0x40cc59:	cmovb	eax, edx
0x40cc5c:	ret	
F 0x411036
0x410f76:	pop	rbp
0x410f77:	add	rsp, 0x18
0x410f7b:	pop	rbx
0x410f7c:	pop	rbp
0x410f7d:	ret	
F 0x40e6d5
0x40bd50:	pop	rbx
0x40bd51:	pop	rbp
0x40bd52:	pop	r12
0x40bd54:	ret	
F 0x40cc2c
0x40cc2c:	add	byte ptr [rax], al
0x40cc2e:	add	byte ptr [rax], al
0x40cc30:	xor	eax, eax
0x40cc32:	ret	
F 0x40d1e4
0x40d1e4:	add	byte ptr [rax], al
0x40d1e6:	sub	eax, dword ptr [rsi + 0x358]
0x40d1ec:	ret	
F 0x40d236
0x40a016:	ret	
F 0x40dc8d
0x40dc8d:	mov	dword ptr [rdi], eax
0x40dc8f:	ret	
F 0x40d3dd
0x40cc59:	cmovb	eax, edx
0x40cc5c:	ret	
F 0x40cd6e
0x40ccce:	mov	edx, 0xffffffff
0x40ccd3:	setg	al
0x40ccd6:	movzx	eax, al
0x40ccd9:	cmovl	eax, edx
0x40ccdc:	ret	
F 0x40d1bd
0x40d1bd:	nop	dword ptr [rax]
0x40d1c0:	mov	eax, dword ptr [rdi]
0x40d1c2:	sub	eax, dword ptr [rsi]
0x40d1c4:	ret	
F 0x40ced6
0x40cc56:	movzx	eax, al
0x40cc59:	cmovb	eax, edx
0x40cc5c:	ret	
F 0x40dcb5
0x40dc95:	add	byte ptr [rax + 3], bh
0x40dc9b:	ret	
F 0x40f8e1
0x40a016:	ret	
F 0x40ce6d
0x40cc4d:	add	byte ptr [rdx - 1], bh
0x40cc53:	seta	al
0x40cc56:	movzx	eax, al
0x40cc59:	cmovb	eax, edx
0x40cc5c:	ret	
F 0x412da5
0x40a016:	ret	
F 0x40b628
0x40a016:	ret	
F 0x40abc1
0x40abc1:	add	byte ptr [rax - 0x77], cl
0x40abc4:	ret	0x6e8
F 0x40d4c4
0x40d4c4:	mov	byte ptr [rdi + 1], 0
0x40d4c8:	mov	byte ptr [rdi], al
0x40d4ca:	mov	eax, 1
0x40d4cf:	ret	
F 0x413fc7
0x413fc7:	and	al, 0x4c
0x413fc9:	mov	dword ptr [rax], ebp
0x413fcb:	add	rsp, 8
0x413fcf:	mov	eax, 1
0x413fd4:	pop	rbx
0x413fd5:	pop	rbp
0x413fd6:	pop	r12
0x413fd8:	pop	r13
0x413fda:	ret	
F 0x40b119
0x40b119:	add	byte ptr [rax - 0x7b], cl
0x40b11c:	sal	byte ptr [rcx + rcx - 1], 0xe0
0x40b121:	nop	dword ptr [rax]
0x40b128:	ret	
F 0x410b49
0x410b49:	mov	dword ptr [rip + 0x32811], eax
0x410b4f:	add	rsp, 8
0x410b53:	pop	rbx
0x410b54:	pop	rbp
0x410b55:	ret	
F 0x40e68e
0x40e68e:	mov	byte ptr [rbp + rbx], 0
0x40e693:	mov	eax, ebx
0x40e695:	pop	rbx
0x40e696:	pop	rbp
0x40e697:	pop	r12
0x40e699:	ret	
F 0x40cfc6
0x40a016:	ret	
F 0x40edb9
0x40edb9:	add	rsp, 0x18
0x40edbd:	mov	eax, 8
0x40edc2:	pop	rbx
0x40edc3:	pop	rbp
0x40edc4:	ret	
F 0x40ce56
0x40cc56:	movzx	eax, al
0x40cc59:	cmovb	eax, edx
0x40cc5c:	ret	
F 0x40e7fd
0x40e7fd:	add	al, ch
0x40e7ff:	pop	rbp
0x40e800:	mov	eax, 0x595affff
0x40e805:	pop	rbx
0x40e806:	pop	rbp
0x40e807:	pop	r12
0x40e809:	ret	
F 0x40d63c
0x40b5a5:	pop	rbp
0x40b5a6:	pop	r12
0x40b5a8:	pop	r13
0x40b5aa:	pop	r14
0x40b5ac:	ret	
F 0x40cdf3
0x40cc53:	seta	al
0x40cc56:	movzx	eax, al
0x40cc59:	cmovb	eax, edx
0x40cc5c:	ret	
F 0x410b43
0x410b43:	add	byte ptr [rax + 1], bh
0x410b49:	mov	dword ptr [rip + 0x32811], eax
0x410b4f:	add	rsp, 8
0x410b53:	pop	rbx
0x410b54:	pop	rbp
0x410b55:	ret	
F 0x411301
0x40a016:	ret	
F 0x40b19d
0x40b19d:	add	byte ptr [rcx], al
0x40b19f:	pop	rbp
0x40b1a0:	ret	
F 0x4102db
0x40ea7b:	add	rsp, 0x18
0x40ea80:	pop	rbx
0x40ea81:	pop	rbp
0x40ea82:	ret	
F 0x40c296
0x40c296:	add	dword ptr [rax - 0x7d], ecx
0x40c299:	ret	
F 0x40ccb5
0x40ccb5:	add	byte ptr [rax], al
0x40ccb7:	sub	eax, dword ptr [rsi + 0xe0]
0x40ccbd:	ret	
F 0x40cef7
0x40cc57:	mov	dh, 0xc0
0x40cc59:	cmovb	eax, edx
0x40cc5c:	ret	
F 0x40ddb0
0x40dd70:	adc	byte ptr [rax], al
0x40dd72:	add	byte ptr [rax], al
0x40dd74:	add	rsp, 0x18
0x40dd78:	ret	
F 0x40ce39
0x40cc59:	cmovb	eax, edx
0x40cc5c:	ret	
F 0x4130b9
0x4130b9:	add	rsp, 0x18
0x4130bd:	mov	eax, r15d
0x4130c0:	pop	rbx
0x4130c1:	pop	rbp
0x4130c2:	pop	r12
0x4130c4:	pop	r13
0x4130c6:	pop	r14
0x4130c8:	pop	r15
0x4130ca:	ret	
F 0x40ce2b
0x40cc4b:	add	dword ptr [rax], eax
0x40cc4d:	add	byte ptr [rdx - 1], bh
0x40cc53:	seta	al
0x40cc56:	movzx	eax, al
0x40cc59:	cmovb	eax, edx
0x40cc5c:	ret	
F 0x40fc33
0x40dc0d:	add	byte ptr [rax], al
0x40dc0f:	mov	word ptr [rdi], ax
0x40dc12:	mov	eax, 1
0x40dc17:	ret	
F 0x40aa99
0x40aa99:	pop	rbp
0x40aa9a:	pop	r14
0x40aa9c:	pop	r15
0x40aa9e:	ret	
F 0x40cd39
0x40ccd9:	cmovl	eax, edx
0x40ccdc:	ret	
F 0x40cffa
0x40cffa:	mov	al, 0
0x40cffc:	add	byte ptr [rax], al
0x40cffe:	mov	edx, 0xffffffff
0x40d003:	seta	al
0x40d006:	movzx	eax, al
0x40d009:	cmovb	eax, edx
0x40d00c:	ret	
F 0x40d1c0
0x40d1c0:	mov	eax, dword ptr [rdi]
0x40d1c2:	sub	eax, dword ptr [rsi]
0x40d1c4:	ret	
F 0x40d0db
0x40cccd:	add	byte ptr [rdx - 1], bh
0x40ccd3:	setg	al
0x40ccd6:	movzx	eax, al
0x40ccd9:	cmovl	eax, edx
0x40ccdc:	ret	
F 0x4104ec
0x40aa9d:	pop	rdi
0x40aa9e:	ret	
F 0x40e598
0x40e4e8:	ret	0x8d48
F 0x40d17a
0x40cccc:	add	byte ptr [rax], al
0x40ccce:	mov	edx, 0xffffffff
0x40ccd3:	setg	al
0x40ccd6:	movzx	eax, al
0x40ccd9:	cmovl	eax, edx
0x40ccdc:	ret	
F 0x40cc2e
0x40cc2e:	add	byte ptr [rax], al
0x40cc30:	xor	eax, eax
0x40cc32:	ret	
F 0x40cf95
0x40cf95:	cmp	dword ptr [rdi + 0x20], eax
0x40cf98:	mov	edx, 0xffffffff
0x40cf9d:	seta	al
0x40cfa0:	movzx	eax, al
0x40cfa3:	cmovb	eax, edx
0x40cfa6:	ret	
F 0x40dce0
0x40dce0:	add	al, byte ptr [rax]
0x40dce2:	mov	eax, 2
0x40dce7:	mov	word ptr [rdi], r11w
0x40dceb:	ret	
F 0x40eb19
0x40eb19:	add	byte ptr [rbp + 5], dh
0x40eb1c:	add	rsp, 0x18
0x40eb20:	ret	
F 0x415ae1
0x40bd51:	pop	rbp
0x40bd52:	pop	r12
0x40bd54:	ret	
F 0x40cceb
0x40cccb:	add	byte ptr [rax], al
0x40cccd:	add	byte ptr [rdx - 1], bh
0x40ccd3:	setg	al
0x40ccd6:	movzx	eax, al
0x40ccd9:	cmovl	eax, edx
0x40ccdc:	ret	
F 0x40ddb4
0x40d7ba:	add	rsp, 0x18
0x40d7be:	ret	
F 0x40ddb8
0x40a016:	ret	
F 0x413fb0
0x413fb0:	or	byte ptr [rbx + 0x5d], bl
0x413fb3:	pop	r12
0x413fb5:	pop	r13
0x413fb7:	ret	
F 0x40cccd
0x40cccd:	add	byte ptr [rdx - 1], bh
0x40ccd3:	setg	al
0x40ccd6:	movzx	eax, al
0x40ccd9:	cmovl	eax, edx
0x40ccdc:	ret	
F 0x41390f
0x40d3bd:	add	byte ptr [rax - 0x77], cl
0x40d3c0:	ret	0x8b48
F 0x40aa90
0x40aa90:	add	byte ptr [rax], al
0x40aa92:	xor	eax, eax
0x40aa94:	pop	rbx
0x40aa95:	pop	rbp
0x40aa96:	pop	r12
0x40aa98:	pop	r13
0x40aa9a:	pop	r14
0x40aa9c:	pop	r15
0x40aa9e:	ret	
F 0x413f9a
0x40ed05:	pop	r12
0x40ed07:	pop	r13
0x40ed09:	ret	
F 0x40d35d
0x40cc4d:	add	byte ptr [rdx - 1], bh
0x40cc53:	seta	al
0x40cc56:	movzx	eax, al
0x40cc59:	cmovb	eax, edx
0x40cc5c:	ret	
F 0x40dc80
0x40dc80:	mov	r8d, 0x42
0x40dc86:	mov	eax, 1
0x40dc8b:	mov	word ptr [rdi], r8w
0x40dc8f:	ret	
F 0x40d161
0x40ccd3:	setg	al
0x40ccd6:	movzx	eax, al
0x40ccd9:	cmovl	eax, edx
0x40ccdc:	ret	
F 0x40cdcc
0x40cccc:	add	byte ptr [rax], al
0x40ccce:	mov	edx, 0xffffffff
0x40ccd3:	setg	al
0x40ccd6:	movzx	eax, al
0x40ccd9:	cmovl	eax, edx
0x40ccdc:	ret	
F 0x41408f
0x40aa96:	pop	r12
0x40aa98:	pop	r13
0x40aa9a:	pop	r14
0x40aa9c:	pop	r15
0x40aa9e:	ret	
F 0x4135b7
0x4135b7:	add	byte ptr [rax], al
0x4135b9:	add	rsp, 8
0x4135bd:	mov	rax, r12
0x4135c0:	pop	rbx
0x4135c1:	pop	r12
0x4135c3:	ret	
F 0x40cf63
0x40cc53:	seta	al
0x40cc56:	movzx	eax, al
0x40cc59:	cmovb	eax, edx
0x40cc5c:	ret	
F 0x40ccee
0x40ccce:	mov	edx, 0xffffffff
0x40ccd3:	setg	al
0x40ccd6:	movzx	eax, al
0x40ccd9:	cmovl	eax, edx
0x40ccdc:	ret	
F 0x40fd03
0x40dc0d:	add	byte ptr [rax], al
0x40dc0f:	mov	word ptr [rdi], ax
0x40dc12:	mov	eax, 1
0x40dc17:	ret	
F 0x40fb2d
0x40fb2d:	add	byte ptr [rax], r8b
0x40fb30:	mov	eax, 0x2d
0x40fb35:	mov	word ptr [rdi], ax
0x40fb38:	mov	eax, 1
0x40fb3d:	ret	
F 0x415beb
0x415beb:	sal	byte ptr [rbp + 2], 0x5b
0x415bef:	ret	
F 0x4145ac
0x4145ac:	add	eax, 0x2ee3f
0x4145b1:	add	byte ptr [rax], al
0x4145b3:	add	byte ptr [rax], al
0x4145b5:	mov	dword ptr [rip + 0x2ee31], 0
0x4145bf:	ret	
F 0x40e148
0x40e148:	mov	eax, 4
0x40e14d:	add	rsp, 0x18
0x40e151:	ret	
F 0x40dc5d
0x40dc5d:	add	byte ptr [rax], al
0x40dc5f:	mov	word ptr [rdi], r10w
0x40dc63:	ret	
F 0x40e6d9
0x40a016:	ret	
F 0x40cc97
0x40cc97:	sub	eax, dword ptr [rsi + 0xd8]
0x40cc9d:	ret	
F 0x40ce5c
0x40a016:	ret	
F 0x41402f
0x40a016:	ret	
F 0x40f875
0x40a016:	ret	
F 0x40dc77
0x40dc77:	mov	word ptr [rdi], r9w
0x40dc7b:	ret	
F 0x40cc4b
0x40cc4b:	add	dword ptr [rax], eax
0x40cc4d:	add	byte ptr [rdx - 1], bh
0x40cc53:	seta	al
0x40cc56:	movzx	eax, al
0x40cc59:	cmovb	eax, edx
0x40cc5c:	ret	
F 0x414097
0x40a016:	ret	
F 0x412d8e
0x412d8e:	add	byte ptr [rax], al
0x412d90:	add	al, byte ptr [rax]
0x412d92:	add	rsp, 8
0x412d96:	xor	eax, eax
0x412d98:	pop	rbx
0x412d99:	pop	rbp
0x412d9a:	pop	r12
0x412d9c:	pop	r13
0x412d9e:	ret	
F 0x40d233
0x40d233:	sub	eax, dword ptr [rsi + 0x18]
0x40d236:	ret	
F 0x40cdcb
0x40cd2b:	add	dword ptr [rax], eax
0x40cd2d:	add	byte ptr [rdx - 1], bh
0x40cd33:	setg	al
0x40cd36:	movzx	eax, al
0x40cd39:	cmovl	eax, edx
0x40cd3c:	ret	
F 0x40d3a9
0x40cc59:	cmovb	eax, edx
0x40cc5c:	ret	
F 0x4102e2
0x40a016:	ret	
F 0x40b220
0x40b220:	dec	dword ptr [rax - 0x77]
0x40b223:	ret	
F 0x4114bd
0x40aa99:	pop	rbp
0x40aa9a:	pop	r14
0x40aa9c:	pop	r15
0x40aa9e:	ret	
F 0x40b476
0x40b476:	add	rsp, 0x28
0x40b47a:	pop	rbx
0x40b47b:	pop	rbp
0x40b47c:	pop	r12
0x40b47e:	pop	r13
0x40b480:	pop	r14
0x40b482:	pop	r15
0x40b484:	ret	
F 0x40d0a7
0x40cc57:	mov	dh, 0xc0
0x40cc59:	cmovb	eax, edx
0x40cc5c:	ret	
F 0x40ccd3
0x40ccd3:	setg	al
0x40ccd6:	movzx	eax, al
0x40ccd9:	cmovl	eax, edx
0x40ccdc:	ret	
F 0x40e14b
0x40dd72:	add	byte ptr [rax], al
0x40dd74:	add	rsp, 0x18
0x40dd78:	ret	
F 0x40ea7f
0x40ea7f:	sbb	byte ptr [rbx + 0x5d], bl
0x40ea82:	ret	
F 0x40d5f1
0x40d5f1:	add	byte ptr [rax - 0x7d], cl
0x40d5f4:	ret	
F 0x412eee
0x412eee:	add	byte ptr [rax], al
0x412ef0:	mov	qword ptr [rip + 0x30495], 0x303
0x412efb:	xor	eax, eax
0x412efd:	ret	
F 0x40cf7d
0x40cc4d:	add	byte ptr [rdx - 1], bh
0x40cc53:	seta	al
0x40cc56:	movzx	eax, al
0x40cc59:	cmovb	eax, edx
0x40cc5c:	ret	
F 0x40cdce
0x40ccce:	mov	edx, 0xffffffff
0x40ccd3:	setg	al
0x40ccd6:	movzx	eax, al
0x40ccd9:	cmovl	eax, edx
0x40ccdc:	ret	
F 0x40dc3a
0x40dc3a:	cmp	dword ptr [rax], eax
0x40dc3c:	add	dh, al
0x40dc3e:	add	r8b, byte ptr [r8]
0x40dc41:	mov	eax, 2
0x40dc46:	mov	word ptr [rdi], dx
0x40dc49:	ret	
F 0x40d37a
0x40d37a:	rol	byte ptr [rbx], 0
0x40d37d:	add	byte ptr [rdx - 1], bh
0x40d383:	seta	al
0x40d386:	movzx	eax, al
0x40d389:	cmovb	eax, edx
0x40d38c:	ret	
F 0x40dca8
0x40dca8:	add	byte ptr [rax], al
0x40dcaa:	add	bl, al
0x40dcac:	nop	dword ptr [rax]
0x40dcb0:	mov	dword ptr [rdi], 0x4e4c44
0x40dcb6:	mov	eax, 3
0x40dcbb:	ret	
F 0x41453a
0x41453a:	mov	eax, r8d
0x41453d:	pop	rbx
0x41453e:	pop	rbp
0x41453f:	pop	r12
0x414541:	ret	
F 0x40cf00
0x40cf00:	mov	rax, qword ptr [rdi + 0x1a8]
0x40cf07:	sub	eax, dword ptr [rsi + 0x1a8]
0x40cf0d:	ret	
F 0x414533
0x414533:	add	byte ptr [rbp + 0x37], dh
0x414536:	add	rsp, 0x20
0x41453a:	mov	eax, r8d
0x41453d:	pop	rbx
0x41453e:	pop	rbp
0x41453f:	pop	r12
0x414541:	ret	
F 0x40b123
0x40b123:	add	byte ptr [rax], 0
0x40b126:	add	byte ptr [rax], al
0x40b128:	ret	
F 0x414541
0x40a016:	ret	
F 0x40f5a2
0x40ed05:	pop	r12
0x40ed07:	pop	r13
0x40ed09:	ret	
F 0x40ecfa
0x40ecfa:	add	byte ptr [rax], al
0x40ecfc:	add	byte ptr [rbp + 0xb], dh
0x40ecff:	add	rsp, 0x18
0x40ed03:	pop	rbx
0x40ed04:	pop	rbp
0x40ed05:	pop	r12
0x40ed07:	pop	r13
0x40ed09:	ret	
F 0x40fd06
0x40dc10:	mov	dword ptr [rdi], eax
0x40dc12:	mov	eax, 1
0x40dc17:	ret	
F 0x415bd5
0x415bd5:	inc	dword ptr [rbx - 0x76b7dfc8]
0x415bdb:	ret	
F 0x40f98a
0x40f98a:	add	byte ptr [rax - 0x46], cl
0x40f98d:	ret	
F 0x40d15c
0x40ccce:	mov	edx, 0xffffffff
0x40ccd3:	setg	al
0x40ccd6:	movzx	eax, al
0x40ccd9:	cmovl	eax, edx
0x40ccdc:	ret	
F 0x40d03c
0x40cc4c:	add	byte ptr [rax], al
0x40cc4e:	mov	edx, 0xffffffff
0x40cc53:	seta	al
0x40cc56:	movzx	eax, al
0x40cc59:	cmovb	eax, edx
0x40cc5c:	ret	
F 0x40d1fc
0x40a016:	ret	
F 0x40eede
0x40eede:	add	byte ptr [rbp + 0x1a], dh
0x40eee1:	add	rsp, 0x18
0x40eee5:	mov	eax, 6
0x40eeea:	pop	rbx
0x40eeeb:	pop	rbp
0x40eeec:	ret	
F 0x40fc3b
0x40b126:	add	byte ptr [rax], al
0x40b128:	ret	
F 0x40d181
0x40ccd3:	setg	al
0x40ccd6:	movzx	eax, al
0x40ccd9:	cmovl	eax, edx
0x40ccdc:	ret	
F 0x41422f
0x41422f:	add	byte ptr [rbp - 0x7cfa8b2e], al
0x414235:	ret	
F 0x410ac9
0x410ac9:	add	eax, dword ptr [rax]
0x410acb:	add	rsp, 8
0x410acf:	pop	rbx
0x410ad0:	pop	rbp
0x410ad1:	ret	
F 0x40d2da
0x40d2da:	test	byte ptr [rax], al
0x40d2dc:	add	byte ptr [rax], al
0x40d2de:	add	byte ptr [rax], al
0x40d2e0:	xor	ecx, ecx
0x40d2e2:	xor	eax, eax
0x40d2e4:	cmp	rdi, rcx
0x40d2e7:	seta	al
0x40d2ea:	ret	
F 0x40d226
0x40d226:	sub	eax, dword ptr [rsi + 0x38c]
0x40d22c:	ret	
F 0x40d34c
0x40a016:	ret	
F 0x40fda1
0x40b19f:	pop	rbp
0x40b1a0:	ret	
F 0x40fbb0
0x40dc0a:	mov	eax, 0x2d
0x40dc0f:	mov	word ptr [rdi], ax
0x40dc12:	mov	eax, 1
0x40dc17:	ret	
F 0x40d387
0x40cc57:	mov	dh, 0xc0
0x40cc59:	cmovb	eax, edx
0x40cc5c:	ret	
F 0x411249
0x40aa9a:	pop	r14
0x40aa9c:	pop	r15
0x40aa9e:	ret	
F 0x40ce2e
0x40cc4e:	mov	edx, 0xffffffff
0x40cc53:	seta	al
0x40cc56:	movzx	eax, al
0x40cc59:	cmovb	eax, edx
0x40cc5c:	ret	
F 0x40de61
0x40de61:	sar	edi, 0xff
0x40de64:	add	rsp, 0x18
0x40de68:	ret	
F 0x411deb
0x40aa9c:	pop	r15
0x40aa9e:	ret	
F 0x40f0d4
0x40f0d4:	sub	eax, ecx
0x40f0d6:	mov	eax, r8d
0x40f0d9:	ret	
F 0x40d0bb
0x40cccd:	add	byte ptr [rdx - 1], bh
0x40ccd3:	setg	al
0x40ccd6:	movzx	eax, al
0x40ccd9:	cmovl	eax, edx
0x40ccdc:	ret	
F 0x4139a9
0x40b4a9:	ret	0x21e8
F 0x40ceab
0x40cc4b:	add	dword ptr [rax], eax
0x40cc4d:	add	byte ptr [rdx - 1], bh
0x40cc53:	seta	al
0x40cc56:	movzx	eax, al
0x40cc59:	cmovb	eax, edx
0x40cc5c:	ret	
F 0x40d09b
0x40cfdb:	add	byte ptr [rax], al
0x40cfdd:	add	byte ptr [rdx - 1], bh
0x40cfe3:	seta	al
0x40cfe6:	movzx	eax, al
0x40cfe9:	cmovb	eax, edx
0x40cfec:	ret	
F 0x40d369
0x40cc59:	cmovb	eax, edx
0x40cc5c:	ret	
F 0x40cefc
0x40a016:	ret	
F 0x40fb36
0x40dc10:	mov	dword ptr [rdi], eax
0x40dc12:	mov	eax, 1
0x40dc17:	ret	
F 0x40d198
0x40d198:	mov	byte ptr [rbx], al
0x40d19a:	add	byte ptr [rax], al
0x40d19c:	mov	edx, 0xffffffff
0x40d1a1:	setg	al
0x40d1a4:	movzx	eax, al
0x40d1a7:	cmovl	eax, edx
0x40d1aa:	ret	
F 0x40d2e5
0x40d2e5:	cmp	edi, ecx
0x40d2e7:	seta	al
0x40d2ea:	ret	
F 0x41394a
0x41394a:	mov	qword ptr [rbx + 8], rbp
0x41394e:	pop	rbx
0x41394f:	pop	rbp
0x413950:	pop	r12
0x413952:	ret	
F 0x40eeec
0x40a016:	ret	
F 0x40ce53
0x40cc53:	seta	al
0x40cc56:	movzx	eax, al
0x40cc59:	cmovb	eax, edx
0x40cc5c:	ret	
F 0x412d9e
0x40a016:	ret	
F 0x40edc3
0x40b19f:	pop	rbp
0x40b1a0:	ret	
F 0x41422d
0x41422d:	add	byte ptr [rax], al
0x41422f:	add	byte ptr [rbp - 0x7cfa8b2e], al
0x414235:	ret	
F 0x40ceee
0x40cc4e:	mov	edx, 0xffffffff
0x40cc53:	seta	al
0x40cc56:	movzx	eax, al
0x40cc59:	cmovb	eax, edx
0x40cc5c:	ret	
F 0x40d0e7
0x40ccd9:	cmovl	eax, edx
0x40ccdc:	ret	
F 0x40edc4
0x40a016:	ret	
F 0x40d215
0x40ccd7:	mov	dh, 0xc0
0x40ccd9:	cmovl	eax, edx
0x40ccdc:	ret	
