T 0x4084cc
0x4084cc:	mov	rax, r12
0x4084cf:	pop	r12
0x4084d1:	ret	
T 0x406a70
0x405afe:	pop	r15
0x405b00:	ret	
T 0x40b88e
0x40b88e:	mov	rax, r15
0x40b891:	pop	rbx
0x40b892:	pop	rbp
0x40b893:	pop	r12
0x40b895:	pop	r13
0x40b897:	pop	r14
0x40b899:	pop	r15
0x40b89b:	ret	
F 0x409356
0x405aff:	pop	rdi
0x405b00:	ret	
F 0x409355
0x405afe:	pop	r15
0x405b00:	ret	
F 0x409354
0x405afd:	pop	rsi
0x405afe:	pop	r15
0x405b00:	ret	
F 0x409353
0x405afc:	pop	r14
0x405afe:	pop	r15
0x405b00:	ret	
F 0x409352
0x405afb:	pop	rbp
0x405afc:	pop	r14
0x405afe:	pop	r15
0x405b00:	ret	
F 0x409351
0x405afa:	pop	r13
0x405afc:	pop	r14
0x405afe:	pop	r15
0x405b00:	ret	
F 0x40934f
0x405af8:	pop	r12
0x405afa:	pop	r13
0x405afc:	pop	r14
0x405afe:	pop	r15
0x405b00:	ret	
F 0x40934e
0x405af7:	pop	rbp
0x405af8:	pop	r12
0x405afa:	pop	r13
0x405afc:	pop	r14
0x405afe:	pop	r15
0x405b00:	ret	
F 0x405059
0x403016:	ret	
F 0x40563f
0x40563f:	dec	dword ptr [rdi]
0x405641:	scasd	eax, dword ptr [rdi]
0x405642:	add	eax, 0x47bb5
0x405647:	add	rsp, 8
0x40564b:	ret	
F 0x405894
0x404ec7:	pop	rbx
0x404ec8:	pop	rbp
0x404ec9:	ret	
F 0x4055ff
0x4055ff:	dec	dword ptr [rdi]
0x405601:	scasd	eax, dword ptr [rdi]
0x405602:	add	eax, 0x47bf5
0x405607:	add	rsp, 8
0x40560b:	ret	
F 0x4100f2
0x40da99:	pop	rbx
0x40da9a:	ret	
F 0x4076b0
0x4058f0:	test	ecx, ecx
0x4058f2:	setg	al
0x4058f5:	lea	eax, [rax + rax - 1]
0x4058f9:	ret	
F 0x407e6a
0x405af6:	pop	rbx
0x405af7:	pop	rbp
0x405af8:	pop	r12
0x405afa:	pop	r13
0x405afc:	pop	r14
0x405afe:	pop	r15
0x405b00:	ret	
F 0x405612
0x403016:	ret	
F 0x4157ab
0x405aff:	pop	rdi
0x405b00:	ret	
F 0x4074ce
0x4058ee:	xor	eax, eax
0x4058f0:	test	ecx, ecx
0x4058f2:	setg	al
0x4058f5:	lea	eax, [rax + rax - 1]
0x4058f9:	ret	
F 0x40adee
0x405af6:	pop	rbx
0x405af7:	pop	rbp
0x405af8:	pop	r12
0x405afa:	pop	r13
0x405afc:	pop	r14
0x405afe:	pop	r15
0x405b00:	ret	
F 0x4076b1
0x4058f1:	leave	
0x4058f2:	setg	al
0x4058f5:	lea	eax, [rax + rax - 1]
0x4058f9:	ret	
F 0x4058da
0x4058da:	setle	al
0x4058dd:	lea	eax, [rax + rax - 1]
0x4058e1:	ret	
F 0x405640
0x405640:	imul	eax, dword ptr [rip + 0x47bb5]
0x405647:	add	rsp, 8
0x40564b:	ret	
F 0x4074d1
0x4058f1:	leave	
0x4058f2:	setg	al
0x4058f5:	lea	eax, [rax + rax - 1]
0x4058f9:	ret	
F 0x40ad14
0x403016:	ret	
F 0x40e2e3
0x405afc:	pop	r14
0x405afe:	pop	r15
0x405b00:	ret	
F 0x4076b2
0x4058f2:	setg	al
0x4058f5:	lea	eax, [rax + rax - 1]
0x4058f9:	ret	
F 0x40f383
0x40f383:	ret	
F 0x40f688
0x403016:	ret	
F 0x4076b5
0x4058dd:	lea	eax, [rax + rax - 1]
0x4058e1:	ret	
F 0x4100f0
0x410007:	add	byte ptr [rax], al
0x410009:	pop	rbx
0x41000a:	ret	
F 0x4074d0
0x4058f0:	test	ecx, ecx
0x4058f2:	setg	al
0x4058f5:	lea	eax, [rax + rax - 1]
0x4058f9:	ret	
F 0x40a24e
0x40a24e:	and	al, 3
0x40a250:	add	byte ptr [rax], al
0x40a252:	add	rsp, 0x28
0x40a256:	pop	rbp
0x40a257:	pop	r12
0x40a259:	ret	
F 0x40acfa
0x403016:	ret	
F 0x404e82
0x404e82:	add	byte ptr [rax], al
0x404e84:	imul	eax, dword ptr [rip + 0x48371]
0x404e8b:	ret	
F 0x4076b6
0x4058de:	add	dil, r15b
0x4058e1:	ret	
F 0x4058d8
0x4058d8:	test	edx, edx
0x4058da:	setle	al
0x4058dd:	lea	eax, [rax + rax - 1]
0x4058e1:	ret	
F 0x405602
0x405602:	add	eax, 0x47bf5
0x405607:	add	rsp, 8
0x40560b:	ret	
F 0x4076b7
0x4058df:	add	bh, bh
0x4058e1:	ret	
F 0x4100e7
0x4100e7:	or	eax, 0x402000
0x4100ec:	mov	dword ptr [rbx + 0xcc], eax
0x4100f2:	pop	rbx
0x4100f3:	ret	
F 0x40a250
0x40a250:	add	byte ptr [rax], al
0x40a252:	add	rsp, 0x28
0x40a256:	pop	rbp
0x40a257:	pop	r12
0x40a259:	ret	
F 0x40556b
0x403016:	ret	
F 0x4058df
0x4058df:	add	bh, bh
0x4058e1:	ret	
F 0x40556c
0x40556c:	nop	dword ptr [rax]
0x405570:	xor	eax, eax
0x405572:	ret	
F 0x405641
0x405641:	scasd	eax, dword ptr [rdi]
0x405642:	add	eax, 0x47bb5
0x405647:	add	rsp, 8
0x40564b:	ret	
F 0x40747d
0x4058ed:	add	byte ptr [rcx], dh
0x4058ef:	rol	byte ptr [rbp - 0x3f60f037], 0x8d
0x4058f6:	add	dil, r15b
0x4058f9:	ret	
F 0x41372d
0x41372d:	add	byte ptr [rax], al
0x41372f:	add	bl, ch
0x413731:	ret	
F 0x405054
0x405054:	add	eax, 0x481a3
0x405059:	ret	
F 0x405642
0x405642:	add	eax, 0x47bb5
0x405647:	add	rsp, 8
0x40564b:	ret	
F 0x407e6c
0x405af8:	pop	r12
0x405afa:	pop	r13
0x405afc:	pop	r14
0x405afe:	pop	r15
0x405b00:	ret	
F 0x403012
0x403012:	add	rsp, 8
0x403016:	ret	
F 0x4058de
0x4058de:	add	dil, r15b
0x4058e1:	ret	
F 0x40ab34
0x403016:	ret	
F 0x40b09b
0x405af4:	add	byte ptr [rax], al
0x405af6:	pop	rbx
0x405af7:	pop	rbp
0x405af8:	pop	r12
0x405afa:	pop	r13
0x405afc:	pop	r14
0x405afe:	pop	r15
0x405b00:	ret	
F 0x4076d8
0x407048:	add	byte ptr [rax], al
0x40704a:	add	byte ptr [rdi + 3], dh
0x40704d:	ret	
F 0x40a252
0x40a252:	add	rsp, 0x28
0x40a256:	pop	rbp
0x40a257:	pop	r12
0x40a259:	ret	
F 0x40db4a
0x405af8:	pop	r12
0x405afa:	pop	r13
0x405afc:	pop	r14
0x405afe:	pop	r15
0x405b00:	ret	
F 0x4076da
0x40704a:	add	byte ptr [rdi + 3], dh
0x40704d:	ret	
F 0x407e6b
0x405af7:	pop	rbp
0x405af8:	pop	r12
0x405afa:	pop	r13
0x405afc:	pop	r14
0x405afe:	pop	r15
0x405b00:	ret	
F 0x405643
0x405643:	mov	ch, 0x7b
0x405645:	add	al, 0
0x405647:	add	rsp, 8
0x40564b:	ret	
F 0x4058dd
0x4058dd:	lea	eax, [rax + rax - 1]
0x4058e1:	ret	
F 0x40f381
0x40f381:	dec	dword ptr [rdi]
0x40f383:	ret	
F 0x40e417
0x403016:	ret	
F 0x407432
0x4058f2:	setg	al
0x4058f5:	lea	eax, [rax + rax - 1]
0x4058f9:	ret	
F 0x405601
0x405601:	scasd	eax, dword ptr [rdi]
0x405602:	add	eax, 0x47bf5
0x405607:	add	rsp, 8
0x40560b:	ret	
F 0x40f74c
0x403016:	ret	
F 0x40a256
0x405f65:	pop	rbp
0x405f66:	pop	r12
0x405f68:	ret	
F 0x4074ca
0x4074ca:	pop	rbp
0x4074cc:	add	al, 0
0x4074ce:	xor	eax, eax
0x4074d0:	test	ecx, ecx
0x4074d2:	setg	al
0x4074d5:	lea	eax, [rax + rax - 1]
0x4074d9:	ret	
F 0x40300d
0x40300d:	sal	byte ptr [rdx + rax - 1], 0xd0
0x403012:	add	rsp, 8
0x403016:	ret	
F 0x4076dd
0x403016:	ret	
F 0x40a257
0x405f66:	pop	r12
0x405f68:	ret	
F 0x4156ae
0x405f64:	pop	rbx
0x405f65:	pop	rbp
0x405f66:	pop	r12
0x405f68:	ret	
F 0x4058d7
0x4058d7:	rol	byte ptr [rbp - 0x3f61f02e], 0x8d
0x4058de:	add	dil, r15b
0x4058e1:	ret	
F 0x40e2e1
0x405afa:	pop	r13
0x405afc:	pop	r14
0x405afe:	pop	r15
0x405b00:	ret	
F 0x40dca5
0x40a4ab:	ret	0x8b48
F 0x4058e1
0x403016:	ret	
F 0x4076de
0x4076de:	nop	
0x4076e0:	mov	edx, dword ptr [rip + 0x45b16]
0x4076e6:	xor	eax, eax
0x4076e8:	test	edx, edx
0x4076ea:	setle	al
0x4076ed:	lea	eax, [rax + rax - 1]
0x4076f1:	ret	
F 0x4055ba
0x4054ca:	test	byte ptr [rax], al
0x4054cc:	add	byte ptr [rax], al
0x4054ce:	add	byte ptr [rax], al
0x4054d0:	xor	eax, eax
0x4054d2:	ret	
F 0x4058e6
0x4058e6:	add	byte ptr [rax], al
0x4058e8:	mov	ecx, dword ptr [rip + 0x4790e]
0x4058ee:	xor	eax, eax
0x4058f0:	test	ecx, ecx
0x4058f2:	setg	al
0x4058f5:	lea	eax, [rax + rax - 1]
0x4058f9:	ret	
F 0x404e62
0x404e62:	imul	eax, dword ptr [rip + 0x48393]
0x404e69:	ret	
F 0x4055bc
0x4054cc:	add	byte ptr [rax], al
0x4054ce:	add	byte ptr [rax], al
0x4054d0:	xor	eax, eax
0x4054d2:	ret	
F 0x40b7b4
0x40b7b4:	add	byte ptr [rax + 1], cl
0x40b7b7:	ret	0x6348
F 0x40a259
0x403016:	ret	
F 0x4055be
0x4054ce:	add	byte ptr [rax], al
0x4054d0:	xor	eax, eax
0x4054d2:	ret	
F 0x40b09e
0x405af7:	pop	rbp
0x405af8:	pop	r12
0x405afa:	pop	r13
0x405afc:	pop	r14
0x405afe:	pop	r15
0x405b00:	ret	
F 0x4055c2
0x403016:	ret	
F 0x403016
0x403016:	ret	
F 0x40a4a8
0x40a4a8:	dec	dword ptr [rax - 0x77]
0x40a4ab:	ret	0x8b48
F 0x405052
0x405052:	imul	eax, dword ptr [rip + 0x481a3]
0x405059:	ret	
F 0x4055c0
0x4054d0:	xor	eax, eax
0x4054d2:	ret	
F 0x40b7b7
0x40b7b7:	ret	0x6348
F 0x405600
0x405600:	imul	eax, dword ptr [rip + 0x47bf5]
0x405607:	add	rsp, 8
0x40560b:	ret	
F 0x403690
0x403690:	jmp	qword ptr [rip + 0x1a8c2]
F 0x40745d
0x403016:	ret	
F 0x408436
0x408436:	or	dword ptr [rax], eax
0x408438:	add	byte ptr [rbx + 0x5d], bl
0x40843b:	pop	r12
0x40843d:	pop	r13
0x40843f:	pop	r14
0x408441:	ret	
F 0x4058d6
0x4058d6:	xor	eax, eax
0x4058d8:	test	edx, edx
0x4058da:	setle	al
0x4058dd:	lea	eax, [rax + rax - 1]
0x4058e1:	ret	
F 0x404e61
0x404e61:	add	byte ptr [rdi], cl
0x404e63:	scasd	eax, dword ptr [rdi]
0x404e64:	add	eax, 0x48393
0x404e69:	ret	
F 0x4100ec
0x41002c:	mov	dword ptr [rbx + 0xcc], eax
0x410032:	pop	rbx
0x410033:	ret	
F 0x4074c9
0x4074c9:	or	eax, 0x45d2e
0x4074ce:	xor	eax, eax
0x4074d0:	test	ecx, ecx
0x4074d2:	setg	al
0x4074d5:	lea	eax, [rax + rax - 1]
0x4074d9:	ret	
F 0x407fc4
0x403016:	ret	
F 0x404e81
0x404e81:	add	byte ptr [rax], al
0x404e83:	add	byte ptr [rdi], cl
0x404e85:	scasd	eax, dword ptr [rdi]
0x404e86:	add	eax, 0x48371
0x404e8b:	ret	
F 0x405053
0x405053:	scasd	eax, dword ptr [rdi]
0x405054:	add	eax, 0x481a3
0x405059:	ret	
F 0x4076df
0x4076df:	nop	
0x4076e0:	mov	edx, dword ptr [rip + 0x45b16]
0x4076e6:	xor	eax, eax
0x4076e8:	test	edx, edx
0x4076ea:	setle	al
0x4076ed:	lea	eax, [rax + rax - 1]
0x4076f1:	ret	
F 0x40560c
0x40556c:	nop	dword ptr [rax]
0x405570:	xor	eax, eax
0x405572:	ret	
F 0x40b09f
0x405af8:	pop	r12
0x405afa:	pop	r13
0x405afc:	pop	r14
0x405afe:	pop	r15
0x405b00:	ret	
F 0x410084
0x403016:	ret	
F 0x405610
0x4054d0:	xor	eax, eax
0x4054d2:	ret	
F 0x40747b
0x40742b:	pop	rbp
0x40742c:	add	al, 0
0x40742e:	xor	eax, eax
0x407430:	test	ecx, ecx
0x407432:	setg	al
0x407435:	lea	eax, [rax + rax - 1]
0x407439:	ret	
F 0x405607
0x403012:	add	rsp, 8
0x403016:	ret	
F 0x4058e8
0x4058e8:	mov	ecx, dword ptr [rip + 0x4790e]
0x4058ee:	xor	eax, eax
0x4058f0:	test	ecx, ecx
0x4058f2:	setg	al
0x4058f5:	lea	eax, [rax + rax - 1]
0x4058f9:	ret	
F 0x40745e
0x40745e:	nop	
0x407460:	mov	edx, dword ptr [rip + 0x45d96]
0x407466:	xor	eax, eax
0x407468:	test	edx, edx
0x40746a:	setle	al
0x40746d:	lea	eax, [rax + rax - 1]
0x407471:	ret	
F 0x40560a
0x40556a:	or	bl, al
0x40556c:	nop	dword ptr [rax]
0x405570:	xor	eax, eax
0x405572:	ret	
F 0x40a4ab
0x40a4ab:	ret	0x8b48
F 0x405057
0x404e47:	add	al, 0
0x404e49:	ret	
F 0x40e2df
0x405af8:	pop	r12
0x405afa:	pop	r13
0x405afc:	pop	r14
0x405afe:	pop	r15
0x405b00:	ret	
F 0x4076e0
0x4076e0:	mov	edx, dword ptr [rip + 0x45b16]
0x4076e6:	xor	eax, eax
0x4076e8:	test	edx, edx
0x4076ea:	setle	al
0x4076ed:	lea	eax, [rax + rax - 1]
0x4076f1:	ret	
F 0x405605
0x4054bf:	add	al, 0
0x4054c1:	add	rsp, 8
0x4054c5:	ret	
F 0x403692
0x403692:	ret	0x1a8
F 0x407256
0x4058de:	add	dil, r15b
0x4058e1:	ret	
F 0x4100e9
0x4100e9:	and	byte ptr [rax], al
0x4100ec:	mov	dword ptr [rbx + 0xcc], eax
0x4100f2:	pop	rbx
0x4100f3:	ret	
F 0x40b09d
0x405af6:	pop	rbx
0x405af7:	pop	rbp
0x405af8:	pop	r12
0x405afa:	pop	r13
0x405afc:	pop	r14
0x405afe:	pop	r15
0x405b00:	ret	
F 0x407276
0x407226:	add	byte ptr [rax], al
0x407228:	add	byte ptr [rdi + 5], bh
0x40722b:	ret	
F 0x405645
0x4054bf:	add	al, 0
0x4054c1:	add	rsp, 8
0x4054c5:	ret	
F 0x4058e9
0x4058e9:	or	eax, 0x4790e
0x4058ee:	xor	eax, eax
0x4058f0:	test	ecx, ecx
0x4058f2:	setg	al
0x4058f5:	lea	eax, [rax + rax - 1]
0x4058f9:	ret	
F 0x407255
0x4058dd:	lea	eax, [rax + rax - 1]
0x4058e1:	ret	
F 0x40560b
0x403016:	ret	
F 0x40e2de
0x405af7:	pop	rbp
0x405af8:	pop	r12
0x405afa:	pop	r13
0x405afc:	pop	r14
0x405afe:	pop	r15
0x405b00:	ret	
F 0x40b0a3
0x405afc:	pop	r14
0x405afe:	pop	r15
0x405b00:	ret	
F 0x40acf7
0x4039fc:	add	byte ptr [rax - 0x7d], cl
0x4039ff:	ret	
F 0x405647
0x403012:	add	rsp, 8
0x403016:	ret	
F 0x403718
0x403690:	jmp	qword ptr [rip + 0x1a8c2]
F 0x407471
0x403016:	ret	
F 0x40b0a1
0x405afa:	pop	r13
0x405afc:	pop	r14
0x405afe:	pop	r15
0x405b00:	ret	
F 0x4058ce
0x403016:	ret	
F 0x4058ec
0x4058ec:	add	al, 0
0x4058ee:	xor	eax, eax
0x4058f0:	test	ecx, ecx
0x4058f2:	setg	al
0x4058f5:	lea	eax, [rax + rax - 1]
0x4058f9:	ret	
F 0x40a6c7
0x40a6c7:	cmc	
0x40a6c8:	imul	eax, dword ptr [rbx], 0x58d4c00
0x40a6ce:	ret	
F 0x407250
0x4058f0:	test	ecx, ecx
0x4058f2:	setg	al
0x4058f5:	lea	eax, [rax + rax - 1]
0x4058f9:	ret	
F 0x40746e
0x4058de:	add	dil, r15b
0x4058e1:	ret	
F 0x40b0a5
0x405afe:	pop	r15
0x405b00:	ret	
F 0x40b0a7
0x403016:	ret	
F 0x40f19b
0x40f19b:	add	byte ptr [rax + 0x158908cc], al
0x40f1a1:	ret	
F 0x40371a
0x403692:	ret	0x1a8
F 0x408438
0x408072:	add	byte ptr [rbx + 0x5d], bl
0x408075:	pop	r12
0x408077:	pop	r13
0x408079:	pop	r14
0x40807b:	ret	
F 0x405050
0x405050:	add	byte ptr [rax], al
0x405052:	imul	eax, dword ptr [rip + 0x481a3]
0x405059:	ret	
F 0x4074cb
0x40742b:	pop	rbp
0x40742c:	add	al, 0
0x40742e:	xor	eax, eax
0x407430:	test	ecx, ecx
0x407432:	setg	al
0x407435:	lea	eax, [rax + rax - 1]
0x407439:	ret	
F 0x40dca9
0x40dca9:	ret	0x48f8
F 0x404edf
0x404edf:	add	eax, dword ptr [rax]
0x404ee1:	add	byte ptr [rdi], cl
0x404ee3:	scasd	eax, dword ptr [rdi]
0x404ee4:	add	eax, 0x48313
0x404ee9:	ret	
F 0x40b096
0x40b096:	add	rsp, 0x148
0x40b09d:	pop	rbx
0x40b09e:	pop	rbp
0x40b09f:	pop	r12
0x40b0a1:	pop	r13
0x40b0a3:	pop	r14
0x40b0a5:	pop	r15
0x40b0a7:	ret	
F 0x40564b
0x403016:	ret	
F 0x403720
0x403690:	jmp	qword ptr [rip + 0x1a8c2]
F 0x4058ed
0x4058ed:	add	byte ptr [rcx], dh
0x4058ef:	rol	byte ptr [rbp - 0x3f60f037], 0x8d
0x4058f6:	add	dil, r15b
0x4058f9:	ret	
F 0x407257
0x4058df:	add	bh, bh
0x4058e1:	ret	
F 0x404e7e
0x404e7e:	sub	eax, dword ptr [rdx + 0xe0]
0x404e84:	imul	eax, dword ptr [rip + 0x48371]
0x404e8b:	ret	
F 0x40a6c8
0x40a6c8:	imul	eax, dword ptr [rbx], 0x58d4c00
0x40a6ce:	ret	
F 0x407252
0x4058f2:	setg	al
0x4058f5:	lea	eax, [rax + rax - 1]
0x4058f9:	ret	
F 0x40db52
0x403016:	ret	
F 0x407439
0x403016:	ret	
F 0x4072de
0x4058de:	add	dil, r15b
0x4058e1:	ret	
F 0x4137ac
0x4137ac:	ret	
F 0x407fc0
0x407fc0:	add	qword ptr [r8 - 0x7d], rcx
0x407fc4:	ret	
F 0x4072dd
0x4058dd:	lea	eax, [rax + rax - 1]
0x4058e1:	ret	
F 0x4058cf
0x4058cf:	nop	
0x4058d0:	mov	edx, dword ptr [rip + 0x47926]
0x4058d6:	xor	eax, eax
0x4058d8:	test	edx, edx
0x4058da:	setle	al
0x4058dd:	lea	eax, [rax + rax - 1]
0x4058e1:	ret	
F 0x407fbf
0x407fbf:	mov	esi, 0x8348014b
0x407fc4:	ret	
F 0x408439
0x405184:	pop	rbx
0x405185:	pop	rbp
0x405186:	pop	r12
0x405188:	pop	r13
0x40518a:	pop	r14
0x40518c:	ret	
F 0x41007d
0x41002c:	mov	dword ptr [rbx + 0xcc], eax
0x410032:	pop	rbx
0x410033:	ret	
F 0x40ade8
0x40ade8:	add	byte ptr [rax], al
0x40adea:	add	rsp, 0x38
0x40adee:	pop	rbx
0x40adef:	pop	rbp
0x40adf0:	pop	r12
0x40adf2:	pop	r13
0x40adf4:	pop	r14
0x40adf6:	pop	r15
0x40adf8:	ret	
F 0x4084be
0x4084be:	add	al, 0
0x4084c0:	mov	dword ptr [r12 + 0x178], 1
0x4084cc:	mov	rax, r12
0x4084cf:	pop	r12
0x4084d1:	ret	
F 0x4058d0
0x4058d0:	mov	edx, dword ptr [rip + 0x47926]
0x4058d6:	xor	eax, eax
0x4058d8:	test	edx, edx
0x4058da:	setle	al
0x4058dd:	lea	eax, [rax + rax - 1]
0x4058e1:	ret	
F 0x407fc1
0x406da9:	add	dword ptr [rax - 0x7d], ecx
0x406dac:	ret	
F 0x4100e2
0x4100e2:	add	byte ptr [rax], al
0x4100e4:	and	ah, 0x7f
0x4100e7:	or	eax, 0x402000
0x4100ec:	mov	dword ptr [rbx + 0xcc], eax
0x4100f2:	pop	rbx
0x4100f3:	ret	
F 0x4039fc
0x4039fc:	add	byte ptr [rax - 0x7d], cl
0x4039ff:	ret	
F 0x40746f
0x4058df:	add	bh, bh
0x4058e1:	ret	
F 0x408440
0x40518b:	pop	rsi
0x40518c:	ret	
F 0x405668
0x405668:	add	al, byte ptr [rax]
0x40566a:	add	al, ch
0x40566c:	movabs	al, byte ptr [0x7b8505af0fffffe0]
0x405675:	add	al, 0
0x405677:	add	rsp, 8
0x40567b:	ret	
F 0x4058ee
0x4058ee:	xor	eax, eax
0x4058f0:	test	ecx, ecx
0x4058f2:	setg	al
0x4058f5:	lea	eax, [rax + rax - 1]
0x4058f9:	ret	
F 0x408441
0x403016:	ret	
F 0x407476
0x407476:	add	byte ptr [rax], al
0x407478:	mov	ecx, dword ptr [rip + 0x45d7e]
0x40747e:	xor	eax, eax
0x407480:	test	ecx, ecx
0x407482:	setg	al
0x407485:	lea	eax, [rax + rax - 1]
0x407489:	ret	
F 0x407458
0x406ff8:	add	byte ptr [rax], al
0x406ffa:	add	byte ptr [rdi + 3], bh
0x406ffd:	ret	
F 0x40843e
0x405189:	pop	rbp
0x40518a:	pop	r14
0x40518c:	ret	
F 0x4055aa
0x4055aa:	imul	eax, dword ptr [rip + 0x47c4b]
0x4055b1:	add	rsp, 8
0x4055b5:	ret	
F 0x4156b0
0x405f66:	pop	r12
0x405f68:	ret	
F 0x40843f
0x40518a:	pop	r14
0x40518c:	ret	
F 0x40f384
0x403016:	ret	
F 0x4058ef
0x4058ef:	rol	byte ptr [rbp - 0x3f60f037], 0x8d
0x4058f6:	add	dil, r15b
0x4058f9:	ret	
F 0x40843b
0x405186:	pop	r12
0x405188:	pop	r13
0x40518a:	pop	r14
0x40518c:	ret	
F 0x40f1a1
0x403016:	ret	
F 0x40e2dd
0x405af6:	pop	rbx
0x405af7:	pop	rbp
0x405af8:	pop	r12
0x405afa:	pop	r13
0x405afc:	pop	r14
0x405afe:	pop	r15
0x405b00:	ret	
F 0x40843d
0x405188:	pop	r13
0x40518a:	pop	r14
0x40518c:	ret	
F 0x408068
0x408068:	add	rsp, 0x30
0x40806c:	lea	rax, [rip + 0x383cd]
0x408073:	pop	rbx
0x408074:	pop	rbp
0x408075:	pop	r12
0x408077:	pop	r13
0x408079:	pop	r14
0x40807b:	ret	
F 0x4039ff
0x403016:	ret	
F 0x4058d5
0x4058d5:	add	byte ptr [rcx], dh
0x4058d7:	rol	byte ptr [rbp - 0x3f61f02e], 0x8d
0x4058de:	add	dil, r15b
0x4058e1:	ret	
F 0x40747e
0x4058ee:	xor	eax, eax
0x4058f0:	test	ecx, ecx
0x4058f2:	setg	al
0x4058f5:	lea	eax, [rax + rax - 1]
0x4058f9:	ret	
F 0x40db4f
0x405afd:	pop	rsi
0x405afe:	pop	r15
0x405b00:	ret	
F 0x4100e4
0x4100e4:	and	ah, 0x7f
0x4100e7:	or	eax, 0x402000
0x4100ec:	mov	dword ptr [rbx + 0xcc], eax
0x4100f2:	pop	rbx
0x4100f3:	ret	
F 0x4074cf
0x4058ef:	rol	byte ptr [rbp - 0x3f60f037], 0x8d
0x4058f6:	add	dil, r15b
0x4058f9:	ret	
F 0x403a69
0x403016:	ret	
F 0x413731
0x403016:	ret	
F 0x4058d4
0x4058d4:	add	al, 0
0x4058d6:	xor	eax, eax
0x4058d8:	test	edx, edx
0x4058da:	setle	al
0x4058dd:	lea	eax, [rax + rax - 1]
0x4058e1:	ret	
F 0x404e83
0x404e83:	add	byte ptr [rdi], cl
0x404e85:	scasd	eax, dword ptr [rdi]
0x404e86:	add	eax, 0x48371
0x404e8b:	ret	
F 0x405051
0x405051:	add	byte ptr [rdi], cl
0x405053:	scasd	eax, dword ptr [rdi]
0x405054:	add	eax, 0x481a3
0x405059:	ret	
F 0x40806b
0x40806b:	xor	byte ptr [rax - 0x73], cl
0x40806e:	add	eax, 0x383cd
0x408073:	pop	rbx
0x408074:	pop	rbp
0x408075:	pop	r12
0x408077:	pop	r13
0x408079:	pop	r14
0x40807b:	ret	
F 0x4076e8
0x4058d8:	test	edx, edx
0x4058da:	setle	al
0x4058dd:	lea	eax, [rax + rax - 1]
0x4058e1:	ret	
F 0x40745f
0x40745f:	nop	
0x407460:	mov	edx, dword ptr [rip + 0x45d96]
0x407466:	xor	eax, eax
0x407468:	test	edx, edx
0x40746a:	setle	al
0x40746d:	lea	eax, [rax + rax - 1]
0x407471:	ret	
F 0x40566c
0x40566c:	movabs	al, byte ptr [0x7b8505af0fffffe0]
0x405675:	add	al, 0
0x405677:	add	rsp, 8
0x40567b:	ret	
F 0x4058f0
0x4058f0:	test	ecx, ecx
0x4058f2:	setg	al
0x4058f5:	lea	eax, [rax + rax - 1]
0x4058f9:	ret	
F 0x407251
0x4058f1:	leave	
0x4058f2:	setg	al
0x4058f5:	lea	eax, [rax + rax - 1]
0x4058f9:	ret	
F 0x4058d1
0x4058d1:	adc	eax, 0x47926
0x4058d6:	xor	eax, eax
0x4058d8:	test	edx, edx
0x4058da:	setle	al
0x4058dd:	lea	eax, [rax + rax - 1]
0x4058e1:	ret	
F 0x407479
0x407479:	or	eax, 0x45d7e
0x40747e:	xor	eax, eax
0x407480:	test	ecx, ecx
0x407482:	setg	al
0x407485:	lea	eax, [rax + rax - 1]
0x407489:	ret	
F 0x40843a
0x405185:	pop	rbp
0x405186:	pop	r12
0x405188:	pop	r13
0x40518a:	pop	r14
0x40518c:	ret	
F 0x413730
0x413730:	jmp	0x4136f5
F 0x403c48
0x403c48:	add	byte ptr [rax], al
0x403c4a:	add	byte ptr [rax - 0x7f], cl
0x403c4d:	ret	
F 0x4055ab
0x4055ab:	scasd	eax, dword ptr [rdi]
0x4055ac:	add	eax, 0x47c4b
0x4055b1:	add	rsp, 8
0x4055b5:	ret	
F 0x404e60
0x404e60:	add	byte ptr [rax], al
0x404e62:	imul	eax, dword ptr [rip + 0x48393]
0x404e69:	ret	
F 0x413755
0x403016:	ret	
F 0x407e6e
0x405afa:	pop	r13
0x405afc:	pop	r14
0x405afe:	pop	r15
0x405b00:	ret	
F 0x4055ac
0x4055ac:	add	eax, 0x47c4b
0x4055b1:	add	rsp, 8
0x4055b5:	ret	
F 0x40adea
0x40adea:	add	rsp, 0x38
0x40adee:	pop	rbx
0x40adef:	pop	rbp
0x40adf0:	pop	r12
0x40adf2:	pop	r13
0x40adf4:	pop	r14
0x40adf6:	pop	r15
0x40adf8:	ret	
F 0x40e2e5
0x405afe:	pop	r15
0x405b00:	ret	
F 0x408437
0x408437:	add	byte ptr [rax], al
0x408439:	pop	rbx
0x40843a:	pop	rbp
0x40843b:	pop	r12
0x40843d:	pop	r13
0x40843f:	pop	r14
0x408441:	ret	
F 0x41372f
0x41372f:	add	bl, ch
0x413731:	ret	
F 0x410081
0x410007:	add	byte ptr [rax], al
0x410009:	pop	rbx
0x41000a:	ret	
F 0x4055af
0x4054bf:	add	al, 0
0x4054c1:	add	rsp, 8
0x4054c5:	ret	
F 0x40566a
0x40566a:	add	al, ch
0x40566c:	movabs	al, byte ptr [0x7b8505af0fffffe0]
0x405675:	add	al, 0
0x405677:	add	rsp, 8
0x40567b:	ret	
F 0x40e2e6
0x405aff:	pop	rdi
0x405b00:	ret	
F 0x405570
0x4054d0:	xor	eax, eax
0x4054d2:	ret	
F 0x405671
0x405671:	scasd	eax, dword ptr [rdi]
0x405672:	add	eax, 0x47b85
0x405677:	add	rsp, 8
0x40567b:	ret	
F 0x4058f1
0x4058f1:	leave	
0x4058f2:	setg	al
0x4058f5:	lea	eax, [rax + rax - 1]
0x4058f9:	ret	
F 0x405572
0x403016:	ret	
F 0x405670
0x405670:	imul	eax, dword ptr [rip + 0x47b85]
0x405677:	add	rsp, 8
0x40567b:	ret	
F 0x40746d
0x4058dd:	lea	eax, [rax + rax - 1]
0x4058e1:	ret	
F 0x4058f2
0x4058f2:	setg	al
0x4058f5:	lea	eax, [rax + rax - 1]
0x4058f9:	ret	
F 0x40e2db
0x405af4:	add	byte ptr [rax], al
0x405af6:	pop	rbx
0x405af7:	pop	rbp
0x405af8:	pop	r12
0x405afa:	pop	r13
0x405afc:	pop	r14
0x405afe:	pop	r15
0x405b00:	ret	
F 0x4101f9
0x403016:	ret	
F 0x4084c0
0x4084c0:	mov	dword ptr [r12 + 0x178], 1
0x4084cc:	mov	rax, r12
0x4084cf:	pop	r12
0x4084d1:	ret	
F 0x41372e
0x41372e:	add	byte ptr [rax], al
0x413730:	jmp	0x4136f5
F 0x40566f
0x40566f:	dec	dword ptr [rdi]
0x405671:	scasd	eax, dword ptr [rdi]
0x405672:	add	eax, 0x47b85
0x405677:	add	rsp, 8
0x40567b:	ret	
F 0x4058f5
0x4058dd:	lea	eax, [rax + rax - 1]
0x4058e1:	ret	
F 0x403c4a
0x403c4a:	add	byte ptr [rax - 0x7f], cl
0x403c4d:	ret	
F 0x40710c
0x4058ec:	add	al, 0
0x4058ee:	xor	eax, eax
0x4058f0:	test	ecx, ecx
0x4058f2:	setg	al
0x4058f5:	lea	eax, [rax + rax - 1]
0x4058f9:	ret	
F 0x4055a9
0x4055a9:	dec	dword ptr [rdi]
0x4055ab:	scasd	eax, dword ptr [rdi]
0x4055ac:	add	eax, 0x47c4b
0x4055b1:	add	rsp, 8
0x4055b5:	ret	
F 0x40504f
0x40504f:	add	eax, dword ptr [rax]
0x405051:	add	byte ptr [rdi], cl
0x405053:	scasd	eax, dword ptr [rdi]
0x405054:	add	eax, 0x481a3
0x405059:	ret	
F 0x407436
0x4058de:	add	dil, r15b
0x4058e1:	ret	
F 0x410208
0x410208:	adc	byte ptr [rbp + 0x25], dh
0x41020b:	or	ah, 0x10
0x41020e:	mov	dword ptr [rbx + 0xcc], eax
0x410214:	pop	rbx
0x410215:	ret	
F 0x407735
0x4058d5:	add	byte ptr [rcx], dh
0x4058d7:	rol	byte ptr [rbp - 0x3f61f02e], 0x8d
0x4058de:	add	dil, r15b
0x4058e1:	ret	
F 0x40c23b
0x405afd:	pop	rsi
0x405afe:	pop	r15
0x405b00:	ret	
F 0x4077d5
0x4058d5:	add	byte ptr [rcx], dh
0x4058d7:	rol	byte ptr [rbp - 0x3f61f02e], 0x8d
0x4058de:	add	dil, r15b
0x4058e1:	ret	
F 0x40c23c
0x405afe:	pop	r15
0x405b00:	ret	
F 0x4051e7
0x404d96:	add	byte ptr [rax], al
0x404d98:	ret	
F 0x40917c
0x405af8:	pop	r12
0x405afa:	pop	r13
0x405afc:	pop	r14
0x405afe:	pop	r15
0x405b00:	ret	
F 0x406b15
0x406b15:	add	byte ptr [rax + rax*8 + 0xf493e74], al
0x406b1c:	mov	esi, 0x89480704
0x406b21:	ret	
F 0x40917f
0x405afb:	pop	rbp
0x405afc:	pop	r14
0x405afe:	pop	r15
0x405b00:	ret	
F 0x40917e
0x405afa:	pop	r13
0x405afc:	pop	r14
0x405afe:	pop	r15
0x405b00:	ret	
F 0x404f7f
0x404f7f:	add	eax, dword ptr [rax]
0x404f81:	add	byte ptr [rdi], cl
0x404f83:	scasd	eax, dword ptr [rdi]
0x404f84:	add	eax, 0x48273
0x404f89:	ret	
F 0x4075e5
0x403016:	ret	
F 0x40c23d
0x405aff:	pop	rdi
0x405b00:	ret	
F 0x407736
0x4058d6:	xor	eax, eax
0x4058d8:	test	edx, edx
0x4058da:	setle	al
0x4058dd:	lea	eax, [rax + rax - 1]
0x4058e1:	ret	
F 0x40c23e
0x403016:	ret	
F 0x404f76
0x404f76:	mov	eax, dword ptr [rax + 0x364]
0x404f7c:	sub	eax, dword ptr [rdx + 0x364]
0x404f82:	imul	eax, dword ptr [rip + 0x48273]
0x404f89:	ret	
F 0x4051e9
0x403016:	ret	
F 0x408c70
0x408c70:	mov	dword ptr [rip + 0x445a2], 2
0x408c7a:	add	rsp, 8
0x408c7e:	ret	
F 0x406b17
0x406b17:	sal	byte ptr [rsi + rdi + 0x49], 0xf
0x406b1c:	mov	esi, 0x89480704
0x406b21:	ret	
F 0x408c78
0x405246:	add	byte ptr [rax], al
0x405248:	add	rsp, 8
0x40524c:	ret	
F 0x406668
0x406668:	add	byte ptr [rcx + rcx*4 - 0x20], al
0x40666c:	pop	r12
0x40666e:	ret	
F 0x40c349
0x403016:	ret	
F 0x4075ee
0x4075ee:	add	byte ptr [rax], al
0x4075f0:	mov	edx, dword ptr [rip + 0x45c06]
0x4075f6:	xor	eax, eax
0x4075f8:	test	edx, edx
0x4075fa:	setle	al
0x4075fd:	lea	eax, [rax + rax - 1]
0x407601:	ret	
F 0x408dfc
0x408dfc:	and	dword ptr [rdx + 1], 0xc7834100
0x408e03:	add	al, byte ptr [rcx]
0x408e05:	ret	
F 0x407057
0x4058d7:	rol	byte ptr [rbp - 0x3f61f02e], 0x8d
0x4058de:	add	dil, r15b
0x4058e1:	ret	
F 0x40c42f
0x40c42f:	add	byte ptr [rax], al
0x40c431:	lea	rsp, [rbp - 0x28]
0x40c435:	pop	rbx
0x40c436:	pop	r12
0x40c438:	pop	r13
0x40c43a:	pop	r14
0x40c43c:	pop	r15
0x40c43e:	pop	rbp
0x40c43f:	ret	
F 0x407058
0x4058d8:	test	edx, edx
0x4058da:	setle	al
0x4058dd:	lea	eax, [rax + rax - 1]
0x4058e1:	ret	
F 0x4050a7
0x4050a7:	cmp	byte ptr [rbx + rax], 0
0x4050ac:	sub	eax, dword ptr [rdx + 0x37c]
0x4050b2:	imul	eax, dword ptr [rip + 0x48143]
0x4050b9:	ret	
F 0x40705e
0x4058de:	add	dil, r15b
0x4058e1:	ret	
F 0x407051
0x407051:	adc	eax, 0x461a6
0x407056:	xor	eax, eax
0x407058:	test	edx, edx
0x40705a:	setle	al
0x40705d:	lea	eax, [rax + rax - 1]
0x407061:	ret	
F 0x406b1c
0x406b1c:	mov	esi, 0x89480704
0x406b21:	ret	
F 0x4051ef
0x4051ef:	add	byte ptr [rbx + 0xb7554ff], al
0x4051f5:	mov	dword ptr [rax + 0xc8], 0x14
0x4051ff:	ret	
F 0x408c7e
0x403016:	ret	
F 0x408c7a
0x403012:	add	rsp, 8
0x403016:	ret	
F 0x406b21
0x403016:	ret	
F 0x407056
0x4058d6:	xor	eax, eax
0x4058d8:	test	edx, edx
0x4058da:	setle	al
0x4058dd:	lea	eax, [rax + rax - 1]
0x4058e1:	ret	
F 0x404f5f
0x404f5f:	ror	byte ptr [rdi], 1
0x404f61:	scasd	eax, dword ptr [rdi]
0x404f62:	add	eax, 0x48295
0x404f67:	ret	
F 0x40704f
0x40704f:	nop	
0x407050:	mov	edx, dword ptr [rip + 0x461a6]
0x407056:	xor	eax, eax
0x407058:	test	edx, edx
0x40705a:	setle	al
0x40705d:	lea	eax, [rax + rax - 1]
0x407061:	ret	
F 0x40c431
0x40c431:	lea	rsp, [rbp - 0x28]
0x40c435:	pop	rbx
0x40c436:	pop	r12
0x40c438:	pop	r13
0x40c43a:	pop	r14
0x40c43c:	pop	r15
0x40c43e:	pop	rbp
0x40c43f:	ret	
F 0x408e03
0x408e03:	add	al, byte ptr [rcx]
0x408e05:	ret	
F 0x406b40
0x406b40:	add	rsp, 0x28
0x406b44:	mov	eax, r8d
0x406b47:	pop	rbx
0x406b48:	pop	rbp
0x406b49:	pop	r12
0x406b4b:	pop	r13
0x406b4d:	pop	r14
0x406b4f:	pop	r15
0x406b51:	ret	
F 0x408ee7
0x403016:	ret	
F 0x40705d
0x4058dd:	lea	eax, [rax + rax - 1]
0x4058e1:	ret	
F 0x4050aa
0x4050aa:	add	byte ptr [rax], al
0x4050ac:	sub	eax, dword ptr [rdx + 0x37c]
0x4050b2:	imul	eax, dword ptr [rip + 0x48143]
0x4050b9:	ret	
F 0x407079
0x403016:	ret	
F 0x407737
0x4058d7:	rol	byte ptr [rbp - 0x3f61f02e], 0x8d
0x4058de:	add	dil, r15b
0x4058e1:	ret	
F 0x408e05
0x403016:	ret	
F 0x407738
0x4058d8:	test	edx, edx
0x4058da:	setle	al
0x4058dd:	lea	eax, [rax + rax - 1]
0x4058e1:	ret	
F 0x40705a
0x4058da:	setle	al
0x4058dd:	lea	eax, [rax + rax - 1]
0x4058e1:	ret	
F 0x406669
0x406669:	mov	eax, r12d
0x40666c:	pop	r12
0x40666e:	ret	
F 0x407054
0x4058d4:	add	al, 0
0x4058d6:	xor	eax, eax
0x4058d8:	test	edx, edx
0x4058da:	setle	al
0x4058dd:	lea	eax, [rax + rax - 1]
0x4058e1:	ret	
F 0x40917a
0x405af6:	pop	rbx
0x405af7:	pop	rbp
0x405af8:	pop	r12
0x405afa:	pop	r13
0x405afc:	pop	r14
0x405afe:	pop	r15
0x405b00:	ret	
F 0x40917b
0x405af7:	pop	rbp
0x405af8:	pop	r12
0x405afa:	pop	r13
0x405afc:	pop	r14
0x405afe:	pop	r15
0x405b00:	ret	
F 0x40c435
0x40c435:	pop	rbx
0x40c436:	pop	r12
0x40c438:	pop	r13
0x40c43a:	pop	r14
0x40c43c:	pop	r15
0x40c43e:	pop	rbp
0x40c43f:	ret	
F 0x40c436
0x40c436:	pop	r12
0x40c438:	pop	r13
0x40c43a:	pop	r14
0x40c43c:	pop	r15
0x40c43e:	pop	rbp
0x40c43f:	ret	
F 0x404f65
0x404e47:	add	al, 0
0x404e49:	ret	
F 0x407286
0x4058d6:	xor	eax, eax
0x4058d8:	test	edx, edx
0x4058da:	setle	al
0x4058dd:	lea	eax, [rax + rax - 1]
0x4058e1:	ret	
F 0x40c438
0x40c438:	pop	r13
0x40c43a:	pop	r14
0x40c43c:	pop	r15
0x40c43e:	pop	rbp
0x40c43f:	ret	
F 0x404f67
0x403016:	ret	
F 0x40773a
0x4058da:	setle	al
0x4058dd:	lea	eax, [rax + rax - 1]
0x4058e1:	ret	
F 0x406b43
0x406b43:	sub	byte ptr [rcx + rcx*4 - 0x40], al
0x406b47:	pop	rbx
0x406b48:	pop	rbp
0x406b49:	pop	r12
0x406b4b:	pop	r13
0x406b4d:	pop	r14
0x406b4f:	pop	r15
0x406b51:	ret	
F 0x404f62
0x404f62:	add	eax, 0x48295
0x404f67:	ret	
F 0x4077d8
0x4058d8:	test	edx, edx
0x4058da:	setle	al
0x4058dd:	lea	eax, [rax + rax - 1]
0x4058e1:	ret	
F 0x4050ac
0x4050ac:	sub	eax, dword ptr [rdx + 0x37c]
0x4050b2:	imul	eax, dword ptr [rip + 0x48143]
0x4050b9:	ret	
F 0x4075f0
0x4075f0:	mov	edx, dword ptr [rip + 0x45c06]
0x4075f6:	xor	eax, eax
0x4075f8:	test	edx, edx
0x4075fa:	setle	al
0x4075fd:	lea	eax, [rax + rax - 1]
0x407601:	ret	
F 0x40c439
0x40c439:	pop	rbp
0x40c43a:	pop	r14
0x40c43c:	pop	r15
0x40c43e:	pop	rbp
0x40c43f:	ret	
F 0x40c43a
0x40c43a:	pop	r14
0x40c43c:	pop	r15
0x40c43e:	pop	rbp
0x40c43f:	ret	
F 0x40773d
0x4058dd:	lea	eax, [rax + rax - 1]
0x4058e1:	ret	
F 0x406b44
0x406b44:	mov	eax, r8d
0x406b47:	pop	rbx
0x406b48:	pop	rbp
0x406b49:	pop	r12
0x406b4b:	pop	r13
0x406b4d:	pop	r14
0x406b4f:	pop	r15
0x406b51:	ret	
F 0x404f60
0x404f60:	imul	eax, dword ptr [rip + 0x48295]
0x404f67:	ret	
F 0x4077da
0x4058da:	setle	al
0x4058dd:	lea	eax, [rax + rax - 1]
0x4058e1:	ret	
F 0x4051f5
0x4051f5:	mov	dword ptr [rax + 0xc8], 0x14
0x4051ff:	ret	
F 0x404f77
0x404f77:	and	byte ptr [rbx + rax], 0
0x404f7c:	sub	eax, dword ptr [rdx + 0x364]
0x404f82:	imul	eax, dword ptr [rip + 0x48273]
0x404f89:	ret	
F 0x40c43b
0x40c43b:	pop	rsi
0x40c43c:	pop	r15
0x40c43e:	pop	rbp
0x40c43f:	ret	
F 0x413844
0x403016:	ret	
F 0x4055b7
0x4054c7:	nop	dword ptr cs:[rax + rax]
0x4054d0:	xor	eax, eax
0x4054d2:	ret	
F 0x413a1c
0x413a1c:	add	byte ptr [rax], al
0x413a1e:	xor	al, 0x80
0x413a20:	mov	dword ptr [rbp + 0xcc], eax
0x413a26:	jmp	0x4136f5
F 0x4055b6
0x4054c6:	nop	word ptr cs:[rax + rax]
0x4054d0:	xor	eax, eax
0x4054d2:	ret	
F 0x4055b5
0x403016:	ret	
F 0x411909
0x403016:	ret	
F 0x4107dd
0x403016:	ret	
F 0x411907
0x404557:	add	al, ch
0x404559:	ret	
F 0x409644
0x408af9:	add	byte ptr [rax], al
0x408afb:	pop	rbx
0x408afc:	pop	rbp
0x408afd:	pop	r12
0x408aff:	pop	r13
0x408b01:	ret	
F 0x410e92
0x403016:	ret	
F 0x4107db
0x4107db:	sbb	cl, ch
0x4107dd:	ret	
F 0x4098d1
0x403016:	ret	
F 0x411cc8
0x403016:	ret	
F 0x41078d
0x41078d:	add	bh, dh
0x41078f:	ret	0
F 0x411ccf
0x403016:	ret	
F 0x4098d0
0x4098d0:	pop	rdx
0x4098d1:	ret	
F 0x4097e3
0x403016:	ret	
F 0x4097e2
0x4097e2:	pop	rcx
0x4097e3:	ret	
F 0x409797
0x406f05:	ret	0x148
F 0x41078f
0x41078f:	ret	0
F 0x4120a0
0x4120a0:	ret	0x5958
F 0x409646
0x4057ca:	pop	rbx
0x4057cb:	pop	rbp
0x4057cc:	pop	r12
0x4057ce:	pop	r13
0x4057d0:	ret	
F 0x4055b4
0x4054c4:	or	bl, al
0x4054c6:	nop	word ptr cs:[rax + rax]
0x4054d0:	xor	eax, eax
0x4054d2:	ret	
F 0x409648
0x4057cc:	pop	r12
0x4057ce:	pop	r13
0x4057d0:	ret	
F 0x404e78
0x404e78:	and	al, 0
0x404e7b:	add	byte ptr [rax], al
0x404e7d:	sub	rax, qword ptr [rdx + 0xe0]
0x404e84:	imul	eax, dword ptr [rip + 0x48371]
0x404e8b:	ret	
F 0x4157ad
0x4157ad:	nop	dword ptr [rax]
0x4157b0:	ret	
F 0x40964a
0x4057ce:	pop	r13
0x4057d0:	ret	
F 0x40964b
0x404e0f:	pop	rbp
0x404e10:	ret	
F 0x409647
0x4057cb:	pop	rbp
0x4057cc:	pop	r12
0x4057ce:	pop	r13
0x4057d0:	ret	
F 0x4099cd
0x4099cd:	add	byte ptr [rax], al
0x4099cf:	add	rsp, 0x228
0x4099d6:	pop	rbx
0x4099d7:	pop	rbp
0x4099d8:	pop	r12
0x4099da:	pop	r13
0x4099dc:	pop	r14
0x4099de:	pop	r15
0x4099e0:	ret	
F 0x409645
0x406c3c:	add	byte ptr [rbx + 0x5d], bl
0x406c3f:	pop	r12
0x406c41:	pop	r13
0x406c43:	ret	
F 0x40964c
0x403016:	ret	
F 0x40991a
0x40991a:	xor	dword ptr [rax - 0x77], ecx
0x40991d:	ret	0x8348
F 0x40e2ad
0x40e2ad:	xchg	eax, ebp
0x40e2ae:	ret	
F 0x40991d
0x406229:	ret	0x8348
F 0x405216
0x405216:	add	byte ptr [rax], al
0x405218:	mov	dword ptr [rax + 0xc8], 0x12
0x405222:	ret	
F 0x40dd2d
0x403016:	ret	
F 0x407728
0x407048:	add	byte ptr [rax], al
0x40704a:	add	byte ptr [rdi + 3], dh
0x40704d:	ret	
F 0x4070b1
0x403016:	ret	
F 0x404f47
0x404f47:	mov	cl, 0x82
0x404f49:	add	al, 0
0x404f4b:	ret	
F 0x4051b5
0x4051b5:	sbb	eax, eax
0x4051b7:	ret	
F 0x407619
0x403016:	ret	
F 0x404e0e
0x404e0e:	add	dword ptr [rbp - 0x3d], ebx
0x404e11:	nop	dword ptr [rax]
0x404e18:	ret	
F 0x4070b9
0x4070b9:	or	eax, 0x4613e
0x4070be:	xor	eax, eax
0x4070c0:	test	ecx, ecx
0x4070c2:	setg	al
0x4070c5:	lea	eax, [rax + rax - 1]
0x4070c9:	ret	
F 0x4068b0
0x4068b0:	shl	ebx, 4
0x4068b3:	mov	eax, dword ptr [r12 + rbx + 8]
0x4068b8:	add	rsp, 8
0x4068bc:	pop	rbx
0x4068bd:	pop	rbp
0x4068be:	pop	r12
0x4068c0:	pop	r13
0x4068c2:	ret	
F 0x407617
0x4058df:	add	bh, bh
0x4058e1:	ret	
F 0x4084cd
0x40666a:	mov	eax, esp
0x40666c:	pop	r12
0x40666e:	ret	
F 0x404e0d
0x404e0d:	add	byte ptr [rcx], al
0x404e0f:	pop	rbp
0x404e10:	ret	
F 0x40518c
0x403016:	ret	
F 0x407616
0x4058de:	add	dil, r15b
0x4058e1:	ret	
F 0x40777f
0x40777f:	nop	
0x407780:	mov	edx, dword ptr [rip + 0x45a76]
0x407786:	xor	eax, eax
0x407788:	test	edx, edx
0x40778a:	setle	al
0x40778d:	lea	eax, [rax + rax - 1]
0x407791:	ret	
F 0x410057
0x41002c:	mov	dword ptr [rbx + 0xcc], eax
0x410032:	pop	rbx
0x410033:	ret	
F 0x4070be
0x4058ee:	xor	eax, eax
0x4058f0:	test	ecx, ecx
0x4058f2:	setg	al
0x4058f5:	lea	eax, [rax + rax - 1]
0x4058f9:	ret	
F 0x404e0c
0x404e0c:	add	dword ptr [rax], eax
0x404e0e:	add	dword ptr [rbp - 0x3d], ebx
0x404e11:	nop	dword ptr [rax]
0x404e18:	ret	
F 0x4075c1
0x4058f1:	leave	
0x4058f2:	setg	al
0x4058f5:	lea	eax, [rax + rax - 1]
0x4058f9:	ret	
F 0x4084cf
0x405f66:	pop	r12
0x405f68:	ret	
F 0x407786
0x4058d6:	xor	eax, eax
0x4058d8:	test	edx, edx
0x4058da:	setle	al
0x4058dd:	lea	eax, [rax + rax - 1]
0x4058e1:	ret	
F 0x4051b7
0x403016:	ret	
F 0x407831
0x403016:	ret	
F 0x404e10
0x403016:	ret	
F 0x410083
0x40da99:	pop	rbx
0x40da9a:	ret	
F 0x4070b6
0x4070b6:	add	byte ptr [rax], al
0x4070b8:	mov	ecx, dword ptr [rip + 0x4613e]
0x4070be:	xor	eax, eax
0x4070c0:	test	ecx, ecx
0x4070c2:	setg	al
0x4070c5:	lea	eax, [rax + rax - 1]
0x4070c9:	ret	
F 0x407817
0x403016:	ret	
F 0x404f46
0x404f46:	add	eax, 0x482b1
0x404f4b:	ret	
F 0x4157ac
0x403016:	ret	
F 0x40504a
0x40504a:	add	byte ptr [rax], al
0x40504c:	sub	eax, dword ptr [rdx + 0x368]
0x405052:	imul	eax, dword ptr [rip + 0x481a3]
0x405059:	ret	
F 0x4084d1
0x403016:	ret	
F 0x407709
0x403016:	ret	
F 0x404f3e
0x404f3e:	sub	eax, dword ptr [rdx + 0xd8]
0x404f44:	imul	eax, dword ptr [rip + 0x482b1]
0x404f4b:	ret	
F 0x413a1d
0x413a1d:	add	byte ptr [rax + rax*4], dh
0x413a20:	mov	dword ptr [rbp + 0xcc], eax
0x413a26:	jmp	0x4136f5
F 0x4070bd
0x4058ed:	add	byte ptr [rcx], dh
0x4058ef:	rol	byte ptr [rbp - 0x3f60f037], 0x8d
0x4058f6:	add	dil, r15b
0x4058f9:	ret	
F 0x4067f7
0x404e0f:	pop	rbp
0x404e10:	ret	
F 0x404e11
0x404d91:	nop	dword ptr [rax]
0x404d98:	ret	
F 0x406662
0x406662:	add	rsp, 0x90
0x406669:	mov	eax, r12d
0x40666c:	pop	r12
0x40666e:	ret	
F 0x404f58
0x404f58:	sbb	al, 0xf
0x404f5b:	mov	esi, 0xd0291c52
0x404f60:	imul	eax, dword ptr [rip + 0x48295]
0x404f67:	ret	
F 0x4074cd
0x4058ed:	add	byte ptr [rcx], dh
0x4058ef:	rol	byte ptr [rbp - 0x3f60f037], 0x8d
0x4058f6:	add	dil, r15b
0x4058f9:	ret	
F 0x4085cd
0x4085cd:	add	byte ptr [rax], al
0x4085cf:	add	byte ptr [rax + 0x63], cl
0x4085d2:	ret	
F 0x4157b0
0x403016:	ret	
F 0x41005b
0x410007:	add	byte ptr [rax], al
0x410009:	pop	rbx
0x41000a:	ret	
F 0x4058cb
0x4058cb:	add	byte ptr [rdi + 2], dh
0x4058ce:	ret	
F 0x40518b
0x40518b:	pop	rsi
0x40518c:	ret	
F 0x4067f6
0x4057ce:	pop	r13
0x4057d0:	ret	
F 0x404e07
0x404e07:	inc	esi
0x404e09:	add	eax, 0x1a239
0x404e0e:	add	dword ptr [rbp - 0x3d], ebx
0x404e11:	nop	dword ptr [rax]
0x404e18:	ret	
F 0x405895
0x404e0f:	pop	rbp
0x404e10:	ret	
F 0x40518a
0x40518a:	pop	r14
0x40518c:	ret	
F 0x41005d
0x40da99:	pop	rbx
0x40da9a:	ret	
F 0x4075bf
0x4058ef:	rol	byte ptr [rbp - 0x3f60f037], 0x8d
0x4058f6:	add	dil, r15b
0x4058f9:	ret	
F 0x40504c
0x40504c:	sub	eax, dword ptr [rdx + 0x368]
0x405052:	imul	eax, dword ptr [rip + 0x481a3]
0x405059:	ret	
F 0x40777d
0x403016:	ret	
F 0x404f43
0x404f43:	add	byte ptr [rdi], cl
0x404f45:	scasd	eax, dword ptr [rdi]
0x404f46:	add	eax, 0x482b1
0x404f4b:	ret	
F 0x4070c0
0x4058f0:	test	ecx, ecx
0x4058f2:	setg	al
0x4058f5:	lea	eax, [rax + rax - 1]
0x4058f9:	ret	
F 0x41005e
0x403016:	ret	
F 0x407707
0x4058df:	add	bh, bh
0x4058e1:	ret	
F 0x41007b
0x41007b:	or	byte ptr [rax], al
0x41007d:	mov	dword ptr [rbx + 0xcc], eax
0x410083:	pop	rbx
0x410084:	ret	
F 0x4070bf
0x4058ef:	rol	byte ptr [rbp - 0x3f60f037], 0x8d
0x4058f6:	add	dil, r15b
0x4058f9:	ret	
F 0x4067f4
0x4057cc:	pop	r12
0x4057ce:	pop	r13
0x4057d0:	ret	
F 0x404f41
0x404f41:	add	byte ptr [rax], al
0x404f43:	add	byte ptr [rdi], cl
0x404f45:	scasd	eax, dword ptr [rdi]
0x404f46:	add	eax, 0x482b1
0x404f4b:	ret	
F 0x404e0f
0x404e0f:	pop	rbp
0x404e10:	ret	
F 0x405896
0x403016:	ret	
F 0x40709f
0x40709f:	nop	
0x4070a0:	mov	edx, dword ptr [rip + 0x46156]
0x4070a6:	xor	eax, eax
0x4070a8:	test	edx, edx
0x4070aa:	setle	al
0x4070ad:	lea	eax, [rax + rax - 1]
0x4070b1:	ret	
F 0x4075be
0x4058ee:	xor	eax, eax
0x4058f0:	test	ecx, ecx
0x4058f2:	setg	al
0x4058f5:	lea	eax, [rax + rax - 1]
0x4058f9:	ret	
F 0x410078
0x410078:	xor	eax, 0x80000
0x41007d:	mov	dword ptr [rbx + 0xcc], eax
0x410083:	pop	rbx
0x410084:	ret	
F 0x4076fe
0x4058ee:	xor	eax, eax
0x4058f0:	test	ecx, ecx
0x4058f2:	setg	al
0x4058f5:	lea	eax, [rax + rax - 1]
0x4058f9:	ret	
F 0x40782f
0x4058df:	add	bh, bh
0x4058e1:	ret	
F 0x4085cf
0x4085cf:	add	byte ptr [rax + 0x63], cl
0x4085d2:	ret	
F 0x405185
0x405185:	pop	rbp
0x405186:	pop	r12
0x405188:	pop	r13
0x40518a:	pop	r14
0x40518c:	ret	
F 0x405215
0x405215:	add	byte ptr [rax], r8b
0x405218:	mov	dword ptr [rax + 0xc8], 0x12
0x405222:	ret	
F 0x407287
0x4058d7:	rol	byte ptr [rbp - 0x3f61f02e], 0x8d
0x4058de:	add	dil, r15b
0x4058e1:	ret	
F 0x4074cc
0x4058ec:	add	al, 0
0x4058ee:	xor	eax, eax
0x4058f0:	test	ecx, ecx
0x4058f2:	setg	al
0x4058f5:	lea	eax, [rax + rax - 1]
0x4058f9:	ret	
F 0x4058c9
0x4058c9:	add	byte ptr [rax], al
0x4058cb:	add	byte ptr [rdi + 2], dh
0x4058ce:	ret	
F 0x407612
0x4058f2:	setg	al
0x4058f5:	lea	eax, [rax + rax - 1]
0x4058f9:	ret	
F 0x404e09
0x404e09:	add	eax, 0x1a239
0x404e0e:	add	dword ptr [rbp - 0x3d], ebx
0x404e11:	nop	dword ptr [rax]
0x404e18:	ret	
F 0x40701c
0x4058ec:	add	al, 0
0x4058ee:	xor	eax, eax
0x4058f0:	test	ecx, ecx
0x4058f2:	setg	al
0x4058f5:	lea	eax, [rax + rax - 1]
0x4058f9:	ret	
F 0x40709e
0x40709e:	nop	
0x4070a0:	mov	edx, dword ptr [rip + 0x46156]
0x4070a6:	xor	eax, eax
0x4070a8:	test	edx, edx
0x4070aa:	setle	al
0x4070ad:	lea	eax, [rax + rax - 1]
0x4070b1:	ret	
F 0x404e08
0x404e08:	mov	byte ptr [rip + 0x1a239], 1
0x404e0f:	pop	rbp
0x404e10:	ret	
F 0x4085d2
0x403016:	ret	
F 0x4055b8
0x4054c8:	nop	dword ptr [rax + rax]
0x4054d0:	xor	eax, eax
0x4054d2:	ret	
F 0x4067f3
0x4057cb:	pop	rbp
0x4057cc:	pop	r12
0x4057ce:	pop	r13
0x4057d0:	ret	
F 0x4077c4
0x4077c4:	add	byte ptr [rdi + 9], dh
0x4077c7:	ret	
F 0x407615
0x4058dd:	lea	eax, [rax + rax - 1]
0x4058e1:	ret	
F 0x407019
0x407019:	or	eax, 0x461de
0x40701e:	xor	eax, eax
0x407020:	test	ecx, ecx
0x407022:	setg	al
0x407025:	lea	eax, [rax + rax - 1]
0x407029:	ret	
F 0x407706
0x4058de:	add	dil, r15b
0x4058e1:	ret	
F 0x40728d
0x4058dd:	lea	eax, [rax + rax - 1]
0x4058e1:	ret	
F 0x404f45
0x404f45:	scasd	eax, dword ptr [rdi]
0x404f46:	add	eax, 0x482b1
0x404f4b:	ret	
F 0x40864b
0x403016:	ret	
F 0x405189
0x405189:	pop	rbp
0x40518a:	pop	r14
0x40518c:	ret	
F 0x404e0a
0x404e0a:	cmp	dword ptr [rdx + 0x5d010001], esp
0x404e10:	ret	
F 0x4067f2
0x4057ca:	pop	rbx
0x4057cb:	pop	rbp
0x4057cc:	pop	r12
0x4057ce:	pop	r13
0x4057d0:	ret	
F 0x40728a
0x4058da:	setle	al
0x4058dd:	lea	eax, [rax + rax - 1]
0x4058e1:	ret	
F 0x40772a
0x40704a:	add	byte ptr [rdi + 3], dh
0x40704d:	ret	
F 0x404f44
0x404f44:	imul	eax, dword ptr [rip + 0x482b1]
0x404f4b:	ret	
F 0x4090e4
0x4090e4:	add	dword ptr [rax], eax
0x4090e6:	and	byte ptr [rcx], al
0x4090e8:	ret	
F 0x404f57
0x404f57:	mov	esi, 0xbe0f1c40
0x404f5c:	push	rdx
0x404f5d:	sbb	al, 0x29
0x404f5f:	ror	byte ptr [rdi], 1
0x404f61:	scasd	eax, dword ptr [rdi]
0x404f62:	add	eax, 0x48295
0x404f67:	ret	
F 0x404f4b
0x403016:	ret	
F 0x407296
0x407296:	add	byte ptr [rax], al
0x407298:	mov	ecx, dword ptr [rip + 0x45f5e]
0x40729e:	xor	eax, eax
0x4072a0:	test	ecx, ecx
0x4072a2:	setg	al
0x4072a5:	lea	eax, [rax + rax - 1]
0x4072a9:	ret	
F 0x404f49
0x404e47:	add	al, 0
0x404e49:	ret	
F 0x407836
0x407836:	add	byte ptr [rax], al
0x407838:	mov	ecx, dword ptr [rip + 0x459be]
0x40783e:	xor	eax, eax
0x407840:	test	ecx, ecx
0x407842:	setg	al
0x407845:	lea	eax, [rax + rax - 1]
0x407849:	ret	
F 0x40731f
0x40731f:	nop	
0x407320:	mov	edx, dword ptr [rip + 0x45ed6]
0x407326:	xor	eax, eax
0x407328:	test	edx, edx
0x40732a:	setle	al
0x40732d:	lea	eax, [rax + rax - 1]
0x407331:	ret	
F 0x404e0b
0x404e0b:	movabs	byte ptr [0x801f0fc35d010001], al
0x404e14:	add	byte ptr [rax], al
0x404e16:	add	byte ptr [rax], al
0x404e18:	ret	
F 0x410054
0x410054:	and	ah, 0xdf
0x410057:	mov	dword ptr [rbx + 0xcc], eax
0x41005d:	pop	rbx
0x41005e:	ret	
F 0x407814
0x4077c4:	add	byte ptr [rdi + 9], dh
0x4077c7:	ret	
F 0x40782a
0x4058da:	setle	al
0x4058dd:	lea	eax, [rax + rax - 1]
0x4058e1:	ret	
F 0x407828
0x4058d8:	test	edx, edx
0x4058da:	setle	al
0x4058dd:	lea	eax, [rax + rax - 1]
0x4058e1:	ret	
F 0x40763f
0x40763f:	nop	
0x407640:	mov	edx, dword ptr [rip + 0x45bb6]
0x407646:	xor	eax, eax
0x407648:	test	edx, edx
0x40764a:	setle	al
0x40764d:	lea	eax, [rax + rax - 1]
0x407651:	ret	
F 0x4076ed
0x4058dd:	lea	eax, [rax + rax - 1]
0x4058e1:	ret	
F 0x40adf6
0x405afe:	pop	r15
0x405b00:	ret	
F 0x4050e4
0x4050e4:	mov	dword ptr [rcx], 0x84ff4788
0x4050ea:	sal	byte ptr [rbp - 0x15], 0x4c
0x4050ee:	mov	eax, eax
0x4050f0:	ret	
F 0x406f5d
0x403016:	ret	
F 0x40bbf3
0x40bbf3:	sbb	byte ptr [rax - 0x77], cl
0x40bbf6:	adc	r8b, r13b
0x40bbf9:	ret	
F 0x406ff8
0x406ff8:	add	byte ptr [rax], al
0x406ffa:	add	byte ptr [rdi + 3], bh
0x406ffd:	ret	
F 0x406ffa
0x406ffa:	add	byte ptr [rdi + 3], bh
0x406ffd:	ret	
F 0x404ec1
0x404ec1:	add	al, 0
0x404ec3:	add	rsp, 8
0x404ec7:	pop	rbx
0x404ec8:	pop	rbp
0x404ec9:	ret	
F 0x4069b6
0x4054bf:	add	al, 0
0x4054c1:	add	rsp, 8
0x4054c5:	ret	
F 0x412a93
0x412a93:	add	byte ptr [rcx - 0x7d], cl
0x412a96:	ret	
F 0x4074ab
0x403016:	ret	
F 0x406ffd
0x403016:	ret	
F 0x4066d6
0x4057ce:	pop	r13
0x4057d0:	ret	
F 0x4069b8
0x403012:	add	rsp, 8
0x403016:	ret	
F 0x407750
0x4058f0:	test	ecx, ecx
0x4058f2:	setg	al
0x4058f5:	lea	eax, [rax + rax - 1]
0x4058f9:	ret	
F 0x406ffe
0x406ffe:	nop	
0x407000:	mov	edx, dword ptr [rip + 0x461f6]
0x407006:	xor	eax, eax
0x407008:	test	edx, edx
0x40700a:	setle	al
0x40700d:	lea	eax, [rax + rax - 1]
0x407011:	ret	
F 0x407608
0x407608:	mov	ecx, dword ptr [rip + 0x45bee]
0x40760e:	xor	eax, eax
0x407610:	test	ecx, ecx
0x407612:	setg	al
0x407615:	lea	eax, [rax + rax - 1]
0x407619:	ret	
F 0x40bbf6
0x40bbf6:	adc	r8b, r13b
0x40bbf9:	ret	
F 0x40adf7
0x405aff:	pop	rdi
0x405b00:	ret	
F 0x4077a0
0x4058f0:	test	ecx, ecx
0x4058f2:	setg	al
0x4058f5:	lea	eax, [rax + rax - 1]
0x4058f9:	ret	
F 0x405208
0x405208:	mov	dword ptr [rax + 0xc8], 0x15
0x405212:	ret	
F 0x4069bb
0x4069bb:	or	bl, al
0x4069bd:	nop	dword ptr [rax]
0x4069c0:	xor	eax, eax
0x4069c2:	jmp	0x4069b8
F 0x412a96
0x403016:	ret	
F 0x40af4b
0x403016:	ret	
F 0x406fff
0x406fff:	nop	
0x407000:	mov	edx, dword ptr [rip + 0x461f6]
0x407006:	xor	eax, eax
0x407008:	test	edx, edx
0x40700a:	setle	al
0x40700d:	lea	eax, [rax + rax - 1]
0x407011:	ret	
F 0x4063e9
0x405afa:	pop	r13
0x405afc:	pop	r14
0x405afe:	pop	r15
0x405b00:	ret	
F 0x4075a8
0x4058d8:	test	edx, edx
0x4058da:	setle	al
0x4058dd:	lea	eax, [rax + rax - 1]
0x4058e1:	ret	
F 0x40bbf7
0x40bbf7:	adc	al, ch
0x40bbf9:	ret	
F 0x40ee51
0x403016:	ret	
F 0x412e05
0x412e05:	add	byte ptr [rax], al
0x412e07:	add	rsp, 0x98
0x412e0e:	pop	rbx
0x412e0f:	pop	rbp
0x412e10:	pop	r12
0x412e12:	pop	r13
0x412e14:	ret	
F 0x4050b9
0x403016:	ret	
F 0x404ebe
0x404ebe:	add	eax, 0x48339
0x404ec3:	add	rsp, 8
0x404ec7:	pop	rbx
0x404ec8:	pop	rbp
0x404ec9:	ret	
F 0x4069bc
0x403016:	ret	
F 0x404ebd
0x404ebd:	scasd	eax, dword ptr [rdi]
0x404ebe:	add	eax, 0x48339
0x404ec3:	add	rsp, 8
0x404ec7:	pop	rbx
0x404ec8:	pop	rbp
0x404ec9:	ret	
F 0x407000
0x407000:	mov	edx, dword ptr [rip + 0x461f6]
0x407006:	xor	eax, eax
0x407008:	test	edx, edx
0x40700a:	setle	al
0x40700d:	lea	eax, [rax + rax - 1]
0x407011:	ret	
F 0x40774f
0x4058ef:	rol	byte ptr [rbp - 0x3f60f037], 0x8d
0x4058f6:	add	dil, r15b
0x4058f9:	ret	
F 0x4074b0
0x4074b0:	mov	edx, dword ptr [rip + 0x45d46]
0x4074b6:	xor	eax, eax
0x4074b8:	test	edx, edx
0x4074ba:	setle	al
0x4074bd:	lea	eax, [rax + rax - 1]
0x4074c1:	ret	
F 0x40bbf9
0x403016:	ret	
F 0x412e07
0x412e07:	add	rsp, 0x98
0x412e0e:	pop	rbx
0x412e0f:	pop	rbp
0x412e10:	pop	r12
0x412e12:	pop	r13
0x412e14:	ret	
F 0x40774e
0x4058ee:	xor	eax, eax
0x4058f0:	test	ecx, ecx
0x4058f2:	setg	al
0x4058f5:	lea	eax, [rax + rax - 1]
0x4058f9:	ret	
F 0x406a5f
0x406a5f:	add	byte ptr [rax], al
0x406a61:	add	byte ptr [rbp + 0x1f], dh
0x406a64:	add	rsp, 0x18
0x406a68:	pop	rbx
0x406a69:	pop	rbp
0x406a6a:	pop	r12
0x406a6c:	pop	r13
0x406a6e:	pop	r14
0x406a70:	pop	r15
0x406a72:	ret	
F 0x4066d3
0x4057cb:	pop	rbp
0x4057cc:	pop	r12
0x4057ce:	pop	r13
0x4057d0:	ret	
F 0x40774d
0x4058ed:	add	byte ptr [rcx], dh
0x4058ef:	rol	byte ptr [rbp - 0x3f60f037], 0x8d
0x4058f6:	add	dil, r15b
0x4058f9:	ret	
F 0x40a924
0x403016:	ret	
F 0x412e0a
0x412e0a:	cwde	
0x412e0b:	add	byte ptr [rax], al
0x412e0d:	add	byte ptr [rbx + 0x5d], bl
0x412e10:	pop	r12
0x412e12:	pop	r13
0x412e14:	ret	
F 0x4075ad
0x4058dd:	lea	eax, [rax + rax - 1]
0x4058e1:	ret	
F 0x405206
0x405206:	add	byte ptr [rax], al
0x405208:	mov	dword ptr [rax + 0xc8], 0x15
0x405212:	ret	
F 0x407001
0x407001:	adc	eax, 0x461f6
0x407006:	xor	eax, eax
0x407008:	test	edx, edx
0x40700a:	setle	al
0x40700d:	lea	eax, [rax + rax - 1]
0x407011:	ret	
F 0x407004
0x4058d4:	add	al, 0
0x4058d6:	xor	eax, eax
0x4058d8:	test	edx, edx
0x4058da:	setle	al
0x4058dd:	lea	eax, [rax + rax - 1]
0x4058e1:	ret	
F 0x40ec62
0x403016:	ret	
F 0x407005
0x4058d5:	add	byte ptr [rcx], dh
0x4058d7:	rol	byte ptr [rbp - 0x3f61f02e], 0x8d
0x4058de:	add	dil, r15b
0x4058e1:	ret	
F 0x40e9de
0x403016:	ret	
F 0x40bdb1
0x406cfc:	add	byte ptr [rax - 0x77], cl
0x406cff:	ret	
F 0x404eba
0x404eba:	sub	eax, ebx
0x404ebc:	imul	eax, dword ptr [rip + 0x48339]
0x404ec3:	add	rsp, 8
0x404ec7:	pop	rbx
0x404ec8:	pop	rbp
0x404ec9:	ret	
F 0x4077a1
0x4058f1:	leave	
0x4058f2:	setg	al
0x4058f5:	lea	eax, [rax + rax - 1]
0x4058f9:	ret	
F 0x407006
0x4058d6:	xor	eax, eax
0x4058d8:	test	edx, edx
0x4058da:	setle	al
0x4058dd:	lea	eax, [rax + rax - 1]
0x4058e1:	ret	
F 0x4066d2
0x4057ca:	pop	rbx
0x4057cb:	pop	rbp
0x4057cc:	pop	r12
0x4057ce:	pop	r13
0x4057d0:	ret	
F 0x40bdb4
0x403016:	ret	
F 0x404ebc
0x404ebc:	imul	eax, dword ptr [rip + 0x48339]
0x404ec3:	add	rsp, 8
0x404ec7:	pop	rbx
0x404ec8:	pop	rbp
0x404ec9:	ret	
F 0x412e0b
0x412e0b:	add	byte ptr [rax], al
0x412e0d:	add	byte ptr [rbx + 0x5d], bl
0x412e10:	pop	r12
0x412e12:	pop	r13
0x412e14:	ret	
F 0x4063eb
0x405afc:	pop	r14
0x405afe:	pop	r15
0x405b00:	ret	
F 0x40774b
0x4076fb:	pop	rdx
0x4076fc:	add	al, 0
0x4076fe:	xor	eax, eax
0x407700:	test	ecx, ecx
0x407702:	setg	al
0x407705:	lea	eax, [rax + rax - 1]
0x407709:	ret	
F 0x407007
0x4058d7:	rol	byte ptr [rbp - 0x3f61f02e], 0x8d
0x4058de:	add	dil, r15b
0x4058e1:	ret	
F 0x4074a8
0x407228:	add	byte ptr [rdi + 5], bh
0x40722b:	ret	
F 0x40bdbb
0x4039fc:	add	byte ptr [rax - 0x7d], cl
0x4039ff:	ret	
F 0x4076f9
0x4076f9:	or	eax, 0x45afe
0x4076fe:	xor	eax, eax
0x407700:	test	ecx, ecx
0x407702:	setg	al
0x407705:	lea	eax, [rax + rax - 1]
0x407709:	ret	
F 0x407008
0x4058d8:	test	edx, edx
0x4058da:	setle	al
0x4058dd:	lea	eax, [rax + rax - 1]
0x4058e1:	ret	
F 0x40774c
0x4058ec:	add	al, 0
0x4058ee:	xor	eax, eax
0x4058f0:	test	ecx, ecx
0x4058f2:	setg	al
0x4058f5:	lea	eax, [rax + rax - 1]
0x4058f9:	ret	
F 0x406a61
0x406a61:	add	byte ptr [rbp + 0x1f], dh
0x406a64:	add	rsp, 0x18
0x406a68:	pop	rbx
0x406a69:	pop	rbp
0x406a6a:	pop	r12
0x406a6c:	pop	r13
0x406a6e:	pop	r14
0x406a70:	pop	r15
0x406a72:	ret	
F 0x40e8d0
0x403016:	ret	
F 0x4063ef
0x403016:	ret	
F 0x40700a
0x4058da:	setle	al
0x4058dd:	lea	eax, [rax + rax - 1]
0x4058e1:	ret	
F 0x4066ce
0x4066ce:	add	rsp, 8
0x4066d2:	pop	rbx
0x4066d3:	pop	rbp
0x4066d4:	pop	r12
0x4066d6:	pop	r13
0x4066d8:	ret	
F 0x4077a2
0x4058f2:	setg	al
0x4058f5:	lea	eax, [rax + rax - 1]
0x4058f9:	ret	
F 0x407601
0x403016:	ret	
F 0x40700d
0x4058dd:	lea	eax, [rax + rax - 1]
0x4058e1:	ret	
F 0x40a94d
0x40a94d:	add	byte ptr [rax], al
0x40a94f:	add	byte ptr [rax - 0x7d], cl
0x40a952:	ret	
F 0x40bdbe
0x403016:	ret	
F 0x412e0c
0x408af9:	add	byte ptr [rax], al
0x408afb:	pop	rbx
0x408afc:	pop	rbp
0x408afd:	pop	r12
0x408aff:	pop	r13
0x408b01:	ret	
F 0x40700e
0x4058de:	add	dil, r15b
0x4058e1:	ret	
F 0x4076fd
0x4058ed:	add	byte ptr [rcx], dh
0x4058ef:	rol	byte ptr [rbp - 0x3f60f037], 0x8d
0x4058f6:	add	dil, r15b
0x4058f9:	ret	
F 0x40bef5
0x40bef5:	mov	edi, 0x81000003
0x40befa:	ret	
F 0x40adf4
0x405afc:	pop	r14
0x405afe:	pop	r15
0x405b00:	ret	
F 0x412e0d
0x406c3c:	add	byte ptr [rbx + 0x5d], bl
0x406c3f:	pop	r12
0x406c41:	pop	r13
0x406c43:	ret	
F 0x405201
0x405201:	nop	dword ptr [rax]
0x405208:	mov	dword ptr [rax + 0xc8], 0x15
0x405212:	ret	
F 0x40700f
0x4058df:	add	bh, bh
0x4058e1:	ret	
F 0x406a64
0x406a64:	add	rsp, 0x18
0x406a68:	pop	rbx
0x406a69:	pop	rbp
0x406a6a:	pop	r12
0x406a6c:	pop	r13
0x406a6e:	pop	r14
0x406a70:	pop	r15
0x406a72:	ret	
F 0x4075b6
0x4075b6:	add	byte ptr [rax], al
0x4075b8:	mov	ecx, dword ptr [rip + 0x45c3e]
0x4075be:	xor	eax, eax
0x4075c0:	test	ecx, ecx
0x4075c2:	setg	al
0x4075c5:	lea	eax, [rax + rax - 1]
0x4075c9:	ret	
F 0x412e0e
0x4057ca:	pop	rbx
0x4057cb:	pop	rbp
0x4057cc:	pop	r12
0x4057ce:	pop	r13
0x4057d0:	ret	
F 0x407011
0x403016:	ret	
F 0x40befa
0x403016:	ret	
F 0x40adf5
0x405afd:	pop	rsi
0x405afe:	pop	r15
0x405b00:	ret	
F 0x412e0f
0x4057cb:	pop	rbp
0x4057cc:	pop	r12
0x4057ce:	pop	r13
0x4057d0:	ret	
F 0x4066d1
0x4066d1:	or	byte ptr [rbx + 0x5d], bl
0x4066d4:	pop	r12
0x4066d6:	pop	r13
0x4066d8:	ret	
F 0x407016
0x407016:	add	byte ptr [rax], al
0x407018:	mov	ecx, dword ptr [rip + 0x461de]
0x40701e:	xor	eax, eax
0x407020:	test	ecx, ecx
0x407022:	setg	al
0x407025:	lea	eax, [rax + rax - 1]
0x407029:	ret	
F 0x4074a6
0x407226:	add	byte ptr [rax], al
0x407228:	add	byte ptr [rdi + 5], bh
0x40722b:	ret	
F 0x4075ff
0x4058df:	add	bh, bh
0x4058e1:	ret	
F 0x406228
0x406228:	ret	0x8348
F 0x406a67
0x406a67:	sbb	byte ptr [rbx + 0x5d], bl
0x406a6a:	pop	r12
0x406a6c:	pop	r13
0x406a6e:	pop	r14
0x406a70:	pop	r15
0x406a72:	ret	
F 0x406936
0x406936:	add	dword ptr [rax], eax
0x406938:	add	byte ptr [rax], al
0x40693a:	mov	dword ptr [rip + 0x1889c], eax
0x406940:	movsx	eax, bl
0x406943:	jmp	0x4067ee
F 0x412e10
0x4057cc:	pop	r12
0x4057ce:	pop	r13
0x4057d0:	ret	
F 0x4077a5
0x4058dd:	lea	eax, [rax + rax - 1]
0x4058e1:	ret	
F 0x40c22b
0x40c22b:	cmp	eax, 0x43194
0x40c230:	add	rsp, 0x18
0x40c234:	pop	rbx
0x40c235:	pop	rbp
0x40c236:	pop	r12
0x40c238:	pop	r13
0x40c23a:	pop	r14
0x40c23c:	pop	r15
0x40c23e:	ret	
F 0x412e12
0x4057ce:	pop	r13
0x4057d0:	ret	
F 0x407464
0x4058d4:	add	al, 0
0x4058d6:	xor	eax, eax
0x4058d8:	test	edx, edx
0x4058da:	setle	al
0x4058dd:	lea	eax, [rax + rax - 1]
0x4058e1:	ret	
F 0x407018
0x407018:	mov	ecx, dword ptr [rip + 0x461de]
0x40701e:	xor	eax, eax
0x407020:	test	ecx, ecx
0x407022:	setg	al
0x407025:	lea	eax, [rax + rax - 1]
0x407029:	ret	
F 0x406b4b
0x405afa:	pop	r13
0x405afc:	pop	r14
0x405afe:	pop	r15
0x405b00:	ret	
F 0x40e2ae
0x403016:	ret	
F 0x40c22d
0x40c22d:	xor	dword ptr [rax + rax], eax
0x40c230:	add	rsp, 0x18
0x40c234:	pop	rbx
0x40c235:	pop	rbp
0x40c236:	pop	r12
0x40c238:	pop	r13
0x40c23a:	pop	r14
0x40c23c:	pop	r15
0x40c23e:	ret	
F 0x406b4c
0x405afb:	pop	rbp
0x405afc:	pop	r14
0x405afe:	pop	r15
0x405b00:	ret	
F 0x41242c
0x41242c:	add	al, 0
0x41242e:	add	byte ptr [rax + 0x63], cl
0x412431:	ret	0x148
F 0x412e13
0x404e0f:	pop	rbp
0x404e10:	ret	
F 0x412e14
0x403016:	ret	
F 0x40500a
0x40500a:	rol	byte ptr [rcx + 0xf], 0x9e
0x40500e:	rol	byte ptr [rdi - 0x73], 0x44
0x405012:	add	bh, bh
0x405014:	mov	eax, r8d
0x405017:	ret	
F 0x406b4d
0x405afc:	pop	r14
0x405afe:	pop	r15
0x405b00:	ret	
F 0x40e2b6
0x403016:	ret	
F 0x406b4e
0x405afd:	pop	rsi
0x405afe:	pop	r15
0x405b00:	ret	
F 0x40b88f
0x40b88f:	mov	eax, edi
0x40b891:	pop	rbx
0x40b892:	pop	rbp
0x40b893:	pop	r12
0x40b895:	pop	r13
0x40b897:	pop	r14
0x40b899:	pop	r15
0x40b89b:	ret	
F 0x406a68
0x405af6:	pop	rbx
0x405af7:	pop	rbp
0x405af8:	pop	r12
0x405afa:	pop	r13
0x405afc:	pop	r14
0x405afe:	pop	r15
0x405b00:	ret	
F 0x412ebb
0x412ebb:	add	byte ptr [rax - 0x76b7ffc8], al
0x412ec1:	ret	
F 0x407e65
0x407e65:	add	eax, 0x385d6
0x407e6a:	pop	rbx
0x407e6b:	pop	rbp
0x407e6c:	pop	r12
0x407e6e:	pop	r13
0x407e70:	pop	r14
0x407e72:	pop	r15
0x407e74:	ret	
F 0x4094ca
0x4094ca:	add	al, byte ptr [rax]
0x4094cc:	add	byte ptr [rbx + 0x5d], bl
0x4094cf:	ret	
F 0x40da99
0x40da99:	pop	rbx
0x40da9a:	ret	
F 0x4094c9
0x4094c9:	sbb	byte ptr [rdx], al
0x4094cb:	add	byte ptr [rax], al
0x4094cd:	pop	rbx
0x4094ce:	pop	rbp
0x4094cf:	ret	
F 0x410277
0x403016:	ret	
F 0x407e67
0x407e67:	test	dword ptr [rbx], eax
0x407e69:	add	byte ptr [rbx + 0x5d], bl
0x407e6c:	pop	r12
0x407e6e:	pop	r13
0x407e70:	pop	r14
0x407e72:	pop	r15
0x407e74:	ret	
F 0x40715f
0x4058ef:	rol	byte ptr [rbp - 0x3f60f037], 0x8d
0x4058f6:	add	dil, r15b
0x4058f9:	ret	
F 0x4094c6
0x4094c6:	add	rsp, 0x218
0x4094cd:	pop	rbx
0x4094ce:	pop	rbp
0x4094cf:	ret	
F 0x41028c
0x41028c:	mov	dword ptr [rbx + 0xdc], 0
0x410296:	pop	rbx
0x410297:	ret	
F 0x40da9a
0x403016:	ret	
F 0x4157a9
0x405afd:	pop	rsi
0x405afe:	pop	r15
0x405b00:	ret	
F 0x40db45
0x40db45:	or	byte ptr [rax], al
0x40db47:	add	byte ptr [rbx + 0x5d], bl
0x40db4a:	pop	r12
0x40db4c:	pop	r13
0x40db4e:	pop	r14
0x40db50:	pop	r15
0x40db52:	ret	
F 0x404f80
0x404f80:	add	byte ptr [rax], al
0x404f82:	imul	eax, dword ptr [rip + 0x48273]
0x404f89:	ret	
F 0x407e68
0x407e68:	add	eax, dword ptr [rax]
0x407e6a:	pop	rbx
0x407e6b:	pop	rbp
0x407e6c:	pop	r12
0x407e6e:	pop	r13
0x407e70:	pop	r14
0x407e72:	pop	r15
0x407e74:	ret	
F 0x4094c5
0x4094c5:	pop	rbp
0x4094c6:	add	rsp, 0x218
0x4094cd:	pop	rbx
0x4094ce:	pop	rbp
0x4094cf:	ret	
F 0x407e69
0x405af5:	add	byte ptr [rbx + 0x5d], bl
0x405af8:	pop	r12
0x405afa:	pop	r13
0x405afc:	pop	r14
0x405afe:	pop	r15
0x405b00:	ret	
F 0x40715e
0x4058ee:	xor	eax, eax
0x4058f0:	test	ecx, ecx
0x4058f2:	setg	al
0x4058f5:	lea	eax, [rax + rax - 1]
0x4058f9:	ret	
F 0x40db46
0x405af4:	add	byte ptr [rax], al
0x405af6:	pop	rbx
0x405af7:	pop	rbp
0x405af8:	pop	r12
0x405afa:	pop	r13
0x405afc:	pop	r14
0x405afe:	pop	r15
0x405b00:	ret	
F 0x4070f0
0x4070f0:	mov	edx, dword ptr [rip + 0x46106]
0x4070f6:	xor	eax, eax
0x4070f8:	test	edx, edx
0x4070fa:	setle	al
0x4070fd:	lea	eax, [rax + rax - 1]
0x407101:	ret	
F 0x40718e
0x40718e:	nop	
0x407190:	mov	edx, dword ptr [rip + 0x46066]
0x407196:	xor	eax, eax
0x407198:	test	edx, edx
0x40719a:	setle	al
0x40719d:	lea	eax, [rax + rax - 1]
0x4071a1:	ret	
F 0x40731a
0x40704a:	add	byte ptr [rdi + 3], dh
0x40704d:	ret	
F 0x4074d5
0x4058dd:	lea	eax, [rax + rax - 1]
0x4058e1:	ret	
F 0x40508f
0x40508f:	add	eax, dword ptr [rax]
0x405091:	add	byte ptr [rdi], cl
0x405093:	scasd	eax, dword ptr [rdi]
0x405094:	add	eax, 0x48163
0x405099:	ret	
F 0x40759f
0x40759f:	nop	
0x4075a0:	mov	edx, dword ptr [rip + 0x45c56]
0x4075a6:	xor	eax, eax
0x4075a8:	test	edx, edx
0x4075aa:	setle	al
0x4075ad:	lea	eax, [rax + rax - 1]
0x4075b1:	ret	
F 0x40934d
0x405af6:	pop	rbx
0x405af7:	pop	rbp
0x405af8:	pop	r12
0x405afa:	pop	r13
0x405afc:	pop	r14
0x405afe:	pop	r15
0x405b00:	ret	
F 0x4094c3
0x4094c3:	add	byte ptr [rbp + 0x5d], dh
0x4094c6:	add	rsp, 0x218
0x4094cd:	pop	rbx
0x4094ce:	pop	rbp
0x4094cf:	ret	
F 0x40718f
0x40718f:	nop	
0x407190:	mov	edx, dword ptr [rip + 0x46066]
0x407196:	xor	eax, eax
0x407198:	test	edx, edx
0x40719a:	setle	al
0x40719d:	lea	eax, [rax + rax - 1]
0x4071a1:	ret	
F 0x409643
0x409643:	add	al, byte ptr [rax]
0x409645:	add	byte ptr [rbx + 0x5d], bl
0x409648:	pop	r12
0x40964a:	pop	r13
0x40964c:	ret	
F 0x410292
0x41016b:	add	byte ptr [rax], al
0x41016d:	add	byte ptr [rax], al
0x41016f:	pop	rbx
0x410170:	ret	
F 0x407167
0x4058df:	add	bh, bh
0x4058e1:	ret	
F 0x4074d2
0x4058f2:	setg	al
0x4058f5:	lea	eax, [rax + rax - 1]
0x4058f9:	ret	
F 0x410294
0x410007:	add	byte ptr [rax], al
0x410009:	pop	rbx
0x41000a:	ret	
F 0x407190
0x407190:	mov	edx, dword ptr [rip + 0x46066]
0x407196:	xor	eax, eax
0x407198:	test	edx, edx
0x40719a:	setle	al
0x40719d:	lea	eax, [rax + rax - 1]
0x4071a1:	ret	
F 0x404f89
0x403016:	ret	
F 0x40934c
0x406a67:	sbb	byte ptr [rbx + 0x5d], bl
0x406a6a:	pop	r12
0x406a6c:	pop	r13
0x406a6e:	pop	r14
0x406a70:	pop	r15
0x406a72:	ret	
F 0x407166
0x4058de:	add	dil, r15b
0x4058e1:	ret	
F 0x40759e
0x40759e:	nop	
0x4075a0:	mov	edx, dword ptr [rip + 0x45c56]
0x4075a6:	xor	eax, eax
0x4075a8:	test	edx, edx
0x4075aa:	setle	al
0x4075ad:	lea	eax, [rax + rax - 1]
0x4075b1:	ret	
F 0x404f81
0x404f81:	add	byte ptr [rdi], cl
0x404f83:	scasd	eax, dword ptr [rdi]
0x404f84:	add	eax, 0x48273
0x404f89:	ret	
F 0x4094cd
0x404ec7:	pop	rbx
0x404ec8:	pop	rbp
0x404ec9:	ret	
F 0x407191
0x407191:	adc	eax, 0x46066
0x407196:	xor	eax, eax
0x407198:	test	edx, edx
0x40719a:	setle	al
0x40719d:	lea	eax, [rax + rax - 1]
0x4071a1:	ret	
F 0x410296
0x40da99:	pop	rbx
0x40da9a:	ret	
F 0x40759d
0x403016:	ret	
F 0x40731d
0x403016:	ret	
F 0x407194
0x4058d4:	add	al, 0
0x4058d6:	xor	eax, eax
0x4058d8:	test	edx, edx
0x4058da:	setle	al
0x4058dd:	lea	eax, [rax + rax - 1]
0x4058e1:	ret	
F 0x407162
0x4058f2:	setg	al
0x4058f5:	lea	eax, [rax + rax - 1]
0x4058f9:	ret	
F 0x4074d6
0x4058de:	add	dil, r15b
0x4058e1:	ret	
F 0x405090
0x405090:	add	byte ptr [rax], al
0x405092:	imul	eax, dword ptr [rip + 0x48163]
0x405099:	ret	
F 0x407195
0x4058d5:	add	byte ptr [rcx], dh
0x4058d7:	rol	byte ptr [rbp - 0x3f61f02e], 0x8d
0x4058de:	add	dil, r15b
0x4058e1:	ret	
F 0x407577
0x4058df:	add	bh, bh
0x4058e1:	ret	
F 0x407196
0x4058d6:	xor	eax, eax
0x4058d8:	test	edx, edx
0x4058da:	setle	al
0x4058dd:	lea	eax, [rax + rax - 1]
0x4058e1:	ret	
F 0x410297
0x403016:	ret	
F 0x407569
0x407569:	or	eax, 0x45c8e
0x40756e:	xor	eax, eax
0x407570:	test	ecx, ecx
0x407572:	setg	al
0x407575:	lea	eax, [rax + rax - 1]
0x407579:	ret	
F 0x407165
0x4058dd:	lea	eax, [rax + rax - 1]
0x4058e1:	ret	
F 0x407197
0x4058d7:	rol	byte ptr [rbp - 0x3f61f02e], 0x8d
0x4058de:	add	dil, r15b
0x4058e1:	ret	
F 0x40731e
0x40731e:	nop	
0x407320:	mov	edx, dword ptr [rip + 0x45ed6]
0x407326:	xor	eax, eax
0x407328:	test	edx, edx
0x40732a:	setle	al
0x40732d:	lea	eax, [rax + rax - 1]
0x407331:	ret	
F 0x40751f
0x4058ef:	rol	byte ptr [rbp - 0x3f60f037], 0x8d
0x4058f6:	add	dil, r15b
0x4058f9:	ret	
F 0x407198
0x4058d8:	test	edx, edx
0x4058da:	setle	al
0x4058dd:	lea	eax, [rax + rax - 1]
0x4058e1:	ret	
F 0x41049d
0x40a94d:	add	byte ptr [rax], al
0x40a94f:	add	byte ptr [rax - 0x7d], cl
0x40a952:	ret	
F 0x407557
0x4058d7:	rol	byte ptr [rbp - 0x3f61f02e], 0x8d
0x4058de:	add	dil, r15b
0x4058e1:	ret	
F 0x409349
0x406a64:	add	rsp, 0x18
0x406a68:	pop	rbx
0x406a69:	pop	rbp
0x406a6a:	pop	r12
0x406a6c:	pop	r13
0x406a6e:	pop	r14
0x406a70:	pop	r15
0x406a72:	ret	
F 0x40d624
0x40d624:	add	dword ptr [rax], eax
0x40d626:	pop	rbx
0x40d627:	pop	rbp
0x40d628:	pop	r12
0x40d62a:	pop	r13
0x40d62c:	pop	r14
0x40d62e:	pop	r15
0x40d630:	ret	
F 0x40719a
0x4058da:	setle	al
0x4058dd:	lea	eax, [rax + rax - 1]
0x4058e1:	ret	
F 0x40755a
0x4058da:	setle	al
0x4058dd:	lea	eax, [rax + rax - 1]
0x4058e1:	ret	
F 0x407897
0x4058df:	add	bh, bh
0x4058e1:	ret	
F 0x40719d
0x4058dd:	lea	eax, [rax + rax - 1]
0x4058e1:	ret	
F 0x407899
0x403016:	ret	
F 0x407555
0x4058d5:	add	byte ptr [rcx], dh
0x4058d7:	rol	byte ptr [rbp - 0x3f61f02e], 0x8d
0x4058de:	add	dil, r15b
0x4058e1:	ret	
F 0x40d625
0x405af5:	add	byte ptr [rbx + 0x5d], bl
0x405af8:	pop	r12
0x405afa:	pop	r13
0x405afc:	pop	r14
0x405afe:	pop	r15
0x405b00:	ret	
F 0x40719e
0x4058de:	add	dil, r15b
0x4058e1:	ret	
F 0x407a12
0x403016:	ret	
F 0x407575
0x4058dd:	lea	eax, [rax + rax - 1]
0x4058e1:	ret	
F 0x40d626
0x405af6:	pop	rbx
0x405af7:	pop	rbp
0x405af8:	pop	r12
0x405afa:	pop	r13
0x405afc:	pop	r14
0x405afe:	pop	r15
0x405b00:	ret	
F 0x40719f
0x4058df:	add	bh, bh
0x4058e1:	ret	
F 0x4094c1
0x4094c1:	add	byte ptr [rax], al
0x4094c3:	add	byte ptr [rbp + 0x5d], dh
0x4094c6:	add	rsp, 0x218
0x4094cd:	pop	rbx
0x4094ce:	pop	rbp
0x4094cf:	ret	
F 0x407b7a
0x403016:	ret	
F 0x407561
0x403016:	ret	
F 0x409642
0x409642:	mov	eax, 0x5b000002
0x409647:	pop	rbp
0x409648:	pop	r12
0x40964a:	pop	r13
0x40964c:	ret	
F 0x40d627
0x405af7:	pop	rbp
0x405af8:	pop	r12
0x405afa:	pop	r13
0x405afc:	pop	r14
0x405afe:	pop	r15
0x405b00:	ret	
F 0x4071a1
0x403016:	ret	
F 0x407c95
0x407c95:	add	bl, ch
0x407c97:	ret	0x93e8
F 0x40751e
0x4058ee:	xor	eax, eax
0x4058f0:	test	ecx, ecx
0x4058f2:	setg	al
0x4058f5:	lea	eax, [rax + rax - 1]
0x4058f9:	ret	
F 0x40d628
0x405af8:	pop	r12
0x405afa:	pop	r13
0x405afc:	pop	r14
0x405afe:	pop	r15
0x405b00:	ret	
F 0x4071a6
0x4071a6:	add	byte ptr [rax], al
0x4071a8:	mov	ecx, dword ptr [rip + 0x4604e]
0x4071ae:	xor	eax, eax
0x4071b0:	test	ecx, ecx
0x4071b2:	setg	al
0x4071b5:	lea	eax, [rax + rax - 1]
0x4071b9:	ret	
F 0x407c97
0x407c97:	ret	0x93e8
F 0x40d62a
0x405afa:	pop	r13
0x405afc:	pop	r14
0x405afe:	pop	r15
0x405b00:	ret	
F 0x407cf6
0x403016:	ret	
F 0x40755f
0x4058df:	add	bh, bh
0x4058e1:	ret	
F 0x40d62b
0x405afb:	pop	rbp
0x405afc:	pop	r14
0x405afe:	pop	r15
0x405b00:	ret	
F 0x407576
0x4058de:	add	dil, r15b
0x4058e1:	ret	
F 0x407d42
0x407d42:	add	rsp, 0x38
0x407d46:	lea	rax, [rip + 0x386f3]
0x407d4d:	pop	rbx
0x407d4e:	pop	rbp
0x407d4f:	ret	
F 0x4071a8
0x4071a8:	mov	ecx, dword ptr [rip + 0x4604e]
0x4071ae:	xor	eax, eax
0x4071b0:	test	ecx, ecx
0x4071b2:	setg	al
0x4071b5:	lea	eax, [rax + rax - 1]
0x4071b9:	ret	
F 0x40d62c
0x405afc:	pop	r14
0x405afe:	pop	r15
0x405b00:	ret	
F 0x407d45
0x407d45:	cmp	byte ptr [rax - 0x73], cl
0x407d48:	add	eax, 0x386f3
0x407d4d:	pop	rbx
0x407d4e:	pop	rbp
0x407d4f:	ret	
F 0x407598
0x406ff8:	add	byte ptr [rax], al
0x406ffa:	add	byte ptr [rdi + 3], bh
0x406ffd:	ret	
F 0x40d62d
0x405afd:	pop	rsi
0x405afe:	pop	r15
0x405b00:	ret	
F 0x40755e
0x4058de:	add	dil, r15b
0x4058e1:	ret	
F 0x407d46
0x407d46:	lea	rax, [rip + 0x386f3]
0x407d4d:	pop	rbx
0x407d4e:	pop	rbp
0x407d4f:	ret	
F 0x4071a9
0x4071a9:	or	eax, 0x4604e
0x4071ae:	xor	eax, eax
0x4071b0:	test	ecx, ecx
0x4071b2:	setg	al
0x4071b5:	lea	eax, [rax + rax - 1]
0x4071b9:	ret	
F 0x4094cb
0x4094cb:	add	byte ptr [rax], al
0x4094cd:	pop	rbx
0x4094ce:	pop	rbp
0x4094cf:	ret	
F 0x40d62e
0x405afe:	pop	r15
0x405b00:	ret	
F 0x40751d
0x4058ed:	add	byte ptr [rcx], dh
0x4058ef:	rol	byte ptr [rbp - 0x3f60f037], 0x8d
0x4058f6:	add	dil, r15b
0x4058f9:	ret	
F 0x4094cf
0x403016:	ret	
F 0x407d47
0x407d47:	lea	eax, [rip + 0x386f3]
0x407d4d:	pop	rbx
0x407d4e:	pop	rbp
0x407d4f:	ret	
F 0x4071ac
0x4058ec:	add	al, 0
0x4058ee:	xor	eax, eax
0x4058f0:	test	ecx, ecx
0x4058f2:	setg	al
0x4058f5:	lea	eax, [rax + rax - 1]
0x4058f9:	ret	
F 0x40d62f
0x405aff:	pop	rdi
0x405b00:	ret	
F 0x407570
0x4058f0:	test	ecx, ecx
0x4058f2:	setg	al
0x4058f5:	lea	eax, [rax + rax - 1]
0x4058f9:	ret	
F 0x407d48
0x407d48:	add	eax, 0x386f3
0x407d4d:	pop	rbx
0x407d4e:	pop	rbp
0x407d4f:	ret	
F 0x4071ad
0x4058ed:	add	byte ptr [rcx], dh
0x4058ef:	rol	byte ptr [rbp - 0x3f60f037], 0x8d
0x4058f6:	add	dil, r15b
0x4058f9:	ret	
F 0x40d630
0x403016:	ret	
F 0x407579
0x403016:	ret	
F 0x407d4b
0x407d4b:	add	eax, dword ptr [rax]
0x407d4d:	pop	rbx
0x407d4e:	pop	rbp
0x407d4f:	ret	
F 0x4071ae
0x4058ee:	xor	eax, eax
0x4058f0:	test	ecx, ecx
0x4058f2:	setg	al
0x4058f5:	lea	eax, [rax + rax - 1]
0x4058f9:	ret	
F 0x407558
0x4058d8:	test	edx, edx
0x4058da:	setle	al
0x4058dd:	lea	eax, [rax + rax - 1]
0x4058e1:	ret	
F 0x409603
0x403016:	ret	
F 0x40d88f
0x403016:	ret	
F 0x4071af
0x4058ef:	rol	byte ptr [rbp - 0x3f60f037], 0x8d
0x4058f6:	add	dil, r15b
0x4058f9:	ret	
F 0x40d936
0x405854:	dec	dword ptr [rax - 0x77]
0x405857:	ret	
F 0x40751c
0x4058ec:	add	al, 0
0x4058ee:	xor	eax, eax
0x4058f0:	test	ecx, ecx
0x4058f2:	setg	al
0x4058f5:	lea	eax, [rax + rax - 1]
0x4058f9:	ret	
F 0x407d4c
0x407d4c:	add	byte ptr [rbx + 0x5d], bl
0x407d4f:	ret	
F 0x4071b0
0x4058f0:	test	ecx, ecx
0x4058f2:	setg	al
0x4058f5:	lea	eax, [rax + rax - 1]
0x4058f9:	ret	
F 0x4094cc
0x407d4c:	add	byte ptr [rbx + 0x5d], bl
0x407d4f:	ret	
F 0x40d939
0x403016:	ret	
F 0x407520
0x4058f0:	test	ecx, ecx
0x4058f2:	setg	al
0x4058f5:	lea	eax, [rax + rax - 1]
0x4058f9:	ret	
F 0x40da02
0x405854:	dec	dword ptr [rax - 0x77]
0x405857:	ret	
F 0x4071b1
0x4058f1:	leave	
0x4058f2:	setg	al
0x4058f5:	lea	eax, [rax + rax - 1]
0x4058f9:	ret	
F 0x407d4d
0x404ec7:	pop	rbx
0x404ec8:	pop	rbp
0x404ec9:	ret	
F 0x40754b
0x403016:	ret	
F 0x40da05
0x403016:	ret	
F 0x4071b2
0x4058f2:	setg	al
0x4058f5:	lea	eax, [rax + rax - 1]
0x4058f9:	ret	
F 0x407d4e
0x404e0f:	pop	rbp
0x404e10:	ret	
F 0x407525
0x4058dd:	lea	eax, [rax + rax - 1]
0x4058e1:	ret	
F 0x40da39
0x405854:	dec	dword ptr [rax - 0x77]
0x405857:	ret	
F 0x4071b5
0x4058dd:	lea	eax, [rax + rax - 1]
0x4058e1:	ret	
F 0x407d4f
0x403016:	ret	
F 0x407519
0x407519:	or	eax, 0x45cde
0x40751e:	xor	eax, eax
0x407520:	test	ecx, ecx
0x407522:	setg	al
0x407525:	lea	eax, [rax + rax - 1]
0x407529:	ret	
F 0x40da3c
0x403016:	ret	
F 0x4071b6
0x4058de:	add	dil, r15b
0x4058e1:	ret	
F 0x407d81
0x403016:	ret	
F 0x4071b7
0x4058df:	add	bh, bh
0x4058e1:	ret	
F 0x4094ce
0x404e0f:	pop	rbp
0x404e10:	ret	
F 0x40da90
0x40da90:	add	byte ptr [rax], al
0x40da92:	add	byte ptr [rbp + 0x32], dh
0x40da95:	add	rsp, 0x10
0x40da99:	pop	rbx
0x40da9a:	ret	
F 0x407518
0x407518:	mov	ecx, dword ptr [rip + 0x45cde]
0x40751e:	xor	eax, eax
0x407520:	test	ecx, ecx
0x407522:	setg	al
0x407525:	lea	eax, [rax + rax - 1]
0x407529:	ret	
F 0x4071b9
0x403016:	ret	
F 0x407dfd
0x4039fc:	add	byte ptr [rax - 0x7d], cl
0x4039ff:	ret	
F 0x4071d8
0x406ff8:	add	byte ptr [rax], al
0x406ffa:	add	byte ptr [rdi + 3], bh
0x406ffd:	ret	
F 0x407e00
0x403016:	ret	
F 0x4071da
0x406ffa:	add	byte ptr [rdi + 3], bh
0x406ffd:	ret	
F 0x407e62
0x407e62:	cmp	byte ptr [rax - 0x73], cl
0x407e65:	add	eax, 0x385d6
0x407e6a:	pop	rbx
0x407e6b:	pop	rbp
0x407e6c:	pop	r12
0x407e6e:	pop	r13
0x407e70:	pop	r14
0x407e72:	pop	r15
0x407e74:	ret	
F 0x407516
0x407516:	add	byte ptr [rax], al
0x407518:	mov	ecx, dword ptr [rip + 0x45cde]
0x40751e:	xor	eax, eax
0x407520:	test	ecx, ecx
0x407522:	setg	al
0x407525:	lea	eax, [rax + rax - 1]
0x407529:	ret	
F 0x40da92
0x40da92:	add	byte ptr [rbp + 0x32], dh
0x40da95:	add	rsp, 0x10
0x40da99:	pop	rbx
0x40da9a:	ret	
F 0x407e63
0x407e63:	lea	rax, [rip + 0x385d6]
0x407e6a:	pop	rbx
0x407e6b:	pop	rbp
0x407e6c:	pop	r12
0x407e6e:	pop	r13
0x407e70:	pop	r14
0x407e72:	pop	r15
0x407e74:	ret	
F 0x4071dd
0x403016:	ret	
F 0x407e64
0x407e64:	lea	eax, [rip + 0x385d6]
0x407e6a:	pop	rbx
0x407e6b:	pop	rbp
0x407e6c:	pop	r12
0x407e6e:	pop	r13
0x407e70:	pop	r14
0x407e72:	pop	r15
0x407e74:	ret	
F 0x407556
0x4058d6:	xor	eax, eax
0x4058d8:	test	edx, edx
0x4058da:	setle	al
0x4058dd:	lea	eax, [rax + rax - 1]
0x4058e1:	ret	
F 0x40da95
0x40da95:	add	rsp, 0x10
0x40da99:	pop	rbx
0x40da9a:	ret	
F 0x4071de
0x4071de:	nop	
0x4071e0:	mov	edx, dword ptr [rip + 0x46016]
0x4071e6:	xor	eax, eax
0x4071e8:	test	edx, edx
0x4071ea:	setle	al
0x4071ed:	lea	eax, [rax + rax - 1]
0x4071f1:	ret	
F 0x404ef9
0x404ef9:	add	cl, byte ptr [rdi]
0x404efb:	scasd	eax, dword ptr [rdi]
0x404efc:	add	eax, 0x482fb
0x404f01:	ret	
F 0x407325
0x4058d5:	add	byte ptr [rcx], dh
0x4058d7:	rol	byte ptr [rbp - 0x3f61f02e], 0x8d
0x4058de:	add	dil, r15b
0x4058e1:	ret	
F 0x405677
0x403012:	add	rsp, 8
0x403016:	ret	
F 0x40778e
0x4058de:	add	dil, r15b
0x4058e1:	ret	
F 0x40567b
0x403016:	ret	
F 0x40569f
0x40569f:	dec	dword ptr [rdi]
0x4056a1:	scasd	eax, dword ptr [rdi]
0x4056a2:	add	eax, 0x47b55
0x4056a7:	add	rsp, 8
0x4056ab:	ret	
F 0x40523e
0x40523e:	mov	dword ptr [rip + 0x47fd4], 2
0x405248:	add	rsp, 8
0x40524c:	ret	
F 0x40fdd9
0x403016:	ret	
F 0x4056a0
0x4056a0:	imul	eax, dword ptr [rip + 0x47b55]
0x4056a7:	add	rsp, 8
0x4056ab:	ret	
F 0x40fdd6
0x40fdd6:	ror	byte ptr [rdi], 0x85
0x40fdd9:	ret	
F 0x4072d1
0x4072d1:	adc	eax, 0x45f26
0x4072d6:	xor	eax, eax
0x4072d8:	test	edx, edx
0x4072da:	setle	al
0x4072dd:	lea	eax, [rax + rax - 1]
0x4072e1:	ret	
F 0x4056a1
0x4056a1:	scasd	eax, dword ptr [rdi]
0x4056a2:	add	eax, 0x47b55
0x4056a7:	add	rsp, 8
0x4056ab:	ret	
F 0x4056a2
0x4056a2:	add	eax, 0x47b55
0x4056a7:	add	rsp, 8
0x4056ab:	ret	
F 0x407643
0x407643:	pop	rbx
0x407644:	add	al, 0
0x407646:	xor	eax, eax
0x407648:	test	edx, edx
0x40764a:	setle	al
0x40764d:	lea	eax, [rax + rax - 1]
0x407651:	ret	
F 0x407644
0x4058d4:	add	al, 0
0x4058d6:	xor	eax, eax
0x4058d8:	test	edx, edx
0x4058da:	setle	al
0x4058dd:	lea	eax, [rax + rax - 1]
0x4058e1:	ret	
F 0x4056a5
0x4054bf:	add	al, 0
0x4054c1:	add	rsp, 8
0x4054c5:	ret	
F 0x4077f2
0x4058f2:	setg	al
0x4058f5:	lea	eax, [rax + rax - 1]
0x4058f9:	ret	
F 0x4056a7
0x403012:	add	rsp, 8
0x403016:	ret	
F 0x407823
0x407823:	pop	rcx
0x407824:	add	al, 0
0x407826:	xor	eax, eax
0x407828:	test	edx, edx
0x40782a:	setle	al
0x40782d:	lea	eax, [rax + rax - 1]
0x407831:	ret	
F 0x4056ab
0x403016:	ret	
F 0x404ef8
0x404ef8:	sub	eax, dword ptr [rdx]
0x404efa:	imul	eax, dword ptr [rip + 0x482fb]
0x404f01:	ret	
F 0x4056cf
0x4056cf:	dec	dword ptr [rdi]
0x4056d1:	scasd	eax, dword ptr [rdi]
0x4056d2:	add	eax, 0x47b25
0x4056d7:	add	rsp, 8
0x4056db:	ret	
F 0x4068b5
0x4068b5:	sbb	al, 8
0x4068b8:	add	rsp, 8
0x4068bc:	pop	rbx
0x4068bd:	pop	rbp
0x4068be:	pop	r12
0x4068c0:	pop	r13
0x4068c2:	ret	
F 0x4056d0
0x4056d0:	imul	eax, dword ptr [rip + 0x47b25]
0x4056d7:	add	rsp, 8
0x4056db:	ret	
F 0x40fdd3
0x40fdd3:	dec	dword ptr [rax - 0x7b]
0x40fdd6:	ror	byte ptr [rdi], 0x85
0x40fdd9:	ret	
F 0x405406
0x405319:	add	rsp, 0xd8
0x405320:	ret	
F 0x4056d1
0x4056d1:	scasd	eax, dword ptr [rdi]
0x4056d2:	add	eax, 0x47b25
0x4056d7:	add	rsp, 8
0x4056db:	ret	
F 0x4056d2
0x4056d2:	add	eax, 0x47b25
0x4056d7:	add	rsp, 8
0x4056db:	ret	
F 0x4056d5
0x4054bf:	add	al, 0
0x4054c1:	add	rsp, 8
0x4054c5:	ret	
F 0x407791
0x403016:	ret	
F 0x4056d7
0x403012:	add	rsp, 8
0x403016:	ret	
F 0x4077f1
0x4058f1:	leave	
0x4058f2:	setg	al
0x4058f5:	lea	eax, [rax + rax - 1]
0x4058f9:	ret	
F 0x4056db
0x403016:	ret	
F 0x407821
0x407821:	adc	eax, 0x459d6
0x407826:	xor	eax, eax
0x407828:	test	edx, edx
0x40782a:	setle	al
0x40782d:	lea	eax, [rax + rax - 1]
0x407831:	ret	
F 0x405709
0x405709:	dec	dword ptr [rdi]
0x40570b:	scasd	eax, dword ptr [rdi]
0x40570c:	add	eax, 0x47aeb
0x405711:	add	rsp, 8
0x405715:	ret	
F 0x404ef7
0x404ef7:	add	byte ptr [rbx], ch
0x404ef9:	add	cl, byte ptr [rdi]
0x404efb:	scasd	eax, dword ptr [rdi]
0x404efc:	add	eax, 0x482fb
0x404f01:	ret	
F 0x407646
0x4058d6:	xor	eax, eax
0x4058d8:	test	edx, edx
0x4058da:	setle	al
0x4058dd:	lea	eax, [rax + rax - 1]
0x4058e1:	ret	
F 0x40778f
0x4058df:	add	bh, bh
0x4058e1:	ret	
F 0x407647
0x4058d7:	rol	byte ptr [rbp - 0x3f61f02e], 0x8d
0x4058de:	add	dil, r15b
0x4058e1:	ret	
F 0x40540b
0x404d96:	add	byte ptr [rax], al
0x404d98:	ret	
F 0x4099cf
0x4099cf:	add	rsp, 0x228
0x4099d6:	pop	rbx
0x4099d7:	pop	rbp
0x4099d8:	pop	r12
0x4099da:	pop	r13
0x4099dc:	pop	r14
0x4099de:	pop	r15
0x4099e0:	ret	
F 0x405675
0x4054bf:	add	al, 0
0x4054c1:	add	rsp, 8
0x4054c5:	ret	
F 0x407648
0x4058d8:	test	edx, edx
0x4058da:	setle	al
0x4058dd:	lea	eax, [rax + rax - 1]
0x4058e1:	ret	
F 0x407645
0x4058d5:	add	byte ptr [rcx], dh
0x4058d7:	rol	byte ptr [rbp - 0x3f61f02e], 0x8d
0x4058de:	add	dil, r15b
0x4058e1:	ret	
F 0x4099d2
0x4099d2:	sub	byte ptr [rdx], al
0x4099d4:	add	byte ptr [rax], al
0x4099d6:	pop	rbx
0x4099d7:	pop	rbp
0x4099d8:	pop	r12
0x4099da:	pop	r13
0x4099dc:	pop	r14
0x4099de:	pop	r15
0x4099e0:	ret	
F 0x40fdd1
0x40fdd1:	mov	cl, 0xff
0x40fdd3:	dec	dword ptr [rax - 0x7b]
0x40fdd6:	ror	byte ptr [rdi], 0x85
0x40fdd9:	ret	
F 0x404ef6
0x404ef6:	mov	eax, dword ptr [rax]
0x404ef8:	sub	eax, dword ptr [rdx]
0x404efa:	imul	eax, dword ptr [rip + 0x482fb]
0x404f01:	ret	
F 0x4072ca
0x406ffa:	add	byte ptr [rdi + 3], bh
0x406ffd:	ret	
F 0x40764a
0x4058da:	setle	al
0x4058dd:	lea	eax, [rax + rax - 1]
0x4058e1:	ret	
F 0x40764d
0x4058dd:	lea	eax, [rax + rax - 1]
0x4058e1:	ret	
F 0x40764e
0x4058de:	add	dil, r15b
0x4058e1:	ret	
F 0x404ee9
0x403016:	ret	
F 0x4099d3
0x4099d3:	add	al, byte ptr [rax]
0x4099d5:	add	byte ptr [rbx + 0x5d], bl
0x4099d8:	pop	r12
0x4099da:	pop	r13
0x4099dc:	pop	r14
0x4099de:	pop	r15
0x4099e0:	ret	
F 0x404ee7
0x404e47:	add	al, 0
0x404e49:	ret	
F 0x4072ce
0x4072ce:	nop	
0x4072d0:	mov	edx, dword ptr [rip + 0x45f26]
0x4072d6:	xor	eax, eax
0x4072d8:	test	edx, edx
0x4072da:	setle	al
0x4072dd:	lea	eax, [rax + rax - 1]
0x4072e1:	ret	
F 0x405403
0x405403:	add	byte ptr [rbp + 8], dh
0x405406:	add	rsp, 0xd8
0x40540d:	ret	
F 0x40fdd0
0x40fdd0:	cld	
0x40fdd1:	mov	cl, 0xff
0x40fdd3:	dec	dword ptr [rax - 0x7b]
0x40fdd6:	ror	byte ptr [rdi], 0x85
0x40fdd9:	ret	
F 0x4072d2
0x4072d2:	pop	rdi
0x4072d4:	add	al, 0
0x4072d6:	xor	eax, eax
0x4072d8:	test	edx, edx
0x4072da:	setle	al
0x4072dd:	lea	eax, [rax + rax - 1]
0x4072e1:	ret	
F 0x40764f
0x4058df:	add	bh, bh
0x4058e1:	ret	
F 0x407656
0x407656:	add	byte ptr [rax], al
0x407658:	mov	ecx, dword ptr [rip + 0x45b9e]
0x40765e:	xor	eax, eax
0x407660:	test	ecx, ecx
0x407662:	setg	al
0x407665:	lea	eax, [rax + rax - 1]
0x407669:	ret	
F 0x40fd84
0x403016:	ret	
F 0x40540d
0x403016:	ret	
F 0x407651
0x403016:	ret	
F 0x4077f0
0x4058f0:	test	ecx, ecx
0x4058f2:	setg	al
0x4058f5:	lea	eax, [rax + rax - 1]
0x4058f9:	ret	
F 0x4072d3
0x407233:	pop	rdi
0x407234:	add	al, 0
0x407236:	xor	eax, eax
0x407238:	test	edx, edx
0x40723a:	setle	al
0x40723d:	lea	eax, [rax + rax - 1]
0x407241:	ret	
F 0x40547e
0x40547e:	add	rsp, 0x18
0x405482:	pop	rbx
0x405483:	pop	rbp
0x405484:	ret	
F 0x404ee4
0x404ee4:	add	eax, 0x48313
0x404ee9:	ret	
F 0x4072cf
0x4072cf:	nop	
0x4072d0:	mov	edx, dword ptr [rip + 0x45f26]
0x4072d6:	xor	eax, eax
0x4072d8:	test	edx, edx
0x4072da:	setle	al
0x4072dd:	lea	eax, [rax + rax - 1]
0x4072e1:	ret	
F 0x40772e
0x40772e:	nop	
0x407730:	mov	edx, dword ptr [rip + 0x45ac6]
0x407736:	xor	eax, eax
0x407738:	test	edx, edx
0x40773a:	setle	al
0x40773d:	lea	eax, [rax + rax - 1]
0x407741:	ret	
F 0x407838
0x407838:	mov	ecx, dword ptr [rip + 0x459be]
0x40783e:	xor	eax, eax
0x407840:	test	ecx, ecx
0x407842:	setg	al
0x407845:	lea	eax, [rax + rax - 1]
0x407849:	ret	
F 0x405481
0x405481:	sbb	byte ptr [rbx + 0x5d], bl
0x405484:	ret	
F 0x40521d
0x40521d:	add	byte ptr [rdx], dl
0x40521f:	add	byte ptr [rax], al
0x405221:	add	bl, al
0x405223:	ret	
F 0x40fd83
0x40518b:	pop	rsi
0x40518c:	ret	
F 0x404ee3
0x404ee3:	scasd	eax, dword ptr [rdi]
0x404ee4:	add	eax, 0x48313
0x404ee9:	ret	
F 0x4070a4
0x4058d4:	add	al, 0
0x4058d6:	xor	eax, eax
0x4058d8:	test	edx, edx
0x4058da:	setle	al
0x4058dd:	lea	eax, [rax + rax - 1]
0x4058e1:	ret	
F 0x407796
0x407796:	add	byte ptr [rax], al
0x407798:	mov	ecx, dword ptr [rip + 0x45a5e]
0x40779e:	xor	eax, eax
0x4077a0:	test	ecx, ecx
0x4077a2:	setg	al
0x4077a5:	lea	eax, [rax + rax - 1]
0x4077a9:	ret	
F 0x407785
0x4058d5:	add	byte ptr [rcx], dh
0x4058d7:	rol	byte ptr [rbp - 0x3f61f02e], 0x8d
0x4058de:	add	dil, r15b
0x4058e1:	ret	
F 0x40fd82
0x40518a:	pop	r14
0x40518c:	ret	
F 0x4084c1
0x4084c1:	mov	dword ptr [rsp + 0x178], 1
0x4084cc:	mov	rax, r12
0x4084cf:	pop	r12
0x4084d1:	ret	
F 0x404ee2
0x404ee2:	imul	eax, dword ptr [rip + 0x48313]
0x404ee9:	ret	
F 0x40fd80
0x405188:	pop	r13
0x40518a:	pop	r14
0x40518c:	ret	
F 0x4075c7
0x4058df:	add	bh, bh
0x4058e1:	ret	
F 0x40db47
0x405af5:	add	byte ptr [rbx + 0x5d], bl
0x405af8:	pop	r12
0x405afa:	pop	r13
0x405afc:	pop	r14
0x405afe:	pop	r15
0x405b00:	ret	
F 0x413a1e
0x413a1e:	xor	al, 0x80
0x413a20:	mov	dword ptr [rbp + 0xcc], eax
0x413a26:	jmp	0x4136f5
F 0x40fd81
0x405189:	pop	rbp
0x40518a:	pop	r14
0x40518c:	ret	
F 0x40fd7e
0x405186:	pop	r12
0x405188:	pop	r13
0x40518a:	pop	r14
0x40518c:	ret	
F 0x40772f
0x40772f:	nop	
0x407730:	mov	edx, dword ptr [rip + 0x45ac6]
0x407736:	xor	eax, eax
0x407738:	test	edx, edx
0x40773a:	setle	al
0x40773d:	lea	eax, [rax + rax - 1]
0x407741:	ret	
F 0x4077ef
0x4058ef:	rol	byte ptr [rbp - 0x3f60f037], 0x8d
0x4058f6:	add	dil, r15b
0x4058f9:	ret	
F 0x404ee1
0x404ee1:	add	byte ptr [rdi], cl
0x404ee3:	scasd	eax, dword ptr [rdi]
0x404ee4:	add	eax, 0x48313
0x404ee9:	ret	
F 0x4070b8
0x4070b8:	mov	ecx, dword ptr [rip + 0x4613e]
0x4070be:	xor	eax, eax
0x4070c0:	test	ecx, ecx
0x4070c2:	setg	al
0x4070c5:	lea	eax, [rax + rax - 1]
0x4070c9:	ret	
F 0x40db48
0x405af6:	pop	rbx
0x405af7:	pop	rbp
0x405af8:	pop	r12
0x405afa:	pop	r13
0x405afc:	pop	r14
0x405afe:	pop	r15
0x405b00:	ret	
F 0x413a1f
0x413a1f:	or	byte ptr [rcx + 0xcc85], 0
0x413a26:	jmp	0x4136f5
F 0x407820
0x407820:	mov	edx, dword ptr [rip + 0x459d6]
0x407826:	xor	eax, eax
0x407828:	test	edx, edx
0x40782a:	setle	al
0x40782d:	lea	eax, [rax + rax - 1]
0x407831:	ret	
F 0x40742d
0x4058ed:	add	byte ptr [rcx], dh
0x4058ef:	rol	byte ptr [rbp - 0x3f60f037], 0x8d
0x4058f6:	add	dil, r15b
0x4058f9:	ret	
F 0x4077d0
0x4077d0:	mov	edx, dword ptr [rip + 0x45a26]
0x4077d6:	xor	eax, eax
0x4077d8:	test	edx, edx
0x4077da:	setle	al
0x4077dd:	lea	eax, [rax + rax - 1]
0x4077e1:	ret	
F 0x40742e
0x4058ee:	xor	eax, eax
0x4058f0:	test	ecx, ecx
0x4058f2:	setg	al
0x4058f5:	lea	eax, [rax + rax - 1]
0x4058f9:	ret	
F 0x407826
0x4058d6:	xor	eax, eax
0x4058d8:	test	edx, edx
0x4058da:	setle	al
0x4058dd:	lea	eax, [rax + rax - 1]
0x4058e1:	ret	
F 0x405672
0x405672:	add	eax, 0x47b85
0x405677:	add	rsp, 8
0x40567b:	ret	
F 0x4070a1
0x4070a1:	adc	eax, 0x46156
0x4070a6:	xor	eax, eax
0x4070a8:	test	edx, edx
0x4070aa:	setle	al
0x4070ad:	lea	eax, [rax + rax - 1]
0x4070b1:	ret	
F 0x40fd7d
0x405185:	pop	rbp
0x405186:	pop	r12
0x405188:	pop	r13
0x40518a:	pop	r14
0x40518c:	ret	
F 0x413a20
0x413a20:	mov	dword ptr [rbp + 0xcc], eax
0x413a26:	jmp	0x4136f5
F 0x40fd7b
0x408072:	add	byte ptr [rbx + 0x5d], bl
0x408075:	pop	r12
0x408077:	pop	r13
0x408079:	pop	r14
0x40807b:	ret	
F 0x406666
0x406666:	add	byte ptr [rax], al
0x406668:	add	byte ptr [rcx + rcx*4 - 0x20], al
0x40666c:	pop	r12
0x40666e:	ret	
F 0x40fd7c
0x405184:	pop	rbx
0x405185:	pop	rbp
0x405186:	pop	r12
0x405188:	pop	r13
0x40518a:	pop	r14
0x40518c:	ret	
F 0x40763e
0x40763e:	nop	
0x407640:	mov	edx, dword ptr [rip + 0x45bb6]
0x407646:	xor	eax, eax
0x407648:	test	edx, edx
0x40764a:	setle	al
0x40764d:	lea	eax, [rax + rax - 1]
0x407651:	ret	
F 0x40db49
0x405af7:	pop	rbp
0x405af8:	pop	r12
0x405afa:	pop	r13
0x405afc:	pop	r14
0x405afe:	pop	r15
0x405b00:	ret	
F 0x4070a0
0x4070a0:	mov	edx, dword ptr [rip + 0x46156]
0x4070a6:	xor	eax, eax
0x4070a8:	test	edx, edx
0x4070aa:	setle	al
0x4070ad:	lea	eax, [rax + rax - 1]
0x4070b1:	ret	
F 0x4077ee
0x4058ee:	xor	eax, eax
0x4058f0:	test	ecx, ecx
0x4058f2:	setg	al
0x4058f5:	lea	eax, [rax + rax - 1]
0x4058f9:	ret	
F 0x4068af
0x4068af:	shl	rbx, 4
0x4068b3:	mov	eax, dword ptr [r12 + rbx + 8]
0x4068b8:	add	rsp, 8
0x4068bc:	pop	rbx
0x4068bd:	pop	rbp
0x4068be:	pop	r12
0x4068c0:	pop	r13
0x4068c2:	ret	
F 0x410077
0x410077:	add	byte ptr [rip + 0x80000], dh
0x41007d:	mov	dword ptr [rbx + 0xcc], eax
0x410083:	pop	rbx
0x410084:	ret	
F 0x413a24
0x413a24:	add	byte ptr [rax], al
0x413a26:	jmp	0x4136f5
F 0x4077a7
0x4058df:	add	bh, bh
0x4058e1:	ret	
F 0x40fd7a
0x408437:	add	byte ptr [rax], al
0x408439:	pop	rbx
0x40843a:	pop	rbp
0x40843b:	pop	r12
0x40843d:	pop	r13
0x40843f:	pop	r14
0x408441:	ret	
F 0x4075c9
0x403016:	ret	
F 0x407784
0x4058d4:	add	al, 0
0x4058d6:	xor	eax, eax
0x4058d8:	test	edx, edx
0x4058da:	setle	al
0x4058dd:	lea	eax, [rax + rax - 1]
0x4058e1:	ret	
F 0x410076
0x410076:	add	byte ptr [rax], al
0x410078:	xor	eax, 0x80000
0x41007d:	mov	dword ptr [rbx + 0xcc], eax
0x410083:	pop	rbx
0x410084:	ret	
F 0x4084c8
0x4084c8:	add	dword ptr [rax], eax
0x4084ca:	add	byte ptr [rax], al
0x4084cc:	mov	rax, r12
0x4084cf:	pop	r12
0x4084d1:	ret	
F 0x407870
0x407870:	mov	edx, dword ptr [rip + 0x45986]
0x407876:	xor	eax, eax
0x407878:	test	edx, edx
0x40787a:	setle	al
0x40787d:	lea	eax, [rax + rax - 1]
0x407881:	ret	
F 0x40cdae
0x409ab7:	ret	0x8d48
F 0x40cdc0
0x403016:	ret	
F 0x407871
0x407871:	adc	eax, 0x45986
0x407876:	xor	eax, eax
0x407878:	test	edx, edx
0x40787a:	setle	al
0x40787d:	lea	eax, [rax + rax - 1]
0x407881:	ret	
F 0x40ce18
0x409ab7:	ret	0x8d48
F 0x407873
0x407823:	pop	rcx
0x407824:	add	al, 0
0x407826:	xor	eax, eax
0x407828:	test	edx, edx
0x40782a:	setle	al
0x40782d:	lea	eax, [rax + rax - 1]
0x407831:	ret	
F 0x40ce2f
0x403016:	ret	
F 0x407874
0x4058d4:	add	al, 0
0x4058d6:	xor	eax, eax
0x4058d8:	test	edx, edx
0x4058da:	setle	al
0x4058dd:	lea	eax, [rax + rax - 1]
0x4058e1:	ret	
F 0x40ce7b
0x409ab7:	ret	0x8d48
F 0x407875
0x4058d5:	add	byte ptr [rcx], dh
0x4058d7:	rol	byte ptr [rbp - 0x3f61f02e], 0x8d
0x4058de:	add	dil, r15b
0x4058e1:	ret	
F 0x40ce92
0x403016:	ret	
F 0x407876
0x4058d6:	xor	eax, eax
0x4058d8:	test	edx, edx
0x4058da:	setle	al
0x4058dd:	lea	eax, [rax + rax - 1]
0x4058e1:	ret	
F 0x40cede
0x409ab7:	ret	0x8d48
F 0x407877
0x4058d7:	rol	byte ptr [rbp - 0x3f61f02e], 0x8d
0x4058de:	add	dil, r15b
0x4058e1:	ret	
F 0x40cef5
0x403016:	ret	
F 0x407878
0x4058d8:	test	edx, edx
0x4058da:	setle	al
0x4058dd:	lea	eax, [rax + rax - 1]
0x4058e1:	ret	
F 0x40cf4f
0x403016:	ret	
F 0x40787a
0x4058da:	setle	al
0x4058dd:	lea	eax, [rax + rax - 1]
0x4058e1:	ret	
F 0x40d1d1
0x40d1d1:	inc	byte ptr [rcx + rdi - 0x4b]
0x40d1d5:	push	0xffffffc
0x40d1da:	popfq	
0x40d1db:	ret	0xcfe8
F 0x40787d
0x4058dd:	lea	eax, [rax + rax - 1]
0x4058e1:	ret	
F 0x40787e
0x4058de:	add	dil, r15b
0x4058e1:	ret	
F 0x40d1d5
0x40d1d5:	push	0xffffffc
0x40d1da:	popfq	
0x40d1db:	ret	0xcfe8
F 0x40787f
0x4058df:	add	bh, bh
0x4058e1:	ret	
F 0x407395
0x4058dd:	lea	eax, [rax + rax - 1]
0x4058e1:	ret	
F 0x404ff7
0x404ff7:	or	byte ptr [rcx + rcx*4 - 0x40], al
0x404ffb:	ret	
F 0x41011c
0x41011c:	add	byte ptr [rax], al
0x41011e:	and	dword ptr [rbx + 0xcc], 0xffbf7fff
0x410128:	pop	rbx
0x410129:	ret	
F 0x409128
0x403016:	ret	
F 0x407396
0x4058de:	add	dil, r15b
0x4058e1:	ret	
F 0x410265
0x410265:	add	byte ptr [rax], r8b
0x410268:	mov	dword ptr [rbx + 0xd4], edx
0x41026e:	pop	rbx
0x41026f:	ret	
F 0x40570b
0x40570b:	scasd	eax, dword ptr [rdi]
0x40570c:	add	eax, 0x47aeb
0x405711:	add	rsp, 8
0x405715:	ret	
F 0x409176
0x409176:	push	0x5b000010
0x40917b:	pop	rbp
0x40917c:	pop	r12
0x40917e:	pop	r13
0x409180:	pop	r14
0x409182:	pop	r15
0x409184:	ret	
F 0x405865
0x404ec7:	pop	rbx
0x404ec8:	pop	rbp
0x404ec9:	ret	
F 0x407397
0x4058df:	add	bh, bh
0x4058e1:	ret	
F 0x409177
0x409177:	adc	byte ptr [rax], al
0x409179:	add	byte ptr [rbx + 0x5d], bl
0x40917c:	pop	r12
0x40917e:	pop	r13
0x409180:	pop	r14
0x409182:	pop	r15
0x409184:	ret	
F 0x405071
0x405071:	add	byte ptr [rdi], cl
0x405073:	scasd	eax, dword ptr [rdi]
0x405074:	add	eax, 0x48183
0x405079:	ret	
F 0x405033
0x405033:	setg	r8b
0x405037:	lea	r8d, [r8 + r8 - 1]
0x40503c:	mov	eax, r8d
0x40503f:	ret	
F 0x4072ee
0x4058ee:	xor	eax, eax
0x4058f0:	test	ecx, ecx
0x4058f2:	setg	al
0x4058f5:	lea	eax, [rax + rax - 1]
0x4058f9:	ret	
F 0x41569f
0x41569f:	sbb	eax, 0x83fffeda
0x4156a4:	cmp	byte ptr [rcx], cl
0x4156a6:	setne	al
0x4156a9:	movzx	eax, al
0x4156ac:	neg	eax
0x4156ae:	pop	rbx
0x4156af:	pop	rbp
0x4156b0:	pop	r12
0x4156b2:	ret	
F 0x407399
0x403016:	ret	
F 0x407158
0x407158:	mov	ecx, dword ptr [rip + 0x4609e]
0x40715e:	xor	eax, eax
0x407160:	test	ecx, ecx
0x407162:	setg	al
0x407165:	lea	eax, [rax + rax - 1]
0x407169:	ret	
F 0x4073b8
0x407048:	add	byte ptr [rax], al
0x40704a:	add	byte ptr [rdi + 3], dh
0x40704d:	ret	
F 0x410129
0x403016:	ret	
F 0x4073ba
0x40704a:	add	byte ptr [rdi + 3], dh
0x40704d:	ret	
F 0x404fa9
0x403016:	ret	
F 0x41579e
0x41579e:	add	rsp, 8
0x4157a2:	pop	rbx
0x4157a3:	pop	rbp
0x4157a4:	pop	r12
0x4157a6:	pop	r13
0x4157a8:	pop	r14
0x4157aa:	pop	r15
0x4157ac:	ret	
F 0x409178
0x405af4:	add	byte ptr [rax], al
0x405af6:	pop	rbx
0x405af7:	pop	rbp
0x405af8:	pop	r12
0x405afa:	pop	r13
0x405afc:	pop	r14
0x405afe:	pop	r15
0x405b00:	ret	
F 0x405072
0x405072:	imul	eax, dword ptr [rip + 0x48183]
0x405079:	ret	
F 0x4073bd
0x403016:	ret	
F 0x410075
0x410075:	add	al, byte ptr [rax]
0x410077:	add	byte ptr [rip + 0x80000], dh
0x41007d:	mov	dword ptr [rbx + 0xcc], eax
0x410083:	pop	rbx
0x410084:	ret	
F 0x405885
0x405885:	add	eax, dword ptr [rax]
0x405887:	add	eax, 1
0x40588a:	mov	dword ptr [rip + 0x3b830], eax
0x405890:	add	rsp, 8
0x405894:	pop	rbx
0x405895:	pop	rbp
0x405896:	ret	
F 0x409179
0x405af5:	add	byte ptr [rbx + 0x5d], bl
0x405af8:	pop	r12
0x405afa:	pop	r13
0x405afc:	pop	r14
0x405afe:	pop	r15
0x405b00:	ret	
F 0x410212
0x410007:	add	byte ptr [rax], al
0x410009:	pop	rbx
0x41000a:	ret	
F 0x407146
0x4058d6:	xor	eax, eax
0x4058d8:	test	edx, edx
0x4058da:	setle	al
0x4058dd:	lea	eax, [rax + rax - 1]
0x4058e1:	ret	
F 0x4072ef
0x4058ef:	rol	byte ptr [rbp - 0x3f60f037], 0x8d
0x4058f6:	add	dil, r15b
0x4058f9:	ret	
F 0x4072e6
0x4072e6:	add	byte ptr [rax], al
0x4072e8:	mov	ecx, dword ptr [rip + 0x45f0e]
0x4072ee:	xor	eax, eax
0x4072f0:	test	ecx, ecx
0x4072f2:	setg	al
0x4072f5:	lea	eax, [rax + rax - 1]
0x4072f9:	ret	
F 0x410266
0x410266:	add	byte ptr [rax], al
0x410268:	mov	dword ptr [rbx + 0xd4], edx
0x41026e:	pop	rbx
0x41026f:	ret	
F 0x4101e9
0x4101e9:	add	byte ptr [rax], al
0x4101ec:	cmove	eax, edx
0x4101ef:	or	ah, 0x20
0x4101f2:	mov	dword ptr [rbx + 0xcc], eax
0x4101f8:	pop	rbx
0x4101f9:	ret	
F 0x40fd75
0x40fd75:	add	rsp, 0x210
0x40fd7c:	pop	rbx
0x40fd7d:	pop	rbp
0x40fd7e:	pop	r12
0x40fd80:	pop	r13
0x40fd82:	pop	r14
0x40fd84:	ret	
F 0x4077ed
0x4058ed:	add	byte ptr [rcx], dh
0x4058ef:	rol	byte ptr [rbp - 0x3f60f037], 0x8d
0x4058f6:	add	dil, r15b
0x4058f9:	ret	
F 0x404fa2
0x404fa2:	imul	eax, dword ptr [rip + 0x48253]
0x404fa9:	ret	
F 0x405073
0x405073:	scasd	eax, dword ptr [rdi]
0x405074:	add	eax, 0x48183
0x405079:	ret	
F 0x40fd78
0x40fd78:	adc	byte ptr [rdx], al
0x40fd7a:	add	byte ptr [rax], al
0x40fd7c:	pop	rbx
0x40fd7d:	pop	rbp
0x40fd7e:	pop	r12
0x40fd80:	pop	r13
0x40fd82:	pop	r14
0x40fd84:	ret	
F 0x404ffb
0x403016:	ret	
F 0x407116
0x4058de:	add	dil, r15b
0x4058e1:	ret	
F 0x405074
0x405074:	add	eax, 0x48183
0x405079:	ret	
F 0x410073
0x410073:	test	byte ptr [rax], ch
0x410075:	add	al, byte ptr [rax]
0x410077:	add	byte ptr [rip + 0x80000], dh
0x41007d:	mov	dword ptr [rbx + 0xcc], eax
0x410083:	pop	rbx
0x410084:	ret	
F 0x40500d
0x40500d:	sahf	
0x40500e:	rol	byte ptr [rdi - 0x73], 0x44
0x405012:	add	bh, bh
0x405014:	mov	eax, r8d
0x405017:	ret	
F 0x410214
0x40da99:	pop	rbx
0x40da9a:	ret	
F 0x405711
0x403012:	add	rsp, 8
0x403016:	ret	
F 0x40506a
0x40506a:	add	byte ptr [rax], al
0x40506c:	sub	eax, dword ptr [rdx + 0x36c]
0x405072:	imul	eax, dword ptr [rip + 0x48183]
0x405079:	ret	
F 0x407145
0x4058d5:	add	byte ptr [rcx], dh
0x4058d7:	rol	byte ptr [rbp - 0x3f61f02e], 0x8d
0x4058de:	add	dil, r15b
0x4058e1:	ret	
F 0x405034
0x405034:	setg	al
0x405037:	lea	r8d, [r8 + r8 - 1]
0x40503c:	mov	eax, r8d
0x40503f:	ret	
F 0x405077
0x404e47:	add	al, 0
0x404e49:	ret	
F 0x40714d
0x4058dd:	lea	eax, [rax + rax - 1]
0x4058e1:	ret	
F 0x405864
0x404ec6:	or	byte ptr [rbx + 0x5d], bl
0x404ec9:	ret	
F 0x405079
0x403016:	ret	
F 0x405567
0x403012:	add	rsp, 8
0x403016:	ret	
F 0x407148
0x4058d8:	test	edx, edx
0x4058da:	setle	al
0x4058dd:	lea	eax, [rax + rax - 1]
0x4058e1:	ret	
F 0x40f892
0x403016:	ret	
F 0x41570b
0x41570b:	sal	byte ptr [rbp + 2], 0x5b
0x41570f:	ret	
F 0x407112
0x4058f2:	setg	al
0x4058f5:	lea	eax, [rax + rax - 1]
0x4058f9:	ret	
F 0x40fd73
0x40fd73:	add	byte ptr [rax], al
0x40fd75:	add	rsp, 0x210
0x40fd7c:	pop	rbx
0x40fd7d:	pop	rbp
0x40fd7e:	pop	r12
0x40fd80:	pop	r13
0x40fd82:	pop	r14
0x40fd84:	ret	
F 0x405715
0x403016:	ret	
F 0x410215
0x403016:	ret	
F 0x407430
0x4058f0:	test	ecx, ecx
0x4058f2:	setg	al
0x4058f5:	lea	eax, [rax + rax - 1]
0x4058f9:	ret	
F 0x4157a1
0x4157a1:	or	byte ptr [rbx + 0x5d], bl
0x4157a4:	pop	r12
0x4157a6:	pop	r13
0x4157a8:	pop	r14
0x4157aa:	pop	r15
0x4157ac:	ret	
F 0x407115
0x4058dd:	lea	eax, [rax + rax - 1]
0x4058e1:	ret	
F 0x4101e8
0x4101e8:	add	byte ptr [rax], al
0x4101ea:	add	byte ptr [rdi], cl
0x4101ed:	ret	0xcc80
F 0x410246
0x410246:	add	byte ptr [rax], al
0x410248:	and	ah, 0xef
0x41024b:	mov	dword ptr [rbx + 0xcc], eax
0x410251:	pop	rbx
0x410252:	ret	
F 0x404ff8
0x404ff8:	mov	eax, r8d
0x404ffb:	ret	
F 0x410268
0x410268:	mov	dword ptr [rbx + 0xd4], edx
0x41026e:	pop	rbx
0x41026f:	ret	
F 0x405086
0x405086:	mov	eax, dword ptr [rax + 0x374]
0x40508c:	sub	eax, dword ptr [rdx + 0x374]
0x405092:	imul	eax, dword ptr [rip + 0x48163]
0x405099:	ret	
F 0x4077ec
0x4058ec:	add	al, 0
0x4058ee:	xor	eax, eax
0x4058f0:	test	ecx, ecx
0x4058f2:	setg	al
0x4058f5:	lea	eax, [rax + rax - 1]
0x4058f9:	ret	
F 0x40570c
0x40570c:	add	eax, 0x47aeb
0x405711:	add	rsp, 8
0x405715:	ret	
F 0x404f9f
0x404f9f:	add	eax, dword ptr [rax]
0x404fa1:	add	byte ptr [rdi], cl
0x404fa3:	scasd	eax, dword ptr [rdi]
0x404fa4:	add	eax, 0x48253
0x404fa9:	ret	
F 0x40556a
0x40556a:	or	bl, al
0x40556c:	nop	dword ptr [rax]
0x405570:	xor	eax, eax
0x405572:	ret	
F 0x405716
0x4054c6:	nop	word ptr cs:[rax + rax]
0x4054d0:	xor	eax, eax
0x4054d2:	ret	
F 0x40714a
0x4058da:	setle	al
0x4058dd:	lea	eax, [rax + rax - 1]
0x4058e1:	ret	
F 0x407431
0x4058f1:	leave	
0x4058f2:	setg	al
0x4058f5:	lea	eax, [rax + rax - 1]
0x4058f9:	ret	
F 0x407111
0x4058f1:	leave	
0x4058f2:	setg	al
0x4058f5:	lea	eax, [rax + rax - 1]
0x4058f9:	ret	
F 0x4072f1
0x4058f1:	leave	
0x4058f2:	setg	al
0x4058f5:	lea	eax, [rax + rax - 1]
0x4058f9:	ret	
F 0x4072e8
0x4072e8:	mov	ecx, dword ptr [rip + 0x45f0e]
0x4072ee:	xor	eax, eax
0x4072f0:	test	ecx, ecx
0x4072f2:	setg	al
0x4072f5:	lea	eax, [rax + rax - 1]
0x4072f9:	ret	
F 0x407147
0x4058d7:	rol	byte ptr [rbp - 0x3f61f02e], 0x8d
0x4058de:	add	dil, r15b
0x4058e1:	ret	
F 0x41026c
0x410007:	add	byte ptr [rax], al
0x410009:	pop	rbx
0x41000a:	ret	
F 0x40781e
0x40781e:	add	byte ptr [rax], al
0x407820:	mov	edx, dword ptr [rip + 0x459d6]
0x407826:	xor	eax, eax
0x407828:	test	edx, edx
0x40782a:	setle	al
0x40782d:	lea	eax, [rax + rax - 1]
0x407831:	ret	
F 0x404fa0
0x404fa0:	add	byte ptr [rax], al
0x404fa2:	imul	eax, dword ptr [rip + 0x48253]
0x404fa9:	ret	
F 0x404ff9
0x404ff9:	mov	eax, eax
0x404ffb:	ret	
F 0x407640
0x407640:	mov	edx, dword ptr [rip + 0x45bb6]
0x407646:	xor	eax, eax
0x407648:	test	edx, edx
0x40764a:	setle	al
0x40764d:	lea	eax, [rax + rax - 1]
0x407651:	ret	
F 0x41026d
0x41026d:	add	byte ptr [rbx - 0x3d], bl
0x410270:	mov	dword ptr [rbx + 0xd8], edx
0x410276:	pop	rbx
0x410277:	ret	
F 0x404f3b
0x404f3b:	add	byte ptr [rax], al
0x404f3d:	sub	rax, qword ptr [rdx + 0xd8]
0x404f44:	imul	eax, dword ptr [rip + 0x482b1]
0x404f4b:	ret	
F 0x405565
0x4054bf:	add	al, 0
0x4054c1:	add	rsp, 8
0x4054c5:	ret	
F 0x407144
0x4058d4:	add	al, 0
0x4058d6:	xor	eax, eax
0x4058d8:	test	edx, edx
0x4058da:	setle	al
0x4058dd:	lea	eax, [rax + rax - 1]
0x4058e1:	ret	
F 0x405562
0x405562:	add	eax, 0x47c95
0x405567:	add	rsp, 8
0x40556b:	ret	
F 0x407119
0x403016:	ret	
F 0x4072f2
0x4058f2:	setg	al
0x4058f5:	lea	eax, [rax + rax - 1]
0x4058f9:	ret	
F 0x4156a2
0x4156a2:	inc	dword ptr [rbx - 0x6af0f6c8]
0x4156a8:	ror	byte ptr [rdi], 0xb6
0x4156ab:	sal	bh, 0xd8
0x4156ae:	pop	rbx
0x4156af:	pop	rbp
0x4156b0:	pop	r12
0x4156b2:	ret	
F 0x410248
0x410248:	and	ah, 0xef
0x41024b:	mov	dword ptr [rbx + 0xcc], eax
0x410251:	pop	rbx
0x410252:	ret	
F 0x405087
0x405087:	xor	byte ptr [rbx + rax], 0
0x40508c:	sub	eax, dword ptr [rdx + 0x374]
0x405092:	imul	eax, dword ptr [rip + 0x48163]
0x405099:	ret	
F 0x407461
0x407461:	adc	eax, 0x45d96
0x407466:	xor	eax, eax
0x407468:	test	edx, edx
0x40746a:	setle	al
0x40746d:	lea	eax, [rax + rax - 1]
0x407471:	ret	
F 0x40506c
0x40506c:	sub	eax, dword ptr [rdx + 0x36c]
0x405072:	imul	eax, dword ptr [rip + 0x48183]
0x405079:	ret	
F 0x4077eb
0x4076fb:	pop	rdx
0x4076fc:	add	al, 0
0x4076fe:	xor	eax, eax
0x407700:	test	ecx, ecx
0x407702:	setg	al
0x407705:	lea	eax, [rax + rax - 1]
0x407709:	ret	
F 0x405866
0x404e0f:	pop	rbp
0x404e10:	ret	
F 0x405561
0x405561:	scasd	eax, dword ptr [rdi]
0x405562:	add	eax, 0x47c95
0x405567:	add	rsp, 8
0x40556b:	ret	
F 0x407156
0x407156:	add	byte ptr [rax], al
0x407158:	mov	ecx, dword ptr [rip + 0x4609e]
0x40715e:	xor	eax, eax
0x407160:	test	ecx, ecx
0x407162:	setg	al
0x407165:	lea	eax, [rax + rax - 1]
0x407169:	ret	
F 0x410071
0x410071:	adc	byte ptr [rdi], cl
0x410073:	test	byte ptr [rax], ch
0x410075:	add	al, byte ptr [rax]
0x410077:	add	byte ptr [rip + 0x80000], dh
0x41007d:	mov	dword ptr [rbx + 0xcc], eax
0x410083:	pop	rbx
0x410084:	ret	
F 0x4156a3
0x4156a3:	cmp	dword ptr [rax], 9
0x4156a6:	setne	al
0x4156a9:	movzx	eax, al
0x4156ac:	neg	eax
0x4156ae:	pop	rbx
0x4156af:	pop	rbp
0x4156b0:	pop	r12
0x4156b2:	ret	
F 0x407140
0x407140:	mov	edx, dword ptr [rip + 0x460b6]
0x407146:	xor	eax, eax
0x407148:	test	edx, edx
0x40714a:	setle	al
0x40714d:	lea	eax, [rax + rax - 1]
0x407151:	ret	
F 0x415797
0x403016:	ret	
F 0x4072e9
0x4072e9:	or	eax, 0x45f0e
0x4072ee:	xor	eax, eax
0x4072f0:	test	ecx, ecx
0x4072f2:	setg	al
0x4072f5:	lea	eax, [rax + rax - 1]
0x4072f9:	ret	
F 0x4072f5
0x4058dd:	lea	eax, [rax + rax - 1]
0x4058e1:	ret	
F 0x405714
0x4054c4:	or	bl, al
0x4054c6:	nop	word ptr cs:[rax + rax]
0x4054d0:	xor	eax, eax
0x4054d2:	ret	
F 0x404fa1
0x404fa1:	add	byte ptr [rdi], cl
0x404fa3:	scasd	eax, dword ptr [rdi]
0x404fa4:	add	eax, 0x48253
0x404fa9:	ret	
F 0x405005
0x405005:	add	byte ptr [rbp + 0x31], al
0x405008:	rol	byte ptr [rbp - 0x61f0be40], 0xc0
0x40500f:	lea	r8d, [r8 + r8 - 1]
0x405014:	mov	eax, r8d
0x405017:	ret	
F 0x40b88b
0x40b88b:	add	eax, dword ptr [rax]
0x40b88d:	add	byte ptr [rcx + rcx*4 - 8], cl
0x40b891:	pop	rbx
0x40b892:	pop	rbp
0x40b893:	pop	r12
0x40b895:	pop	r13
0x40b897:	pop	r14
0x40b899:	pop	r15
0x40b89b:	ret	
F 0x41024b
0x41002c:	mov	dword ptr [rbx + 0xcc], eax
0x410032:	pop	rbx
0x410033:	ret	
F 0x40713e
0x40713e:	nop	
0x407140:	mov	edx, dword ptr [rip + 0x460b6]
0x407146:	xor	eax, eax
0x407148:	test	edx, edx
0x40714a:	setle	al
0x40714d:	lea	eax, [rax + rax - 1]
0x407151:	ret	
F 0x40715c
0x4058ec:	add	al, 0
0x4058ee:	xor	eax, eax
0x4058f0:	test	ecx, ecx
0x4058f2:	setg	al
0x4058f5:	lea	eax, [rax + rax - 1]
0x4058f9:	ret	
F 0x4156f8
0x4156f8:	and	byte ptr [rax - 0x77], cl
0x4156fb:	ret	
F 0x41570e
0x40da99:	pop	rbx
0x40da9a:	ret	
F 0x4072f6
0x4058de:	add	dil, r15b
0x4058e1:	ret	
F 0x40506f
0x40506f:	add	eax, dword ptr [rax]
0x405071:	add	byte ptr [rdi], cl
0x405073:	scasd	eax, dword ptr [rdi]
0x405074:	add	eax, 0x48183
0x405079:	ret	
F 0x41026e
0x40da99:	pop	rbx
0x40da9a:	ret	
F 0x405484
0x403016:	ret	
F 0x405035
0x405035:	lahf	
0x405036:	rol	byte ptr [rdi - 0x73], 0x44
0x40503a:	add	bh, bh
0x40503c:	mov	eax, r8d
0x40503f:	ret	
F 0x405004
0x405004:	add	al, 0
0x405006:	xor	r8d, r8d
0x405009:	test	eax, eax
0x40500b:	setle	r8b
0x40500f:	lea	r8d, [r8 + r8 - 1]
0x405014:	mov	eax, r8d
0x405017:	ret	
F 0x4072d6
0x4058d6:	xor	eax, eax
0x4058d8:	test	edx, edx
0x4058da:	setle	al
0x4058dd:	lea	eax, [rax + rax - 1]
0x4058e1:	ret	
F 0x40714f
0x4058df:	add	bh, bh
0x4058e1:	ret	
F 0x4072d5
0x4058d5:	add	byte ptr [rcx], dh
0x4058d7:	rol	byte ptr [rbp - 0x3f61f02e], 0x8d
0x4058de:	add	dil, r15b
0x4058e1:	ret	
F 0x4072eb
0x4071fb:	pop	rdi
0x4071fc:	add	al, 0
0x4071fe:	xor	eax, eax
0x407200:	test	ecx, ecx
0x407202:	setg	al
0x407205:	lea	eax, [rax + rax - 1]
0x407209:	ret	
F 0x405006
0x405006:	xor	r8d, r8d
0x405009:	test	eax, eax
0x40500b:	setle	r8b
0x40500f:	lea	r8d, [r8 + r8 - 1]
0x405014:	mov	eax, r8d
0x405017:	ret	
F 0x41024f
0x410007:	add	byte ptr [rax], al
0x410009:	pop	rbx
0x41000a:	ret	
F 0x41026f
0x403016:	ret	
F 0x410251
0x40da99:	pop	rbx
0x40da9a:	ret	
F 0x4072f7
0x4058df:	add	bh, bh
0x4058e1:	ret	
F 0x40e8cd
0x40e8cd:	cmp	byte ptr [rdi], cl
0x40e8cf:	xchg	eax, ebp
0x40e8d0:	ret	
F 0x404fa4
0x404fa4:	add	eax, 0x48253
0x404fa9:	ret	
F 0x40508a
0x40508a:	add	byte ptr [rax], al
0x40508c:	sub	eax, dword ptr [rdx + 0x374]
0x405092:	imul	eax, dword ptr [rip + 0x48163]
0x405099:	ret	
F 0x40713a
0x406ffa:	add	byte ptr [rdi + 3], bh
0x406ffd:	ret	
F 0x4072ec
0x4058ec:	add	al, 0
0x4058ee:	xor	eax, eax
0x4058f0:	test	ecx, ecx
0x4058f2:	setg	al
0x4058f5:	lea	eax, [rax + rax - 1]
0x4058f9:	ret	
F 0x40502f
0x40502f:	xor	eax, eax
0x405031:	test	edx, edx
0x405033:	setg	r8b
0x405037:	lea	r8d, [r8 + r8 - 1]
0x40503c:	mov	eax, r8d
0x40503f:	ret	
F 0x404fa7
0x404e47:	add	al, 0
0x404e49:	ret	
F 0x4156f0
0x4156f0:	or	eax, 0xfed9cae8
0x4156f5:	inc	dword ptr [rbx - 0x76b7dfc8]
0x4156fb:	ret	
F 0x410252
0x403016:	ret	
F 0x40714e
0x4058de:	add	dil, r15b
0x4058e1:	ret	
F 0x405857
0x403016:	ret	
F 0x405070
0x405070:	add	byte ptr [rax], al
0x405072:	imul	eax, dword ptr [rip + 0x48183]
0x405079:	ret	
F 0x410270
0x410270:	mov	dword ptr [rbx + 0xd8], edx
0x410276:	pop	rbx
0x410277:	ret	
F 0x4101aa
0x403016:	ret	
F 0x40500b
0x40500b:	setle	r8b
0x40500f:	lea	r8d, [r8 + r8 - 1]
0x405014:	mov	eax, r8d
0x405017:	ret	
F 0x405030
0x405030:	rol	byte ptr [rbp - 0x60f0be2e], 0xc0
0x405037:	lea	r8d, [r8 + r8 - 1]
0x40503c:	mov	eax, r8d
0x40503f:	ret	
F 0x407408
0x407048:	add	byte ptr [rax], al
0x40704a:	add	byte ptr [rdi + 3], dh
0x40704d:	ret	
F 0x407138
0x406ff8:	add	byte ptr [rax], al
0x406ffa:	add	byte ptr [rdi + 3], bh
0x406ffd:	ret	
F 0x4072f9
0x403016:	ret	
F 0x407151
0x403016:	ret	
F 0x40585d
0x40585d:	clc	
0x40585e:	add	bh, byte ptr [rdi + 0xf]
0x405861:	add	rsp, 8
0x405865:	pop	rbx
0x405866:	pop	rbp
0x405867:	ret	
F 0x410262
0x410262:	nop	word ptr [rax + rax]
0x410268:	mov	dword ptr [rbx + 0xd4], edx
0x41026e:	pop	rbx
0x41026f:	ret	
F 0x405009
0x405009:	test	eax, eax
0x40500b:	setle	r8b
0x40500f:	lea	r8d, [r8 + r8 - 1]
0x405014:	mov	eax, r8d
0x405017:	ret	
F 0x40570f
0x4054bf:	add	al, 0
0x4054c1:	add	rsp, 8
0x4054c5:	ret	
F 0x40715d
0x4058ed:	add	byte ptr [rcx], dh
0x4058ef:	rol	byte ptr [rbp - 0x3f60f037], 0x8d
0x4058f6:	add	dil, r15b
0x4058f9:	ret	
F 0x4101a3
0x41002c:	mov	dword ptr [rbx + 0xcc], eax
0x410032:	pop	rbx
0x410033:	ret	
F 0x4054b9
0x4054b9:	dec	dword ptr [rdi]
0x4054bb:	scasd	eax, dword ptr [rdi]
0x4054bc:	add	eax, 0x47d3b
0x4054c1:	add	rsp, 8
0x4054c5:	ret	
F 0x4072ed
0x4058ed:	add	byte ptr [rcx], dh
0x4058ef:	rol	byte ptr [rbp - 0x3f60f037], 0x8d
0x4058f6:	add	dil, r15b
0x4058f9:	ret	
F 0x40740a
0x40704a:	add	byte ptr [rdi + 3], dh
0x40704d:	ret	
F 0x404fa3
0x404fa3:	scasd	eax, dword ptr [rdi]
0x404fa4:	add	eax, 0x48253
0x404fa9:	ret	
F 0x405007
0x405007:	xor	eax, eax
0x405009:	test	eax, eax
0x40500b:	setle	r8b
0x40500f:	lea	r8d, [r8 + r8 - 1]
0x405014:	mov	eax, r8d
0x405017:	ret	
F 0x4156f5
0x4156f5:	inc	dword ptr [rbx - 0x76b7dfc8]
0x4156fb:	ret	
F 0x405867
0x403016:	ret	
F 0x40713d
0x403016:	ret	
F 0x404ff5
0x404ff5:	xor	dh, byte ptr [rdi + 8]
0x404ff8:	mov	eax, r8d
0x404ffb:	ret	
F 0x410274
0x410007:	add	byte ptr [rax], al
0x410009:	pop	rbx
0x41000a:	ret	
F 0x407318
0x407048:	add	byte ptr [rax], al
0x40704a:	add	byte ptr [rdi + 3], dh
0x40704d:	ret	
F 0x405031
0x405031:	test	edx, edx
0x405033:	setg	r8b
0x405037:	lea	r8d, [r8 + r8 - 1]
0x40503c:	mov	eax, r8d
0x40503f:	ret	
F 0x40508c
0x40508c:	sub	eax, dword ptr [rdx + 0x374]
0x405092:	imul	eax, dword ptr [rip + 0x48163]
0x405099:	ret	
F 0x40585e
0x40585e:	add	bh, byte ptr [rdi + 0xf]
0x405861:	add	rsp, 8
0x405865:	pop	rbx
0x405866:	pop	rbp
0x405867:	ret	
F 0x40500c
0x40500c:	setle	al
0x40500f:	lea	r8d, [r8 + r8 - 1]
0x405014:	mov	eax, r8d
0x405017:	ret	
F 0x40740d
0x403016:	ret	
F 0x407159
0x407159:	or	eax, 0x4609e
0x40715e:	xor	eax, eax
0x407160:	test	ecx, ecx
0x407162:	setg	al
0x407165:	lea	eax, [rax + rax - 1]
0x407169:	ret	
F 0x4101a9
0x40da99:	pop	rbx
0x40da9a:	ret	
F 0x407141
0x407141:	adc	eax, 0x460b6
0x407146:	xor	eax, eax
0x407148:	test	edx, edx
0x40714a:	setle	al
0x40714d:	lea	eax, [rax + rax - 1]
0x407151:	ret	
F 0x410276
0x40da99:	pop	rbx
0x40da9a:	ret	
F 0x404ea9
0x403016:	ret	
F 0x41570f
0x403016:	ret	
F 0x410263
0x410263:	nop	dword ptr [rax + rax]
0x410268:	mov	dword ptr [rbx + 0xd4], edx
0x41026e:	pop	rbx
0x41026f:	ret	
F 0x405032
0x405032:	rol	byte ptr [rcx + 0xf], cl
0x405035:	lahf	
0x405036:	rol	byte ptr [rdi - 0x73], 0x44
0x40503a:	add	bh, bh
0x40503c:	mov	eax, r8d
0x40503f:	ret	
F 0x407160
0x4058f0:	test	ecx, ecx
0x4058f2:	setg	al
0x4058f5:	lea	eax, [rax + rax - 1]
0x4058f9:	ret	
F 0x404f9a
0x404f9a:	add	byte ptr [rax], al
0x404f9c:	sub	eax, dword ptr [rdx + 0x360]
0x404fa2:	imul	eax, dword ptr [rip + 0x48253]
0x404fa9:	ret	
F 0x407142
0x407142:	mov	dh, 0x60
0x407144:	add	al, 0
0x407146:	xor	eax, eax
0x407148:	test	edx, edx
0x40714a:	setle	al
0x40714d:	lea	eax, [rax + rax - 1]
0x407151:	ret	
F 0x40ca1a
0x409ab7:	ret	0x8d48
F 0x407842
0x4058f2:	setg	al
0x4058f5:	lea	eax, [rax + rax - 1]
0x4058f9:	ret	
F 0x40ca7e
0x40ca7e:	add	byte ptr [rax - 0x77], cl
0x40ca82:	ret	0x8948
F 0x407845
0x4058dd:	lea	eax, [rax + rax - 1]
0x4058e1:	ret	
F 0x407846
0x4058de:	add	dil, r15b
0x4058e1:	ret	
F 0x40ca7f
0x40ca7f:	add	byte ptr [rax - 0x77], cl
0x40ca82:	ret	0x8948
F 0x407847
0x4058df:	add	bh, bh
0x4058e1:	ret	
F 0x407849
0x403016:	ret	
F 0x40ca82
0x40ca82:	ret	0x8948
F 0x407868
0x406ff8:	add	byte ptr [rax], al
0x406ffa:	add	byte ptr [rdi + 3], bh
0x406ffd:	ret	
F 0x40cc3c
0x403016:	ret	
F 0x40786a
0x406ffa:	add	byte ptr [rdi + 3], bh
0x406ffd:	ret	
F 0x40cc7e
0x409ab7:	ret	0x8d48
F 0x40786d
0x403016:	ret	
F 0x40cc90
0x403016:	ret	
F 0x40786e
0x40786e:	nop	
0x407870:	mov	edx, dword ptr [rip + 0x45986]
0x407876:	xor	eax, eax
0x407878:	test	edx, edx
0x40787a:	setle	al
0x40787d:	lea	eax, [rax + rax - 1]
0x407881:	ret	
F 0x40ccb9
0x403016:	ret	
F 0x40cce8
0x409ab7:	ret	0x8d48
F 0x40786f
0x40786f:	nop	
0x407870:	mov	edx, dword ptr [rip + 0x45986]
0x407876:	xor	eax, eax
0x407878:	test	edx, edx
0x40787a:	setle	al
0x40787d:	lea	eax, [rax + rax - 1]
0x407881:	ret	
F 0x40ccff
0x403016:	ret	
F 0x40cd56
0x403016:	ret	
F 0x407551
0x407551:	adc	eax, 0x45ca6
0x407556:	xor	eax, eax
0x407558:	test	edx, edx
0x40755a:	setle	al
0x40755d:	lea	eax, [rax + rax - 1]
0x407561:	ret	
F 0x408b01
0x403016:	ret	
F 0x407548
0x407228:	add	byte ptr [rdi + 5], bh
0x40722b:	ret	
F 0x4071df
0x4071df:	nop	
0x4071e0:	mov	edx, dword ptr [rip + 0x46016]
0x4071e6:	xor	eax, eax
0x4071e8:	test	edx, edx
0x4071ea:	setle	al
0x4071ed:	lea	eax, [rax + rax - 1]
0x4071f1:	ret	
F 0x407526
0x4058de:	add	dil, r15b
0x4058e1:	ret	
F 0x40756d
0x4058ed:	add	byte ptr [rcx], dh
0x4058ef:	rol	byte ptr [rbp - 0x3f60f037], 0x8d
0x4058f6:	add	dil, r15b
0x4058f9:	ret	
F 0x4071e0
0x4071e0:	mov	edx, dword ptr [rip + 0x46016]
0x4071e6:	xor	eax, eax
0x4071e8:	test	edx, edx
0x4071ea:	setle	al
0x4071ed:	lea	eax, [rax + rax - 1]
0x4071f1:	ret	
F 0x407550
0x407550:	mov	edx, dword ptr [rip + 0x45ca6]
0x407556:	xor	eax, eax
0x407558:	test	edx, edx
0x40755a:	setle	al
0x40755d:	lea	eax, [rax + rax - 1]
0x407561:	ret	
F 0x407546
0x407226:	add	byte ptr [rax], al
0x407228:	add	byte ptr [rdi + 5], bh
0x40722b:	ret	
F 0x4071e1
0x4071e1:	adc	eax, 0x46016
0x4071e6:	xor	eax, eax
0x4071e8:	test	edx, edx
0x4071ea:	setle	al
0x4071ed:	lea	eax, [rax + rax - 1]
0x4071f1:	ret	
F 0x40756c
0x4058ec:	add	al, 0
0x4058ee:	xor	eax, eax
0x4058f0:	test	ecx, ecx
0x4058f2:	setg	al
0x4058f5:	lea	eax, [rax + rax - 1]
0x4058f9:	ret	
F 0x4071e4
0x4058d4:	add	al, 0
0x4058d6:	xor	eax, eax
0x4058d8:	test	edx, edx
0x4058da:	setle	al
0x4058dd:	lea	eax, [rax + rax - 1]
0x4058e1:	ret	
F 0x407511
0x403016:	ret	
F 0x4071e5
0x4058d5:	add	byte ptr [rcx], dh
0x4058d7:	rol	byte ptr [rbp - 0x3f61f02e], 0x8d
0x4058de:	add	dil, r15b
0x4058e1:	ret	
F 0x407522
0x4058f2:	setg	al
0x4058f5:	lea	eax, [rax + rax - 1]
0x4058f9:	ret	
F 0x4071e6
0x4058d6:	xor	eax, eax
0x4058d8:	test	edx, edx
0x4058da:	setle	al
0x4058dd:	lea	eax, [rax + rax - 1]
0x4058e1:	ret	
F 0x40750f
0x4058df:	add	bh, bh
0x4058e1:	ret	
F 0x4071e7
0x4058d7:	rol	byte ptr [rbp - 0x3f61f02e], 0x8d
0x4058de:	add	dil, r15b
0x4058e1:	ret	
F 0x407568
0x407568:	mov	ecx, dword ptr [rip + 0x45c8e]
0x40756e:	xor	eax, eax
0x407570:	test	ecx, ecx
0x407572:	setg	al
0x407575:	lea	eax, [rax + rax - 1]
0x407579:	ret	
F 0x4071e8
0x4058d8:	test	edx, edx
0x4058da:	setle	al
0x4058dd:	lea	eax, [rax + rax - 1]
0x4058e1:	ret	
F 0x407554
0x4058d4:	add	al, 0
0x4058d6:	xor	eax, eax
0x4058d8:	test	edx, edx
0x4058da:	setle	al
0x4058dd:	lea	eax, [rax + rax - 1]
0x4058e1:	ret	
F 0x4071ea
0x4058da:	setle	al
0x4058dd:	lea	eax, [rax + rax - 1]
0x4058e1:	ret	
F 0x4071ed
0x4058dd:	lea	eax, [rax + rax - 1]
0x4058e1:	ret	
F 0x407572
0x4058f2:	setg	al
0x4058f5:	lea	eax, [rax + rax - 1]
0x4058f9:	ret	
F 0x4071ee
0x4058de:	add	dil, r15b
0x4058e1:	ret	
F 0x4071ef
0x4058df:	add	bh, bh
0x4058e1:	ret	
F 0x40750e
0x4058de:	add	dil, r15b
0x4058e1:	ret	
F 0x404e63
0x404e63:	scasd	eax, dword ptr [rdi]
0x404e64:	add	eax, 0x48393
0x404e69:	ret	
F 0x40b0a2
0x405afb:	pop	rbp
0x405afc:	pop	r14
0x405afe:	pop	r15
0x405b00:	ret	
F 0x40e05d
0x403016:	ret	
F 0x403722
0x403692:	ret	0x1a8
F 0x404e64
0x404e64:	add	eax, 0x48393
0x404e69:	ret	
F 0x407460
0x407460:	mov	edx, dword ptr [rip + 0x45d96]
0x407466:	xor	eax, eax
0x407468:	test	edx, edx
0x40746a:	setle	al
0x40746d:	lea	eax, [rax + rax - 1]
0x407471:	ret	
F 0x40b0a4
0x405afd:	pop	rsi
0x405afe:	pop	r15
0x405b00:	ret	
F 0x404e67
0x404e47:	add	al, 0
0x404e49:	ret	
F 0x40e1e7
0x403016:	ret	
F 0x40e2a8
0x40e2a8:	inc	dword ptr [rbx - 0x6af08e03]
0x40e2ae:	ret	
F 0x404e69
0x403016:	ret	
F 0x410052
0x410052:	add	byte ptr [rax], al
0x410054:	and	ah, 0xdf
0x410057:	mov	dword ptr [rbx + 0xcc], eax
0x41005d:	pop	rbx
0x41005e:	ret	
F 0x4090df
0x4090df:	add	dh, al
0x4090e1:	add	eax, 0x15f9d
0x4090e6:	and	byte ptr [rcx], al
0x4090e8:	ret	
F 0x40765e
0x4058ee:	xor	eax, eax
0x4058f0:	test	ecx, ecx
0x4058f2:	setg	al
0x4058f5:	lea	eax, [rax + rax - 1]
0x4058f9:	ret	
F 0x4099df
0x405aff:	pop	rdi
0x405b00:	ret	
F 0x40765f
0x4058ef:	rol	byte ptr [rbp - 0x3f60f037], 0x8d
0x4058f6:	add	dil, r15b
0x4058f9:	ret	
F 0x407259
0x403016:	ret	
F 0x4099e0
0x403016:	ret	
F 0x407660
0x4058f0:	test	ecx, ecx
0x4058f2:	setg	al
0x4058f5:	lea	eax, [rax + rax - 1]
0x4058f9:	ret	
F 0x407278
0x407228:	add	byte ptr [rdi + 5], bh
0x40722b:	ret	
F 0x409aaf
0x409aaf:	cmp	eax, 0x362eb
0x409ab4:	add	byte ptr [rax - 0x77], cl
0x409ab7:	ret	0x8d48
F 0x40900b
0x403016:	ret	
F 0x40727b
0x403016:	ret	
F 0x407071
0x4058f1:	leave	
0x4058f2:	setg	al
0x4058f5:	lea	eax, [rax + rax - 1]
0x4058f9:	ret	
F 0x407661
0x4058f1:	leave	
0x4058f2:	setg	al
0x4058f5:	lea	eax, [rax + rax - 1]
0x4058f9:	ret	
F 0x407662
0x4058f2:	setg	al
0x4058f5:	lea	eax, [rax + rax - 1]
0x4058f9:	ret	
F 0x407280
0x407280:	mov	edx, dword ptr [rip + 0x45f76]
0x407286:	xor	eax, eax
0x407288:	test	edx, edx
0x40728a:	setle	al
0x40728d:	lea	eax, [rax + rax - 1]
0x407291:	ret	
F 0x409ab4
0x409ab4:	add	byte ptr [rax - 0x77], cl
0x409ab7:	ret	0x8d48
F 0x40706f
0x4058ef:	rol	byte ptr [rbp - 0x3f60f037], 0x8d
0x4058f6:	add	dil, r15b
0x4058f9:	ret	
F 0x407665
0x4058dd:	lea	eax, [rax + rax - 1]
0x4058e1:	ret	
F 0x407070
0x4058f0:	test	ecx, ecx
0x4058f2:	setg	al
0x4058f5:	lea	eax, [rax + rax - 1]
0x4058f9:	ret	
F 0x407666
0x4058de:	add	dil, r15b
0x4058e1:	ret	
F 0x405482
0x404ec7:	pop	rbx
0x404ec8:	pop	rbp
0x404ec9:	ret	
F 0x407068
0x407068:	mov	ecx, dword ptr [rip + 0x4618e]
0x40706e:	xor	eax, eax
0x407070:	test	ecx, ecx
0x407072:	setg	al
0x407075:	lea	eax, [rax + rax - 1]
0x407079:	ret	
F 0x409ab7
0x409ab7:	ret	0x8d48
F 0x407667
0x4058df:	add	bh, bh
0x4058e1:	ret	
F 0x407098
0x406ff8:	add	byte ptr [rax], al
0x406ffa:	add	byte ptr [rdi + 3], bh
0x406ffd:	ret	
F 0x409cb2
0x409cb2:	add	byte ptr [rax], al
0x409cb4:	add	rsp, 0x18
0x409cb8:	pop	rbx
0x409cb9:	pop	rbp
0x409cba:	pop	r12
0x409cbc:	pop	r13
0x409cbe:	ret	
F 0x407669
0x403016:	ret	
F 0x407688
0x406ff8:	add	byte ptr [rax], al
0x406ffa:	add	byte ptr [rdi + 3], bh
0x406ffd:	ret	
F 0x404dd5
0x404dd5:	add	byte ptr [rax], r8b
0x404dd8:	ret	
F 0x409cb4
0x4057c6:	add	rsp, 0x18
0x4057ca:	pop	rbx
0x4057cb:	pop	rbp
0x4057cc:	pop	r12
0x4057ce:	pop	r13
0x4057d0:	ret	
F 0x40768a
0x406ffa:	add	byte ptr [rdi + 3], bh
0x406ffd:	ret	
F 0x409cb7
0x4057c9:	sbb	byte ptr [rbx + 0x5d], bl
0x4057cc:	pop	r12
0x4057ce:	pop	r13
0x4057d0:	ret	
F 0x40768d
0x403016:	ret	
F 0x40706e
0x4058ee:	xor	eax, eax
0x4058f0:	test	ecx, ecx
0x4058f2:	setg	al
0x4058f5:	lea	eax, [rax + rax - 1]
0x4058f9:	ret	
F 0x409cb8
0x4057ca:	pop	rbx
0x4057cb:	pop	rbp
0x4057cc:	pop	r12
0x4057ce:	pop	r13
0x4057d0:	ret	
F 0x407075
0x4058dd:	lea	eax, [rax + rax - 1]
0x4058e1:	ret	
F 0x40768e
0x40768e:	nop	
0x407690:	mov	edx, dword ptr [rip + 0x45b66]
0x407696:	xor	eax, eax
0x407698:	test	edx, edx
0x40769a:	setle	al
0x40769d:	lea	eax, [rax + rax - 1]
0x4076a1:	ret	
F 0x4090e3
0x4090e3:	pop	rdi
0x4090e4:	add	dword ptr [rax], eax
0x4090e6:	and	byte ptr [rcx], al
0x4090e8:	ret	
F 0x409cb9
0x4057cb:	pop	rbp
0x4057cc:	pop	r12
0x4057ce:	pop	r13
0x4057d0:	ret	
F 0x40709a
0x406ffa:	add	byte ptr [rdi + 3], bh
0x406ffd:	ret	
F 0x409cba
0x4057cc:	pop	r12
0x4057ce:	pop	r13
0x4057d0:	ret	
F 0x40768f
0x40768f:	nop	
0x407690:	mov	edx, dword ptr [rip + 0x45b66]
0x407696:	xor	eax, eax
0x407698:	test	edx, edx
0x40769a:	setle	al
0x40769d:	lea	eax, [rax + rax - 1]
0x4076a1:	ret	
F 0x4090e1
0x4090e1:	add	eax, 0x15f9d
0x4090e6:	and	byte ptr [rcx], al
0x4090e8:	ret	
F 0x409cbc
0x4057ce:	pop	r13
0x4057d0:	ret	
F 0x409cbd
0x404e0f:	pop	rbp
0x404e10:	ret	
F 0x4090e2
0x4090e2:	popfq	
0x4090e3:	pop	rdi
0x4090e4:	add	dword ptr [rax], eax
0x4090e6:	and	byte ptr [rcx], al
0x4090e8:	ret	
F 0x407690
0x407690:	mov	edx, dword ptr [rip + 0x45b66]
0x407696:	xor	eax, eax
0x407698:	test	edx, edx
0x40769a:	setle	al
0x40769d:	lea	eax, [rax + rax - 1]
0x4076a1:	ret	
F 0x407077
0x4058df:	add	bh, bh
0x4058e1:	ret	
F 0x409cbe
0x403016:	ret	
F 0x407076
0x4058de:	add	dil, r15b
0x4058e1:	ret	
F 0x409d41
0x409d41:	dec	dword ptr [rax - 0x77]
0x409d44:	ret	0x8548
F 0x404f42
0x404f42:	add	byte ptr [rax], al
0x404f44:	imul	eax, dword ptr [rip + 0x482b1]
0x404f4b:	ret	
F 0x404dd8
0x403016:	ret	
F 0x407691
0x407691:	adc	eax, 0x45b66
0x407696:	xor	eax, eax
0x407698:	test	edx, edx
0x40769a:	setle	al
0x40769d:	lea	eax, [rax + rax - 1]
0x4076a1:	ret	
F 0x407693
0x407643:	pop	rbx
0x407644:	add	al, 0
0x407646:	xor	eax, eax
0x407648:	test	edx, edx
0x40764a:	setle	al
0x40764d:	lea	eax, [rax + rax - 1]
0x407651:	ret	
F 0x409d44
0x409d44:	ret	0x8548
F 0x40705f
0x4058df:	add	bh, bh
0x4058e1:	ret	
F 0x407694
0x4058d4:	add	al, 0
0x4058d6:	xor	eax, eax
0x4058d8:	test	edx, edx
0x4058da:	setle	al
0x4058dd:	lea	eax, [rax + rax - 1]
0x4058e1:	ret	
F 0x4072d0
0x4072d0:	mov	edx, dword ptr [rip + 0x45f26]
0x4072d6:	xor	eax, eax
0x4072d8:	test	edx, edx
0x4072da:	setle	al
0x4072dd:	lea	eax, [rax + rax - 1]
0x4072e1:	ret	
F 0x407072
0x4058f2:	setg	al
0x4058f5:	lea	eax, [rax + rax - 1]
0x4058f9:	ret	
F 0x40a028
0x403c4a:	add	byte ptr [rax - 0x7f], cl
0x403c4d:	ret	
F 0x407695
0x4058d5:	add	byte ptr [rcx], dh
0x4058d7:	rol	byte ptr [rbp - 0x3f61f02e], 0x8d
0x4058de:	add	dil, r15b
0x4058e1:	ret	
F 0x40a02b
0x403016:	ret	
F 0x407696
0x4058d6:	xor	eax, eax
0x4058d8:	test	edx, edx
0x4058da:	setle	al
0x4058dd:	lea	eax, [rax + rax - 1]
0x4058e1:	ret	
F 0x40a044
0x40a044:	mov	ebx, 0x5c415d5b
0x40a049:	pop	r13
0x40a04b:	pop	r14
0x40a04d:	ret	
F 0x407697
0x4058d7:	rol	byte ptr [rbp - 0x3f61f02e], 0x8d
0x4058de:	add	dil, r15b
0x4058e1:	ret	
F 0x408f27
0x408f27:	add	byte ptr [rcx], al
0x408f29:	ret	
F 0x40a045
0x405184:	pop	rbx
0x405185:	pop	rbp
0x405186:	pop	r12
0x405188:	pop	r13
0x40518a:	pop	r14
0x40518c:	ret	
F 0x407698
0x4058d8:	test	edx, edx
0x4058da:	setle	al
0x4058dd:	lea	eax, [rax + rax - 1]
0x4058e1:	ret	
F 0x40a046
0x405185:	pop	rbp
0x405186:	pop	r12
0x405188:	pop	r13
0x40518a:	pop	r14
0x40518c:	ret	
F 0x40782e
0x4058de:	add	dil, r15b
0x4058e1:	ret	
F 0x40769a
0x4058da:	setle	al
0x4058dd:	lea	eax, [rax + rax - 1]
0x4058e1:	ret	
F 0x40a047
0x405186:	pop	r12
0x405188:	pop	r13
0x40518a:	pop	r14
0x40518c:	ret	
F 0x40709d
0x403016:	ret	
F 0x40769d
0x4058dd:	lea	eax, [rax + rax - 1]
0x4058e1:	ret	
F 0x40a049
0x405188:	pop	r13
0x40518a:	pop	r14
0x40518c:	ret	
F 0x40769e
0x4058de:	add	dil, r15b
0x4058e1:	ret	
F 0x404dd6
0x404d96:	add	byte ptr [rax], al
0x404d98:	ret	
F 0x40a04a
0x405189:	pop	rbp
0x40518a:	pop	r14
0x40518c:	ret	
F 0x408fd8
0x403016:	ret	
F 0x40769f
0x4058df:	add	bh, bh
0x4058e1:	ret	
F 0x40a04b
0x40518a:	pop	r14
0x40518c:	ret	
F 0x407326
0x4058d6:	xor	eax, eax
0x4058d8:	test	edx, edx
0x4058da:	setle	al
0x4058dd:	lea	eax, [rax + rax - 1]
0x4058e1:	ret	
F 0x4076a1
0x403016:	ret	
F 0x405483
0x404e0f:	pop	rbp
0x404e10:	ret	
F 0x40a04c
0x40518b:	pop	rsi
0x40518c:	ret	
F 0x4076a6
0x4076a6:	add	byte ptr [rax], al
0x4076a8:	mov	ecx, dword ptr [rip + 0x45b4e]
0x4076ae:	xor	eax, eax
0x4076b0:	test	ecx, ecx
0x4076b2:	setg	al
0x4076b5:	lea	eax, [rax + rax - 1]
0x4076b9:	ret	
F 0x40a04d
0x403016:	ret	
F 0x40a07f
0x403016:	ret	
F 0x408f29
0x403016:	ret	
F 0x40a08e
0x405184:	pop	rbx
0x405185:	pop	rbp
0x405186:	pop	r12
0x405188:	pop	r13
0x40518a:	pop	r14
0x40518c:	ret	
F 0x4076a8
0x4076a8:	mov	ecx, dword ptr [rip + 0x45b4e]
0x4076ae:	xor	eax, eax
0x4076b0:	test	ecx, ecx
0x4076b2:	setg	al
0x4076b5:	lea	eax, [rax + rax - 1]
0x4076b9:	ret	
F 0x409007
0x4087c9:	inc	dword ptr [rcx]
0x4087cb:	ret	
F 0x40a08f
0x405185:	pop	rbp
0x405186:	pop	r12
0x405188:	pop	r13
0x40518a:	pop	r14
0x40518c:	ret	
F 0x40a090
0x405186:	pop	r12
0x405188:	pop	r13
0x40518a:	pop	r14
0x40518c:	ret	
F 0x4076a9
0x4076a9:	or	eax, 0x45b4e
0x4076ae:	xor	eax, eax
0x4076b0:	test	ecx, ecx
0x4076b2:	setg	al
0x4076b5:	lea	eax, [rax + rax - 1]
0x4076b9:	ret	
F 0x407066
0x407066:	add	byte ptr [rax], al
0x407068:	mov	ecx, dword ptr [rip + 0x4618e]
0x40706e:	xor	eax, eax
0x407070:	test	ecx, ecx
0x407072:	setg	al
0x407075:	lea	eax, [rax + rax - 1]
0x407079:	ret	
F 0x40a092
0x405188:	pop	r13
0x40518a:	pop	r14
0x40518c:	ret	
F 0x407069
0x407069:	or	eax, 0x4618e
0x40706e:	xor	eax, eax
0x407070:	test	ecx, ecx
0x407072:	setg	al
0x407075:	lea	eax, [rax + rax - 1]
0x407079:	ret	
F 0x4076aa
0x4076aa:	pop	rbx
0x4076ac:	add	al, 0
0x4076ae:	xor	eax, eax
0x4076b0:	test	ecx, ecx
0x4076b2:	setg	al
0x4076b5:	lea	eax, [rax + rax - 1]
0x4076b9:	ret	
F 0x40a093
0x405189:	pop	rbp
0x40518a:	pop	r14
0x40518c:	ret	
F 0x4076ab
0x40760b:	pop	rbx
0x40760c:	add	al, 0
0x40760e:	xor	eax, eax
0x407610:	test	ecx, ecx
0x407612:	setg	al
0x407615:	lea	eax, [rax + rax - 1]
0x407619:	ret	
F 0x409009
0x403016:	ret	
F 0x40a094
0x40518a:	pop	r14
0x40518c:	ret	
F 0x40706d
0x4058ed:	add	byte ptr [rcx], dh
0x4058ef:	rol	byte ptr [rbp - 0x3f60f037], 0x8d
0x4058f6:	add	dil, r15b
0x4058f9:	ret	
F 0x4076ac
0x4058ec:	add	al, 0
0x4058ee:	xor	eax, eax
0x4058f0:	test	ecx, ecx
0x4058f2:	setg	al
0x4058f5:	lea	eax, [rax + rax - 1]
0x4058f9:	ret	
F 0x4090dd
0x4090dd:	add	byte ptr [rax], al
0x4090df:	add	dh, al
0x4090e1:	add	eax, 0x15f9d
0x4090e6:	and	byte ptr [rcx], al
0x4090e8:	ret	
F 0x40a095
0x40518b:	pop	rsi
0x40518c:	ret	
F 0x4076ad
0x4058ed:	add	byte ptr [rcx], dh
0x4058ef:	rol	byte ptr [rbp - 0x3f60f037], 0x8d
0x4058f6:	add	dil, r15b
0x4058f9:	ret	
F 0x409065
0x408f27:	add	byte ptr [rcx], al
0x408f29:	ret	
F 0x40a096
0x403016:	ret	
F 0x40706c
0x4058ec:	add	al, 0
0x4058ee:	xor	eax, eax
0x4058f0:	test	ecx, ecx
0x4058f2:	setg	al
0x4058f5:	lea	eax, [rax + rax - 1]
0x4058f9:	ret	
F 0x4076ae
0x4058ee:	xor	eax, eax
0x4058f0:	test	ecx, ecx
0x4058f2:	setg	al
0x4058f5:	lea	eax, [rax + rax - 1]
0x4058f9:	ret	
F 0x409067
0x403016:	ret	
F 0x40a24b
0x40a24b:	add	byte ptr [rdi], cl
0x40a24d:	test	dword ptr [rbx + rax], esp
0x40a250:	add	byte ptr [rax], al
0x40a252:	add	rsp, 0x28
0x40a256:	pop	rbp
0x40a257:	pop	r12
0x40a259:	ret	
F 0x407061
0x403016:	ret	
F 0x4094a4
0x403016:	ret	
F 0x409357
0x403016:	ret	
F 0x4076af
0x4058ef:	rol	byte ptr [rbp - 0x3f60f037], 0x8d
0x4058f6:	add	dil, r15b
0x4058f9:	ret	
F 0x40db4d
0x405afb:	pop	rbp
0x405afc:	pop	r14
0x405afe:	pop	r15
0x405b00:	ret	
F 0x407109
0x407109:	or	eax, 0x460ee
0x40710e:	xor	eax, eax
0x407110:	test	ecx, ecx
0x407112:	setg	al
0x407115:	lea	eax, [rax + rax - 1]
0x407119:	ret	
F 0x40a920
0x40a920:	add	dword ptr [rbp + 1], eax
0x40a924:	ret	
F 0x40710d
0x4058ed:	add	byte ptr [rcx], dh
0x4058ef:	rol	byte ptr [rbp - 0x3f60f037], 0x8d
0x4058f6:	add	dil, r15b
0x4058f9:	ret	
F 0x404e5f
0x404e5f:	add	eax, dword ptr [rax]
0x404e61:	add	byte ptr [rdi], cl
0x404e63:	scasd	eax, dword ptr [rdi]
0x404e64:	add	eax, 0x48393
0x404e69:	ret	
F 0x40710f
0x4058ef:	rol	byte ptr [rbp - 0x3f60f037], 0x8d
0x4058f6:	add	dil, r15b
0x4058f9:	ret	
F 0x40b09c
0x405af5:	add	byte ptr [rbx + 0x5d], bl
0x405af8:	pop	r12
0x405afa:	pop	r13
0x405afc:	pop	r14
0x405afe:	pop	r15
0x405b00:	ret	
F 0x41020b
0x41020b:	or	ah, 0x10
0x41020e:	mov	dword ptr [rbx + 0xcc], eax
0x410214:	pop	rbx
0x410215:	ret	
F 0x407117
0x4058df:	add	bh, bh
0x4058e1:	ret	
F 0x407110
0x4058f0:	test	ecx, ecx
0x4058f2:	setg	al
0x4058f5:	lea	eax, [rax + rax - 1]
0x4058f9:	ret	
F 0x41020e
0x41002c:	mov	dword ptr [rbx + 0xcc], eax
0x410032:	pop	rbx
0x410033:	ret	
F 0x40db4c
0x405afa:	pop	r13
0x405afc:	pop	r14
0x405afe:	pop	r15
0x405b00:	ret	
F 0x40713f
0x40713f:	nop	
0x407140:	mov	edx, dword ptr [rip + 0x460b6]
0x407146:	xor	eax, eax
0x407148:	test	edx, edx
0x40714a:	setle	al
0x40714d:	lea	eax, [rax + rax - 1]
0x407151:	ret	
F 0x405200
0x403016:	ret	
F 0x40c22e
0x40c22e:	add	al, 0
0x40c230:	add	rsp, 0x18
0x40c234:	pop	rbx
0x40c235:	pop	rbp
0x40c236:	pop	r12
0x40c238:	pop	r13
0x40c23a:	pop	r14
0x40c23c:	pop	r15
0x40c23e:	ret	
F 0x404f84
0x404f84:	add	eax, 0x48273
0x404f89:	ret	
F 0x4066cc
0x4066cc:	add	al, 2
0x4066ce:	add	rsp, 8
0x4066d2:	pop	rbx
0x4066d3:	pop	rbp
0x4066d4:	pop	r12
0x4066d6:	pop	r13
0x4066d8:	ret	
F 0x405091
0x405091:	add	byte ptr [rdi], cl
0x405093:	scasd	eax, dword ptr [rdi]
0x405094:	add	eax, 0x48163
0x405099:	ret	
F 0x404f3d
0x404f3d:	sub	rax, qword ptr [rdx + 0xd8]
0x404f44:	imul	eax, dword ptr [rip + 0x482b1]
0x404f4b:	ret	
F 0x4075fe
0x4058de:	add	dil, r15b
0x4058e1:	ret	
F 0x407749
0x407749:	or	eax, 0x45aae
0x40774e:	xor	eax, eax
0x407750:	test	ecx, ecx
0x407752:	setg	al
0x407755:	lea	eax, [rax + rax - 1]
0x407759:	ret	
F 0x406a6a
0x405af8:	pop	r12
0x405afa:	pop	r13
0x405afc:	pop	r14
0x405afe:	pop	r15
0x405b00:	ret	
F 0x404f83
0x404f83:	scasd	eax, dword ptr [rdi]
0x404f84:	add	eax, 0x48273
0x404f89:	ret	
F 0x4051ff
0x403016:	ret	
F 0x406a6c
0x405afa:	pop	r13
0x405afc:	pop	r14
0x405afe:	pop	r15
0x405b00:	ret	
F 0x404f87
0x404e47:	add	al, 0
0x404e49:	ret	
F 0x4075fd
0x4058dd:	lea	eax, [rax + rax - 1]
0x4058e1:	ret	
F 0x406a6d
0x405afb:	pop	rbp
0x405afc:	pop	r14
0x405afe:	pop	r15
0x405b00:	ret	
F 0x405092
0x405092:	imul	eax, dword ptr [rip + 0x48163]
0x405099:	ret	
F 0x40c230
0x406a64:	add	rsp, 0x18
0x406a68:	pop	rbx
0x406a69:	pop	rbp
0x406a6a:	pop	r12
0x406a6c:	pop	r13
0x406a6e:	pop	r14
0x406a70:	pop	r15
0x406a72:	ret	
F 0x406a6e
0x405afc:	pop	r14
0x405afe:	pop	r15
0x405b00:	ret	
F 0x404f82
0x404f82:	imul	eax, dword ptr [rip + 0x48273]
0x404f89:	ret	
F 0x4051df
0x4051df:	mov	dword ptr [rax + 0xc8], 0
0x4051e9:	ret	
F 0x40c233
0x406a67:	sbb	byte ptr [rbx + 0x5d], bl
0x406a6a:	pop	r12
0x406a6c:	pop	r13
0x406a6e:	pop	r14
0x406a70:	pop	r15
0x406a72:	ret	
F 0x406a6f
0x405afd:	pop	rsi
0x405afe:	pop	r15
0x405b00:	ret	
F 0x405093
0x405093:	scasd	eax, dword ptr [rdi]
0x405094:	add	eax, 0x48163
0x405099:	ret	
F 0x4077d3
0x407733:	pop	rdx
0x407734:	add	al, 0
0x407736:	xor	eax, eax
0x407738:	test	edx, edx
0x40773a:	setle	al
0x40773d:	lea	eax, [rax + rax - 1]
0x407741:	ret	
F 0x40c234
0x405af6:	pop	rbx
0x405af7:	pop	rbp
0x405af8:	pop	r12
0x405afa:	pop	r13
0x405afc:	pop	r14
0x405afe:	pop	r15
0x405b00:	ret	
F 0x404f96
0x404f96:	mov	eax, dword ptr [rax + 0x360]
0x404f9c:	sub	eax, dword ptr [rdx + 0x360]
0x404fa2:	imul	eax, dword ptr [rip + 0x48253]
0x404fa9:	ret	
F 0x406667
0x406667:	add	byte ptr [rax], al
0x406669:	mov	eax, r12d
0x40666c:	pop	r12
0x40666e:	ret	
F 0x40c235
0x405af7:	pop	rbp
0x405af8:	pop	r12
0x405afa:	pop	r13
0x405afc:	pop	r14
0x405afe:	pop	r15
0x405b00:	ret	
F 0x406a71
0x405aff:	pop	rdi
0x405b00:	ret	
F 0x40c236
0x405af8:	pop	r12
0x405afa:	pop	r13
0x405afc:	pop	r14
0x405afe:	pop	r15
0x405b00:	ret	
F 0x405094
0x405094:	add	eax, 0x48163
0x405099:	ret	
F 0x407733
0x407733:	pop	rdx
0x407734:	add	al, 0
0x407736:	xor	eax, eax
0x407738:	test	edx, edx
0x40773a:	setle	al
0x40773d:	lea	eax, [rax + rax - 1]
0x407741:	ret	
F 0x406a72
0x403016:	ret	
F 0x405097
0x404e47:	add	al, 0
0x404e49:	ret	
F 0x4075e2
0x4075e2:	add	byte ptr [rdi + 0xb], dh
0x4075e5:	ret	
F 0x40c238
0x405afa:	pop	r13
0x405afc:	pop	r14
0x405afe:	pop	r15
0x405b00:	ret	
F 0x405099
0x403016:	ret	
F 0x406b13
0x406b13:	mov	dh, 0x45
0x406b15:	add	byte ptr [rax + rax*8 + 0xf493e74], al
0x406b1c:	mov	esi, 0x89480704
0x406b21:	ret	
F 0x4050a6
0x4050a6:	mov	eax, dword ptr [rax + 0x37c]
0x4050ac:	sub	eax, dword ptr [rdx + 0x37c]
0x4050b2:	imul	eax, dword ptr [rip + 0x48143]
0x4050b9:	ret	
F 0x407734
0x4058d4:	add	al, 0
0x4058d6:	xor	eax, eax
0x4058d8:	test	edx, edx
0x4058da:	setle	al
0x4058dd:	lea	eax, [rax + rax - 1]
0x4058e1:	ret	
F 0x4077d4
0x4058d4:	add	al, 0
0x4058d6:	xor	eax, eax
0x4058d8:	test	edx, edx
0x4058da:	setle	al
0x4058dd:	lea	eax, [rax + rax - 1]
0x4058e1:	ret	
F 0x40c239
0x405afb:	pop	rbp
0x405afc:	pop	r14
0x405afe:	pop	r15
0x405b00:	ret	
F 0x4051e5
0x404d94:	add	byte ptr [rax], al
0x404d96:	add	byte ptr [rax], al
0x404d98:	ret	
F 0x40c23a
0x405afc:	pop	r14
0x405afe:	pop	r15
0x405b00:	ret	
F 0x406b14
0x406b14:	add	byte ptr [r8 + rax*8 + 0xf493e74], r8b
0x406b1c:	mov	esi, 0x89480704
0x406b21:	ret	
F 0x404f7a
0x404f7a:	add	byte ptr [rax], al
0x404f7c:	sub	eax, dword ptr [rdx + 0x364]
0x404f82:	imul	eax, dword ptr [rip + 0x48273]
0x404f89:	ret	
F 0x405210
0x404d96:	add	byte ptr [rax], al
0x404d98:	ret	
F 0x4076ff
0x4058ef:	rol	byte ptr [rbp - 0x3f60f037], 0x8d
0x4058f6:	add	dil, r15b
0x4058f9:	ret	
F 0x4067ec
0x4067ec:	xor	eax, eax
0x4067ee:	add	rsp, 8
0x4067f2:	pop	rbx
0x4067f3:	pop	rbp
0x4067f4:	pop	r12
0x4067f6:	pop	r13
0x4067f8:	ret	
F 0x4050f0
0x403016:	ret	
F 0x4076f6
0x4076f6:	add	byte ptr [rax], al
0x4076f8:	mov	ecx, dword ptr [rip + 0x45afe]
0x4076fe:	xor	eax, eax
0x407700:	test	ecx, ecx
0x407702:	setg	al
0x407705:	lea	eax, [rax + rax - 1]
0x407709:	ret	
F 0x40704a
0x40704a:	add	byte ptr [rdi + 3], dh
0x40704d:	ret	
F 0x407021
0x4058f1:	leave	
0x4058f2:	setg	al
0x4058f5:	lea	eax, [rax + rax - 1]
0x4058f9:	ret	
F 0x40760c
0x4058ec:	add	al, 0
0x4058ee:	xor	eax, eax
0x4058f0:	test	ecx, ecx
0x4058f2:	setg	al
0x4058f5:	lea	eax, [rax + rax - 1]
0x4058f9:	ret	
F 0x4077c7
0x403016:	ret	
F 0x40adf8
0x403016:	ret	
F 0x4063e7
0x405af8:	pop	r12
0x405afa:	pop	r13
0x405afc:	pop	r14
0x405afe:	pop	r15
0x405b00:	ret	
F 0x407752
0x4058f2:	setg	al
0x4058f5:	lea	eax, [rax + rax - 1]
0x4058f9:	ret	
F 0x405211
0x405211:	add	bl, al
0x405213:	nop	dword ptr [rax + rax]
0x405218:	mov	dword ptr [rax + 0xc8], 0x12
0x405222:	ret	
F 0x4075a7
0x4058d7:	rol	byte ptr [rbp - 0x3f61f02e], 0x8d
0x4058de:	add	dil, r15b
0x4058e1:	ret	
F 0x40520f
0x40520f:	add	byte ptr [rax], al
0x405211:	add	bl, al
0x405213:	nop	dword ptr [rax + rax]
0x405218:	mov	dword ptr [rax + 0xc8], 0x12
0x405222:	ret	
F 0x4075b8
0x4075b8:	mov	ecx, dword ptr [rip + 0x45c3e]
0x4075be:	xor	eax, eax
0x4075c0:	test	ecx, ecx
0x4075c2:	setg	al
0x4075c5:	lea	eax, [rax + rax - 1]
0x4075c9:	ret	
F 0x407799
0x407799:	or	eax, 0x45a5e
0x40779e:	xor	eax, eax
0x4077a0:	test	ecx, ecx
0x4077a2:	setg	al
0x4077a5:	lea	eax, [rax + rax - 1]
0x4077a9:	ret	
F 0x407757
0x4058df:	add	bh, bh
0x4058e1:	ret	
F 0x4076fb
0x4076fb:	pop	rdx
0x4076fc:	add	al, 0
0x4076fe:	xor	eax, eax
0x407700:	test	ecx, ecx
0x407702:	setg	al
0x407705:	lea	eax, [rax + rax - 1]
0x407709:	ret	
F 0x407700
0x4058f0:	test	ecx, ecx
0x4058f2:	setg	al
0x4058f5:	lea	eax, [rax + rax - 1]
0x4058f9:	ret	
F 0x4074bd
0x4058dd:	lea	eax, [rax + rax - 1]
0x4058e1:	ret	
F 0x40517d
0x403016:	ret	
F 0x407606
0x407606:	add	byte ptr [rax], al
0x407608:	mov	ecx, dword ptr [rip + 0x45bee]
0x40760e:	xor	eax, eax
0x407610:	test	ecx, ecx
0x407612:	setg	al
0x407615:	lea	eax, [rax + rax - 1]
0x407619:	ret	
F 0x407756
0x4058de:	add	dil, r15b
0x4058e1:	ret	
F 0x404ec9
0x403016:	ret	
F 0x408af8
0x408af8:	or	dword ptr [rax], eax
0x408afa:	add	byte ptr [rbx + 0x5d], bl
0x408afd:	pop	r12
0x408aff:	pop	r13
0x408b01:	ret	
F 0x4063e6
0x405af7:	pop	rbp
0x405af8:	pop	r12
0x405afa:	pop	r13
0x405afc:	pop	r14
0x405afe:	pop	r15
0x405b00:	ret	
F 0x4066d4
0x4057cc:	pop	r12
0x4057ce:	pop	r13
0x4057d0:	ret	
F 0x40760e
0x4058ee:	xor	eax, eax
0x4058f0:	test	ecx, ecx
0x4058f2:	setg	al
0x4058f5:	lea	eax, [rax + rax - 1]
0x4058f9:	ret	
F 0x40a952
0x403016:	ret	
F 0x407778
0x407048:	add	byte ptr [rax], al
0x40704a:	add	byte ptr [rdi + 3], dh
0x40704d:	ret	
F 0x4075a6
0x4058d6:	xor	eax, eax
0x4058d8:	test	edx, edx
0x4058da:	setle	al
0x4058dd:	lea	eax, [rax + rax - 1]
0x4058e1:	ret	
F 0x408af7
0x408af7:	sbb	byte ptr [rcx], cl
0x408af9:	add	byte ptr [rax], al
0x408afb:	pop	rbx
0x408afc:	pop	rbp
0x408afd:	pop	r12
0x408aff:	pop	r13
0x408b01:	ret	
F 0x407751
0x4058f1:	leave	
0x4058f2:	setg	al
0x4058f5:	lea	eax, [rax + rax - 1]
0x4058f9:	ret	
F 0x405860
0x405860:	cmovs	eax, dword ptr [rbx + 0x5d5b08c4]
0x405867:	ret	
F 0x404ec8
0x404e0f:	pop	rbp
0x404e10:	ret	
F 0x4050ee
0x404ff9:	mov	eax, eax
0x404ffb:	ret	
F 0x407609
0x407609:	or	eax, 0x45bee
0x40760e:	xor	eax, eax
0x407610:	test	ecx, ecx
0x407612:	setg	al
0x407615:	lea	eax, [rax + rax - 1]
0x407619:	ret	
F 0x41011f
0x41011f:	movabs	dword ptr [0xffbf7fff000000cc], eax
0x410128:	pop	rbx
0x410129:	ret	
F 0x40ee9c
0x405afa:	pop	r13
0x405afc:	pop	r14
0x405afe:	pop	r15
0x405b00:	ret	
F 0x40701e
0x4058ee:	xor	eax, eax
0x4058f0:	test	ecx, ecx
0x4058f2:	setg	al
0x4058f5:	lea	eax, [rax + rax - 1]
0x4058f9:	ret	
F 0x4066d7
0x404e0f:	pop	rbp
0x404e10:	ret	
F 0x4077a6
0x4058de:	add	dil, r15b
0x4058e1:	ret	
F 0x404ec7
0x404ec7:	pop	rbx
0x404ec8:	pop	rbp
0x404ec9:	ret	
F 0x407022
0x4058f2:	setg	al
0x4058f5:	lea	eax, [rax + rax - 1]
0x4058f9:	ret	
F 0x40665d
0x40665d:	add	byte ptr [rax], al
0x40665f:	add	byte ptr [rbp + 0x15], dh
0x406662:	add	rsp, 0x90
0x406669:	mov	eax, r12d
0x40666c:	pop	r12
0x40666e:	ret	
F 0x407702
0x4058f2:	setg	al
0x4058f5:	lea	eax, [rax + rax - 1]
0x4058f9:	ret	
F 0x407027
0x4058df:	add	bh, bh
0x4058e1:	ret	
F 0x4067ee
0x4066ce:	add	rsp, 8
0x4066d2:	pop	rbx
0x4066d3:	pop	rbp
0x4066d4:	pop	r12
0x4066d6:	pop	r13
0x4066d8:	ret	
F 0x40ee9d
0x405afb:	pop	rbp
0x405afc:	pop	r14
0x405afe:	pop	r15
0x405b00:	ret	
F 0x407610
0x4058f0:	test	ecx, ecx
0x4058f2:	setg	al
0x4058f5:	lea	eax, [rax + rax - 1]
0x4058f9:	ret	
F 0x40adf3
0x405afb:	pop	rbp
0x405afc:	pop	r14
0x405afe:	pop	r15
0x405b00:	ret	
F 0x40adf2
0x405afa:	pop	r13
0x405afc:	pop	r14
0x405afe:	pop	r15
0x405b00:	ret	
F 0x4075a5
0x4058d5:	add	byte ptr [rcx], dh
0x4058d7:	rol	byte ptr [rbp - 0x3f61f02e], 0x8d
0x4058de:	add	dil, r15b
0x4058e1:	ret	
F 0x40665f
0x40665f:	add	byte ptr [rbp + 0x15], dh
0x406662:	add	rsp, 0x90
0x406669:	mov	eax, r12d
0x40666c:	pop	r12
0x40666e:	ret	
F 0x407489
0x403016:	ret	
F 0x4063e5
0x405af6:	pop	rbx
0x405af7:	pop	rbp
0x405af8:	pop	r12
0x405afa:	pop	r13
0x405afc:	pop	r14
0x405afe:	pop	r15
0x405b00:	ret	
F 0x4101e7
0x4101e7:	test	eax, 0x400000
0x4101ec:	cmove	eax, edx
0x4101ef:	or	ah, 0x20
0x4101f2:	mov	dword ptr [rbx + 0xcc], eax
0x4101f8:	pop	rbx
0x4101f9:	ret	
F 0x40e8cf
0x40e2ad:	xchg	eax, ebp
0x40e2ae:	ret	
F 0x4087cd
0x403016:	ret	
F 0x4076ef
0x4058df:	add	bh, bh
0x4058e1:	ret	
F 0x407705
0x4058dd:	lea	eax, [rax + rax - 1]
0x4058e1:	ret	
F 0x407487
0x4058df:	add	bh, bh
0x4058e1:	ret	
F 0x4075b9
0x4075b9:	or	eax, 0x45c3e
0x4075be:	xor	eax, eax
0x4075c0:	test	ecx, ecx
0x4075c2:	setg	al
0x4075c5:	lea	eax, [rax + rax - 1]
0x4075c9:	ret	
F 0x4076ee
0x4058de:	add	dil, r15b
0x4058e1:	ret	
F 0x405212
0x403016:	ret	
F 0x4074ba
0x4058da:	setle	al
0x4058dd:	lea	eax, [rax + rax - 1]
0x4058e1:	ret	
F 0x40701f
0x4058ef:	rol	byte ptr [rbp - 0x3f60f037], 0x8d
0x4058f6:	add	dil, r15b
0x4058f9:	ret	
F 0x4075a1
0x4075a1:	adc	eax, 0x45c56
0x4075a6:	xor	eax, eax
0x4075a8:	test	edx, edx
0x4075aa:	setle	al
0x4075ad:	lea	eax, [rax + rax - 1]
0x4075b1:	ret	
F 0x4087cb
0x403016:	ret	
F 0x40a932
0x409ab7:	ret	0x8d48
F 0x4075bc
0x4058ec:	add	al, 0
0x4058ee:	xor	eax, eax
0x4058f0:	test	ecx, ecx
0x4058f2:	setg	al
0x4058f5:	lea	eax, [rax + rax - 1]
0x4058f9:	ret	
F 0x4075a4
0x4058d4:	add	al, 0
0x4058d6:	xor	eax, eax
0x4058d8:	test	edx, edx
0x4058da:	setle	al
0x4058dd:	lea	eax, [rax + rax - 1]
0x4058e1:	ret	
F 0x407026
0x4058de:	add	dil, r15b
0x4058e1:	ret	
F 0x40a9e6
0x40a9e6:	or	byte ptr [rbp + 1], al
0x40a9e9:	ret	
F 0x407611
0x4058f1:	leave	
0x4058f2:	setg	al
0x4058f5:	lea	eax, [rax + rax - 1]
0x4058f9:	ret	
F 0x40701d
0x4058ed:	add	byte ptr [rcx], dh
0x4058ef:	rol	byte ptr [rbp - 0x3f60f037], 0x8d
0x4058f6:	add	dil, r15b
0x4058f9:	ret	
F 0x4063e4
0x4063e4:	sub	byte ptr [rbx + 0x5d], bl
0x4063e7:	pop	r12
0x4063e9:	pop	r13
0x4063eb:	pop	r14
0x4063ed:	pop	r15
0x4063ef:	ret	
F 0x405213
0x405213:	nop	dword ptr [rax + rax]
0x405218:	mov	dword ptr [rax + 0xc8], 0x12
0x405222:	ret	
F 0x4074b7
0x4058d7:	rol	byte ptr [rbp - 0x3f61f02e], 0x8d
0x4058de:	add	dil, r15b
0x4058e1:	ret	
F 0x4156fb
0x403016:	ret	
F 0x4074b4
0x4058d4:	add	al, 0
0x4058d6:	xor	eax, eax
0x4058d8:	test	edx, edx
0x4058da:	setle	al
0x4058dd:	lea	eax, [rax + rax - 1]
0x4058e1:	ret	
F 0x415709
0x415709:	inc	dword ptr [rbp + 0x5b0275c0]
0x41570f:	ret	
F 0x4074b8
0x4058d8:	test	edx, edx
0x4058da:	setle	al
0x4058dd:	lea	eax, [rax + rax - 1]
0x4058e1:	ret	
F 0x40ab1a
0x403016:	ret	
F 0x40570a
0x40570a:	imul	eax, dword ptr [rip + 0x47aeb]
0x405711:	add	rsp, 8
0x405715:	ret	
F 0x4074b2
0x4074b2:	pop	rbp
0x4074b4:	add	al, 0
0x4074b6:	xor	eax, eax
0x4074b8:	test	edx, edx
0x4074ba:	setle	al
0x4074bd:	lea	eax, [rax + rax - 1]
0x4074c1:	ret	
F 0x405861
0x404ec3:	add	rsp, 8
0x404ec7:	pop	rbx
0x404ec8:	pop	rbp
0x404ec9:	ret	
F 0x4063e1
0x4063e1:	add	rsp, 0x28
0x4063e5:	pop	rbx
0x4063e6:	pop	rbp
0x4063e7:	pop	r12
0x4063e9:	pop	r13
0x4063eb:	pop	r14
0x4063ed:	pop	r15
0x4063ef:	ret	
F 0x41568b
0x403016:	ret	
F 0x4074b6
0x4058d6:	xor	eax, eax
0x4058d8:	test	edx, edx
0x4058da:	setle	al
0x4058dd:	lea	eax, [rax + rax - 1]
0x4058e1:	ret	
F 0x4075ae
0x4058de:	add	dil, r15b
0x4058e1:	ret	
F 0x4100f3
0x403016:	ret	
F 0x40ee9a
0x405af8:	pop	r12
0x405afa:	pop	r13
0x405afc:	pop	r14
0x405afe:	pop	r15
0x405b00:	ret	
F 0x4087c9
0x4087c9:	inc	dword ptr [rcx]
0x4087cb:	ret	
F 0x4050ed
0x4050ed:	mov	rax, r8
0x4050f0:	ret	
F 0x4075bd
0x4058ed:	add	byte ptr [rcx], dh
0x4058ef:	rol	byte ptr [rbp - 0x3f60f037], 0x8d
0x4058f6:	add	dil, r15b
0x4058f9:	ret	
F 0x405188
0x405188:	pop	r13
0x40518a:	pop	r14
0x40518c:	ret	
F 0x404ec6
0x404ec6:	or	byte ptr [rbx + 0x5d], bl
0x404ec9:	ret	
F 0x4076fc
0x4058ec:	add	al, 0
0x4058ee:	xor	eax, eax
0x4058f0:	test	ecx, ecx
0x4058f2:	setg	al
0x4058f5:	lea	eax, [rax + rax - 1]
0x4058f9:	ret	
F 0x4067f1
0x4066d1:	or	byte ptr [rbx + 0x5d], bl
0x4066d4:	pop	r12
0x4066d6:	pop	r13
0x4066d8:	ret	
F 0x40ee99
0x405af7:	pop	rbp
0x405af8:	pop	r12
0x405afa:	pop	r13
0x405afc:	pop	r14
0x405afe:	pop	r15
0x405b00:	ret	
F 0x4075b1
0x403016:	ret	
F 0x4074b1
0x4074b1:	adc	eax, 0x45d46
0x4074b6:	xor	eax, eax
0x4074b8:	test	edx, edx
0x4074ba:	setle	al
0x4074bd:	lea	eax, [rax + rax - 1]
0x4074c1:	ret	
F 0x415664
0x403016:	ret	
F 0x4063ed
0x405afe:	pop	r15
0x405b00:	ret	
F 0x4101e6
0x4101e6:	sub	byte ptr [rcx + 0x400000], 0xf
0x4101ed:	ret	0xcc80
F 0x404ec3
0x404ec3:	add	rsp, 8
0x404ec7:	pop	rbx
0x404ec8:	pop	rbp
0x404ec9:	ret	
F 0x4075af
0x4058df:	add	bh, bh
0x4058e1:	ret	
F 0x41011e
0x41011e:	and	dword ptr [rbx + 0xcc], 0xffbf7fff
0x410128:	pop	rbx
0x410129:	ret	
F 0x4074b5
0x4058d5:	add	byte ptr [rcx], dh
0x4058d7:	rol	byte ptr [rbp - 0x3f61f02e], 0x8d
0x4058de:	add	dil, r15b
0x4058e1:	ret	
F 0x407701
0x4058f1:	leave	
0x4058f2:	setg	al
0x4058f5:	lea	eax, [rax + rax - 1]
0x4058f9:	ret	
F 0x4063ee
0x405aff:	pop	rdi
0x405b00:	ret	
F 0x405184
0x405184:	pop	rbx
0x405185:	pop	rbp
0x405186:	pop	r12
0x405188:	pop	r13
0x40518a:	pop	r14
0x40518c:	ret	
F 0x40ee98
0x405af6:	pop	rbx
0x405af7:	pop	rbp
0x405af8:	pop	r12
0x405afa:	pop	r13
0x405afc:	pop	r14
0x405afe:	pop	r15
0x405b00:	ret	
F 0x407025
0x4058dd:	lea	eax, [rax + rax - 1]
0x4058e1:	ret	
F 0x4074b3
0x407413:	pop	rbp
0x407414:	add	al, 0
0x407416:	xor	eax, eax
0x407418:	test	edx, edx
0x40741a:	setle	al
0x40741d:	lea	eax, [rax + rax - 1]
0x407421:	ret	
F 0x408af9
0x408af9:	add	byte ptr [rax], al
0x408afb:	pop	rbx
0x408afc:	pop	rbp
0x408afd:	pop	r12
0x408aff:	pop	r13
0x408b01:	ret	
F 0x40ed01
0x403016:	ret	
F 0x407759
0x403016:	ret	
F 0x4063ec
0x405afd:	pop	rsi
0x405afe:	pop	r15
0x405b00:	ret	
F 0x40760f
0x4058ef:	rol	byte ptr [rbp - 0x3f60f037], 0x8d
0x4058f6:	add	dil, r15b
0x4058f9:	ret	
F 0x40a96c
0x403016:	ret	
F 0x407020
0x4058f0:	test	ecx, ecx
0x4058f2:	setg	al
0x4058f5:	lea	eax, [rax + rax - 1]
0x4058f9:	ret	
F 0x4063ea
0x405afb:	pop	rbp
0x405afc:	pop	r14
0x405afe:	pop	r15
0x405b00:	ret	
F 0x405186
0x405186:	pop	r12
0x405188:	pop	r13
0x40518a:	pop	r14
0x40518c:	ret	
F 0x40ee97
0x40aded:	cmp	byte ptr [rbx + 0x5d], bl
0x40adf0:	pop	r12
0x40adf2:	pop	r13
0x40adf4:	pop	r14
0x40adf6:	pop	r15
0x40adf8:	ret	
F 0x40773e
0x4058de:	add	dil, r15b
0x4058e1:	ret	
F 0x407504
0x4058d4:	add	al, 0
0x4058d6:	xor	eax, eax
0x4058d8:	test	edx, edx
0x4058da:	setle	al
0x4058dd:	lea	eax, [rax + rax - 1]
0x4058e1:	ret	
F 0x40c43c
0x40c43c:	pop	r15
0x40c43e:	pop	rbp
0x40c43f:	ret	
F 0x407207
0x4058df:	add	bh, bh
0x4058e1:	ret	
F 0x4077dd
0x4058dd:	lea	eax, [rax + rax - 1]
0x4058e1:	ret	
F 0x410517
0x403016:	ret	
F 0x40c43d
0x40c43d:	pop	rdi
0x40c43e:	pop	rbp
0x40c43f:	ret	
F 0x407209
0x403016:	ret	
F 0x40666a
0x40666a:	mov	eax, esp
0x40666c:	pop	r12
0x40666e:	ret	
F 0x4070ee
0x4070ee:	nop	
0x4070f0:	mov	edx, dword ptr [rip + 0x46106]
0x4070f6:	xor	eax, eax
0x4070f8:	test	edx, edx
0x4070fa:	setle	al
0x4070fd:	lea	eax, [rax + rax - 1]
0x407101:	ret	
F 0x406b45
0x406b45:	mov	eax, eax
0x406b47:	pop	rbx
0x406b48:	pop	rbp
0x406b49:	pop	r12
0x406b4b:	pop	r13
0x406b4d:	pop	r14
0x406b4f:	pop	r15
0x406b51:	ret	
F 0x407502
0x407502:	neg	byte ptr [rsp + rax]
0x407506:	xor	eax, eax
0x407508:	test	edx, edx
0x40750a:	setle	al
0x40750d:	lea	eax, [rax + rax - 1]
0x407511:	ret	
F 0x4050af
0x4050af:	add	eax, dword ptr [rax]
0x4050b1:	add	byte ptr [rdi], cl
0x4050b3:	scasd	eax, dword ptr [rdi]
0x4050b4:	add	eax, 0x48143
0x4050b9:	ret	
F 0x410686
0x410686:	add	byte ptr [rax], 0
0x410689:	add	byte ptr [rax - 0x47], cl
0x41068c:	ret	
F 0x4075f1
0x4075f1:	adc	eax, 0x45c06
0x4075f6:	xor	eax, eax
0x4075f8:	test	edx, edx
0x4075fa:	setle	al
0x4075fd:	lea	eax, [rax + rax - 1]
0x407601:	ret	
F 0x407226
0x407226:	add	byte ptr [rax], al
0x407228:	add	byte ptr [rdi + 5], bh
0x40722b:	ret	
F 0x40773f
0x4058df:	add	bh, bh
0x4058e1:	ret	
F 0x407501
0x407501:	adc	eax, 0x45cf6
0x407506:	xor	eax, eax
0x407508:	test	edx, edx
0x40750a:	setle	al
0x40750d:	lea	eax, [rax + rax - 1]
0x407511:	ret	
F 0x4051fa
0x4051fa:	add	byte ptr [rax + rax], dl
0x4051fd:	add	byte ptr [rax], al
0x4051ff:	ret	
F 0x407500
0x407500:	mov	edx, dword ptr [rip + 0x45cf6]
0x407506:	xor	eax, eax
0x407508:	test	edx, edx
0x40750a:	setle	al
0x40750d:	lea	eax, [rax + rax - 1]
0x407511:	ret	
F 0x407106
0x407106:	add	byte ptr [rax], al
0x407108:	mov	ecx, dword ptr [rip + 0x460ee]
0x40710e:	xor	eax, eax
0x407110:	test	ecx, ecx
0x407112:	setg	al
0x407115:	lea	eax, [rax + rax - 1]
0x407119:	ret	
F 0x40c43e
0x404e0f:	pop	rbp
0x404e10:	ret	
F 0x4050b0
0x4050b0:	add	byte ptr [rax], al
0x4050b2:	imul	eax, dword ptr [rip + 0x48143]
0x4050b9:	ret	
F 0x407228
0x407228:	add	byte ptr [rdi + 5], bh
0x40722b:	ret	
F 0x4074ff
0x4074ff:	nop	
0x407500:	mov	edx, dword ptr [rip + 0x45cf6]
0x407506:	xor	eax, eax
0x407508:	test	edx, edx
0x40750a:	setle	al
0x40750d:	lea	eax, [rax + rax - 1]
0x407511:	ret	
F 0x40c43f
0x403016:	ret	
F 0x40c469
0x403016:	ret	
F 0x4070f7
0x4058d7:	rol	byte ptr [rbp - 0x3f61f02e], 0x8d
0x4058de:	add	dil, r15b
0x4058e1:	ret	
F 0x40666c
0x405f66:	pop	r12
0x405f68:	ret	
F 0x410687
0x410687:	add	byte ptr [rax], al
0x410689:	add	byte ptr [rax - 0x47], cl
0x41068c:	ret	
F 0x406b47
0x405af6:	pop	rbx
0x405af7:	pop	rbp
0x405af8:	pop	r12
0x405afa:	pop	r13
0x405afc:	pop	r14
0x405afe:	pop	r15
0x405b00:	ret	
F 0x4050b1
0x4050b1:	add	byte ptr [rdi], cl
0x4050b3:	scasd	eax, dword ptr [rdi]
0x4050b4:	add	eax, 0x48143
0x4050b9:	ret	
F 0x40722b
0x403016:	ret	
F 0x4075f4
0x4058d4:	add	al, 0
0x4058d6:	xor	eax, eax
0x4058d8:	test	edx, edx
0x4058da:	setle	al
0x4058dd:	lea	eax, [rax + rax - 1]
0x4058e1:	ret	
F 0x407230
0x407230:	mov	edx, dword ptr [rip + 0x45fc6]
0x407236:	xor	eax, eax
0x407238:	test	edx, edx
0x40723a:	setle	al
0x40723d:	lea	eax, [rax + rax - 1]
0x407241:	ret	
F 0x40c4f7
0x40c4f7:	pop	rdx
0x40c4f8:	sal	dl, 0xf
0x40c4fb:	pop	rcx
0x40c4fc:	ret	0x348
F 0x40666e
0x403016:	ret	
F 0x407108
0x407108:	mov	ecx, dword ptr [rip + 0x460ee]
0x40710e:	xor	eax, eax
0x407110:	test	ecx, ecx
0x407112:	setg	al
0x407115:	lea	eax, [rax + rax - 1]
0x407119:	ret	
F 0x406b48
0x405af7:	pop	rbp
0x405af8:	pop	r12
0x405afa:	pop	r13
0x405afc:	pop	r14
0x405afe:	pop	r15
0x405b00:	ret	
F 0x404f7c
0x404f7c:	sub	eax, dword ptr [rdx + 0x364]
0x404f82:	imul	eax, dword ptr [rip + 0x48273]
0x404f89:	ret	
F 0x4074fe
0x4074fe:	nop	
0x407500:	mov	edx, dword ptr [rip + 0x45cf6]
0x407506:	xor	eax, eax
0x407508:	test	edx, edx
0x40750a:	setle	al
0x40750d:	lea	eax, [rax + rax - 1]
0x407511:	ret	
F 0x4070f6
0x4058d6:	xor	eax, eax
0x4058d8:	test	edx, edx
0x4058da:	setle	al
0x4058dd:	lea	eax, [rax + rax - 1]
0x4058e1:	ret	
F 0x4075f5
0x4058d5:	add	byte ptr [rcx], dh
0x4058d7:	rol	byte ptr [rbp - 0x3f61f02e], 0x8d
0x4058de:	add	dil, r15b
0x4058e1:	ret	
F 0x4074fd
0x403016:	ret	
F 0x40c4f8
0x40c4f8:	sal	dl, 0xf
0x40c4fb:	pop	rcx
0x40c4fc:	ret	0x348
F 0x4070fa
0x4058da:	setle	al
0x4058dd:	lea	eax, [rax + rax - 1]
0x4058e1:	ret	
F 0x407741
0x403016:	ret	
F 0x407231
0x407231:	adc	eax, 0x45fc6
0x407236:	xor	eax, eax
0x407238:	test	edx, edx
0x40723a:	setle	al
0x40723d:	lea	eax, [rax + rax - 1]
0x407241:	ret	
F 0x40300a
0x40300a:	add	byte ptr [rax - 0x7b], cl
0x40300d:	sal	byte ptr [rdx + rax - 1], 0xd0
0x403012:	add	rsp, 8
0x403016:	ret	
F 0x410689
0x410689:	add	byte ptr [rax - 0x47], cl
0x41068c:	ret	
F 0x4074fa
0x40704a:	add	byte ptr [rdi + 3], dh
0x40704d:	ret	
F 0x4066c8
0x4066c8:	add	dword ptr [rax], eax
0x4066ca:	movsx	eax, byte ptr [rdx + rax]
0x4066ce:	add	rsp, 8
0x4066d2:	pop	rbx
0x4066d3:	pop	rbp
0x4066d4:	pop	r12
0x4066d6:	pop	r13
0x4066d8:	ret	
F 0x407233
0x407233:	pop	rdi
0x407234:	add	al, 0
0x407236:	xor	eax, eax
0x407238:	test	edx, edx
0x40723a:	setle	al
0x40723d:	lea	eax, [rax + rax - 1]
0x407241:	ret	
F 0x4070f4
0x4058d4:	add	al, 0
0x4058d6:	xor	eax, eax
0x4058d8:	test	edx, edx
0x4058da:	setle	al
0x4058dd:	lea	eax, [rax + rax - 1]
0x4058e1:	ret	
F 0x4074f8
0x407048:	add	byte ptr [rax], al
0x40704a:	add	byte ptr [rdi + 3], dh
0x40704d:	ret	
F 0x4050b2
0x4050b2:	imul	eax, dword ptr [rip + 0x48143]
0x4050b9:	ret	
F 0x4070f1
0x4070f1:	adc	eax, 0x46106
0x4070f6:	xor	eax, eax
0x4070f8:	test	edx, edx
0x4070fa:	setle	al
0x4070fd:	lea	eax, [rax + rax - 1]
0x407101:	ret	
F 0x407234
0x4058d4:	add	al, 0
0x4058d6:	xor	eax, eax
0x4058d8:	test	edx, edx
0x4058da:	setle	al
0x4058dd:	lea	eax, [rax + rax - 1]
0x4058e1:	ret	
F 0x406b49
0x405af8:	pop	r12
0x405afa:	pop	r13
0x405afc:	pop	r14
0x405afe:	pop	r15
0x405b00:	ret	
F 0x41068c
0x403016:	ret	
F 0x4050b3
0x4050b3:	scasd	eax, dword ptr [rdi]
0x4050b4:	add	eax, 0x48143
0x4050b9:	ret	
F 0x4074d9
0x403016:	ret	
F 0x4075f6
0x4058d6:	xor	eax, eax
0x4058d8:	test	edx, edx
0x4058da:	setle	al
0x4058dd:	lea	eax, [rax + rax - 1]
0x4058e1:	ret	
F 0x4070f5
0x4058d5:	add	byte ptr [rcx], dh
0x4058d7:	rol	byte ptr [rbp - 0x3f61f02e], 0x8d
0x4058de:	add	dil, r15b
0x4058e1:	ret	
F 0x40c4fb
0x40c4fb:	pop	rcx
0x40c4fc:	ret	0x348
F 0x407235
0x4058d5:	add	byte ptr [rcx], dh
0x4058d7:	rol	byte ptr [rbp - 0x3f61f02e], 0x8d
0x4058de:	add	dil, r15b
0x4058e1:	ret	
F 0x404f61
0x404f61:	scasd	eax, dword ptr [rdi]
0x404f62:	add	eax, 0x48295
0x404f67:	ret	
F 0x4106d3
0x4106d3:	add	cl, byte ptr [rcx + 0x29]
0x4106d6:	ret	
F 0x407746
0x407746:	add	byte ptr [rax], al
0x407748:	mov	ecx, dword ptr [rip + 0x45aae]
0x40774e:	xor	eax, eax
0x407750:	test	ecx, ecx
0x407752:	setg	al
0x407755:	lea	eax, [rax + rax - 1]
0x407759:	ret	
F 0x4074d7
0x4058df:	add	bh, bh
0x4058e1:	ret	
F 0x40e8d8
0x403016:	ret	
F 0x40772d
0x403016:	ret	
F 0x4070ff
0x4058df:	add	bh, bh
0x4058e1:	ret	
F 0x4050b4
0x4050b4:	add	eax, 0x48143
0x4050b9:	ret	
F 0x40ee92
0x40ade8:	add	byte ptr [rax], al
0x40adea:	add	rsp, 0x38
0x40adee:	pop	rbx
0x40adef:	pop	rbp
0x40adf0:	pop	r12
0x40adf2:	pop	r13
0x40adf4:	pop	r14
0x40adf6:	pop	r15
0x40adf8:	ret	
F 0x40774a
0x40774a:	scasb	al, byte ptr [rdi]
0x40774b:	pop	rdx
0x40774c:	add	al, 0
0x40774e:	xor	eax, eax
0x407750:	test	ecx, ecx
0x407752:	setg	al
0x407755:	lea	eax, [rax + rax - 1]
0x407759:	ret	
F 0x4070fe
0x4058de:	add	dil, r15b
0x4058e1:	ret	
F 0x404d91
0x404d91:	nop	dword ptr [rax]
0x404d98:	ret	
F 0x40ee94
0x40adea:	add	rsp, 0x38
0x40adee:	pop	rbx
0x40adef:	pop	rbp
0x40adf0:	pop	r12
0x40adf2:	pop	r13
0x40adf4:	pop	r14
0x40adf6:	pop	r15
0x40adf8:	ret	
F 0x40777a
0x40704a:	add	byte ptr [rdi + 3], dh
0x40704d:	ret	
F 0x4106d6
0x403016:	ret	
F 0x404d93
0x404d93:	add	byte ptr [rax], 0
0x404d96:	add	byte ptr [rax], al
0x404d98:	ret	
F 0x40ee9e
0x405afc:	pop	r14
0x405afe:	pop	r15
0x405b00:	ret	
F 0x4072e1
0x403016:	ret	
F 0x407101
0x403016:	ret	
F 0x4051fc
0x4051fc:	add	byte ptr [rax], al
0x4051fe:	add	bl, al
0x405200:	ret	
F 0x40ee9f
0x405afd:	pop	rsi
0x405afe:	pop	r15
0x405b00:	ret	
F 0x40777e
0x40777e:	nop	
0x407780:	mov	edx, dword ptr [rip + 0x45a76]
0x407786:	xor	eax, eax
0x407788:	test	edx, edx
0x40778a:	setle	al
0x40778d:	lea	eax, [rax + rax - 1]
0x407791:	ret	
F 0x410787
0x410787:	dec	dword ptr [rbx + 0xcc95]
0x41078d:	add	bh, dh
0x41078f:	ret	0
F 0x4075f7
0x4058d7:	rol	byte ptr [rbp - 0x3f61f02e], 0x8d
0x4058de:	add	dil, r15b
0x4058e1:	ret	
F 0x40eea0
0x405afe:	pop	r15
0x405b00:	ret	
F 0x405008
0x405008:	rol	byte ptr [rbp - 0x61f0be40], 0xc0
0x40500f:	lea	r8d, [r8 + r8 - 1]
0x405014:	mov	eax, r8d
0x405017:	ret	
F 0x407388
0x407388:	mov	ecx, dword ptr [rip + 0x45e6e]
0x40738e:	xor	eax, eax
0x407390:	test	ecx, ecx
0x407392:	setg	al
0x407395:	lea	eax, [rax + rax - 1]
0x407399:	ret	
F 0x404d94
0x404d94:	add	byte ptr [rax], al
0x404d96:	add	byte ptr [rax], al
0x404d98:	ret	
F 0x4070c2
0x4058f2:	setg	al
0x4058f5:	lea	eax, [rax + rax - 1]
0x4058f9:	ret	
F 0x4077e8
0x4077e8:	mov	ecx, dword ptr [rip + 0x45a0e]
0x4077ee:	xor	eax, eax
0x4077f0:	test	ecx, ecx
0x4077f2:	setg	al
0x4077f5:	lea	eax, [rax + rax - 1]
0x4077f9:	ret	
F 0x41078b
0x41078b:	add	byte ptr [rax], al
0x41078d:	add	bh, dh
0x41078f:	ret	0
F 0x404d96
0x404d96:	add	byte ptr [rax], al
0x404d98:	ret	
F 0x407389
0x407389:	or	eax, 0x45e6e
0x40738e:	xor	eax, eax
0x407390:	test	ecx, ecx
0x407392:	setg	al
0x407395:	lea	eax, [rax + rax - 1]
0x407399:	ret	
F 0x405066
0x405066:	mov	eax, dword ptr [rax + 0x36c]
0x40506c:	sub	eax, dword ptr [rdx + 0x36c]
0x405072:	imul	eax, dword ptr [rip + 0x48183]
0x405079:	ret	
F 0x40738b
0x40733b:	pop	rsi
0x40733c:	add	al, 0
0x40733e:	xor	eax, eax
0x407340:	test	ecx, ecx
0x407342:	setg	al
0x407345:	lea	eax, [rax + rax - 1]
0x407349:	ret	
F 0x4090e6
0x4090e6:	and	byte ptr [rcx], al
0x4090e8:	ret	
F 0x40738c
0x4058ec:	add	al, 0
0x4058ee:	xor	eax, eax
0x4058f0:	test	ecx, ecx
0x4058f2:	setg	al
0x4058f5:	lea	eax, [rax + rax - 1]
0x4058f9:	ret	
F 0x404d98
0x403016:	ret	
F 0x40738d
0x4058ed:	add	byte ptr [rcx], dh
0x4058ef:	rol	byte ptr [rbp - 0x3f60f037], 0x8d
0x4058f6:	add	dil, r15b
0x4058f9:	ret	
F 0x4075f8
0x4058d8:	test	edx, edx
0x4058da:	setle	al
0x4058dd:	lea	eax, [rax + rax - 1]
0x4058e1:	ret	
F 0x4090e8
0x403016:	ret	
F 0x404dca
0x404dca:	add	byte ptr [rax - 0x7b], cl
0x404dcd:	sal	byte ptr [rax + rcx - 1], 0xe0
0x404dd2:	nop	word ptr [rax + rax]
0x404dd8:	ret	
F 0x40738e
0x4058ee:	xor	eax, eax
0x4058f0:	test	ecx, ecx
0x4058f2:	setg	al
0x4058f5:	lea	eax, [rax + rax - 1]
0x4058f9:	ret	
F 0x409124
0x409124:	add	byte ptr [rax], al
0x409126:	add	byte ptr [rcx], al
0x409128:	ret	
F 0x407748
0x407748:	mov	ecx, dword ptr [rip + 0x45aae]
0x40774e:	xor	eax, eax
0x407750:	test	ecx, ecx
0x407752:	setg	al
0x407755:	lea	eax, [rax + rax - 1]
0x407759:	ret	
F 0x40738f
0x4058ef:	rol	byte ptr [rbp - 0x3f60f037], 0x8d
0x4058f6:	add	dil, r15b
0x4058f9:	ret	
F 0x4051fd
0x404d96:	add	byte ptr [rax], al
0x404d98:	ret	
F 0x407390
0x4058f0:	test	ecx, ecx
0x4058f2:	setg	al
0x4058f5:	lea	eax, [rax + rax - 1]
0x4058f9:	ret	
F 0x404f9c
0x404f9c:	sub	eax, dword ptr [rdx + 0x360]
0x404fa2:	imul	eax, dword ptr [rip + 0x48253]
0x404fa9:	ret	
F 0x407391
0x4058f1:	leave	
0x4058f2:	setg	al
0x4058f5:	lea	eax, [rax + rax - 1]
0x4058f9:	ret	
F 0x409126
0x408f27:	add	byte ptr [rcx], al
0x408f29:	ret	
F 0x407392
0x4058f2:	setg	al
0x4058f5:	lea	eax, [rax + rax - 1]
0x4058f9:	ret	
F 0x405f58
0x405f58:	add	byte ptr [rax], al
0x405f5a:	add	byte ptr [rbp + 0x38], dh
0x405f5d:	add	rsp, 0xa0
0x405f64:	pop	rbx
0x405f65:	pop	rbp
0x405f66:	pop	r12
0x405f68:	ret	
F 0x40740e
0x40740e:	nop	
0x407410:	mov	edx, dword ptr [rip + 0x45de6]
0x407416:	xor	eax, eax
0x407418:	test	edx, edx
0x40741a:	setle	al
0x40741d:	lea	eax, [rax + rax - 1]
0x407421:	ret	
F 0x40740f
0x40740f:	nop	
0x407410:	mov	edx, dword ptr [rip + 0x45de6]
0x407416:	xor	eax, eax
0x407418:	test	edx, edx
0x40741a:	setle	al
0x40741d:	lea	eax, [rax + rax - 1]
0x407421:	ret	
F 0x4044e2
0x4044e2:	cmp	ecx, dword ptr [rax - 0x7d]
0x4044e5:	ret	
F 0x407410
0x407410:	mov	edx, dword ptr [rip + 0x45de6]
0x407416:	xor	eax, eax
0x407418:	test	edx, edx
0x40741a:	setle	al
0x40741d:	lea	eax, [rax + rax - 1]
0x407421:	ret	
F 0x405f5a
0x405f5a:	add	byte ptr [rbp + 0x38], dh
0x405f5d:	add	rsp, 0xa0
0x405f64:	pop	rbx
0x405f65:	pop	rbp
0x405f66:	pop	r12
0x405f68:	ret	
F 0x407411
0x407411:	adc	eax, 0x45de6
0x407416:	xor	eax, eax
0x407418:	test	edx, edx
0x40741a:	setle	al
0x40741d:	lea	eax, [rax + rax - 1]
0x407421:	ret	
F 0x4044e5
0x403016:	ret	
F 0x407413
0x407413:	pop	rbp
0x407414:	add	al, 0
0x407416:	xor	eax, eax
0x407418:	test	edx, edx
0x40741a:	setle	al
0x40741d:	lea	eax, [rax + rax - 1]
0x407421:	ret	
F 0x405f5d
0x405f5d:	add	rsp, 0xa0
0x405f64:	pop	rbx
0x405f65:	pop	rbp
0x405f66:	pop	r12
0x405f68:	ret	
F 0x407414
0x4058d4:	add	al, 0
0x4058d6:	xor	eax, eax
0x4058d8:	test	edx, edx
0x4058da:	setle	al
0x4058dd:	lea	eax, [rax + rax - 1]
0x4058e1:	ret	
F 0x404557
0x404557:	add	al, ch
0x404559:	ret	
F 0x407415
0x4058d5:	add	byte ptr [rcx], dh
0x4058d7:	rol	byte ptr [rbp - 0x3f61f02e], 0x8d
0x4058de:	add	dil, r15b
0x4058e1:	ret	
F 0x405f61
0x405f61:	add	byte ptr [rax], al
0x405f63:	add	byte ptr [rbx + 0x5d], bl
0x405f66:	pop	r12
0x405f68:	ret	
F 0x407416
0x4058d6:	xor	eax, eax
0x4058d8:	test	edx, edx
0x4058da:	setle	al
0x4058dd:	lea	eax, [rax + rax - 1]
0x4058e1:	ret	
F 0x407417
0x4058d7:	rol	byte ptr [rbp - 0x3f61f02e], 0x8d
0x4058de:	add	dil, r15b
0x4058e1:	ret	
F 0x407418
0x4058d8:	test	edx, edx
0x4058da:	setle	al
0x4058dd:	lea	eax, [rax + rax - 1]
0x4058e1:	ret	
F 0x404559
0x403016:	ret	
F 0x40741a
0x4058da:	setle	al
0x4058dd:	lea	eax, [rax + rax - 1]
0x4058e1:	ret	
F 0x4072a7
0x4058df:	add	bh, bh
0x4058e1:	ret	
F 0x404637
0x404557:	add	al, ch
0x404559:	ret	
F 0x40741d
0x4058dd:	lea	eax, [rax + rax - 1]
0x4058e1:	ret	
F 0x404639
0x403016:	ret	
F 0x41383d
0x403016:	ret	
F 0x40741e
0x4058de:	add	dil, r15b
0x4058e1:	ret	
F 0x405f62
0x405f62:	add	byte ptr [rax], al
0x405f64:	pop	rbx
0x405f65:	pop	rbp
0x405f66:	pop	r12
0x405f68:	ret	
F 0x40741f
0x4058df:	add	bh, bh
0x4058e1:	ret	
F 0x4072a1
0x4058f1:	leave	
0x4058f2:	setg	al
0x4058f5:	lea	eax, [rax + rax - 1]
0x4058f9:	ret	
F 0x407421
0x403016:	ret	
F 0x404653
0x404653:	ret	0x348
F 0x4055b1
0x403012:	add	rsp, 8
0x403016:	ret	
F 0x407426
0x407426:	add	byte ptr [rax], al
0x407428:	mov	ecx, dword ptr [rip + 0x45dce]
0x40742e:	xor	eax, eax
0x407430:	test	ecx, ecx
0x407432:	setg	al
0x407435:	lea	eax, [rax + rax - 1]
0x407439:	ret	
F 0x4137ad
0x403016:	ret	
F 0x404687
0x404687:	add	dword ptr [rax - 0x7f], ecx
0x40468a:	ret	0x5c0
F 0x40729e
0x4058ee:	xor	eax, eax
0x4058f0:	test	ecx, ecx
0x4058f2:	setg	al
0x4058f5:	lea	eax, [rax + rax - 1]
0x4058f9:	ret	
F 0x405f63
0x405f63:	add	byte ptr [rbx + 0x5d], bl
0x405f66:	pop	r12
0x405f68:	ret	
F 0x407428
0x407428:	mov	ecx, dword ptr [rip + 0x45dce]
0x40742e:	xor	eax, eax
0x407430:	test	ecx, ecx
0x407432:	setg	al
0x407435:	lea	eax, [rax + rax - 1]
0x407439:	ret	
F 0x40468a
0x40468a:	ret	0x5c0
F 0x407429
0x407429:	or	eax, 0x45dce
0x40742e:	xor	eax, eax
0x407430:	test	ecx, ecx
0x407432:	setg	al
0x407435:	lea	eax, [rax + rax - 1]
0x407439:	ret	
F 0x4077d7
0x4058d7:	rol	byte ptr [rbp - 0x3f61f02e], 0x8d
0x4058de:	add	dil, r15b
0x4058e1:	ret	
F 0x405f64
0x405f64:	pop	rbx
0x405f65:	pop	rbp
0x405f66:	pop	r12
0x405f68:	ret	
F 0x40742b
0x40742b:	pop	rbp
0x40742c:	add	al, 0
0x40742e:	xor	eax, eax
0x407430:	test	ecx, ecx
0x407432:	setg	al
0x407435:	lea	eax, [rax + rax - 1]
0x407439:	ret	
F 0x4072c8
0x406ff8:	add	byte ptr [rax], al
0x406ffa:	add	byte ptr [rdi + 3], bh
0x406ffd:	ret	
F 0x40484f
0x40484f:	add	dword ptr [rax - 0x7f], ecx
0x404852:	ret	
F 0x40742c
0x4058ec:	add	al, 0
0x4058ee:	xor	eax, eax
0x4058f0:	test	ecx, ecx
0x4058f2:	setg	al
0x4058f5:	lea	eax, [rax + rax - 1]
0x4058f9:	ret	
F 0x4068b6
0x4068b6:	sbb	al, 8
0x4068b8:	add	rsp, 8
0x4068bc:	pop	rbx
0x4068bd:	pop	rbp
0x4068be:	pop	r12
0x4068c0:	pop	r13
0x4068c2:	ret	
F 0x4072a9
0x403016:	ret	
F 0x405f65
0x405f65:	pop	rbp
0x405f66:	pop	r12
0x405f68:	ret	
F 0x4068b8
0x4066ce:	add	rsp, 8
0x4066d2:	pop	rbx
0x4066d3:	pop	rbp
0x4066d4:	pop	r12
0x4066d6:	pop	r13
0x4066d8:	ret	
F 0x405f66
0x405f66:	pop	r12
0x405f68:	ret	
F 0x407324
0x4058d4:	add	al, 0
0x4058d6:	xor	eax, eax
0x4058d8:	test	edx, edx
0x4058da:	setle	al
0x4058dd:	lea	eax, [rax + rax - 1]
0x4058e1:	ret	
F 0x40b88c
0x40b88c:	add	byte ptr [rax], al
0x40b88e:	mov	rax, r15
0x40b891:	pop	rbx
0x40b892:	pop	rbp
0x40b893:	pop	r12
0x40b895:	pop	r13
0x40b897:	pop	r14
0x40b899:	pop	r15
0x40b89b:	ret	
F 0x405320
0x403016:	ret	
F 0x404852
0x403016:	ret	
F 0x405f68
0x403016:	ret	
F 0x405401
0x405401:	add	byte ptr [rax], al
0x405403:	add	byte ptr [rbp + 8], dh
0x405406:	add	rsp, 0xd8
0x40540d:	ret	
F 0x4049ce
0x403016:	ret	
F 0x405f86
0x403016:	ret	
F 0x4068bb
0x4066d1:	or	byte ptr [rbx + 0x5d], bl
0x4066d4:	pop	r12
0x4066d6:	pop	r13
0x4066d8:	ret	
F 0x404d89
0x404d89:	add	byte ptr [rax - 0x7b], cl
0x404d8c:	sal	byte ptr [rcx + rcx - 1], 0xe0
0x404d91:	nop	dword ptr [rax]
0x404d98:	ret	
F 0x4068bc
0x4057ca:	pop	rbx
0x4057cb:	pop	rbp
0x4057cc:	pop	r12
0x4057ce:	pop	r13
0x4057d0:	ret	
F 0x407323
0x407323:	pop	rsi
0x407324:	add	al, 0
0x407326:	xor	eax, eax
0x407328:	test	edx, edx
0x40732a:	setle	al
0x40732d:	lea	eax, [rax + rax - 1]
0x407331:	ret	
F 0x4068bd
0x4057cb:	pop	rbp
0x4057cc:	pop	r12
0x4057ce:	pop	r13
0x4057d0:	ret	
F 0x4072cd
0x403016:	ret	
F 0x4068be
0x4057cc:	pop	r12
0x4057ce:	pop	r13
0x4057d0:	ret	
F 0x406222
0x406222:	add	byte ptr [rax - 0x7b], cl
0x406225:	ror	byte ptr [rax + 0xf], 0x44
0x406229:	ret	0x8348
F 0x405319
0x405319:	add	rsp, 0xd8
0x405320:	ret	
F 0x40531e
0x404d96:	add	byte ptr [rax], al
0x404d98:	ret	
F 0x4072a0
0x4058f0:	test	ecx, ecx
0x4058f2:	setg	al
0x4058f5:	lea	eax, [rax + rax - 1]
0x4058f9:	ret	
F 0x40b88d
0x40b88d:	add	byte ptr [rcx + rcx*4 - 8], cl
0x40b891:	pop	rbx
0x40b892:	pop	rbp
0x40b893:	pop	r12
0x40b895:	pop	r13
0x40b897:	pop	r14
0x40b899:	pop	r15
0x40b89b:	ret	
F 0x4072a2
0x4058f2:	setg	al
0x4058f5:	lea	eax, [rax + rax - 1]
0x4058f9:	ret	
F 0x4072a5
0x4058dd:	lea	eax, [rax + rax - 1]
0x4058e1:	ret	
F 0x4068c0
0x4057ce:	pop	r13
0x4057d0:	ret	
F 0x404d8c
0x404d8c:	sal	byte ptr [rcx + rcx - 1], 0xe0
0x404d91:	nop	dword ptr [rax]
0x404d98:	ret	
F 0x4068c1
0x404e0f:	pop	rbp
0x404e10:	ret	
F 0x406225
0x406225:	ror	byte ptr [rax + 0xf], 0x44
0x406229:	ret	0x8348
F 0x405317
0x405317:	add	eax, dword ptr [rax]
0x405319:	add	rsp, 0xd8
0x405320:	ret	
F 0x404d8f
0x404d8f:	jmp	rax
F 0x4068c2
0x403016:	ret	
F 0x40502e
0x40502e:	xor	r8d, r8d
0x405031:	test	edx, edx
0x405033:	setg	r8b
0x405037:	lea	r8d, [r8 + r8 - 1]
0x40503c:	mov	eax, r8d
0x40503f:	ret	
F 0x405036
0x40500e:	rol	byte ptr [rdi - 0x73], 0x44
0x405012:	add	bh, bh
0x405014:	mov	eax, r8d
0x405017:	ret	
F 0x406c41
0x4057ce:	pop	r13
0x4057d0:	ret	
F 0x4101a0
0x410029:	or	ah, 0x20
0x41002c:	mov	dword ptr [rbx + 0xcc], eax
0x410032:	pop	rbx
0x410033:	ret	
F 0x406988
0x406988:	dec	dword ptr [rdi]
0x40698a:	scasd	eax, dword ptr [rdi]
0x40698b:	add	eax, 0x4686c
0x406990:	add	rsp, 8
0x406994:	ret	
F 0x405839
0x403016:	ret	
F 0x406c42
0x404e0f:	pop	rbp
0x404e10:	ret	
F 0x4156c3
0x4156c3:	ret	0xffb8
F 0x4156a4
0x4156a4:	cmp	byte ptr [rcx], cl
0x4156a6:	setne	al
0x4156a9:	movzx	eax, al
0x4156ac:	neg	eax
0x4156ae:	pop	rbx
0x4156af:	pop	rbp
0x4156b0:	pop	r12
0x4156b2:	ret	
F 0x406c43
0x403016:	ret	
F 0x404e5c
0x404e5c:	sub	eax, dword ptr [rdx + 0x370]
0x404e62:	imul	eax, dword ptr [rip + 0x48393]
0x404e69:	ret	
F 0x40b89b
0x403016:	ret	
F 0x4156c0
0x4156c0:	dec	dword ptr [rax - 0x77]
0x4156c3:	ret	0xffb8
F 0x40742f
0x4058ef:	rol	byte ptr [rbp - 0x3f60f037], 0x8d
0x4058f6:	add	dil, r15b
0x4058f9:	ret	
F 0x405887
0x405887:	add	eax, 1
0x40588a:	mov	dword ptr [rip + 0x3b830], eax
0x405890:	add	rsp, 8
0x405894:	pop	rbx
0x405895:	pop	rbp
0x405896:	ret	
F 0x40fd79
0x40fd79:	add	al, byte ptr [rax]
0x40fd7b:	add	byte ptr [rbx + 0x5d], bl
0x40fd7e:	pop	r12
0x40fd80:	pop	r13
0x40fd82:	pop	r14
0x40fd84:	ret	
F 0x4126e3
0x4126e3:	add	byte ptr [rcx + rcx*4 - 0x10], al
0x4126e7:	pop	rbx
0x4126e8:	pop	rbp
0x4126e9:	pop	r12
0x4126eb:	pop	r13
0x4126ed:	pop	r14
0x4126ef:	pop	r15
0x4126f1:	ret	
F 0x405717
0x4054c7:	nop	dword ptr cs:[rax + rax]
0x4054d0:	xor	eax, eax
0x4054d2:	ret	
F 0x406cfa
0x406cfa:	add	byte ptr [rax], al
0x406cfc:	add	byte ptr [rax - 0x77], cl
0x406cff:	ret	
F 0x405854
0x405854:	dec	dword ptr [rax - 0x77]
0x405857:	ret	
F 0x4101ea
0x4101ea:	add	byte ptr [rdi], cl
0x4101ed:	ret	0xcc80
F 0x4156b2
0x403016:	ret	
F 0x4057d0
0x403016:	ret	
F 0x40500e
0x40500e:	rol	byte ptr [rdi - 0x73], 0x44
0x405012:	add	bh, bh
0x405014:	mov	eax, r8d
0x405017:	ret	
F 0x40b91d
0x403016:	ret	
F 0x410170
0x403016:	ret	
F 0x40b88a
0x40b88a:	sbb	byte ptr [rbx], al
0x40b88c:	add	byte ptr [rax], al
0x40b88e:	mov	rax, r15
0x40b891:	pop	rbx
0x40b892:	pop	rbp
0x40b893:	pop	r12
0x40b895:	pop	r13
0x40b897:	pop	r14
0x40b899:	pop	r15
0x40b89b:	ret	
F 0x405037
0x40500f:	lea	r8d, [r8 + r8 - 1]
0x405014:	mov	eax, r8d
0x405017:	ret	
F 0x41019e
0x41019e:	mov	edi, 0x20cc80ff
0x4101a3:	mov	dword ptr [rbx + 0xcc], eax
0x4101a9:	pop	rbx
0x4101aa:	ret	
F 0x4101ec
0x4101ec:	cmove	eax, edx
0x4101ef:	or	ah, 0x20
0x4101f2:	mov	dword ptr [rbx + 0xcc], eax
0x4101f8:	pop	rbx
0x4101f9:	ret	
F 0x406989
0x406989:	imul	eax, dword ptr [rip + 0x4686c]
0x406990:	add	rsp, 8
0x406994:	ret	
F 0x40779b
0x4076fb:	pop	rdx
0x4076fc:	add	al, 0
0x4076fe:	xor	eax, eax
0x407700:	test	ecx, ecx
0x407702:	setg	al
0x407705:	lea	eax, [rax + rax - 1]
0x407709:	ret	
F 0x4091ed
0x403016:	ret	
F 0x405718
0x4054c8:	nop	dword ptr [rax + rax]
0x4054d0:	xor	eax, eax
0x4054d2:	ret	
F 0x4126e4
0x4126e4:	mov	eax, r14d
0x4126e7:	pop	rbx
0x4126e8:	pop	rbp
0x4126e9:	pop	r12
0x4126eb:	pop	r13
0x4126ed:	pop	r14
0x4126ef:	pop	r15
0x4126f1:	ret	
F 0x4057cf
0x404e0f:	pop	rbp
0x404e10:	ret	
F 0x4157a2
0x405af6:	pop	rbx
0x405af7:	pop	rbp
0x405af8:	pop	r12
0x405afa:	pop	r13
0x405afc:	pop	r14
0x405afe:	pop	r15
0x405b00:	ret	
F 0x410128
0x40da99:	pop	rbx
0x40da9a:	ret	
F 0x4156af
0x405f65:	pop	rbp
0x405f66:	pop	r12
0x405f68:	ret	
F 0x405038
0x405010:	lea	eax, [rax + rax - 1]
0x405014:	mov	eax, r8d
0x405017:	ret	
F 0x406cfc
0x406cfc:	add	byte ptr [rax - 0x77], cl
0x406cff:	ret	
F 0x40502d
0x40502d:	add	byte ptr [rbp + 0x31], al
0x405030:	rol	byte ptr [rbp - 0x60f0be2e], 0xc0
0x405037:	lea	r8d, [r8 + r8 - 1]
0x40503c:	mov	eax, r8d
0x40503f:	ret	
F 0x40bb23
0x40bb23:	add	dword ptr [rdi], ecx
0x40bb25:	xchg	eax, edi
0x40bb26:	ret	0xf980
F 0x40502c
0x40502c:	add	al, 0
0x40502e:	xor	r8d, r8d
0x405031:	test	edx, edx
0x405033:	setg	r8b
0x405037:	lea	r8d, [r8 + r8 - 1]
0x40503c:	mov	eax, r8d
0x40503f:	ret	
F 0x4101a7
0x410007:	add	byte ptr [rax], al
0x410009:	pop	rbx
0x41000a:	ret	
F 0x40571a
0x4054ca:	test	byte ptr [rax], al
0x4054cc:	add	byte ptr [rax], al
0x4054ce:	add	byte ptr [rax], al
0x4054d0:	xor	eax, eax
0x4054d2:	ret	
F 0x409183
0x405aff:	pop	rdi
0x405b00:	ret	
F 0x405888
0x405888:	rol	byte ptr [rcx], 0x89
0x40588b:	add	eax, 0x3b830
0x405890:	add	rsp, 8
0x405894:	pop	rbx
0x405895:	pop	rbp
0x405896:	ret	
F 0x405017
0x403016:	ret	
F 0x409184
0x403016:	ret	
F 0x4057ce
0x4057ce:	pop	r13
0x4057d0:	ret	
F 0x4101eb
0x4101eb:	add	byte ptr [rdi], cl
0x4101ed:	ret	0xcc80
F 0x4057cc
0x4057cc:	pop	r12
0x4057ce:	pop	r13
0x4057d0:	ret	
F 0x406cff
0x403016:	ret	
F 0x407480
0x4058f0:	test	ecx, ecx
0x4058f2:	setg	al
0x4058f5:	lea	eax, [rax + rax - 1]
0x4058f9:	ret	
F 0x4156a5
0x4156a5:	or	dword ptr [rdi], ecx
0x4156a7:	xchg	eax, ebp
0x4156a8:	ror	byte ptr [rdi], 0xb6
0x4156ab:	sal	bh, 0xd8
0x4156ae:	pop	rbx
0x4156af:	pop	rbp
0x4156b0:	pop	r12
0x4156b2:	ret	
F 0x4126e5
0x4126e5:	mov	eax, esi
0x4126e7:	pop	rbx
0x4126e8:	pop	rbp
0x4126e9:	pop	r12
0x4126eb:	pop	r13
0x4126ed:	pop	r14
0x4126ef:	pop	r15
0x4126f1:	ret	
F 0x405015
0x404ff9:	mov	eax, eax
0x404ffb:	ret	
F 0x406d8f
0x4039fc:	add	byte ptr [rax - 0x7d], cl
0x4039ff:	ret	
F 0x404e86
0x404e86:	add	eax, 0x48371
0x404e8b:	ret	
F 0x406d92
0x403016:	ret	
F 0x40a921
0x40a921:	add	dword ptr [rbp + 1], eax
0x40a924:	ret	
F 0x405039
0x405011:	add	dil, r15b
0x405014:	mov	eax, r8d
0x405017:	ret	
F 0x406da9
0x406da9:	add	dword ptr [rax - 0x7d], ecx
0x406dac:	ret	
F 0x4101ee
0x4101ee:	ret	0xcc80
F 0x40779c
0x4058ec:	add	al, 0
0x4058ee:	xor	eax, eax
0x4058f0:	test	ecx, ecx
0x4058f2:	setg	al
0x4058f5:	lea	eax, [rax + rax - 1]
0x4058f9:	ret	
F 0x4157a3
0x405af7:	pop	rbp
0x405af8:	pop	r12
0x405afa:	pop	r13
0x405afc:	pop	r14
0x405afe:	pop	r15
0x405b00:	ret	
F 0x406dac
0x403016:	ret	
F 0x41016d
0x410007:	add	byte ptr [rax], al
0x410009:	pop	rbx
0x41000a:	ret	
F 0x40503a
0x405012:	add	bh, bh
0x405014:	mov	eax, r8d
0x405017:	ret	
F 0x40698a
0x40698a:	scasd	eax, dword ptr [rdi]
0x40698b:	add	eax, 0x4686c
0x406990:	add	rsp, 8
0x406994:	ret	
F 0x4057cb
0x4057cb:	pop	rbp
0x4057cc:	pop	r12
0x4057ce:	pop	r13
0x4057d0:	ret	
F 0x40571c
0x4054cc:	add	byte ptr [rax], al
0x4054ce:	add	byte ptr [rax], al
0x4054d0:	xor	eax, eax
0x4054d2:	ret	
F 0x4126e7
0x405af6:	pop	rbx
0x405af7:	pop	rbp
0x405af8:	pop	r12
0x405afa:	pop	r13
0x405afc:	pop	r14
0x405afe:	pop	r15
0x405b00:	ret	
F 0x4156ac
0x4156ac:	neg	eax
0x4156ae:	pop	rbx
0x4156af:	pop	rbp
0x4156b0:	pop	r12
0x4156b2:	ret	
F 0x40588a
0x40588a:	mov	dword ptr [rip + 0x3b830], eax
0x405890:	add	rsp, 8
0x405894:	pop	rbx
0x405895:	pop	rbp
0x405896:	ret	
F 0x406f05
0x406f05:	ret	0x148
F 0x40698b
0x40698b:	add	eax, 0x4686c
0x406990:	add	rsp, 8
0x406994:	ret	
F 0x405014
0x404ff8:	mov	eax, r8d
0x404ffb:	ret	
F 0x4101ed
0x4101ed:	ret	0xcc80
F 0x4126e8
0x405af7:	pop	rbp
0x405af8:	pop	r12
0x405afa:	pop	r13
0x405afc:	pop	r14
0x405afe:	pop	r15
0x405b00:	ret	
F 0x410164
0x410164:	inc	edi
0x410166:	and	eax, 0
0x410169:	add	byte ptr [rax], al
0x41016b:	add	byte ptr [rax], al
0x41016d:	add	byte ptr [rax], al
0x41016f:	pop	rbx
0x410170:	ret	
F 0x406f4f
0x406f4f:	cmp	byte ptr [rax + rax], dl
0x406f52:	add	byte ptr [rbx + 0x5d], bl
0x406f55:	pop	r12
0x406f57:	pop	r13
0x406f59:	pop	r14
0x406f5b:	pop	r15
0x406f5d:	ret	
F 0x404e85
0x404e85:	scasd	eax, dword ptr [rdi]
0x404e86:	add	eax, 0x48371
0x404e8b:	ret	
F 0x4156ab
0x4156ab:	sal	bh, 0xd8
0x4156ae:	pop	rbx
0x4156af:	pop	rbp
0x4156b0:	pop	r12
0x4156b2:	ret	
F 0x40698e
0x4054bf:	add	al, 0
0x4054c1:	add	rsp, 8
0x4054c5:	ret	
F 0x41019b
0x41019b:	and	eax, 0xffbfffff
0x4101a0:	or	ah, 0x20
0x4101a3:	mov	dword ptr [rbx + 0xcc], eax
0x4101a9:	pop	rbx
0x4101aa:	ret	
F 0x4126e9
0x405af8:	pop	r12
0x405afa:	pop	r13
0x405afc:	pop	r14
0x405afe:	pop	r15
0x405b00:	ret	
F 0x4057ca
0x4057ca:	pop	rbx
0x4057cb:	pop	rbp
0x4057cc:	pop	r12
0x4057ce:	pop	r13
0x4057d0:	ret	
F 0x40503b
0x405013:	inc	dword ptr [rcx + rcx*4 - 0x40]
0x405017:	ret	
F 0x406990
0x403012:	add	rsp, 8
0x403016:	ret	
F 0x4157a4
0x405af8:	pop	r12
0x405afa:	pop	r13
0x405afc:	pop	r14
0x405afe:	pop	r15
0x405b00:	ret	
F 0x410198
0x410198:	cmovne	eax, ecx
0x41019b:	and	eax, 0xffbfffff
0x4101a0:	or	ah, 0x20
0x4101a3:	mov	dword ptr [rbx + 0xcc], eax
0x4101a9:	pop	rbx
0x4101aa:	ret	
F 0x40779d
0x4058ed:	add	byte ptr [rcx], dh
0x4058ef:	rol	byte ptr [rbp - 0x3f60f037], 0x8d
0x4058f6:	add	dil, r15b
0x4058f9:	ret	
F 0x4157a6
0x405afa:	pop	r13
0x405afc:	pop	r14
0x405afe:	pop	r15
0x405b00:	ret	
F 0x406f50
0x406f50:	adc	al, 0
0x406f52:	add	byte ptr [rbx + 0x5d], bl
0x406f55:	pop	r12
0x406f57:	pop	r13
0x406f59:	pop	r14
0x406f5b:	pop	r15
0x406f5d:	ret	
F 0x40503c
0x404ff8:	mov	eax, r8d
0x404ffb:	ret	
F 0x40b094
0x40b094:	add	byte ptr [rax], al
0x40b096:	add	rsp, 0x148
0x40b09d:	pop	rbx
0x40b09e:	pop	rbp
0x40b09f:	pop	r12
0x40b0a1:	pop	r13
0x40b0a3:	pop	r14
0x40b0a5:	pop	r15
0x40b0a7:	ret	
F 0x40571e
0x4054ce:	add	byte ptr [rax], al
0x4054d0:	xor	eax, eax
0x4054d2:	ret	
F 0x4156aa
0x4156aa:	mov	dh, 0xc0
0x4156ac:	neg	eax
0x4156ae:	pop	rbx
0x4156af:	pop	rbp
0x4156b0:	pop	r12
0x4156b2:	ret	
F 0x406994
0x403016:	ret	
F 0x40588b
0x40588b:	add	eax, 0x3b830
0x405890:	add	rsp, 8
0x405894:	pop	rbx
0x405895:	pop	rbp
0x405896:	ret	
F 0x4126eb
0x405afa:	pop	r13
0x405afc:	pop	r14
0x405afe:	pop	r15
0x405b00:	ret	
F 0x4101f2
0x41002c:	mov	dword ptr [rbx + 0xcc], eax
0x410032:	pop	rbx
0x410033:	ret	
F 0x40b09a
0x40b09a:	add	dword ptr [rax], eax
0x40b09c:	add	byte ptr [rbx + 0x5d], bl
0x40b09f:	pop	r12
0x40b0a1:	pop	r13
0x40b0a3:	pop	r14
0x40b0a5:	pop	r15
0x40b0a7:	ret	
F 0x40bb25
0x40bb25:	xchg	eax, edi
0x40bb26:	ret	0xf980
F 0x410166
0x410166:	and	eax, 0
0x410169:	add	byte ptr [rax], al
0x41016b:	add	byte ptr [rax], al
0x41016d:	add	byte ptr [rax], al
0x41016f:	pop	rbx
0x410170:	ret	
F 0x405013
0x405013:	inc	dword ptr [rcx + rcx*4 - 0x40]
0x405017:	ret	
F 0x4156a9
0x4156a9:	movzx	eax, al
0x4156ac:	neg	eax
0x4156ae:	pop	rbx
0x4156af:	pop	rbp
0x4156b0:	pop	r12
0x4156b2:	ret	
F 0x404e8b
0x403016:	ret	
F 0x40503d
0x404ff9:	mov	eax, eax
0x404ffb:	ret	
F 0x4126ec
0x405afb:	pop	rbp
0x405afc:	pop	r14
0x405afe:	pop	r15
0x405b00:	ret	
F 0x40588e
0x40588e:	add	eax, dword ptr [rax]
0x405890:	add	rsp, 8
0x405894:	pop	rbx
0x405895:	pop	rbp
0x405896:	ret	
F 0x407482
0x4058f2:	setg	al
0x4058f5:	lea	eax, [rax + rax - 1]
0x4058f9:	ret	
F 0x406f51
0x405af4:	add	byte ptr [rax], al
0x405af6:	pop	rbx
0x405af7:	pop	rbp
0x405af8:	pop	r12
0x405afa:	pop	r13
0x405afc:	pop	r14
0x405afe:	pop	r15
0x405b00:	ret	
F 0x4126ed
0x405afc:	pop	r14
0x405afe:	pop	r15
0x405b00:	ret	
F 0x41016b
0x41016b:	add	byte ptr [rax], al
0x41016d:	add	byte ptr [rax], al
0x41016f:	pop	rbx
0x410170:	ret	
F 0x4157a7
0x405afb:	pop	rbp
0x405afc:	pop	r14
0x405afe:	pop	r15
0x405b00:	ret	
F 0x406f52
0x405af5:	add	byte ptr [rbx + 0x5d], bl
0x405af8:	pop	r12
0x405afa:	pop	r13
0x405afc:	pop	r14
0x405afe:	pop	r15
0x405b00:	ret	
F 0x40500f
0x40500f:	lea	r8d, [r8 + r8 - 1]
0x405014:	mov	eax, r8d
0x405017:	ret	
F 0x4057c9
0x4057c9:	sbb	byte ptr [rbx + 0x5d], bl
0x4057cc:	pop	r12
0x4057ce:	pop	r13
0x4057d0:	ret	
F 0x4126ee
0x405afd:	pop	rsi
0x405afe:	pop	r15
0x405b00:	ret	
F 0x40503f
0x403016:	ret	
F 0x406f53
0x405af6:	pop	rbx
0x405af7:	pop	rbp
0x405af8:	pop	r12
0x405afa:	pop	r13
0x405afc:	pop	r14
0x405afe:	pop	r15
0x405b00:	ret	
F 0x40ad11
0x406da9:	add	dword ptr [rax - 0x7d], ecx
0x406dac:	ret	
F 0x405720
0x4054d0:	xor	eax, eax
0x4054d2:	ret	
F 0x4126ef
0x405afe:	pop	r15
0x405b00:	ret	
F 0x4101ef
0x410029:	or	ah, 0x20
0x41002c:	mov	dword ptr [rbx + 0xcc], eax
0x410032:	pop	rbx
0x410033:	ret	
F 0x406f54
0x405af7:	pop	rbp
0x405af8:	pop	r12
0x405afa:	pop	r13
0x405afc:	pop	r14
0x405afe:	pop	r15
0x405b00:	ret	
F 0x405010
0x405010:	lea	eax, [rax + rax - 1]
0x405014:	mov	eax, r8d
0x405017:	ret	
F 0x4057c5
0x4057c5:	pop	rdx
0x4057c6:	add	rsp, 0x18
0x4057ca:	pop	rbx
0x4057cb:	pop	rbp
0x4057cc:	pop	r12
0x4057ce:	pop	r13
0x4057d0:	ret	
F 0x40779e
0x4058ee:	xor	eax, eax
0x4058f0:	test	ecx, ecx
0x4058f2:	setg	al
0x4058f5:	lea	eax, [rax + rax - 1]
0x4058f9:	ret	
F 0x4157a8
0x405afc:	pop	r14
0x405afe:	pop	r15
0x405b00:	ret	
F 0x407481
0x4058f1:	leave	
0x4058f2:	setg	al
0x4058f5:	lea	eax, [rax + rax - 1]
0x4058f9:	ret	
F 0x406f55
0x405af8:	pop	r12
0x405afa:	pop	r13
0x405afc:	pop	r14
0x405afe:	pop	r15
0x405b00:	ret	
F 0x40747f
0x4058ef:	rol	byte ptr [rbp - 0x3f60f037], 0x8d
0x4058f6:	add	dil, r15b
0x4058f9:	ret	
F 0x405046
0x405046:	mov	eax, dword ptr [rax + 0x368]
0x40504c:	sub	eax, dword ptr [rdx + 0x368]
0x405052:	imul	eax, dword ptr [rip + 0x481a3]
0x405059:	ret	
F 0x4069b0
0x4069b0:	dec	dword ptr [rdi]
0x4069b2:	scasd	eax, dword ptr [rdi]
0x4069b3:	add	eax, 0x46844
0x4069b8:	add	rsp, 8
0x4069bc:	ret	
F 0x4126f0
0x405aff:	pop	rdi
0x405b00:	ret	
F 0x4156a8
0x4156a8:	ror	byte ptr [rdi], 0xb6
0x4156ab:	sal	bh, 0xd8
0x4156ae:	pop	rbx
0x4156af:	pop	rbp
0x4156b0:	pop	r12
0x4156b2:	ret	
F 0x406f57
0x405afa:	pop	r13
0x405afc:	pop	r14
0x405afe:	pop	r15
0x405b00:	ret	
F 0x405722
0x403016:	ret	
F 0x4126f1
0x403016:	ret	
F 0x4057c6
0x4057c6:	add	rsp, 0x18
0x4057ca:	pop	rbx
0x4057cb:	pop	rbp
0x4057cc:	pop	r12
0x4057ce:	pop	r13
0x4057d0:	ret	
F 0x4156a6
0x4156a6:	setne	al
0x4156a9:	movzx	eax, al
0x4156ac:	neg	eax
0x4156ae:	pop	rbx
0x4156af:	pop	rbp
0x4156b0:	pop	r12
0x4156b2:	ret	
F 0x406f58
0x405afb:	pop	rbp
0x405afc:	pop	r14
0x405afe:	pop	r15
0x405b00:	ret	
F 0x404e89
0x404e47:	add	al, 0
0x404e49:	ret	
F 0x4057c1
0x4057c1:	add	byte ptr [rax], al
0x4057c3:	add	byte ptr [rbp + 0x5a], dh
0x4057c6:	add	rsp, 0x18
0x4057ca:	pop	rbx
0x4057cb:	pop	rbp
0x4057cc:	pop	r12
0x4057ce:	pop	r13
0x4057d0:	ret	
F 0x4069b1
0x4069b1:	imul	eax, dword ptr [rip + 0x46844]
0x4069b8:	add	rsp, 8
0x4069bc:	ret	
F 0x405012
0x405012:	add	bh, bh
0x405014:	mov	eax, r8d
0x405017:	ret	
F 0x409180
0x405afc:	pop	r14
0x405afe:	pop	r15
0x405b00:	ret	
F 0x4127dc
0x403016:	ret	
F 0x405890
0x404ec3:	add	rsp, 8
0x404ec7:	pop	rbx
0x404ec8:	pop	rbp
0x404ec9:	ret	
F 0x409181
0x405afd:	pop	rsi
0x405afe:	pop	r15
0x405b00:	ret	
F 0x406f59
0x405afc:	pop	r14
0x405afe:	pop	r15
0x405b00:	ret	
F 0x4101f8
0x40da99:	pop	rbx
0x40da9a:	ret	
F 0x409182
0x405afe:	pop	r15
0x405b00:	ret	
F 0x412a8f
0x412a8f:	test	byte ptr [rax + rax - 0x7cb70000], bl
0x412a96:	ret	
F 0x405893
0x404ec6:	or	byte ptr [rbx + 0x5d], bl
0x404ec9:	ret	
F 0x410165
0x410165:	mov	dword ptr [rbx + 0xe0], 0
0x41016f:	pop	rbx
0x410170:	ret	
F 0x41016f
0x40da99:	pop	rbx
0x40da9a:	ret	
F 0x409344
0x409344:	add	eax, 0x37d4b
0x409349:	add	rsp, 0x18
0x40934d:	pop	rbx
0x40934e:	pop	rbp
0x40934f:	pop	r12
0x409351:	pop	r13
0x409353:	pop	r14
0x409355:	pop	r15
0x409357:	ret	
F 0x409347
0x409347:	add	eax, dword ptr [rax]
0x409349:	add	rsp, 0x18
0x40934d:	pop	rbx
0x40934e:	pop	rbp
0x40934f:	pop	r12
0x409351:	pop	r13
0x409353:	pop	r14
0x409355:	pop	r15
0x409357:	ret	
F 0x406f5a
0x405afd:	pop	rsi
0x405afe:	pop	r15
0x405b00:	ret	
F 0x4069b2
0x4069b2:	scasd	eax, dword ptr [rdi]
0x4069b3:	add	eax, 0x46844
0x4069b8:	add	rsp, 8
0x4069bc:	ret	
F 0x4101f6
0x410007:	add	byte ptr [rax], al
0x410009:	pop	rbx
0x41000a:	ret	
F 0x406f5b
0x405afe:	pop	r15
0x405b00:	ret	
F 0x4157aa
0x405afe:	pop	r15
0x405b00:	ret	
F 0x40bb26
0x40bb26:	ret	0xf980
F 0x4057c3
0x4057c3:	add	byte ptr [rbp + 0x5a], dh
0x4057c6:	add	rsp, 0x18
0x4057ca:	pop	rbx
0x4057cb:	pop	rbp
0x4057cc:	pop	r12
0x4057ce:	pop	r13
0x4057d0:	ret	
F 0x4156a7
0x4156a7:	xchg	eax, ebp
0x4156a8:	ror	byte ptr [rdi], 0xb6
0x4156ab:	sal	bh, 0xd8
0x4156ae:	pop	rbx
0x4156af:	pop	rbp
0x4156b0:	pop	r12
0x4156b2:	ret	
F 0x40779f
0x4058ef:	rol	byte ptr [rbp - 0x3f60f037], 0x8d
0x4058f6:	add	dil, r15b
0x4058f9:	ret	
F 0x406f5c
0x405aff:	pop	rdi
0x405b00:	ret	
F 0x4069b3
0x4069b3:	add	eax, 0x46844
0x4069b8:	add	rsp, 8
0x4069bc:	ret	
F 0x412a91
0x412a91:	add	byte ptr [rax], al
0x412a93:	add	byte ptr [rcx - 0x7d], cl
0x412a96:	ret	
F 0x404dcd
0x404dcd:	sal	byte ptr [rax + rcx - 1], 0xe0
0x404dd2:	nop	word ptr [rax + rax]
0x404dd8:	ret	
F 0x4066ca
0x4066ca:	movsx	eax, byte ptr [rdx + rax]
0x4066ce:	add	rsp, 8
0x4066d2:	pop	rbx
0x4066d3:	pop	rbp
0x4066d4:	pop	r12
0x4066d6:	pop	r13
0x4066d8:	ret	
F 0x404dd0
0x404d8f:	jmp	rax
F 0x407889
0x407889:	or	eax, 0x4596e
0x40788e:	xor	eax, eax
0x407890:	test	ecx, ecx
0x407892:	setg	al
0x407895:	lea	eax, [rax + rax - 1]
0x407899:	ret	
F 0x4075fa
0x4058da:	setle	al
0x4058dd:	lea	eax, [rax + rax - 1]
0x4058e1:	ret	
F 0x405067
0x405067:	sub	byte ptr [rbx + rax], 0
0x40506c:	sub	eax, dword ptr [rdx + 0x36c]
0x405072:	imul	eax, dword ptr [rip + 0x48183]
0x405079:	ret	
F 0x40788b
0x40783b:	pop	rcx
0x40783c:	add	al, 0
0x40783e:	xor	eax, eax
0x407840:	test	ecx, ecx
0x407842:	setg	al
0x407845:	lea	eax, [rax + rax - 1]
0x407849:	ret	
F 0x404dd2
0x404dd2:	nop	word ptr [rax + rax]
0x404dd8:	ret	
F 0x40d5d9
0x403016:	ret	
F 0x4051fe
0x4051fe:	add	bl, al
0x405200:	ret	
F 0x404dd3
0x404dd3:	nop	dword ptr [rax + rax]
0x404dd8:	ret	
F 0x4071f1
0x403016:	ret	
F 0x40788c
0x4058ec:	add	al, 0
0x4058ee:	xor	eax, eax
0x4058f0:	test	ecx, ecx
0x4058f2:	setg	al
0x4058f5:	lea	eax, [rax + rax - 1]
0x4058f9:	ret	
F 0x407161
0x4058f1:	leave	
0x4058f2:	setg	al
0x4058f5:	lea	eax, [rax + rax - 1]
0x4058f9:	ret	
F 0x407566
0x407566:	add	byte ptr [rax], al
0x407568:	mov	ecx, dword ptr [rip + 0x45c8e]
0x40756e:	xor	eax, eax
0x407570:	test	ecx, ecx
0x407572:	setg	al
0x407575:	lea	eax, [rax + rax - 1]
0x407579:	ret	
F 0x408afd
0x4057cc:	pop	r12
0x4057ce:	pop	r13
0x4057d0:	ret	
F 0x40d61e
0x40d61e:	sbb	byte ptr [rax - 0x73], cl
0x40d621:	add	eax, 0x11a9a
0x40d626:	pop	rbx
0x40d627:	pop	rbp
0x40d628:	pop	r12
0x40d62a:	pop	r13
0x40d62c:	pop	r14
0x40d62e:	pop	r15
0x40d630:	ret	
F 0x408afc
0x4057cb:	pop	rbp
0x4057cc:	pop	r12
0x4057ce:	pop	r13
0x4057d0:	ret	
F 0x41049f
0x4039fc:	add	byte ptr [rax - 0x7d], cl
0x4039ff:	ret	
F 0x407188
0x406ff8:	add	byte ptr [rax], al
0x406ffa:	add	byte ptr [rdi + 3], bh
0x406ffd:	ret	
F 0x4104a2
0x403016:	ret	
F 0x4071f6
0x4071f6:	add	byte ptr [rax], al
0x4071f8:	mov	ecx, dword ptr [rip + 0x45ffe]
0x4071fe:	xor	eax, eax
0x407200:	test	ecx, ecx
0x407202:	setg	al
0x407205:	lea	eax, [rax + rax - 1]
0x407209:	ret	
F 0x40704d
0x403016:	ret	
F 0x40788d
0x4058ed:	add	byte ptr [rcx], dh
0x4058ef:	rol	byte ptr [rbp - 0x3f60f037], 0x8d
0x4058f6:	add	dil, r15b
0x4058f9:	ret	
F 0x407169
0x403016:	ret	
F 0x4104b6
0x403016:	ret	
F 0x40718a
0x406ffa:	add	byte ptr [rdi + 3], bh
0x406ffd:	ret	
F 0x40750d
0x4058dd:	lea	eax, [rax + rax - 1]
0x4058e1:	ret	
F 0x410509
0x410509:	or	byte ptr [rax], al
0x41050c:	add	byte ptr [rbx + 0x5d], bl
0x41050f:	pop	r12
0x410511:	pop	r13
0x410513:	pop	r14
0x410515:	pop	r15
0x410517:	ret	
F 0x4077ce
0x4077ce:	add	byte ptr [rax], al
0x4077d0:	mov	edx, dword ptr [rip + 0x45a26]
0x4077d6:	xor	eax, eax
0x4077d8:	test	edx, edx
0x4077da:	setle	al
0x4077dd:	lea	eax, [rax + rax - 1]
0x4077e1:	ret	
F 0x408afb
0x4057ca:	pop	rbx
0x4057cb:	pop	rbp
0x4057cc:	pop	r12
0x4057ce:	pop	r13
0x4057d0:	ret	
F 0x40750a
0x4058da:	setle	al
0x4058dd:	lea	eax, [rax + rax - 1]
0x4058e1:	ret	
F 0x40788e
0x4058ee:	xor	eax, eax
0x4058f0:	test	ecx, ecx
0x4058f2:	setg	al
0x4058f5:	lea	eax, [rax + rax - 1]
0x4058f9:	ret	
F 0x407571
0x4058f1:	leave	
0x4058f2:	setg	al
0x4058f5:	lea	eax, [rax + rax - 1]
0x4058f9:	ret	
F 0x4071f8
0x4071f8:	mov	ecx, dword ptr [rip + 0x45ffe]
0x4071fe:	xor	eax, eax
0x407200:	test	ecx, ecx
0x407202:	setg	al
0x407205:	lea	eax, [rax + rax - 1]
0x407209:	ret	
F 0x40d61f
0x40d61f:	lea	rax, [rip + 0x11a9a]
0x40d626:	pop	rbx
0x40d627:	pop	rbp
0x40d628:	pop	r12
0x40d62a:	pop	r13
0x40d62c:	pop	r14
0x40d62e:	pop	r15
0x40d630:	ret	
F 0x408aff
0x4057ce:	pop	r13
0x4057d0:	ret	
F 0x4070c6
0x4058de:	add	dil, r15b
0x4058e1:	ret	
F 0x4070fd
0x4058dd:	lea	eax, [rax + rax - 1]
0x4058e1:	ret	
F 0x408b00
0x404e0f:	pop	rbp
0x404e10:	ret	
F 0x40756e
0x4058ee:	xor	eax, eax
0x4058f0:	test	ecx, ecx
0x4058f2:	setg	al
0x4058f5:	lea	eax, [rax + rax - 1]
0x4058f9:	ret	
F 0x40788f
0x4058ef:	rol	byte ptr [rbp - 0x3f60f037], 0x8d
0x4058f6:	add	dil, r15b
0x4058f9:	ret	
F 0x40718d
0x403016:	ret	
F 0x407521
0x4058f1:	leave	
0x4058f2:	setg	al
0x4058f5:	lea	eax, [rax + rax - 1]
0x4058f9:	ret	
F 0x40704e
0x40704e:	nop	
0x407050:	mov	edx, dword ptr [rip + 0x461a6]
0x407056:	xor	eax, eax
0x407058:	test	edx, edx
0x40705a:	setle	al
0x40705d:	lea	eax, [rax + rax - 1]
0x407061:	ret	
F 0x41050a
0x40db45:	or	byte ptr [rax], al
0x40db47:	add	byte ptr [rbx + 0x5d], bl
0x40db4a:	pop	r12
0x40db4c:	pop	r13
0x40db4e:	pop	r14
0x40db50:	pop	r15
0x40db52:	ret	
F 0x4071f9
0x4071f9:	or	eax, 0x45ffe
0x4071fe:	xor	eax, eax
0x407200:	test	ecx, ecx
0x407202:	setg	al
0x407205:	lea	eax, [rax + rax - 1]
0x407209:	ret	
F 0x40d620
0x40d620:	lea	eax, [rip + 0x11a9a]
0x40d626:	pop	rbx
0x40d627:	pop	rbp
0x40d628:	pop	r12
0x40d62a:	pop	r13
0x40d62c:	pop	r14
0x40d62e:	pop	r15
0x40d630:	ret	
F 0x4070c1
0x4058f1:	leave	
0x4058f2:	setg	al
0x4058f5:	lea	eax, [rax + rax - 1]
0x4058f9:	ret	
F 0x407508
0x4058d8:	test	edx, edx
0x4058da:	setle	al
0x4058dd:	lea	eax, [rax + rax - 1]
0x4058e1:	ret	
F 0x408afa
0x406c3c:	add	byte ptr [rbx + 0x5d], bl
0x406c3f:	pop	r12
0x406c41:	pop	r13
0x406c43:	ret	
F 0x41050b
0x405af4:	add	byte ptr [rax], al
0x405af6:	pop	rbx
0x405af7:	pop	rbp
0x405af8:	pop	r12
0x405afa:	pop	r13
0x405afc:	pop	r14
0x405afe:	pop	r15
0x405b00:	ret	
F 0x407890
0x4058f0:	test	ecx, ecx
0x4058f2:	setg	al
0x4058f5:	lea	eax, [rax + rax - 1]
0x4058f9:	ret	
F 0x4071fb
0x4071fb:	pop	rdi
0x4071fc:	add	al, 0
0x4071fe:	xor	eax, eax
0x407200:	test	ecx, ecx
0x407202:	setg	al
0x407205:	lea	eax, [rax + rax - 1]
0x407209:	ret	
F 0x41050c
0x405af5:	add	byte ptr [rbx + 0x5d], bl
0x405af8:	pop	r12
0x405afa:	pop	r13
0x405afc:	pop	r14
0x405afe:	pop	r15
0x405b00:	ret	
F 0x407029
0x403016:	ret	
F 0x40755d
0x4058dd:	lea	eax, [rax + rax - 1]
0x4058e1:	ret	
F 0x40d621
0x40d621:	add	eax, 0x11a9a
0x40d626:	pop	rbx
0x40d627:	pop	rbp
0x40d628:	pop	r12
0x40d62a:	pop	r13
0x40d62c:	pop	r14
0x40d62e:	pop	r15
0x40d630:	ret	
F 0x4070c5
0x4058dd:	lea	eax, [rax + rax - 1]
0x4058e1:	ret	
F 0x4071fc
0x4058ec:	add	al, 0
0x4058ee:	xor	eax, eax
0x4058f0:	test	ecx, ecx
0x4058f2:	setg	al
0x4058f5:	lea	eax, [rax + rax - 1]
0x4058f9:	ret	
F 0x41050d
0x405af6:	pop	rbx
0x405af7:	pop	rbp
0x405af8:	pop	r12
0x405afa:	pop	r13
0x405afc:	pop	r14
0x405afe:	pop	r15
0x405b00:	ret	
F 0x407891
0x4058f1:	leave	
0x4058f2:	setg	al
0x4058f5:	lea	eax, [rax + rax - 1]
0x4058f9:	ret	
F 0x407507
0x4058d7:	rol	byte ptr [rbp - 0x3f61f02e], 0x8d
0x4058de:	add	dil, r15b
0x4058e1:	ret	
F 0x4070c9
0x403016:	ret	
F 0x407055
0x4058d5:	add	byte ptr [rcx], dh
0x4058d7:	rol	byte ptr [rbp - 0x3f61f02e], 0x8d
0x4058de:	add	dil, r15b
0x4058e1:	ret	
F 0x4071fd
0x4058ed:	add	byte ptr [rcx], dh
0x4058ef:	rol	byte ptr [rbp - 0x3f60f037], 0x8d
0x4058f6:	add	dil, r15b
0x4058f9:	ret	
F 0x40d623
0x40d623:	sbb	al, byte ptr [rcx]
0x40d625:	add	byte ptr [rbx + 0x5d], bl
0x40d628:	pop	r12
0x40d62a:	pop	r13
0x40d62c:	pop	r14
0x40d62e:	pop	r15
0x40d630:	ret	
F 0x41050e
0x405af7:	pop	rbp
0x405af8:	pop	r12
0x405afa:	pop	r13
0x405afc:	pop	r14
0x405afe:	pop	r15
0x405b00:	ret	
F 0x407506
0x4058d6:	xor	eax, eax
0x4058d8:	test	edx, edx
0x4058da:	setle	al
0x4058dd:	lea	eax, [rax + rax - 1]
0x4058e1:	ret	
F 0x4070c7
0x4058df:	add	bh, bh
0x4058e1:	ret	
F 0x4071fe
0x4058ee:	xor	eax, eax
0x4058f0:	test	ecx, ecx
0x4058f2:	setg	al
0x4058f5:	lea	eax, [rax + rax - 1]
0x4058f9:	ret	
F 0x41050f
0x405af8:	pop	r12
0x405afa:	pop	r13
0x405afc:	pop	r14
0x405afe:	pop	r15
0x405b00:	ret	
F 0x407529
0x403016:	ret	
F 0x40d5d6
0x40d5d6:	add	dword ptr [rax - 0x77], ecx
0x40d5d9:	ret	
F 0x4070ea
0x406ffa:	add	byte ptr [rdi + 3], bh
0x406ffd:	ret	
F 0x4071ff
0x4058ef:	rol	byte ptr [rbp - 0x3f60f037], 0x8d
0x4058f6:	add	dil, r15b
0x4058f9:	ret	
F 0x407881
0x403016:	ret	
F 0x410511
0x405afa:	pop	r13
0x405afc:	pop	r14
0x405afe:	pop	r15
0x405b00:	ret	
F 0x407895
0x4058dd:	lea	eax, [rax + rax - 1]
0x4058e1:	ret	
F 0x40756f
0x4058ef:	rol	byte ptr [rbp - 0x3f60f037], 0x8d
0x4058f6:	add	dil, r15b
0x4058f9:	ret	
F 0x4070e8
0x406ff8:	add	byte ptr [rax], al
0x406ffa:	add	byte ptr [rdi + 3], bh
0x406ffd:	ret	
F 0x40d1db
0x40d1db:	ret	0xcfe8
F 0x407200
0x4058f0:	test	ecx, ecx
0x4058f2:	setg	al
0x4058f5:	lea	eax, [rax + rax - 1]
0x4058f9:	ret	
F 0x40d508
0x403016:	ret	
F 0x410512
0x405afb:	pop	rbp
0x405afc:	pop	r14
0x405afe:	pop	r15
0x405b00:	ret	
F 0x407201
0x4058f1:	leave	
0x4058f2:	setg	al
0x4058f5:	lea	eax, [rax + rax - 1]
0x4058f9:	ret	
F 0x40d330
0x403016:	ret	
F 0x4070ed
0x403016:	ret	
F 0x407888
0x407888:	mov	ecx, dword ptr [rip + 0x4596e]
0x40788e:	xor	eax, eax
0x407890:	test	ecx, ecx
0x407892:	setg	al
0x407895:	lea	eax, [rax + rax - 1]
0x407899:	ret	
F 0x40759a
0x406ffa:	add	byte ptr [rdi + 3], bh
0x406ffd:	ret	
F 0x410513
0x405afc:	pop	r14
0x405afe:	pop	r15
0x405b00:	ret	
F 0x407202
0x4058f2:	setg	al
0x4058f5:	lea	eax, [rax + rax - 1]
0x4058f9:	ret	
F 0x40d1da
0x40d1da:	popfq	
0x40d1db:	ret	0xcfe8
F 0x4070f8
0x4058d8:	test	edx, edx
0x4058da:	setle	al
0x4058dd:	lea	eax, [rax + rax - 1]
0x4058e1:	ret	
F 0x407886
0x407886:	add	byte ptr [rax], al
0x407888:	mov	ecx, dword ptr [rip + 0x4596e]
0x40788e:	xor	eax, eax
0x407890:	test	ecx, ecx
0x407892:	setg	al
0x407895:	lea	eax, [rax + rax - 1]
0x407899:	ret	
F 0x407527
0x4058df:	add	bh, bh
0x4058e1:	ret	
F 0x410514
0x405afd:	pop	rsi
0x405afe:	pop	r15
0x405b00:	ret	
F 0x407892
0x4058f2:	setg	al
0x4058f5:	lea	eax, [rax + rax - 1]
0x4058f9:	ret	
F 0x407050
0x407050:	mov	edx, dword ptr [rip + 0x461a6]
0x407056:	xor	eax, eax
0x407058:	test	edx, edx
0x40705a:	setle	al
0x40705d:	lea	eax, [rax + rax - 1]
0x407061:	ret	
F 0x407205
0x4058dd:	lea	eax, [rax + rax - 1]
0x4058e1:	ret	
F 0x40d1d8
0x40d1d8:	dec	dword ptr [rdi]
0x40d1da:	popfq	
0x40d1db:	ret	0xcfe8
F 0x410515
0x405afe:	pop	r15
0x405b00:	ret	
F 0x405011
0x405011:	add	dil, r15b
0x405014:	mov	eax, r8d
0x405017:	ret	
F 0x41241b
0x40ca82:	ret	0x8948
F 0x407505
0x4058d5:	add	byte ptr [rcx], dh
0x4058d7:	rol	byte ptr [rbp - 0x3f61f02e], 0x8d
0x4058de:	add	dil, r15b
0x4058e1:	ret	
F 0x41242b
0x41242b:	xor	dword ptr [rax + rax], eax
0x41242e:	add	byte ptr [rax + 0x63], cl
0x412431:	ret	0x148
F 0x410516
0x405aff:	pop	rdi
0x405b00:	ret	
F 0x407206
0x4058de:	add	dil, r15b
0x4058e1:	ret	
F 0x407896
0x4058de:	add	dil, r15b
0x4058e1:	ret	
F 0x4070ef
0x4070ef:	nop	
0x4070f0:	mov	edx, dword ptr [rip + 0x46106]
0x4070f6:	xor	eax, eax
0x4070f8:	test	edx, edx
0x4070fa:	setle	al
0x4070fd:	lea	eax, [rax + rax - 1]
0x407101:	ret	
F 0x407048
0x407048:	add	byte ptr [rax], al
0x40704a:	add	byte ptr [rdi + 3], dh
0x40704d:	ret	
F 0x40a24d
0x40a24d:	test	dword ptr [rbx + rax], esp
0x40a250:	add	byte ptr [rax], al
0x40a252:	add	rsp, 0x28
0x40a256:	pop	rbp
0x40a257:	pop	r12
0x40a259:	ret	
F 0x4076b9
0x403016:	ret	
F 0x4072f0
0x4058f0:	test	ecx, ecx
0x4058f2:	setg	al
0x4058f5:	lea	eax, [rax + rax - 1]
0x4058f9:	ret	
F 0x405246
0x405246:	add	byte ptr [rax], al
0x405248:	add	rsp, 8
0x40524c:	ret	
F 0x40adef
0x405af7:	pop	rbp
0x405af8:	pop	r12
0x405afa:	pop	r13
0x405afc:	pop	r14
0x405afe:	pop	r15
0x405b00:	ret	
F 0x407e71
0x405afd:	pop	rsi
0x405afe:	pop	r15
0x405b00:	ret	
F 0x407291
0x403016:	ret	
F 0x405248
0x403012:	add	rsp, 8
0x403016:	ret	
F 0x407e70
0x405afc:	pop	r14
0x405afe:	pop	r15
0x405b00:	ret	
F 0x40728f
0x4058df:	add	bh, bh
0x4058e1:	ret	
F 0x40524c
0x403016:	ret	
F 0x407298
0x407298:	mov	ecx, dword ptr [rip + 0x45f5e]
0x40729e:	xor	eax, eax
0x4072a0:	test	ecx, ecx
0x4072a2:	setg	al
0x4072a5:	lea	eax, [rax + rax - 1]
0x4072a9:	ret	
F 0x407fba
0x407fba:	vpunpcklwd	ymm8, ymm0, ymmword ptr [rdi + rcx - 0x42]
0x407fc0:	add	qword ptr [r8 - 0x7d], rcx
0x407fc4:	ret	
F 0x407e73
0x405aff:	pop	rdi
0x405b00:	ret	
F 0x40530d
0x40530d:	add	byte ptr [rax], al
0x40530f:	add	byte ptr [rbp + 0xf], dh
0x405312:	lea	rax, [rip + 0x3b527]
0x405319:	add	rsp, 0xd8
0x405320:	ret	
F 0x407299
0x407299:	or	eax, 0x45f5e
0x40729e:	xor	eax, eax
0x4072a0:	test	ecx, ecx
0x4072a2:	setg	al
0x4072a5:	lea	eax, [rax + rax - 1]
0x4072a9:	ret	
F 0x407320
0x407320:	mov	edx, dword ptr [rip + 0x45ed6]
0x407326:	xor	eax, eax
0x407328:	test	edx, edx
0x40732a:	setle	al
0x40732d:	lea	eax, [rax + rax - 1]
0x407331:	ret	
F 0x40729d
0x4058ed:	add	byte ptr [rcx], dh
0x4058ef:	rol	byte ptr [rbp - 0x3f60f037], 0x8d
0x4058f6:	add	dil, r15b
0x4058f9:	ret	
F 0x40745a
0x406ffa:	add	byte ptr [rdi + 3], bh
0x406ffd:	ret	
F 0x40530f
0x40530f:	add	byte ptr [rbp + 0xf], dh
0x405312:	lea	rax, [rip + 0x3b527]
0x405319:	add	rsp, 0xd8
0x405320:	ret	
F 0x404edc
0x404edc:	sub	eax, dword ptr [rdx + 0x358]
0x404ee2:	imul	eax, dword ptr [rip + 0x48313]
0x404ee9:	ret	
F 0x40a514
0x403016:	ret	
F 0x40729b
0x4071fb:	pop	rdi
0x4071fc:	add	al, 0
0x4071fe:	xor	eax, eax
0x407200:	test	ecx, ecx
0x407202:	setg	al
0x407205:	lea	eax, [rax + rax - 1]
0x407209:	ret	
F 0x40729a
0x40729a:	pop	rsi
0x40729b:	pop	rdi
0x40729c:	add	al, 0
0x40729e:	xor	eax, eax
0x4072a0:	test	ecx, ecx
0x4072a2:	setg	al
0x4072a5:	lea	eax, [rax + rax - 1]
0x4072a9:	ret	
F 0x4077d6
0x4058d6:	xor	eax, eax
0x4058d8:	test	edx, edx
0x4058da:	setle	al
0x4058dd:	lea	eax, [rax + rax - 1]
0x4058e1:	ret	
F 0x40729f
0x4058ef:	rol	byte ptr [rbp - 0x3f60f037], 0x8d
0x4058f6:	add	dil, r15b
0x4058f9:	ret	
F 0x405312
0x405312:	lea	rax, [rip + 0x3b527]
0x405319:	add	rsp, 0xd8
0x405320:	ret	
F 0x40729c
0x4058ec:	add	al, 0
0x4058ee:	xor	eax, eax
0x4058f0:	test	ecx, ecx
0x4058f2:	setg	al
0x4058f5:	lea	eax, [rax + rax - 1]
0x4058f9:	ret	
F 0x407e72
0x405afe:	pop	r15
0x405b00:	ret	
F 0x404ee0
0x404ee0:	add	byte ptr [rax], al
0x404ee2:	imul	eax, dword ptr [rip + 0x48313]
0x404ee9:	ret	
F 0x405313
0x405313:	lea	eax, [rip + 0x3b527]
0x405319:	add	rsp, 0xd8
0x405320:	ret	
F 0x4072a6
0x4058de:	add	dil, r15b
0x4058e1:	ret	
F 0x407e6f
0x405afb:	pop	rbp
0x405afc:	pop	r14
0x405afe:	pop	r15
0x405b00:	ret	
F 0x40dbaf
0x403016:	ret	
F 0x405314
0x405314:	add	eax, 0x3b527
0x405319:	add	rsp, 0xd8
0x405320:	ret	
F 0x407e74
0x403016:	ret	
F 0x407321
0x407321:	adc	eax, 0x45ed6
0x407326:	xor	eax, eax
0x407328:	test	edx, edx
0x40732a:	setle	al
0x40732d:	lea	eax, [rax + rax - 1]
0x407331:	ret	
F 0x4076e1
0x4076e1:	adc	eax, 0x45b16
0x4076e6:	xor	eax, eax
0x4076e8:	test	edx, edx
0x4076ea:	setle	al
0x4076ed:	lea	eax, [rax + rax - 1]
0x4076f1:	ret	
F 0x4076e3
0x407643:	pop	rbx
0x407644:	add	al, 0
0x407646:	xor	eax, eax
0x407648:	test	edx, edx
0x40764a:	setle	al
0x40764d:	lea	eax, [rax + rax - 1]
0x407651:	ret	
F 0x4076e4
0x4058d4:	add	al, 0
0x4058d6:	xor	eax, eax
0x4058d8:	test	edx, edx
0x4058da:	setle	al
0x4058dd:	lea	eax, [rax + rax - 1]
0x4058e1:	ret	
F 0x4076e5
0x4058d5:	add	byte ptr [rcx], dh
0x4058d7:	rol	byte ptr [rbp - 0x3f61f02e], 0x8d
0x4058de:	add	dil, r15b
0x4058e1:	ret	
F 0x40db51
0x405aff:	pop	rdi
0x405b00:	ret	
F 0x40a6ca
0x40a6ca:	add	byte ptr [rbp + rcx*4 + 5], cl
0x40a6ce:	ret	
F 0x4076e6
0x4058d6:	xor	eax, eax
0x4058d8:	test	edx, edx
0x4058da:	setle	al
0x4058dd:	lea	eax, [rax + rax - 1]
0x4058e1:	ret	
F 0x4076e7
0x4058d7:	rol	byte ptr [rbp - 0x3f61f02e], 0x8d
0x4058de:	add	dil, r15b
0x4058e1:	ret	
F 0x40a6ce
0x403016:	ret	
F 0x40db4e
0x405afc:	pop	r14
0x405afe:	pop	r15
0x405b00:	ret	
F 0x4075a0
0x4075a0:	mov	edx, dword ptr [rip + 0x45c56]
0x4075a6:	xor	eax, eax
0x4075a8:	test	edx, edx
0x4075aa:	setle	al
0x4075ad:	lea	eax, [rax + rax - 1]
0x4075b1:	ret	
F 0x40737f
0x4058df:	add	bh, bh
0x4058e1:	ret	
F 0x406229
0x406229:	ret	0x8348
F 0x4050b7
0x404e47:	add	al, 0
0x404e49:	ret	
F 0x407386
0x407386:	add	byte ptr [rax], al
0x407388:	mov	ecx, dword ptr [rip + 0x45e6e]
0x40738e:	xor	eax, eax
0x407390:	test	ecx, ecx
0x407392:	setg	al
0x407395:	lea	eax, [rax + rax - 1]
0x407399:	ret	
F 0x407377
0x4058d7:	rol	byte ptr [rbp - 0x3f61f02e], 0x8d
0x4058de:	add	dil, r15b
0x4058e1:	ret	
F 0x407381
0x403016:	ret	
F 0x40db50
0x405afe:	pop	r15
0x405b00:	ret	
F 0x40737a
0x4058da:	setle	al
0x4058dd:	lea	eax, [rax + rax - 1]
0x4058e1:	ret	
F 0x407371
0x407371:	adc	eax, 0x45e86
0x407376:	xor	eax, eax
0x407378:	test	edx, edx
0x40737a:	setle	al
0x40737d:	lea	eax, [rax + rax - 1]
0x407381:	ret	
F 0x40737d
0x4058dd:	lea	eax, [rax + rax - 1]
0x4058e1:	ret	
F 0x40737e
0x4058de:	add	dil, r15b
0x4058e1:	ret	
F 0x407378
0x4058d8:	test	edx, edx
0x4058da:	setle	al
0x4058dd:	lea	eax, [rax + rax - 1]
0x4058e1:	ret	
F 0x40a91d
0x40a91d:	add	byte ptr [rbp + rcx*4 + 0x40], al
0x40a921:	add	dword ptr [rbp + 1], eax
0x40a924:	ret	
F 0x407374
0x4058d4:	add	al, 0
0x4058d6:	xor	eax, eax
0x4058d8:	test	edx, edx
0x4058da:	setle	al
0x4058dd:	lea	eax, [rax + rax - 1]
0x4058e1:	ret	
F 0x407375
0x4058d5:	add	byte ptr [rcx], dh
0x4058d7:	rol	byte ptr [rbp - 0x3f61f02e], 0x8d
0x4058de:	add	dil, r15b
0x4058e1:	ret	
F 0x407376
0x4058d6:	xor	eax, eax
0x4058d8:	test	edx, edx
0x4058da:	setle	al
0x4058dd:	lea	eax, [rax + rax - 1]
0x4058e1:	ret	
F 0x407373
0x407323:	pop	rsi
0x407324:	add	al, 0
0x407326:	xor	eax, eax
0x407328:	test	edx, edx
0x40732a:	setle	al
0x40732d:	lea	eax, [rax + rax - 1]
0x407331:	ret	
F 0x40733b
0x40733b:	pop	rsi
0x40733c:	add	al, 0
0x40733e:	xor	eax, eax
0x407340:	test	ecx, ecx
0x407342:	setg	al
0x407345:	lea	eax, [rax + rax - 1]
0x407349:	ret	
F 0x40733c
0x4058ec:	add	al, 0
0x4058ee:	xor	eax, eax
0x4058f0:	test	ecx, ecx
0x4058f2:	setg	al
0x4058f5:	lea	eax, [rax + rax - 1]
0x4058f9:	ret	
F 0x40733d
0x4058ed:	add	byte ptr [rcx], dh
0x4058ef:	rol	byte ptr [rbp - 0x3f60f037], 0x8d
0x4058f6:	add	dil, r15b
0x4058f9:	ret	
F 0x40733e
0x4058ee:	xor	eax, eax
0x4058f0:	test	ecx, ecx
0x4058f2:	setg	al
0x4058f5:	lea	eax, [rax + rax - 1]
0x4058f9:	ret	
F 0x40733f
0x4058ef:	rol	byte ptr [rbp - 0x3f60f037], 0x8d
0x4058f6:	add	dil, r15b
0x4058f9:	ret	
F 0x407340
0x4058f0:	test	ecx, ecx
0x4058f2:	setg	al
0x4058f5:	lea	eax, [rax + rax - 1]
0x4058f9:	ret	
F 0x407341
0x4058f1:	leave	
0x4058f2:	setg	al
0x4058f5:	lea	eax, [rax + rax - 1]
0x4058f9:	ret	
F 0x407342
0x4058f2:	setg	al
0x4058f5:	lea	eax, [rax + rax - 1]
0x4058f9:	ret	
F 0x407345
0x4058dd:	lea	eax, [rax + rax - 1]
0x4058e1:	ret	
F 0x407346
0x4058de:	add	dil, r15b
0x4058e1:	ret	
F 0x407347
0x4058df:	add	bh, bh
0x4058e1:	ret	
F 0x407349
0x403016:	ret	
F 0x407368
0x407048:	add	byte ptr [rax], al
0x40704a:	add	byte ptr [rdi + 3], dh
0x40704d:	ret	
F 0x40736a
0x40704a:	add	byte ptr [rdi + 3], dh
0x40704d:	ret	
F 0x40736d
0x403016:	ret	
F 0x40736e
0x40736e:	nop	
0x407370:	mov	edx, dword ptr [rip + 0x45e86]
0x407376:	xor	eax, eax
0x407378:	test	edx, edx
0x40737a:	setle	al
0x40737d:	lea	eax, [rax + rax - 1]
0x407381:	ret	
F 0x40736f
0x40736f:	nop	
0x407370:	mov	edx, dword ptr [rip + 0x45e86]
0x407376:	xor	eax, eax
0x407378:	test	edx, edx
0x40737a:	setle	al
0x40737d:	lea	eax, [rax + rax - 1]
0x407381:	ret	
F 0x407370
0x407370:	mov	edx, dword ptr [rip + 0x45e86]
0x407376:	xor	eax, eax
0x407378:	test	edx, edx
0x40737a:	setle	al
0x40737d:	lea	eax, [rax + rax - 1]
0x407381:	ret	
F 0x40eea1
0x405aff:	pop	rdi
0x405b00:	ret	
F 0x40a94f
0x4039fc:	add	byte ptr [rax - 0x7d], cl
0x4039ff:	ret	
F 0x4074c1
0x403016:	ret	
F 0x40adf0
0x405af8:	pop	r12
0x405afa:	pop	r13
0x405afc:	pop	r14
0x405afe:	pop	r15
0x405b00:	ret	
F 0x4074be
0x4058de:	add	dil, r15b
0x4058e1:	ret	
F 0x4076ea
0x4058da:	setle	al
0x4058dd:	lea	eax, [rax + rax - 1]
0x4058e1:	ret	
F 0x40a969
0x406da9:	add	dword ptr [rax - 0x7d], ecx
0x406dac:	ret	
F 0x4074bf
0x4058df:	add	bh, bh
0x4058e1:	ret	
F 0x404eda
0x404eda:	add	byte ptr [rax], al
0x404edc:	sub	eax, dword ptr [rdx + 0x358]
0x404ee2:	imul	eax, dword ptr [rip + 0x48313]
0x404ee9:	ret	
F 0x407437
0x4058df:	add	bh, bh
0x4058e1:	ret	
F 0x40eea2
0x403016:	ret	
F 0x40f035
0x403016:	ret	
F 0x40ab31
0x406da9:	add	dword ptr [rax - 0x7d], ecx
0x406dac:	ret	
F 0x40f195
0x40f195:	add	byte ptr [rcx + 0xfed405], cl
0x40f19b:	add	byte ptr [rax + 0x158908cc], al
0x40f1a1:	ret	
F 0x40710e
0x4058ee:	xor	eax, eax
0x4058f0:	test	ecx, ecx
0x4058f2:	setg	al
0x4058f5:	lea	eax, [rax + rax - 1]
0x4058f9:	ret	
F 0x40ab17
0x4039fc:	add	byte ptr [rax - 0x7d], cl
0x4039ff:	ret	
F 0x40f199
0x40f199:	inc	byte ptr [rax]
0x40f19b:	add	byte ptr [rax + 0x158908cc], al
0x40f1a1:	ret	
F 0x40a9e9
0x403016:	ret	
F 0x4074c8
0x4074c8:	mov	ecx, dword ptr [rip + 0x45d2e]
0x4074ce:	xor	eax, eax
0x4074d0:	test	ecx, ecx
0x4074d2:	setg	al
0x4074d5:	lea	eax, [rax + rax - 1]
0x4074d9:	ret	
F 0x4074c6
0x4074c6:	add	byte ptr [rax], al
0x4074c8:	mov	ecx, dword ptr [rip + 0x45d2e]
0x4074ce:	xor	eax, eax
0x4074d0:	test	ecx, ecx
0x4074d2:	setg	al
0x4074d5:	lea	eax, [rax + rax - 1]
0x4074d9:	ret	
F 0x407435
0x4058dd:	lea	eax, [rax + rax - 1]
0x4058e1:	ret	
F 0x4099d4
0x405af4:	add	byte ptr [rax], al
0x405af6:	pop	rbx
0x405af7:	pop	rbp
0x405af8:	pop	r12
0x405afa:	pop	r13
0x405afc:	pop	r14
0x405afe:	pop	r15
0x405b00:	ret	
F 0x4099d5
0x405af5:	add	byte ptr [rbx + 0x5d], bl
0x405af8:	pop	r12
0x405afa:	pop	r13
0x405afc:	pop	r14
0x405afe:	pop	r15
0x405b00:	ret	
F 0x4099d6
0x405af6:	pop	rbx
0x405af7:	pop	rbp
0x405af8:	pop	r12
0x405afa:	pop	r13
0x405afc:	pop	r14
0x405afe:	pop	r15
0x405b00:	ret	
F 0x407658
0x407658:	mov	ecx, dword ptr [rip + 0x45b9e]
0x40765e:	xor	eax, eax
0x407660:	test	ecx, ecx
0x407662:	setg	al
0x407665:	lea	eax, [rax + rax - 1]
0x407669:	ret	
F 0x4099d7
0x405af7:	pop	rbp
0x405af8:	pop	r12
0x405afa:	pop	r13
0x405afc:	pop	r14
0x405afe:	pop	r15
0x405b00:	ret	
F 0x4099d8
0x405af8:	pop	r12
0x405afa:	pop	r13
0x405afc:	pop	r14
0x405afe:	pop	r15
0x405b00:	ret	
F 0x407659
0x407659:	or	eax, 0x45b9e
0x40765e:	xor	eax, eax
0x407660:	test	ecx, ecx
0x407662:	setg	al
0x407665:	lea	eax, [rax + rax - 1]
0x407669:	ret	
F 0x4099da
0x405afa:	pop	r13
0x405afc:	pop	r14
0x405afe:	pop	r15
0x405b00:	ret	
F 0x40765a
0x40765a:	sahf	
0x40765b:	pop	rbx
0x40765c:	add	al, 0
0x40765e:	xor	eax, eax
0x407660:	test	ecx, ecx
0x407662:	setg	al
0x407665:	lea	eax, [rax + rax - 1]
0x407669:	ret	
F 0x4099db
0x405afb:	pop	rbp
0x405afc:	pop	r14
0x405afe:	pop	r15
0x405b00:	ret	
F 0x40765b
0x40760b:	pop	rbx
0x40760c:	add	al, 0
0x40760e:	xor	eax, eax
0x407610:	test	ecx, ecx
0x407612:	setg	al
0x407615:	lea	eax, [rax + rax - 1]
0x407619:	ret	
F 0x4099dc
0x405afc:	pop	r14
0x405afe:	pop	r15
0x405b00:	ret	
F 0x40765c
0x4058ec:	add	al, 0
0x4058ee:	xor	eax, eax
0x4058f0:	test	ecx, ecx
0x4058f2:	setg	al
0x4058f5:	lea	eax, [rax + rax - 1]
0x4058f9:	ret	
F 0x4099dd
0x405afd:	pop	rsi
0x405afe:	pop	r15
0x405b00:	ret	
F 0x40765d
0x4058ed:	add	byte ptr [rcx], dh
0x4058ef:	rol	byte ptr [rbp - 0x3f60f037], 0x8d
0x4058f6:	add	dil, r15b
0x4058f9:	ret	
F 0x4099de
0x405afe:	pop	r15
0x405b00:	ret	
F 0x40724f
0x4058ef:	rol	byte ptr [rbp - 0x3f60f037], 0x8d
0x4058f6:	add	dil, r15b
0x4058f9:	ret	
F 0x407730
0x407730:	mov	edx, dword ptr [rip + 0x45ac6]
0x407736:	xor	eax, eax
0x407738:	test	edx, edx
0x40773a:	setle	al
0x40773d:	lea	eax, [rax + rax - 1]
0x407741:	ret	
F 0x413a26
0x413a26:	jmp	0x4136f5
F 0x413b56
0x403016:	ret	
F 0x4051de
0x4051de:	mov	dword ptr [rax + 0xc8], 0
0x4051e9:	ret	
F 0x413ba2
0x413ba2:	ror	byte ptr [rdi], 0x48
0x413ba5:	ret	
F 0x40fe7a
0x40fe7a:	lahf	
0x40fe7b:	ret	0x8348
F 0x407783
0x407733:	pop	rdx
0x407734:	add	al, 0
0x407736:	xor	eax, eax
0x407738:	test	edx, edx
0x40773a:	setle	al
0x40773d:	lea	eax, [rax + rax - 1]
0x407741:	ret	
F 0x404f21
0x404e47:	add	al, 0
0x404e49:	ret	
F 0x413ba4
0x413ba4:	ret	
F 0x410032
0x40da99:	pop	rbx
0x40da9a:	ret	
F 0x4075e0
0x4075e0:	add	byte ptr [rax], al
0x4075e2:	add	byte ptr [rdi + 0xb], dh
0x4075e5:	ret	
F 0x410033
0x403016:	ret	
F 0x404f23
0x403016:	ret	
F 0x4070a6
0x4058d6:	xor	eax, eax
0x4058d8:	test	edx, edx
0x4058da:	setle	al
0x4058dd:	lea	eax, [rax + rax - 1]
0x4058e1:	ret	
F 0x407787
0x4058d7:	rol	byte ptr [rbp - 0x3f61f02e], 0x8d
0x4058de:	add	dil, r15b
0x4058e1:	ret	
F 0x4068b2
0x4068b2:	add	al, 0x41
0x4068b4:	mov	eax, dword ptr [rsp + rbx + 8]
0x4068b8:	add	rsp, 8
0x4068bc:	pop	rbx
0x4068bd:	pop	rbp
0x4068be:	pop	r12
0x4068c0:	pop	r13
0x4068c2:	ret	
F 0x406891
0x403016:	ret	
F 0x405218
0x405218:	mov	dword ptr [rax + 0xc8], 0x12
0x405222:	ret	
F 0x410030
0x410007:	add	byte ptr [rax], al
0x410009:	pop	rbx
0x41000a:	ret	
F 0x404f1e
0x404f1e:	add	eax, 0x482d9
0x404f23:	ret	
F 0x407788
0x4058d8:	test	edx, edx
0x4058da:	setle	al
0x4058dd:	lea	eax, [rax + rax - 1]
0x4058e1:	ret	
F 0x41002c
0x41002c:	mov	dword ptr [rbx + 0xcc], eax
0x410032:	pop	rbx
0x410033:	ret	
F 0x4070a5
0x4058d5:	add	byte ptr [rcx], dh
0x4058d7:	rol	byte ptr [rbp - 0x3f61f02e], 0x8d
0x4058de:	add	dil, r15b
0x4058e1:	ret	
F 0x407812
0x4077c2:	add	byte ptr [rax], al
0x4077c4:	add	byte ptr [rdi + 9], dh
0x4077c7:	ret	
F 0x413ba5
0x403016:	ret	
F 0x404f1d
0x404f1d:	scasd	eax, dword ptr [rdi]
0x404f1e:	add	eax, 0x482d9
0x404f23:	ret	
F 0x4070a7
0x4058d7:	rol	byte ptr [rbp - 0x3f61f02e], 0x8d
0x4058de:	add	dil, r15b
0x4058e1:	ret	
F 0x404f1c
0x404f1c:	imul	eax, dword ptr [rip + 0x482d9]
0x404f23:	ret	
F 0x413e2b
0x403016:	ret	
F 0x40782d
0x4058dd:	lea	eax, [rax + rax - 1]
0x4058e1:	ret	
F 0x414647
0x404557:	add	al, ch
0x404559:	ret	
F 0x4077d1
0x4077d1:	adc	eax, 0x45a26
0x4077d6:	xor	eax, eax
0x4077d8:	test	edx, edx
0x4077da:	setle	al
0x4077dd:	lea	eax, [rax + rax - 1]
0x4077e1:	ret	
F 0x410029
0x410029:	or	ah, 0x20
0x41002c:	mov	dword ptr [rbx + 0xcc], eax
0x410032:	pop	rbx
0x410033:	ret	
F 0x4077a9
0x403016:	ret	
F 0x4077f9
0x403016:	ret	
F 0x414649
0x403016:	ret	
F 0x404f1a
0x404f1a:	add	al, 0xf
0x404f1d:	scasd	eax, dword ptr [rdi]
0x404f1e:	add	eax, 0x482d9
0x404f23:	ret	
F 0x407731
0x407731:	adc	eax, 0x45ac6
0x407736:	xor	eax, eax
0x407738:	test	edx, edx
0x40773a:	setle	al
0x40773d:	lea	eax, [rax + rax - 1]
0x407741:	ret	
F 0x4084c9
0x4084c9:	add	byte ptr [rax], al
0x4084cb:	add	byte ptr [rcx + rcx*4 - 0x20], cl
0x4084cf:	pop	r12
0x4084d1:	ret	
F 0x40778a
0x4058da:	setle	al
0x4058dd:	lea	eax, [rax + rax - 1]
0x4058e1:	ret	
F 0x404f1b
0x404f1b:	add	al, 0xf
0x404f1d:	scasd	eax, dword ptr [rdi]
0x404f1e:	add	eax, 0x482d9
0x404f23:	ret	
F 0x407827
0x4058d7:	rol	byte ptr [rbp - 0x3f61f02e], 0x8d
0x4058de:	add	dil, r15b
0x4058e1:	ret	
F 0x415345
0x415345:	test	al, 3
0x415347:	add	al, ch
0x415349:	ret	
F 0x4077d2
0x4077d2:	pop	rdx
0x4077d4:	add	al, 0
0x4077d6:	xor	eax, eax
0x4077d8:	test	edx, edx
0x4077da:	setle	al
0x4077dd:	lea	eax, [rax + rax - 1]
0x4077e1:	ret	
F 0x41000a
0x403016:	ret	
F 0x40763d
0x403016:	ret	
F 0x410026
0x410026:	and	byte ptr [rbp + 0xf], dh
0x410029:	or	ah, 0x20
0x41002c:	mov	dword ptr [rbx + 0xcc], eax
0x410032:	pop	rbx
0x410033:	ret	
F 0x415347
0x404557:	add	al, ch
0x404559:	ret	
F 0x40763a
0x406ffa:	add	byte ptr [rdi + 3], bh
0x406ffd:	ret	
F 0x40521f
0x4051fc:	add	byte ptr [rax], al
0x4051fe:	add	bl, al
0x405200:	ret	
F 0x415349
0x403016:	ret	
F 0x410009
0x40da99:	pop	rbx
0x40da9a:	ret	
F 0x4070a8
0x4058d8:	test	edx, edx
0x4058da:	setle	al
0x4058dd:	lea	eax, [rax + rax - 1]
0x4058e1:	ret	
F 0x415651
0x415651:	movabs	dword ptr [0x48fffedbb7e80003], eax
0x41565a:	mov	dword ptr [rip + 0x3a300], eax
0x415660:	add	rsp, 8
0x415664:	ret	
F 0x4068b3
0x4068b3:	mov	eax, dword ptr [r12 + rbx + 8]
0x4068b8:	add	rsp, 8
0x4068bc:	pop	rbx
0x4068bd:	pop	rbp
0x4068be:	pop	r12
0x4068c0:	pop	r13
0x4068c2:	ret	
F 0x404f18
0x404f18:	add	al, 0x2b
0x404f1a:	add	al, 0xf
0x404f1d:	scasd	eax, dword ptr [rdi]
0x404f1e:	add	eax, 0x482d9
0x404f23:	ret	
F 0x4070bc
0x4058ec:	add	al, 0
0x4058ee:	xor	eax, eax
0x4058f0:	test	ecx, ecx
0x4058f2:	setg	al
0x4058f5:	lea	eax, [rax + rax - 1]
0x4058f9:	ret	
F 0x405221
0x4051fe:	add	bl, al
0x405200:	ret	
F 0x4075c0
0x4058f0:	test	ecx, ecx
0x4058f2:	setg	al
0x4058f5:	lea	eax, [rax + rax - 1]
0x4058f9:	ret	
F 0x410007
0x410007:	add	byte ptr [rax], al
0x410009:	pop	rbx
0x41000a:	ret	
F 0x407781
0x407781:	adc	eax, 0x45a76
0x407786:	xor	eax, eax
0x407788:	test	edx, edx
0x40778a:	setle	al
0x40778d:	lea	eax, [rax + rax - 1]
0x407791:	ret	
F 0x404f19
0x404f19:	sub	eax, dword ptr [rdx + 4]
0x404f1c:	imul	eax, dword ptr [rip + 0x482d9]
0x404f23:	ret	
F 0x4070aa
0x4058da:	setle	al
0x4058dd:	lea	eax, [rax + rax - 1]
0x4058e1:	ret	
F 0x4077f7
0x4058df:	add	bh, bh
0x4058e1:	ret	
F 0x4075c2
0x4058f2:	setg	al
0x4058f5:	lea	eax, [rax + rax - 1]
0x4058f9:	ret	
F 0x4084ca
0x4084ca:	add	byte ptr [rax], al
0x4084cc:	mov	rax, r12
0x4084cf:	pop	r12
0x4084d1:	ret	
F 0x407641
0x407641:	adc	eax, 0x45bb6
0x407646:	xor	eax, eax
0x407648:	test	edx, edx
0x40764a:	setle	al
0x40764d:	lea	eax, [rax + rax - 1]
0x407651:	ret	
F 0x404f17
0x404f17:	add	al, 0x2b
0x404f1a:	add	al, 0xf
0x404f1d:	scasd	eax, dword ptr [rdi]
0x404f1e:	add	eax, 0x482d9
0x404f23:	ret	
F 0x410006
0x410006:	add	byte ptr [rax], al
0x410009:	pop	rbx
0x41000a:	ret	
F 0x415658
0x415658:	dec	dword ptr [rax - 0x77]
0x41565b:	add	eax, 0x3a300
0x415660:	add	rsp, 8
0x415664:	ret	
F 0x40688f
0x40688f:	or	al, 0x83
0x406891:	ret	
F 0x40778d
0x4058dd:	lea	eax, [rax + rax - 1]
0x4058e1:	ret	
F 0x4075c6
0x4058de:	add	dil, r15b
0x4058e1:	ret	
F 0x405220
0x404d96:	add	byte ptr [rax], al
0x404d98:	ret	
F 0x4051db
0x4051db:	dec	dword ptr [rsi + 0x75]
0x4051de:	mov	dword ptr [rax + 0xc8], 0
0x4051e9:	ret	
F 0x404f01
0x403016:	ret	
F 0x4067f8
0x403016:	ret	
F 0x415659
0x415659:	mov	qword ptr [rip + 0x3a300], rax
0x415660:	add	rsp, 8
0x415664:	ret	
F 0x404f16
0x404f16:	mov	eax, dword ptr [rax + 4]
0x404f19:	sub	eax, dword ptr [rdx + 4]
0x404f1c:	imul	eax, dword ptr [rip + 0x482d9]
0x404f23:	ret	
F 0x410004
0x410004:	add	byte ptr [rax], al
0x410006:	add	byte ptr [rax], al
0x410009:	pop	rbx
0x41000a:	ret	
F 0x4070ad
0x4058dd:	lea	eax, [rax + rax - 1]
0x4058e1:	ret	
F 0x404eff
0x404e47:	add	al, 0
0x404e49:	ret	
F 0x407638
0x406ff8:	add	byte ptr [rax], al
0x406ffa:	add	byte ptr [rdi + 3], bh
0x406ffd:	ret	
F 0x40ffff
0x40ffff:	xor	dword ptr [rbx + 0xcc], 0x4000
0x410009:	pop	rbx
0x41000a:	ret	
F 0x4070ae
0x4058de:	add	dil, r15b
0x4058e1:	ret	
F 0x407825
0x4058d5:	add	byte ptr [rcx], dh
0x4058d7:	rol	byte ptr [rbp - 0x3f61f02e], 0x8d
0x4058de:	add	dil, r15b
0x4058e1:	ret	
F 0x41565a
0x41565a:	mov	dword ptr [rip + 0x3a300], eax
0x415660:	add	rsp, 8
0x415664:	ret	
F 0x4077f6
0x4058de:	add	dil, r15b
0x4058e1:	ret	
F 0x4075c5
0x4058dd:	lea	eax, [rax + rax - 1]
0x4058e1:	ret	
F 0x404efc
0x404efc:	add	eax, 0x482fb
0x404f01:	ret	
F 0x4077c2
0x4077c2:	add	byte ptr [rax], al
0x4077c4:	add	byte ptr [rdi + 9], dh
0x4077c7:	ret	
F 0x407642
0x407642:	mov	dh, 0x5b
0x407644:	add	al, 0
0x407646:	xor	eax, eax
0x407648:	test	edx, edx
0x40764a:	setle	al
0x40764d:	lea	eax, [rax + rax - 1]
0x407651:	ret	
F 0x41565b
0x41565b:	add	eax, 0x3a300
0x415660:	add	rsp, 8
0x415664:	ret	
F 0x4068b4
0x4068b4:	mov	eax, dword ptr [rsp + rbx + 8]
0x4068b8:	add	rsp, 8
0x4068bc:	pop	rbx
0x4068bd:	pop	rbp
0x4068be:	pop	r12
0x4068c0:	pop	r13
0x4068c2:	ret	
F 0x406665
0x406665:	nop	
0x406666:	add	byte ptr [rax], al
0x406668:	add	byte ptr [rcx + rcx*4 - 0x20], al
0x40666c:	pop	r12
0x40666e:	ret	
F 0x40fff8
0x404d8f:	jmp	rax
F 0x405222
0x403016:	ret	
F 0x405223
0x403016:	ret	
F 0x40ffb7
0x403016:	ret	
F 0x41565e
0x41565e:	add	eax, dword ptr [rax]
0x415660:	add	rsp, 8
0x415664:	ret	
F 0x404efb
0x404efb:	scasd	eax, dword ptr [rdi]
0x404efc:	add	eax, 0x482fb
0x404f01:	ret	
F 0x40ffb2
0x40ffb2:	add	eax, 0xebc78948
0x40ffb7:	ret	
F 0x4070af
0x4058df:	add	bh, bh
0x4058e1:	ret	
F 0x4077f5
0x4058dd:	lea	eax, [rax + rax - 1]
0x4058e1:	ret	
F 0x407780
0x407780:	mov	edx, dword ptr [rip + 0x45a76]
0x407786:	xor	eax, eax
0x407788:	test	edx, edx
0x40778a:	setle	al
0x40778d:	lea	eax, [rax + rax - 1]
0x407791:	ret	
F 0x40fe7b
0x406229:	ret	0x8348
F 0x404efa
0x404efa:	imul	eax, dword ptr [rip + 0x482fb]
0x404f01:	ret	
F 0x4084cb
0x4084cb:	add	byte ptr [rcx + rcx*4 - 0x20], cl
0x4084cf:	pop	r12
0x4084d1:	ret	
F 0x407824
0x4058d4:	add	al, 0
0x4058d6:	xor	eax, eax
0x4058d8:	test	edx, edx
0x4058da:	setle	al
0x4058dd:	lea	eax, [rax + rax - 1]
0x4058e1:	ret	
F 0x415660
0x403012:	add	rsp, 8
0x403016:	ret	
F 0x407468
0x4058d8:	test	edx, edx
0x4058da:	setle	al
0x4058dd:	lea	eax, [rax + rax - 1]
0x4058e1:	ret	
F 0x4058f6
0x4058de:	add	dil, r15b
0x4058e1:	ret	
F 0x404e3c
0x404e3c:	sub	eax, dword ptr [rdx + 0x394]
0x404e42:	imul	eax, dword ptr [rip + 0x483b3]
0x404e49:	ret	
F 0x40b2c2
0x40a4ab:	ret	0x8b48
F 0x4058f7
0x4058df:	add	bh, bh
0x4058e1:	ret	
F 0x403c4d
0x403016:	ret	
F 0x4136f5
0x4066ce:	add	rsp, 8
0x4066d2:	pop	rbx
0x4066d3:	pop	rbp
0x4066d4:	pop	r12
0x4066d6:	pop	r13
0x4066d8:	ret	
F 0x4058f9
0x403016:	ret	
F 0x403ebe
0x403ebe:	mov	dword ptr [rip + 0xf440000], ecx
0x403ec4:	mov	dh, 0x65
0x403ec6:	add	byte ptr [rax - 0x7d], cl
0x403ec9:	ret	
F 0x412ec1
0x403016:	ret	
F 0x412ef4
0x41078f:	ret	0
F 0x40746a
0x4058da:	setle	al
0x4058dd:	lea	eax, [rax + rax - 1]
0x4058e1:	ret	
F 0x405aa6
0x403016:	ret	
F 0x4136f8
0x4066d1:	or	byte ptr [rbx + 0x5d], bl
0x4066d4:	pop	r12
0x4066d6:	pop	r13
0x4066d8:	ret	
F 0x40e2dc
0x405af5:	add	byte ptr [rbx + 0x5d], bl
0x405af8:	pop	r12
0x405afa:	pop	r13
0x405afc:	pop	r14
0x405afe:	pop	r15
0x405b00:	ret	
F 0x405af3
0x405af3:	add	al, 0
0x405af5:	add	byte ptr [rbx + 0x5d], bl
0x405af8:	pop	r12
0x405afa:	pop	r13
0x405afc:	pop	r14
0x405afe:	pop	r15
0x405b00:	ret	
F 0x403ebf
0x403ebf:	or	eax, 0xf440000
0x403ec4:	mov	dh, 0x65
0x403ec6:	add	byte ptr [rax - 0x7d], cl
0x403ec9:	ret	
F 0x41371f
0x41371f:	sub	dword ptr [rbp + 0x174], 1
0x413726:	mov	dword ptr [rbp + 0x178], 1
0x413730:	jmp	0x4136f5
F 0x40aded
0x40aded:	cmp	byte ptr [rbx + 0x5d], bl
0x40adf0:	pop	r12
0x40adf2:	pop	r13
0x40adf4:	pop	r14
0x40adf6:	pop	r15
0x40adf8:	ret	
F 0x413724
0x413724:	add	byte ptr [rcx], al
0x413726:	mov	dword ptr [rbp + 0x178], 1
0x413730:	jmp	0x4136f5
F 0x403ec4
0x403ec4:	mov	dh, 0x65
0x403ec6:	add	byte ptr [rax - 0x7d], cl
0x403ec9:	ret	
F 0x404e47
0x404e47:	add	al, 0
0x404e49:	ret	
F 0x40b7b1
0x40b7b1:	sub	esi, dword ptr [rdi + 0x1480000]
0x40b7b7:	ret	0x6348
F 0x4136ef
0x4136ef:	mov	dword ptr [rbp + 0xcc], eax
0x4136f5:	add	rsp, 8
0x4136f9:	pop	rbx
0x4136fa:	pop	rbp
0x4136fb:	pop	r12
0x4136fd:	pop	r13
0x4136ff:	ret	
F 0x404f5b
0x404f5b:	mov	esi, 0xd0291c52
0x404f60:	imul	eax, dword ptr [rip + 0x48295]
0x404f67:	ret	
F 0x405af4
0x405af4:	add	byte ptr [rax], al
0x405af6:	pop	rbx
0x405af7:	pop	rbp
0x405af8:	pop	r12
0x405afa:	pop	r13
0x405afc:	pop	r14
0x405afe:	pop	r15
0x405b00:	ret	
F 0x403ec6
0x4039fc:	add	byte ptr [rax - 0x7d], cl
0x4039ff:	ret	
F 0x404e16
0x404d96:	add	byte ptr [rax], al
0x404d98:	ret	
F 0x405af5
0x405af5:	add	byte ptr [rbx + 0x5d], bl
0x405af8:	pop	r12
0x405afa:	pop	r13
0x405afc:	pop	r14
0x405afe:	pop	r15
0x405b00:	ret	
F 0x404e7d
0x404e7d:	sub	rax, qword ptr [rdx + 0xe0]
0x404e84:	imul	eax, dword ptr [rip + 0x48371]
0x404e8b:	ret	
F 0x404e14
0x404d94:	add	byte ptr [rax], al
0x404d96:	add	byte ptr [rax], al
0x404d98:	ret	
F 0x403ec9
0x403016:	ret	
F 0x4136f3
0x4136f3:	add	byte ptr [rax], al
0x4136f5:	add	rsp, 8
0x4136f9:	pop	rbx
0x4136fa:	pop	rbp
0x4136fb:	pop	r12
0x4136fd:	pop	r13
0x4136ff:	ret	
F 0x404053
0x404053:	add	eax, 0x83480000
0x404058:	ret	
F 0x40e2da
0x40e2da:	or	eax, 0x5d5b0000
0x40e2df:	pop	r12
0x40e2e1:	pop	r13
0x40e2e3:	pop	r14
0x40e2e5:	pop	r15
0x40e2e7:	ret	
F 0x405af6
0x405af6:	pop	rbx
0x405af7:	pop	rbp
0x405af8:	pop	r12
0x405afa:	pop	r13
0x405afc:	pop	r14
0x405afe:	pop	r15
0x405b00:	ret	
F 0x404f5c
0x404f5c:	push	rdx
0x404f5d:	sbb	al, 0x29
0x404f5f:	ror	byte ptr [rdi], 1
0x404f61:	scasd	eax, dword ptr [rdi]
0x404f62:	add	eax, 0x48295
0x404f67:	ret	
F 0x404055
0x4039fc:	add	byte ptr [rax - 0x7d], cl
0x4039ff:	ret	
F 0x404e18
0x403016:	ret	
F 0x405af7
0x405af7:	pop	rbp
0x405af8:	pop	r12
0x405afa:	pop	r13
0x405afc:	pop	r14
0x405afe:	pop	r15
0x405b00:	ret	
F 0x404058
0x403016:	ret	
F 0x404e3f
0x404e3f:	add	eax, dword ptr [rax]
0x404e41:	add	byte ptr [rdi], cl
0x404e43:	scasd	eax, dword ptr [rdi]
0x404e44:	add	eax, 0x483b3
0x404e49:	ret	
F 0x404e84
0x404e84:	imul	eax, dword ptr [rip + 0x48371]
0x404e8b:	ret	
F 0x405af8
0x405af8:	pop	r12
0x405afa:	pop	r13
0x405afc:	pop	r14
0x405afe:	pop	r15
0x405b00:	ret	
F 0x404e13
0x404d93:	add	byte ptr [rax], 0
0x404d96:	add	byte ptr [rax], al
0x404d98:	ret	
F 0x40747c
0x4058ec:	add	al, 0
0x4058ee:	xor	eax, eax
0x4058f0:	test	ecx, ecx
0x4058f2:	setg	al
0x4058f5:	lea	eax, [rax + rax - 1]
0x4058f9:	ret	
F 0x404140
0x404140:	add	byte ptr [rdi], cl
0x404142:	mov	dh, 0x45
0x404144:	add	byte ptr [rax - 0x7d], cl
0x404147:	ret	
F 0x40e2e2
0x405afb:	pop	rbp
0x405afc:	pop	r14
0x405afe:	pop	r15
0x405b00:	ret	
F 0x40b749
0x403016:	ret	
F 0x405afa
0x405afa:	pop	r13
0x405afc:	pop	r14
0x405afe:	pop	r15
0x405b00:	ret	
F 0x405afb
0x405afb:	pop	rbp
0x405afc:	pop	r14
0x405afe:	pop	r15
0x405b00:	ret	
F 0x405afc
0x405afc:	pop	r14
0x405afe:	pop	r15
0x405b00:	ret	
F 0x412fcd
0x403016:	ret	
F 0x40e2e7
0x403016:	ret	
F 0x404142
0x404142:	mov	dh, 0x45
0x404144:	add	byte ptr [rax - 0x7d], cl
0x404147:	ret	
F 0x404e3a
0x404e3a:	add	byte ptr [rax], al
0x404e3c:	sub	eax, dword ptr [rdx + 0x394]
0x404e42:	imul	eax, dword ptr [rip + 0x483b3]
0x404e49:	ret	
F 0x404f59
0x404f59:	sbb	al, 0xf
0x404f5b:	mov	esi, 0xd0291c52
0x404f60:	imul	eax, dword ptr [rip + 0x48295]
0x404f67:	ret	
F 0x40b099
0x40b099:	add	qword ptr [rax], rax
0x40b09c:	add	byte ptr [rbx + 0x5d], bl
0x40b09f:	pop	r12
0x40b0a1:	pop	r13
0x40b0a3:	pop	r14
0x40b0a5:	pop	r15
0x40b0a7:	ret	
F 0x405afd
0x405afd:	pop	rsi
0x405afe:	pop	r15
0x405b00:	ret	
F 0x404e36
0x404e36:	mov	eax, dword ptr [rax + 0x394]
0x404e3c:	sub	eax, dword ptr [rdx + 0x394]
0x404e42:	imul	eax, dword ptr [rip + 0x483b3]
0x404e49:	ret	
F 0x40e2e4
0x405afd:	pop	rsi
0x405afe:	pop	r15
0x405b00:	ret	
F 0x404f5e
0x404f5e:	sub	eax, edx
0x404f60:	imul	eax, dword ptr [rip + 0x48295]
0x404f67:	ret	
F 0x405afe
0x405afe:	pop	r15
0x405b00:	ret	
F 0x407478
0x407478:	mov	ecx, dword ptr [rip + 0x45d7e]
0x40747e:	xor	eax, eax
0x407480:	test	ecx, ecx
0x407482:	setg	al
0x407485:	lea	eax, [rax + rax - 1]
0x407489:	ret	
F 0x412ebe
0x406cfc:	add	byte ptr [rax - 0x77], cl
0x406cff:	ret	
F 0x404143
0x404143:	add	byte ptr [r8 - 0x7d], r9b
0x404147:	ret	
F 0x407486
0x4058de:	add	dil, r15b
0x4058e1:	ret	
F 0x404f5d
0x404f5d:	sbb	al, 0x29
0x404f5f:	ror	byte ptr [rdi], 1
0x404f61:	scasd	eax, dword ptr [rdi]
0x404f62:	add	eax, 0x48295
0x404f67:	ret	
F 0x4075aa
0x4058da:	setle	al
0x4058dd:	lea	eax, [rax + rax - 1]
0x4058e1:	ret	
F 0x404e41
0x404e41:	add	byte ptr [rdi], cl
0x404e43:	scasd	eax, dword ptr [rdi]
0x404e44:	add	eax, 0x483b3
0x404e49:	ret	
F 0x4076f8
0x4076f8:	mov	ecx, dword ptr [rip + 0x45afe]
0x4076fe:	xor	eax, eax
0x407700:	test	ecx, ecx
0x407702:	setg	al
0x407705:	lea	eax, [rax + rax - 1]
0x407709:	ret	
F 0x404e42
0x404e42:	imul	eax, dword ptr [rip + 0x483b3]
0x404e49:	ret	
F 0x404e40
0x404e40:	add	byte ptr [rax], al
0x404e42:	imul	eax, dword ptr [rip + 0x483b3]
0x404e49:	ret	
F 0x40760d
0x4058ed:	add	byte ptr [rcx], dh
0x4058ef:	rol	byte ptr [rbp - 0x3f60f037], 0x8d
0x4058f6:	add	dil, r15b
0x4058f9:	ret	
F 0x404ed6
0x404ed6:	mov	eax, dword ptr [rax + 0x358]
0x404edc:	sub	eax, dword ptr [rdx + 0x358]
0x404ee2:	imul	eax, dword ptr [rip + 0x48313]
0x404ee9:	ret	
F 0x4136ec
0x4136ec:	xor	eax, 0x20
0x4136ef:	mov	dword ptr [rbp + 0xcc], eax
0x4136f5:	add	rsp, 8
0x4136f9:	pop	rbx
0x4136fa:	pop	rbp
0x4136fb:	pop	r12
0x4136fd:	pop	r13
0x4136ff:	ret	
F 0x4076f1
0x403016:	ret	
F 0x4136fb
0x4057cc:	pop	r12
0x4057ce:	pop	r13
0x4057d0:	ret	
F 0x4067ed
0x4067ed:	ror	byte ptr [rax - 0x7d], 0xc4
0x4067f1:	or	byte ptr [rbx + 0x5d], bl
0x4067f4:	pop	r12
0x4067f6:	pop	r13
0x4067f8:	ret	
F 0x4136fd
0x4057ce:	pop	r13
0x4057d0:	ret	
F 0x4136fe
0x404e0f:	pop	rbp
0x404e10:	ret	
F 0x404eb8
0x404eb8:	add	dword ptr [rax], eax
0x404eba:	sub	eax, ebx
0x404ebc:	imul	eax, dword ptr [rip + 0x48339]
0x404ec3:	add	rsp, 8
0x404ec7:	pop	rbx
0x404ec8:	pop	rbp
0x404ec9:	ret	
F 0x404e43
0x404e43:	scasd	eax, dword ptr [rdi]
0x404e44:	add	eax, 0x483b3
0x404e49:	ret	
F 0x404e44
0x404e44:	add	eax, 0x483b3
0x404e49:	ret	
F 0x407755
0x4058dd:	lea	eax, [rax + rax - 1]
0x4058e1:	ret	
F 0x4066d8
0x403016:	ret	
F 0x4136f9
0x4057ca:	pop	rbx
0x4057cb:	pop	rbp
0x4057cc:	pop	r12
0x4057ce:	pop	r13
0x4057d0:	ret	
F 0x40760b
0x40760b:	pop	rbx
0x40760c:	add	al, 0
0x40760e:	xor	eax, eax
0x407610:	test	ecx, ecx
0x407612:	setg	al
0x407615:	lea	eax, [rax + rax - 1]
0x407619:	ret	
F 0x404e45
0x404e45:	mov	bl, 0x83
0x404e47:	add	al, 0
0x404e49:	ret	
F 0x407485
0x4058dd:	lea	eax, [rax + rax - 1]
0x4058e1:	ret	
F 0x4136fa
0x4057cb:	pop	rbp
0x4057cc:	pop	r12
0x4057ce:	pop	r13
0x4057d0:	ret	
F 0x4050ea
0x4050ea:	sal	byte ptr [rbp - 0x15], 0x4c
0x4050ee:	mov	eax, eax
0x4050f0:	ret	
F 0x4136ff
0x403016:	ret	
F 0x41372b
0x41372b:	add	byte ptr [rcx], al
0x41372d:	add	byte ptr [rax], al
0x41372f:	add	bl, ch
0x413731:	ret	
F 0x413726
0x413726:	mov	dword ptr [rbp + 0x178], 1
0x413730:	jmp	0x4136f5
F 0x404e56
0x404e56:	mov	eax, dword ptr [rax + 0x370]
0x404e5c:	sub	eax, dword ptr [rdx + 0x370]
0x404e62:	imul	eax, dword ptr [rip + 0x48393]
0x404e69:	ret	
F 0x404e5a
0x404e5a:	add	byte ptr [rax], al
0x404e5c:	sub	eax, dword ptr [rdx + 0x370]
0x404e62:	imul	eax, dword ptr [rip + 0x48393]
0x404e69:	ret	
F 0x404e49
0x403016:	ret	
F 0x41372c
0x41372c:	add	dword ptr [rax], eax
0x41372e:	add	byte ptr [rax], al
0x413730:	jmp	0x4136f5
F 0x406c3f
0x4057cc:	pop	r12
0x4057ce:	pop	r13
0x4057d0:	ret	
F 0x40b89a
0x405aff:	pop	rdi
0x405b00:	ret	
F 0x40ca17
0x409ab4:	add	byte ptr [rax - 0x77], cl
0x409ab7:	ret	0x8d48
F 0x4077e9
0x4077e9:	or	eax, 0x45a0e
0x4077ee:	xor	eax, eax
0x4077f0:	test	ecx, ecx
0x4077f2:	setg	al
0x4077f5:	lea	eax, [rax + rax - 1]
0x4077f9:	ret	
F 0x405560
0x405560:	imul	eax, dword ptr [rip + 0x47c95]
0x405567:	add	rsp, 8
0x40556b:	ret	
F 0x407288
0x4058d8:	test	edx, edx
0x4058da:	setle	al
0x4058dd:	lea	eax, [rax + rax - 1]
0x4058e1:	ret	
F 0x40c76e
0x403016:	ret	
F 0x407840
0x4058f0:	test	ecx, ecx
0x4058f2:	setg	al
0x4058f5:	lea	eax, [rax + rax - 1]
0x4058f9:	ret	
F 0x40555f
0x40555f:	dec	dword ptr [rdi]
0x405561:	scasd	eax, dword ptr [rdi]
0x405562:	add	eax, 0x47c95
0x405567:	add	rsp, 8
0x40556b:	ret	
F 0x40733a
0x40733a:	mov	esi, 0x3100045e
0x40733f:	rol	byte ptr [rbp - 0x3f60f037], 0x8d
0x407346:	add	dil, r15b
0x407349:	ret	
F 0x40783f
0x4058ef:	rol	byte ptr [rbp - 0x3f60f037], 0x8d
0x4058f6:	add	dil, r15b
0x4058f9:	ret	
F 0x40c75c
0x409ab7:	ret	0x8d48
F 0x405522
0x403016:	ret	
F 0x40c839
0x403016:	ret	
F 0x405520
0x4054d0:	xor	eax, eax
0x4054d2:	ret	
F 0x40783e
0x4058ee:	xor	eax, eax
0x4058f0:	test	ecx, ecx
0x4058f2:	setg	al
0x4058f5:	lea	eax, [rax + rax - 1]
0x4058f9:	ret	
F 0x405517
0x4054c7:	nop	dword ptr cs:[rax + rax]
0x4054d0:	xor	eax, eax
0x4054d2:	ret	
F 0x40551e
0x4054ce:	add	byte ptr [rax], al
0x4054d0:	xor	eax, eax
0x4054d2:	ret	
F 0x407339
0x407339:	or	eax, 0x45ebe
0x40733e:	xor	eax, eax
0x407340:	test	ecx, ecx
0x407342:	setg	al
0x407345:	lea	eax, [rax + rax - 1]
0x407349:	ret	
F 0x40551c
0x4054cc:	add	byte ptr [rax], al
0x4054ce:	add	byte ptr [rax], al
0x4054d0:	xor	eax, eax
0x4054d2:	ret	
F 0x405518
0x4054c8:	nop	dword ptr [rax + rax]
0x4054d0:	xor	eax, eax
0x4054d2:	ret	
F 0x407338
0x407338:	mov	ecx, dword ptr [rip + 0x45ebe]
0x40733e:	xor	eax, eax
0x407340:	test	ecx, ecx
0x407342:	setg	al
0x407345:	lea	eax, [rax + rax - 1]
0x407349:	ret	
F 0x40783d
0x4058ed:	add	byte ptr [rcx], dh
0x4058ef:	rol	byte ptr [rbp - 0x3f60f037], 0x8d
0x4058f6:	add	dil, r15b
0x4058f9:	ret	
F 0x40551a
0x4054ca:	test	byte ptr [rax], al
0x4054cc:	add	byte ptr [rax], al
0x4054ce:	add	byte ptr [rax], al
0x4054d0:	xor	eax, eax
0x4054d2:	ret	
F 0x40c709
0x403016:	ret	
F 0x40c6f0
0x409ab7:	ret	0x8d48
F 0x405511
0x403012:	add	rsp, 8
0x403016:	ret	
F 0x405516
0x4054c6:	nop	word ptr cs:[rax + rax]
0x4054d0:	xor	eax, eax
0x4054d2:	ret	
F 0x40783c
0x4058ec:	add	al, 0
0x4058ee:	xor	eax, eax
0x4058f0:	test	ecx, ecx
0x4058f2:	setg	al
0x4058f5:	lea	eax, [rax + rax - 1]
0x4058f9:	ret	
F 0x405514
0x4054c4:	or	bl, al
0x4054c6:	nop	word ptr cs:[rax + rax]
0x4054d0:	xor	eax, eax
0x4054d2:	ret	
F 0x40550b
0x40550b:	scasd	eax, dword ptr [rdi]
0x40550c:	add	eax, 0x47ceb
0x405511:	add	rsp, 8
0x405515:	ret	
F 0x40783b
0x40783b:	pop	rcx
0x40783c:	add	al, 0
0x40783e:	xor	eax, eax
0x407840:	test	ecx, ecx
0x407842:	setg	al
0x407845:	lea	eax, [rax + rax - 1]
0x407849:	ret	
F 0x405515
0x403016:	ret	
F 0x40c624
0x403016:	ret	
F 0x40783a
0x40783a:	mov	esi, 0x31000459
0x40783f:	rol	byte ptr [rbp - 0x3f60f037], 0x8d
0x407846:	add	dil, r15b
0x407849:	ret	
F 0x40550a
0x40550a:	imul	eax, dword ptr [rip + 0x47ceb]
0x405511:	add	rsp, 8
0x405515:	ret	
F 0x40550f
0x4054bf:	add	al, 0
0x4054c1:	add	rsp, 8
0x4054c5:	ret	
F 0x40550c
0x40550c:	add	eax, 0x47ceb
0x405511:	add	rsp, 8
0x405515:	ret	
F 0x407839
0x407839:	or	eax, 0x459be
0x40783e:	xor	eax, eax
0x407840:	test	ecx, ecx
0x407842:	setg	al
0x407845:	lea	eax, [rax + rax - 1]
0x407849:	ret	
F 0x407336
0x407336:	add	byte ptr [rax], al
0x407338:	mov	ecx, dword ptr [rip + 0x45ebe]
0x40733e:	xor	eax, eax
0x407340:	test	ecx, ecx
0x407342:	setg	al
0x407345:	lea	eax, [rax + rax - 1]
0x407349:	ret	
F 0x40c621
0x40c621:	or	byte ptr [rax + 1], cl
0x40c624:	ret	
F 0x407241
0x403016:	ret	
F 0x407249
0x407249:	or	eax, 0x45fae
0x40724e:	xor	eax, eax
0x407250:	test	ecx, ecx
0x407252:	setg	al
0x407255:	lea	eax, [rax + rax - 1]
0x407259:	ret	
F 0x40c4fc
0x404653:	ret	0x348
F 0x40724b
0x4071fb:	pop	rdi
0x4071fc:	add	al, 0
0x4071fe:	xor	eax, eax
0x407200:	test	ecx, ecx
0x407202:	setg	al
0x407205:	lea	eax, [rax + rax - 1]
0x407209:	ret	
F 0x405509
0x405509:	dec	dword ptr [rdi]
0x40550b:	scasd	eax, dword ptr [rdi]
0x40550c:	add	eax, 0x47ceb
0x405511:	add	rsp, 8
0x405515:	ret	
F 0x4054d2
0x403016:	ret	
F 0x407331
0x403016:	ret	
F 0x4054d0
0x4054d0:	xor	eax, eax
0x4054d2:	ret	
F 0x4054ce
0x4054ce:	add	byte ptr [rax], al
0x4054d0:	xor	eax, eax
0x4054d2:	ret	
F 0x40732f
0x4058df:	add	bh, bh
0x4058e1:	ret	
F 0x407285
0x4058d5:	add	byte ptr [rcx], dh
0x4058d7:	rol	byte ptr [rbp - 0x3f61f02e], 0x8d
0x4058de:	add	dil, r15b
0x4058e1:	ret	
F 0x40728e
0x4058de:	add	dil, r15b
0x4058e1:	ret	
F 0x407284
0x4058d4:	add	al, 0
0x4058d6:	xor	eax, eax
0x4058d8:	test	edx, edx
0x4058da:	setle	al
0x4058dd:	lea	eax, [rax + rax - 1]
0x4058e1:	ret	
F 0x40724d
0x4058ed:	add	byte ptr [rcx], dh
0x4058ef:	rol	byte ptr [rbp - 0x3f60f037], 0x8d
0x4058f6:	add	dil, r15b
0x4058f9:	ret	
F 0x407246
0x407246:	add	byte ptr [rax], al
0x407248:	mov	ecx, dword ptr [rip + 0x45fae]
0x40724e:	xor	eax, eax
0x407250:	test	ecx, ecx
0x407252:	setg	al
0x407255:	lea	eax, [rax + rax - 1]
0x407259:	ret	
F 0x407281
0x407281:	adc	eax, 0x45f76
0x407286:	xor	eax, eax
0x407288:	test	edx, edx
0x40728a:	setle	al
0x40728d:	lea	eax, [rax + rax - 1]
0x407291:	ret	
F 0x407283
0x407233:	pop	rdi
0x407234:	add	al, 0
0x407236:	xor	eax, eax
0x407238:	test	edx, edx
0x40723a:	setle	al
0x40723d:	lea	eax, [rax + rax - 1]
0x407241:	ret	
F 0x4054cc
0x4054cc:	add	byte ptr [rax], al
0x4054ce:	add	byte ptr [rax], al
0x4054d0:	xor	eax, eax
0x4054d2:	ret	
F 0x407465
0x4058d5:	add	byte ptr [rcx], dh
0x4058d7:	rol	byte ptr [rbp - 0x3f61f02e], 0x8d
0x4058de:	add	dil, r15b
0x4058e1:	ret	
F 0x406a69
0x405af7:	pop	rbp
0x405af8:	pop	r12
0x405afa:	pop	r13
0x405afc:	pop	r14
0x405afe:	pop	r15
0x405b00:	ret	
F 0x4054bf
0x4054bf:	add	al, 0
0x4054c1:	add	rsp, 8
0x4054c5:	ret	
F 0x406b4f
0x405afe:	pop	r15
0x405b00:	ret	
F 0x4073be
0x4073be:	nop	
0x4073c0:	mov	edx, dword ptr [rip + 0x45e36]
0x4073c6:	xor	eax, eax
0x4073c8:	test	edx, edx
0x4073ca:	setle	al
0x4073cd:	lea	eax, [rax + rax - 1]
0x4073d1:	ret	
F 0x40b2bd
0x40b2bd:	add	byte ptr [rax], al
0x40b2bf:	add	byte ptr [rax - 0x77], cl
0x40b2c2:	ret	0x8b48
F 0x405aff
0x405aff:	pop	rdi
0x405b00:	ret	
F 0x407236
0x4058d6:	xor	eax, eax
0x4058d8:	test	edx, edx
0x4058da:	setle	al
0x4058dd:	lea	eax, [rax + rax - 1]
0x4058e1:	ret	
F 0x405b00
0x403016:	ret	
F 0x406b50
0x405aff:	pop	rdi
0x405b00:	ret	
F 0x4073bf
0x4073bf:	nop	
0x4073c0:	mov	edx, dword ptr [rip + 0x45e36]
0x4073c6:	xor	eax, eax
0x4073c8:	test	edx, edx
0x4073ca:	setle	al
0x4073cd:	lea	eax, [rax + rax - 1]
0x4073d1:	ret	
F 0x41242e
0x41242e:	add	byte ptr [rax + 0x63], cl
0x412431:	ret	0x148
F 0x4077df
0x4058df:	add	bh, bh
0x4058e1:	ret	
F 0x404144
0x4039fc:	add	byte ptr [rax - 0x7d], cl
0x4039ff:	ret	
F 0x407466
0x4058d6:	xor	eax, eax
0x4058d8:	test	edx, edx
0x4058da:	setle	al
0x4058dd:	lea	eax, [rax + rax - 1]
0x4058e1:	ret	
F 0x405b36
0x405b36:	dec	dword ptr [rbx + 0x1852f2d]
0x405b3c:	add	byte ptr [rbp + 0x5d0279ed], al
0x405b42:	ret	
F 0x406b51
0x403016:	ret	
F 0x407237
0x4058d7:	rol	byte ptr [rbp - 0x3f61f02e], 0x8d
0x4058de:	add	dil, r15b
0x4058e1:	ret	
F 0x406938
0x406938:	add	byte ptr [rax], al
0x40693a:	mov	dword ptr [rip + 0x1889c], eax
0x406940:	movsx	eax, bl
0x406943:	jmp	0x4067ee
F 0x4073c0
0x4073c0:	mov	edx, dword ptr [rip + 0x45e36]
0x4073c6:	xor	eax, eax
0x4073c8:	test	edx, edx
0x4073ca:	setle	al
0x4073cd:	lea	eax, [rax + rax - 1]
0x4073d1:	ret	
F 0x4054c1
0x403012:	add	rsp, 8
0x403016:	ret	
F 0x40b2bf
0x40b2bf:	add	byte ptr [rax - 0x77], cl
0x40b2c2:	ret	0x8b48
F 0x4073c1
0x4073c1:	adc	eax, 0x45e36
0x4073c6:	xor	eax, eax
0x4073c8:	test	edx, edx
0x4073ca:	setle	al
0x4073cd:	lea	eax, [rax + rax - 1]
0x4073d1:	ret	
F 0x404147
0x403016:	ret	
F 0x406c32
0x406c32:	sbb	byte ptr [rdx], al
0x406c34:	add	byte ptr [rax], al
0x406c36:	lea	rax, [rip + 0x395e3]
0x406c3d:	pop	rbx
0x406c3e:	pop	rbp
0x406c3f:	pop	r12
0x406c41:	pop	r13
0x406c43:	ret	
F 0x4073c2
0x4073c2:	pop	rsi
0x4073c4:	add	al, 0
0x4073c6:	xor	eax, eax
0x4073c8:	test	edx, edx
0x4073ca:	setle	al
0x4073cd:	lea	eax, [rax + rax - 1]
0x4073d1:	ret	
F 0x40732a
0x4058da:	setle	al
0x4058dd:	lea	eax, [rax + rax - 1]
0x4058e1:	ret	
F 0x4041c6
0x4039fc:	add	byte ptr [rax - 0x7d], cl
0x4039ff:	ret	
F 0x4073c3
0x407323:	pop	rsi
0x407324:	add	al, 0
0x407326:	xor	eax, eax
0x407328:	test	edx, edx
0x40732a:	setle	al
0x40732d:	lea	eax, [rax + rax - 1]
0x407331:	ret	
F 0x407798
0x407798:	mov	ecx, dword ptr [rip + 0x45a5e]
0x40779e:	xor	eax, eax
0x4077a0:	test	ecx, ecx
0x4077a2:	setg	al
0x4077a5:	lea	eax, [rax + rax - 1]
0x4077a9:	ret	
F 0x4041c9
0x403016:	ret	
F 0x40724a
0x40724a:	scasb	al, byte ptr [rdi]
0x40724b:	pop	rdi
0x40724c:	add	al, 0
0x40724e:	xor	eax, eax
0x407250:	test	ecx, ecx
0x407252:	setg	al
0x407255:	lea	eax, [rax + rax - 1]
0x407259:	ret	
F 0x4073c4
0x4058d4:	add	al, 0
0x4058d6:	xor	eax, eax
0x4058d8:	test	edx, edx
0x4058da:	setle	al
0x4058dd:	lea	eax, [rax + rax - 1]
0x4058e1:	ret	
F 0x40b890
0x40b890:	clc	
0x40b891:	pop	rbx
0x40b892:	pop	rbp
0x40b893:	pop	r12
0x40b895:	pop	r13
0x40b897:	pop	r14
0x40b899:	pop	r15
0x40b89b:	ret	
F 0x405b3a
0x405b3a:	test	dword ptr [rcx], eax
0x405b3c:	add	byte ptr [rbp + 0x5d0279ed], al
0x405b42:	ret	
F 0x412431
0x406f05:	ret	0x148
F 0x4054c4
0x4054c4:	or	bl, al
0x4054c6:	nop	word ptr cs:[rax + rax]
0x4054d0:	xor	eax, eax
0x4054d2:	ret	
F 0x40b7b2
0x40b7b2:	mov	bh, 0
0x40b7b4:	add	byte ptr [rax + 1], cl
0x40b7b7:	ret	0x6348
F 0x4073c5
0x4058d5:	add	byte ptr [rcx], dh
0x4058d7:	rol	byte ptr [rbp - 0x3f61f02e], 0x8d
0x4058de:	add	dil, r15b
0x4058e1:	ret	
F 0x4073c6
0x4058d6:	xor	eax, eax
0x4058d8:	test	edx, edx
0x4058da:	setle	al
0x4058dd:	lea	eax, [rax + rax - 1]
0x4058e1:	ret	
F 0x406c34
0x406c34:	add	byte ptr [rax], al
0x406c36:	lea	rax, [rip + 0x395e3]
0x406c3d:	pop	rbx
0x406c3e:	pop	rbp
0x406c3f:	pop	r12
0x406c41:	pop	r13
0x406c43:	ret	
F 0x404259
0x403ec4:	mov	dh, 0x65
0x403ec6:	add	byte ptr [rax - 0x7d], cl
0x403ec9:	ret	
F 0x40723a
0x4058da:	setle	al
0x4058dd:	lea	eax, [rax + rax - 1]
0x4058e1:	ret	
F 0x4073c7
0x4058d7:	rol	byte ptr [rbp - 0x3f61f02e], 0x8d
0x4058de:	add	dil, r15b
0x4058e1:	ret	
F 0x40b891
0x405af6:	pop	rbx
0x405af7:	pop	rbp
0x405af8:	pop	r12
0x405afa:	pop	r13
0x405afc:	pop	r14
0x405afe:	pop	r15
0x405b00:	ret	
F 0x40425b
0x4039fc:	add	byte ptr [rax - 0x7d], cl
0x4039ff:	ret	
F 0x40e2d9
0x40e2d9:	cmp	byte ptr [rip + 0x5d5b0000], cl
0x40e2df:	pop	r12
0x40e2e1:	pop	r13
0x40e2e3:	pop	r14
0x40e2e5:	pop	r15
0x40e2e7:	ret	
F 0x4073c8
0x4058d8:	test	edx, edx
0x4058da:	setle	al
0x4058dd:	lea	eax, [rax + rax - 1]
0x4058e1:	ret	
F 0x4054c5
0x403016:	ret	
F 0x405b3c
0x405b3c:	add	byte ptr [rbp + 0x5d0279ed], al
0x405b42:	ret	
F 0x40b892
0x405af7:	pop	rbp
0x405af8:	pop	r12
0x405afa:	pop	r13
0x405afc:	pop	r14
0x405afe:	pop	r15
0x405b00:	ret	
F 0x40807a
0x40518b:	pop	rsi
0x40518c:	ret	
F 0x41247e
0x41247e:	add	cl, byte ptr [rdi]
0x412480:	test	dword ptr [rbx - 0x76ffffff], esi
0x412486:	ret	0x8b48
F 0x4073ca
0x4058da:	setle	al
0x4058dd:	lea	eax, [rax + rax - 1]
0x4058e1:	ret	
F 0x407238
0x4058d8:	test	edx, edx
0x4058da:	setle	al
0x4058dd:	lea	eax, [rax + rax - 1]
0x4058e1:	ret	
F 0x408079
0x40518a:	pop	r14
0x40518c:	ret	
F 0x4073cd
0x4058dd:	lea	eax, [rax + rax - 1]
0x4058e1:	ret	
F 0x40425e
0x403016:	ret	
F 0x408153
0x408153:	sub	dword ptr [rax - 0x76b70001], esi
0x408159:	ret	
F 0x404e7b
0x404e7b:	add	byte ptr [rax], al
0x404e7d:	sub	rax, qword ptr [rdx + 0xe0]
0x404e84:	imul	eax, dword ptr [rip + 0x48371]
0x404e8b:	ret	
F 0x4073ce
0x4058de:	add	dil, r15b
0x4058e1:	ret	
F 0x4077e1
0x403016:	ret	
F 0x408074
0x405185:	pop	rbp
0x405186:	pop	r12
0x405188:	pop	r13
0x40518a:	pop	r14
0x40518c:	ret	
F 0x4042b1
0x4039fc:	add	byte ptr [rax - 0x7d], cl
0x4039ff:	ret	
F 0x40807b
0x403016:	ret	
F 0x4073cf
0x4058df:	add	bh, bh
0x4058e1:	ret	
F 0x408077
0x405188:	pop	r13
0x40518a:	pop	r14
0x40518c:	ret	
F 0x405b41
0x404e0f:	pop	rbp
0x404e10:	ret	
F 0x40732d
0x4058dd:	lea	eax, [rax + rax - 1]
0x4058e1:	ret	
F 0x408073
0x405184:	pop	rbx
0x405185:	pop	rbp
0x405186:	pop	r12
0x405188:	pop	r13
0x40518a:	pop	r14
0x40518c:	ret	
F 0x406c35
0x406c35:	add	byte ptr [rax - 0x73], cl
0x406c38:	add	eax, 0x395e3
0x406c3d:	pop	rbx
0x406c3e:	pop	rbp
0x406c3f:	pop	r12
0x406c41:	pop	r13
0x406c43:	ret	
F 0x408075
0x405186:	pop	r12
0x405188:	pop	r13
0x40518a:	pop	r14
0x40518c:	ret	
F 0x4073d1
0x403016:	ret	
F 0x4042b4
0x403016:	ret	
F 0x408078
0x405189:	pop	rbp
0x40518a:	pop	r14
0x40518c:	ret	
F 0x40693a
0x40693a:	mov	dword ptr [rip + 0x1889c], eax
0x406940:	movsx	eax, bl
0x406943:	jmp	0x4067ee
F 0x4073d6
0x4073d6:	add	byte ptr [rax], al
0x4073d8:	mov	ecx, dword ptr [rip + 0x45e1e]
0x4073de:	xor	eax, eax
0x4073e0:	test	ecx, ecx
0x4073e2:	setg	al
0x4073e5:	lea	eax, [rax + rax - 1]
0x4073e9:	ret	
F 0x40723e
0x4058de:	add	dil, r15b
0x4058e1:	ret	
F 0x412480
0x412480:	test	dword ptr [rbx - 0x76ffffff], esi
0x412486:	ret	0x8b48
F 0x407462
0x407462:	xchg	eax, esi
0x407463:	pop	rbp
0x407464:	add	al, 0
0x407466:	xor	eax, eax
0x407468:	test	edx, edx
0x40746a:	setle	al
0x40746d:	lea	eax, [rax + rax - 1]
0x407471:	ret	
F 0x4054c6
0x4054c6:	nop	word ptr cs:[rax + rax]
0x4054d0:	xor	eax, eax
0x4054d2:	ret	
F 0x40806e
0x40806e:	add	eax, 0x383cd
0x408073:	pop	rbx
0x408074:	pop	rbp
0x408075:	pop	r12
0x408077:	pop	r13
0x408079:	pop	r14
0x40807b:	ret	
F 0x406c36
0x406c36:	lea	rax, [rip + 0x395e3]
0x406c3d:	pop	rbx
0x406c3e:	pop	rbp
0x406c3f:	pop	r12
0x406c41:	pop	r13
0x406c43:	ret	
F 0x40806d
0x40806d:	lea	eax, [rip + 0x383cd]
0x408073:	pop	rbx
0x408074:	pop	rbp
0x408075:	pop	r12
0x408077:	pop	r13
0x408079:	pop	r14
0x40807b:	ret	
F 0x40b893
0x405af8:	pop	r12
0x405afa:	pop	r13
0x405afc:	pop	r14
0x405afe:	pop	r15
0x405b00:	ret	
F 0x407328
0x4058d8:	test	edx, edx
0x4058da:	setle	al
0x4058dd:	lea	eax, [rax + rax - 1]
0x4058e1:	ret	
F 0x408070
0x408070:	add	dword ptr [rbx], 0
0x408073:	pop	rbx
0x408074:	pop	rbp
0x408075:	pop	r12
0x408077:	pop	r13
0x408079:	pop	r14
0x40807b:	ret	
F 0x40b7f9
0x403016:	ret	
F 0x406c37
0x406c37:	lea	eax, [rip + 0x395e3]
0x406c3d:	pop	rbx
0x406c3e:	pop	rbp
0x406c3f:	pop	r12
0x406c41:	pop	r13
0x406c43:	ret	
F 0x405b42
0x403016:	ret	
F 0x404407
0x404407:	dec	dword ptr [rax - 0x7d]
0x40440a:	ret	
F 0x40b895
0x405afa:	pop	r13
0x405afc:	pop	r14
0x405afe:	pop	r15
0x405b00:	ret	
F 0x4072d4
0x4058d4:	add	al, 0
0x4058d6:	xor	eax, eax
0x4058d8:	test	edx, edx
0x4058da:	setle	al
0x4058dd:	lea	eax, [rax + rax - 1]
0x4058e1:	ret	
F 0x406c38
0x406c38:	add	eax, 0x395e3
0x406c3d:	pop	rbx
0x406c3e:	pop	rbp
0x406c3f:	pop	r12
0x406c41:	pop	r13
0x406c43:	ret	
F 0x4073d8
0x4073d8:	mov	ecx, dword ptr [rip + 0x45e1e]
0x4073de:	xor	eax, eax
0x4073e0:	test	ecx, ecx
0x4073e2:	setg	al
0x4073e5:	lea	eax, [rax + rax - 1]
0x4073e9:	ret	
F 0x408072
0x408072:	add	byte ptr [rbx + 0x5d], bl
0x408075:	pop	r12
0x408077:	pop	r13
0x408079:	pop	r14
0x40807b:	ret	
F 0x40693b
0x40693b:	add	eax, 0x1889c
0x406940:	movsx	eax, bl
0x406943:	jmp	0x4067ee
F 0x412486
0x40a4ab:	ret	0x8b48
F 0x405b5f
0x405b5f:	pop	rbp
0x405b60:	mov	dword ptr [rip + 0x18502], 0xffffffff
0x405b6a:	ret	
F 0x4072d7
0x4058d7:	rol	byte ptr [rbp - 0x3f61f02e], 0x8d
0x4058de:	add	dil, r15b
0x4058e1:	ret	
F 0x406c3a
0x406c3a:	xchg	eax, ebp
0x406c3b:	add	eax, dword ptr [rax]
0x406c3d:	pop	rbx
0x406c3e:	pop	rbp
0x406c3f:	pop	r12
0x406c41:	pop	r13
0x406c43:	ret	
F 0x4054bc
0x4054bc:	add	eax, 0x47d3b
0x4054c1:	add	rsp, 8
0x4054c5:	ret	
F 0x4073d9
0x4073d9:	or	eax, 0x45e1e
0x4073de:	xor	eax, eax
0x4073e0:	test	ecx, ecx
0x4073e2:	setg	al
0x4073e5:	lea	eax, [rax + rax - 1]
0x4073e9:	ret	
F 0x4054ba
0x4054ba:	imul	eax, dword ptr [rip + 0x47d3b]
0x4054c1:	add	rsp, 8
0x4054c5:	ret	
F 0x408071
0x408071:	add	eax, dword ptr [rax]
0x408073:	pop	rbx
0x408074:	pop	rbp
0x408075:	pop	r12
0x408077:	pop	r13
0x408079:	pop	r14
0x40807b:	ret	
F 0x40b896
0x405afb:	pop	rbp
0x405afc:	pop	r14
0x405afe:	pop	r15
0x405b00:	ret	
F 0x4072df
0x4058df:	add	bh, bh
0x4058e1:	ret	
F 0x4124c1
0x403016:	ret	
F 0x40440a
0x403016:	ret	
F 0x4054bb
0x4054bb:	scasd	eax, dword ptr [rdi]
0x4054bc:	add	eax, 0x47d3b
0x4054c1:	add	rsp, 8
0x4054c5:	ret	
F 0x40693e
0x40693e:	add	dword ptr [rax], eax
0x406940:	movsx	eax, bl
0x406943:	jmp	0x4067ee
F 0x4073db
0x40733b:	pop	rsi
0x40733c:	add	al, 0
0x40733e:	xor	eax, eax
0x407340:	test	ecx, ecx
0x407342:	setg	al
0x407345:	lea	eax, [rax + rax - 1]
0x407349:	ret	
F 0x4072da
0x4058da:	setle	al
0x4058dd:	lea	eax, [rax + rax - 1]
0x4058e1:	ret	
F 0x405b60
0x405b60:	mov	dword ptr [rip + 0x18502], 0xffffffff
0x405b6a:	ret	
F 0x40723d
0x4058dd:	lea	eax, [rax + rax - 1]
0x4058e1:	ret	
F 0x40806c
0x40806c:	lea	rax, [rip + 0x383cd]
0x408073:	pop	rbx
0x408074:	pop	rbp
0x408075:	pop	r12
0x408077:	pop	r13
0x408079:	pop	r14
0x40807b:	ret	
F 0x4126e0
0x4126e0:	or	byte ptr [rax], al
0x4126e3:	add	byte ptr [rcx + rcx*4 - 0x10], al
0x4126e7:	pop	rbx
0x4126e8:	pop	rbp
0x4126e9:	pop	r12
0x4126eb:	pop	r13
0x4126ed:	pop	r14
0x4126ef:	pop	r15
0x4126f1:	ret	
F 0x407841
0x4058f1:	leave	
0x4058f2:	setg	al
0x4058f5:	lea	eax, [rax + rax - 1]
0x4058f9:	ret	
F 0x4073dc
0x4058ec:	add	al, 0
0x4058ee:	xor	eax, eax
0x4058f0:	test	ecx, ecx
0x4058f2:	setg	al
0x4058f5:	lea	eax, [rax + rax - 1]
0x4058f9:	ret	
F 0x4073dd
0x4058ed:	add	byte ptr [rcx], dh
0x4058ef:	rol	byte ptr [rbp - 0x3f60f037], 0x8d
0x4058f6:	add	dil, r15b
0x4058f9:	ret	
F 0x4077de
0x4058de:	add	dil, r15b
0x4058e1:	ret	
F 0x40441d
0x40441d:	or	dword ptr [rax], eax
0x40441f:	add	byte ptr [rax - 0x7d], cl
0x404422:	ret	
F 0x40724e
0x4058ee:	xor	eax, eax
0x4058f0:	test	ecx, ecx
0x4058f2:	setg	al
0x4058f5:	lea	eax, [rax + rax - 1]
0x4058f9:	ret	
F 0x408357
0x403016:	ret	
F 0x40b0a6
0x405aff:	pop	rdi
0x405b00:	ret	
F 0x408193
0x405f64:	pop	rbx
0x405f65:	pop	rbp
0x405f66:	pop	r12
0x405f68:	ret	
F 0x406c3b
0x406c3b:	add	eax, dword ptr [rax]
0x406c3d:	pop	rbx
0x406c3e:	pop	rbp
0x406c3f:	pop	r12
0x406c41:	pop	r13
0x406c43:	ret	
F 0x4072d8
0x4058d8:	test	edx, edx
0x4058da:	setle	al
0x4058dd:	lea	eax, [rax + rax - 1]
0x4058e1:	ret	
F 0x408194
0x405f65:	pop	rbp
0x405f66:	pop	r12
0x405f68:	ret	
F 0x4073de
0x4058ee:	xor	eax, eax
0x4058f0:	test	ecx, ecx
0x4058f2:	setg	al
0x4058f5:	lea	eax, [rax + rax - 1]
0x4058f9:	ret	
F 0x408197
0x403016:	ret	
F 0x40b897
0x405afc:	pop	r14
0x405afe:	pop	r15
0x405b00:	ret	
F 0x4073df
0x4058ef:	rol	byte ptr [rbp - 0x3f60f037], 0x8d
0x4058f6:	add	dil, r15b
0x4058f9:	ret	
F 0x408154
0x408154:	mov	al, 0xff
0x408156:	dec	dword ptr [rax - 0x77]
0x408159:	ret	
F 0x4126e1
0x4126e1:	or	byte ptr [rax], al
0x4126e3:	add	byte ptr [rcx + rcx*4 - 0x10], al
0x4126e7:	pop	rbx
0x4126e8:	pop	rbp
0x4126e9:	pop	r12
0x4126eb:	pop	r13
0x4126ed:	pop	r14
0x4126ef:	pop	r15
0x4126f1:	ret	
F 0x4073e0
0x4058f0:	test	ecx, ecx
0x4058f2:	setg	al
0x4058f5:	lea	eax, [rax + rax - 1]
0x4058f9:	ret	
F 0x4077e6
0x4077e6:	add	byte ptr [rax], al
0x4077e8:	mov	ecx, dword ptr [rip + 0x45a0e]
0x4077ee:	xor	eax, eax
0x4077f0:	test	ecx, ecx
0x4077f2:	setg	al
0x4077f5:	lea	eax, [rax + rax - 1]
0x4077f9:	ret	
F 0x405b6a
0x403016:	ret	
F 0x407248
0x407248:	mov	ecx, dword ptr [rip + 0x45fae]
0x40724e:	xor	eax, eax
0x407250:	test	ecx, ecx
0x407252:	setg	al
0x407255:	lea	eax, [rax + rax - 1]
0x407259:	ret	
F 0x408156
0x405854:	dec	dword ptr [rax - 0x77]
0x405857:	ret	
F 0x4073e1
0x4058f1:	leave	
0x4058f2:	setg	al
0x4058f5:	lea	eax, [rax + rax - 1]
0x4058f9:	ret	
F 0x40818f
0x40818f:	adc	byte ptr [rax], al
0x408191:	add	dword ptr [rax], eax
0x408193:	pop	rbx
0x408194:	pop	rbp
0x408195:	pop	r12
0x408197:	ret	
F 0x407463
0x407413:	pop	rbp
0x407414:	add	al, 0
0x407416:	xor	eax, eax
0x407418:	test	edx, edx
0x40741a:	setle	al
0x40741d:	lea	eax, [rax + rax - 1]
0x407421:	ret	
F 0x405dae
0x405dae:	add	eax, 0x8c48348
0x405db3:	ret	
F 0x408159
0x403016:	ret	
F 0x406c3c
0x406c3c:	add	byte ptr [rbx + 0x5d], bl
0x406c3f:	pop	r12
0x406c41:	pop	r13
0x406c43:	ret	
F 0x4073e2
0x4058f2:	setg	al
0x4058f5:	lea	eax, [rax + rax - 1]
0x4058f9:	ret	
F 0x40b898
0x405afd:	pop	rsi
0x405afe:	pop	r15
0x405b00:	ret	
F 0x40441f
0x4039fc:	add	byte ptr [rax - 0x7d], cl
0x4039ff:	ret	
F 0x4054c7
0x4054c7:	nop	dword ptr cs:[rax + rax]
0x4054d0:	xor	eax, eax
0x4054d2:	ret	
F 0x40837f
0x403016:	ret	
F 0x407467
0x4058d7:	rol	byte ptr [rbp - 0x3f61f02e], 0x8d
0x4058de:	add	dil, r15b
0x4058e1:	ret	
F 0x408190
0x408190:	add	byte ptr [rcx], al
0x408192:	add	byte ptr [rbx + 0x5d], bl
0x408195:	pop	r12
0x408197:	ret	
F 0x406940
0x406940:	movsx	eax, bl
0x406943:	jmp	0x4067ee
F 0x4073e5
0x4058dd:	lea	eax, [rax + rax - 1]
0x4058e1:	ret	
F 0x40724c
0x4058ec:	add	al, 0
0x4058ee:	xor	eax, eax
0x4058f0:	test	ecx, ecx
0x4058f2:	setg	al
0x4058f5:	lea	eax, [rax + rax - 1]
0x4058f9:	ret	
F 0x408435
0x408435:	adc	byte ptr [rcx], cl
0x408437:	add	byte ptr [rax], al
0x408439:	pop	rbx
0x40843a:	pop	rbp
0x40843b:	pop	r12
0x40843d:	pop	r13
0x40843f:	pop	r14
0x408441:	ret	
F 0x406c3d
0x4057ca:	pop	rbx
0x4057cb:	pop	rbp
0x4057cc:	pop	r12
0x4057ce:	pop	r13
0x4057d0:	ret	
F 0x408192
0x405f63:	add	byte ptr [rbx + 0x5d], bl
0x405f66:	pop	r12
0x405f68:	ret	
F 0x40b899
0x405afe:	pop	r15
0x405b00:	ret	
F 0x405daf
0x403012:	add	rsp, 8
0x403016:	ret	
F 0x40779a
0x40779a:	pop	rsi
0x40779b:	pop	rdx
0x40779c:	add	al, 0
0x40779e:	xor	eax, eax
0x4077a0:	test	ecx, ecx
0x4077a2:	setg	al
0x4077a5:	lea	eax, [rax + rax - 1]
0x4077a9:	ret	
F 0x4073e6
0x4058de:	add	dil, r15b
0x4058e1:	ret	
F 0x404422
0x403016:	ret	
F 0x4054c8
0x4054c8:	nop	dword ptr [rax + rax]
0x4054d0:	xor	eax, eax
0x4054d2:	ret	
F 0x406c3e
0x4057cb:	pop	rbp
0x4057cc:	pop	r12
0x4057ce:	pop	r13
0x4057d0:	ret	
F 0x4073e7
0x4058df:	add	bh, bh
0x4058e1:	ret	
F 0x40723f
0x4058df:	add	bh, bh
0x4058e1:	ret	
F 0x408195
0x405f66:	pop	r12
0x405f68:	ret	
F 0x406942
0x403016:	ret	
F 0x4126e2
0x4126e2:	add	byte ptr [rax], al
0x4126e4:	mov	eax, r14d
0x4126e7:	pop	rbx
0x4126e8:	pop	rbp
0x4126e9:	pop	r12
0x4126eb:	pop	r13
0x4126ed:	pop	r14
0x4126ef:	pop	r15
0x4126f1:	ret	
F 0x405db3
0x403016:	ret	
F 0x4073e9
0x403016:	ret	
F 0x4044df
0x4044df:	add	byte ptr [rax - 0x75], cl
0x4044e2:	cmp	ecx, dword ptr [rax - 0x7d]
0x4044e5:	ret	
F 0x4054ca
0x4054ca:	test	byte ptr [rax], al
0x4054cc:	add	byte ptr [rax], al
0x4054ce:	add	byte ptr [rax], al
0x4054d0:	xor	eax, eax
0x4054d2:	ret	
F 0x408191
0x408191:	add	dword ptr [rax], eax
0x408193:	pop	rbx
0x408194:	pop	rbp
0x408195:	pop	r12
0x408197:	ret	
F 0x407327
0x4058d7:	rol	byte ptr [rbp - 0x3f61f02e], 0x8d
0x4058de:	add	dil, r15b
0x4058e1:	ret	
F 0x40732e
0x4058de:	add	dil, r15b
0x4058e1:	ret	
