T 0x4069b2
0x4069b2:	pop	rax
0x4069b3:	ret	
T 0x40a115
0x4059bf:	pop	r12
0x4059c1:	ret	
T 0x4059bb
0x4059bb:	mov	rax, r12
0x4059be:	pop	rbx
0x4059bf:	pop	r12
0x4059c1:	ret	
T 0x40639b
0x40639b:	pop	rax
0x40639c:	pop	rdx
0x40639d:	pop	rbx
0x40639e:	pop	rbp
0x40639f:	pop	r12
0x4063a1:	ret	
T 0x408e22
0x4059bf:	pop	r12
0x4059c1:	ret	
T 0x4059b7
0x4059b7:	add	rsp, 8
0x4059bb:	mov	rax, r12
0x4059be:	pop	rbx
0x4059bf:	pop	r12
0x4059c1:	ret	
T 0x40a255
0x4059bf:	pop	r12
0x4059c1:	ret	
T 0x4068f3
0x4068f3:	mov	rax, r12
0x4068f6:	pop	rbp
0x4068f7:	pop	r12
0x4068f9:	pop	r13
0x4068fb:	pop	r14
0x4068fd:	ret	
T 0x40a404
0x4059bf:	pop	r12
0x4059c1:	ret	
T 0x40b240
0x403b16:	mov	rax, r12
0x403b19:	pop	rbx
0x403b1a:	pop	rbp
0x403b1b:	pop	r12
0x403b1d:	pop	r13
0x403b1f:	ret	
T 0x406c52
0x4059bf:	pop	r12
0x4059c1:	ret	
T 0x403b16
0x403b16:	mov	rax, r12
0x403b19:	pop	rbx
0x403b1a:	pop	rbp
0x403b1b:	pop	r12
0x403b1d:	pop	r13
0x403b1f:	ret	
T 0x406ba7
0x4059bf:	pop	r12
0x4059c1:	ret	
T 0x40ae39
0x403b16:	mov	rax, r12
0x403b19:	pop	rbx
0x403b1a:	pop	rbp
0x403b1b:	pop	r12
0x403b1d:	pop	r13
0x403b1f:	ret	
T 0x404b1e
0x4028c5:	pop	r15
0x4028c7:	ret	
T 0x408b46
0x408b46:	enter	0, 0
0x408b4a:	mov	rax, r15
0x408b4d:	pop	rbx
0x408b4e:	pop	rbp
0x408b4f:	pop	r12
0x408b51:	pop	r13
0x408b53:	pop	r14
0x408b55:	pop	r15
0x408b57:	ret	
T 0x406c37
0x4059bf:	pop	r12
0x4059c1:	ret	
T 0x4068f2
0x4068f2:	pop	rbx
0x4068f3:	mov	rax, r12
0x4068f6:	pop	rbp
0x4068f7:	pop	r12
0x4068f9:	pop	r13
0x4068fb:	pop	r14
0x4068fd:	ret	
T 0x406007
0x4059bf:	pop	r12
0x4059c1:	ret	
T 0x406935
0x406935:	mov	rax, r12
0x406938:	pop	rbx
0x406939:	pop	rbp
0x40693a:	pop	r12
0x40693c:	pop	r13
0x40693e:	pop	r14
0x406940:	ret	
T 0x4028c5
0x4028c5:	pop	r15
0x4028c7:	ret	
T 0x408b4a
0x408b4a:	mov	rax, r15
0x408b4d:	pop	rbx
0x408b4e:	pop	rbp
0x408b4f:	pop	r12
0x408b51:	pop	r13
0x408b53:	pop	r14
0x408b55:	pop	r15
0x408b57:	ret	
T 0x403feb
0x4028c5:	pop	r15
0x4028c7:	ret	
T 0x408db6
0x408b4a:	mov	rax, r15
0x408b4d:	pop	rbx
0x408b4e:	pop	rbp
0x408b4f:	pop	r12
0x408b51:	pop	r13
0x408b53:	pop	r14
0x408b55:	pop	r15
0x408b57:	ret	
T 0x409e13
0x409e13:	pop	rax
0x409e14:	pop	rdx
0x409e15:	add	rsp, 0x38
0x409e19:	pop	rbx
0x409e1a:	pop	rbp
0x409e1b:	pop	r12
0x409e1d:	pop	r13
0x409e1f:	pop	r14
0x409e21:	pop	r15
0x409e23:	ret	
T 0x404f45
0x404f45:	pop	r11
0x404f47:	jmp	0x404b0f
T 0x409067
0x409067:	mov	rax, r11
0x40906a:	pop	rbx
0x40906b:	pop	rbp
0x40906c:	pop	r12
0x40906e:	pop	r13
0x409070:	pop	r14
0x409072:	pop	r15
0x409074:	ret	
T 0x404f43
0x404f43:	pop	r10
0x404f45:	pop	r11
0x404f47:	jmp	0x404b0f
T 0x409063
0x409063:	add	rsp, 0x28
0x409067:	mov	rax, r11
0x40906a:	pop	rbx
0x40906b:	pop	rbp
0x40906c:	pop	r12
0x40906e:	pop	r13
0x409070:	pop	r14
0x409072:	pop	r15
0x409074:	ret	
T 0x406399
0x406399:	add	byte ptr [rax], al
0x40639b:	pop	rax
0x40639c:	pop	rdx
0x40639d:	pop	rbx
0x40639e:	pop	rbp
0x40639f:	pop	r12
0x4063a1:	ret	
F 0x405ced
0x402016:	ret	
F 0x40ae3d
0x403a21:	pop	rbp
0x403a22:	pop	r12
0x403a24:	pop	r13
0x403a26:	ret	
F 0x40af95
0x4061c4:	add	byte ptr [rax], al
0x4061c6:	add	rsp, 8
0x4061ca:	ret	
F 0x406e4a
0x406e4a:	mov	eax, r13d
0x406e4d:	pop	rbx
0x406e4e:	pop	r12
0x406e50:	pop	r13
0x406e52:	pop	r14
0x406e54:	pop	r15
0x406e56:	pop	rbp
0x406e57:	ret	
F 0x40644f
0x40644f:	add	byte ptr [rax], al
0x406451:	add	byte ptr [rbp + 0x65], dh
0x406454:	add	rsp, 0x18
0x406458:	pop	rbx
0x406459:	pop	rbp
0x40645a:	pop	r12
0x40645c:	pop	r13
0x40645e:	ret	
F 0x405aac
0x405aac:	and	al, 0x50
0x405aaf:	add	byte ptr [rax], al
0x405ab1:	add	byte ptr [rax], al
0x405ab3:	add	rsp, 8
0x405ab7:	pop	rbx
0x405ab8:	pop	rbp
0x405ab9:	pop	r12
0x405abb:	pop	r13
0x405abd:	ret	
F 0x405223
0x405223:	test	rcx, rcx
0x405226:	mov	eax, 1
0x40522b:	cmovne	rax, rcx
0x40522f:	ret	
F 0x404583
0x403a22:	pop	r12
0x403a24:	pop	r13
0x403a26:	ret	
F 0x403622
0x403622:	nop	word ptr [rax + rax]
0x403628:	ret	
F 0x404b1f
0x4028c6:	pop	rdi
0x4028c7:	ret	
F 0x405cb3
0x405cb3:	pop	r12
0x405cb5:	setne	al
0x405cb8:	ret	
F 0x405602
0x405602:	ret	0
F 0x40666f
0x402016:	ret	
F 0x4028c2
0x4028c2:	pop	rbp
0x4028c3:	pop	r14
0x4028c5:	pop	r15
0x4028c7:	ret	
F 0x4079b7
0x40365f:	pop	rbp
0x403660:	ret	
F 0x408b52
0x4028c2:	pop	rbp
0x4028c3:	pop	r14
0x4028c5:	pop	r15
0x4028c7:	ret	
F 0x40512c
0x40512c:	add	byte ptr [rax], al
0x40512e:	nop	
0x405130:	xor	eax, eax
0x405132:	ret	
F 0x404cb9
0x402016:	ret	
F 0x40a403
0x405c9a:	pop	rbp
0x405c9b:	pop	r12
0x405c9d:	ret	
F 0x4037ba
0x4037ba:	add	byte ptr [rax], al
0x4037bc:	add	rsp, 0x28
0x4037c0:	pop	rbx
0x4037c1:	pop	rbp
0x4037c2:	pop	r12
0x4037c4:	pop	r13
0x4037c6:	pop	r14
0x4037c8:	pop	r15
0x4037ca:	ret	
F 0x406805
0x4035e6:	add	byte ptr [rax], al
0x4035e8:	ret	
F 0x405f68
0x405f68:	add	byte ptr [rax], al
0x405f6a:	pop	rbx
0x405f6b:	pop	rbp
0x405f6c:	pop	r12
0x405f6e:	pop	r13
0x405f70:	pop	r14
0x405f72:	pop	r15
0x405f74:	ret	
F 0x40af88
0x40af88:	nop	dword ptr [rax + rax]
0x40af90:	lea	rax, [rip + 0x3d89]
0x40af97:	add	rsp, 8
0x40af9b:	ret	
F 0x408b4f
0x4028bf:	pop	r12
0x4028c1:	pop	r13
0x4028c3:	pop	r14
0x4028c5:	pop	r15
0x4028c7:	ret	
F 0x406be7
0x406be7:	ret	0xf3e8
F 0x405e6c
0x402016:	ret	
F 0x409a19
0x403a22:	pop	r12
0x403a24:	pop	r13
0x403a26:	ret	
F 0x4078a1
0x4078a1:	mov	ebx, eax
0x4078a3:	mov	qword ptr [rip + 0xb9fe], rbx
0x4078aa:	mov	qword ptr [rip + 0xb837], rbx
0x4078b1:	pop	rbx
0x4078b2:	ret	
F 0x405bf3
0x405bf3:	add	byte ptr [rax], al
0x405bf5:	mov	qword ptr [rbx + 0x38], rax
0x405bf9:	mov	qword ptr [rbx + 0x30], rbp
0x405bfd:	add	rsp, 8
0x405c01:	pop	rbx
0x405c02:	pop	rbp
0x405c03:	ret	
F 0x40685d
0x40685d:	add	rsp, 8
0x406861:	pop	rbx
0x406862:	pop	r12
0x406864:	ret	
F 0x40796e
0x405bfd:	add	rsp, 8
0x405c01:	pop	rbx
0x405c02:	pop	rbp
0x405c03:	ret	
F 0x409462
0x409216:	ret	
F 0x4037c6
0x4028c3:	pop	r14
0x4028c5:	pop	r15
0x4028c7:	ret	
F 0x40a630
0x40a630:	add	rsp, 0x28
0x40a634:	mov	eax, r12d
0x40a637:	pop	rbx
0x40a638:	pop	rbp
0x40a639:	pop	r12
0x40a63b:	pop	r13
0x40a63d:	pop	r14
0x40a63f:	pop	r15
0x40a641:	ret	
F 0x409071
0x4028c4:	pop	rsi
0x4028c5:	pop	r15
0x4028c7:	ret	
F 0x4065dc
0x4065dc:	dec	dword ptr [rax - 0x7b]
0x4065df:	sal	byte ptr [rcx + 0x45], 0x89
0x4065e4:	jne	0x4065e6
F 0x405bf5
0x405bf5:	mov	qword ptr [rbx + 0x38], rax
0x405bf9:	mov	qword ptr [rbx + 0x30], rbp
0x405bfd:	add	rsp, 8
0x405c01:	pop	rbx
0x405c02:	pop	rbp
0x405c03:	ret	
F 0x406b17
0x406b17:	pop	r12
0x406b19:	pop	r13
0x406b1b:	pop	r14
0x406b1d:	pop	rbp
0x406b1e:	ret	
F 0x405dcd
0x405dcd:	mov	eax, r12d
0x405dd0:	pop	rbx
0x405dd1:	pop	rbp
0x405dd2:	pop	r12
0x405dd4:	ret	
F 0x405c3b
0x405c3b:	mov	qword ptr [rsi + 0x20], rax
0x405c3f:	movabs	rax, 0xffffffff00000000
0x405c49:	mov	qword ptr [rsi + 0x38], rax
0x405c4d:	ret	
F 0x4074a0
0x402016:	ret	
F 0x408b54
0x4028c4:	pop	rsi
0x4028c5:	pop	r15
0x4028c7:	ret	
F 0x4048ef
0x40365f:	pop	rbp
0x403660:	ret	
F 0x409072
0x4028c5:	pop	r15
0x4028c7:	ret	
F 0x406c64
0x406c64:	add	byte ptr [rax - 0x77], cl
0x406c67:	sbb	r14b, al
0x406c6a:	or	al, 1
0x406c6d:	pop	rbx
0x406c6e:	pop	rbp
0x406c6f:	pop	r12
0x406c71:	ret	
F 0x403a20
0x403a20:	pop	rbx
0x403a21:	pop	rbp
0x403a22:	pop	r12
0x403a24:	pop	r13
0x403a26:	ret	
F 0x406b19
0x406b19:	pop	r13
0x406b1b:	pop	r14
0x406b1d:	pop	rbp
0x406b1e:	ret	
F 0x405b73
0x402016:	ret	
F 0x4079a6
0x4079a6:	add	byte ptr [rax - 0x73], cl
0x4079a9:	adc	eax, 0x65e4
0x4079ae:	cmovne	rax, rdx
0x4079b2:	add	rsp, 8
0x4079b6:	pop	rbx
0x4079b7:	pop	rbp
0x4079b8:	ret	
F 0x40961c
0x409216:	ret	
F 0x403309
0x402016:	ret	
F 0x4079ac
0x407935:	add	byte ptr [rax], al
0x407937:	cmovne	rax, rdx
0x40793b:	add	rsp, 8
0x40793f:	pop	rbx
0x407940:	pop	rbp
0x407941:	ret	
F 0x409117
0x4059bf:	pop	r12
0x4059c1:	ret	
F 0x4079b2
0x405bfd:	add	rsp, 8
0x405c01:	pop	rbx
0x405c02:	pop	rbp
0x405c03:	ret	
F 0x40a254
0x405c9a:	pop	rbp
0x405c9b:	pop	r12
0x405c9d:	ret	
F 0x40ab1d
0x405da4:	mov	eax, esp
0x405da6:	pop	rbp
0x405da7:	pop	r12
0x405da9:	pop	r13
0x405dab:	ret	
F 0x403623
0x403623:	nop	dword ptr [rax + rax]
0x403628:	ret	
F 0x40ace9
0x40ace9:	add	byte ptr [rbx + rcx + 0x48], dh
0x40aced:	mov	edx, dword ptr [rdi + 0x58]
0x40acf0:	sub	rdx, qword ptr [rdi + 0x48]
0x40acf4:	add	rax, rdx
0x40acf7:	ret	
F 0x4059ba
0x4059ba:	or	byte ptr [rcx + rcx*4 - 0x20], cl
0x4059be:	pop	rbx
0x4059bf:	pop	r12
0x4059c1:	ret	
F 0x403a1f
0x403a1f:	or	byte ptr [rbx + 0x5d], bl
0x403a22:	pop	r12
0x403a24:	pop	r13
0x403a26:	ret	
F 0x405b6d
0x405b6d:	ret	0x8948
F 0x40af8e
0x40af8e:	add	byte ptr [rax], al
0x40af90:	lea	rax, [rip + 0x3d89]
0x40af97:	add	rsp, 8
0x40af9b:	ret	
F 0x404b1d
0x4028c4:	pop	rsi
0x4028c5:	pop	r15
0x4028c7:	ret	
F 0x40b074
0x405bfd:	add	rsp, 8
0x405c01:	pop	rbx
0x405c02:	pop	rbp
0x405c03:	ret	
F 0x4079a5
0x4079a5:	add	byte ptr [rax], al
0x4079a7:	lea	rdx, [rip + 0x65e4]
0x4079ae:	cmovne	rax, rdx
0x4079b2:	add	rsp, 8
0x4079b6:	pop	rbx
0x4079b7:	pop	rbp
0x4079b8:	ret	
F 0x409114
0x409114:	add	byte ptr [rbx + 0x5d], bl
0x409117:	pop	r12
0x409119:	ret	
F 0x408713
0x402016:	ret	
F 0x40af3e
0x4035e6:	add	byte ptr [rax], al
0x4035e8:	ret	
F 0x40a858
0x402016:	ret	
F 0x4060e8
0x4060e8:	pop	r14
0x4060ea:	ret	
F 0x406b99
0x406b99:	add	al, dh
0x406b9b:	and	byte ptr [r9], r8b
0x406b9e:	mov	dword ptr [rdi + 0x24], eax
0x406ba1:	mov	byte ptr [rbx + 0xc], 1
0x406ba5:	pop	rbx
0x406ba6:	pop	rbp
0x406ba7:	pop	r12
0x406ba9:	ret	
F 0x40ae40
0x403a24:	pop	r13
0x403a26:	ret	
F 0x40642c
0x40642c:	ret	0x3948
F 0x40a63e
0x4028c4:	pop	rsi
0x4028c5:	pop	r15
0x4028c7:	ret	
F 0x40521f
0x40521f:	cmovb	rcx, rdi
0x405223:	test	rcx, rcx
0x405226:	mov	eax, 1
0x40522b:	cmovne	rax, rcx
0x40522f:	ret	
F 0x406914
0x406914:	vorps	xmm6, xmm2, xmmword ptr [rdi - 0x76b70001]
0x40691c:	ret	
F 0x40adcc
0x40adcc:	add	byte ptr [rax], al
0x40adce:	xor	eax, eax
0x40add0:	add	rsp, 0x10
0x40add4:	pop	rbp
0x40add5:	ret	
F 0x40b393
0x40b393:	inc	dword ptr [rax]
0x40b395:	add	rsp, 8
0x40b399:	mov	eax, r13d
0x40b39c:	pop	rbx
0x40b39d:	pop	rbp
0x40b39e:	pop	r12
0x40b3a0:	pop	r13
0x40b3a2:	ret	
F 0x40367b
0x40367b:	add	byte ptr [rax], al
0x40367d:	add	byte ptr [rax], al
0x40367f:	nop	
0x403680:	ret	
F 0x406701
0x406701:	mov	dword ptr [rip + 0xcb89], edi
0x406707:	ret	
F 0x405f73
0x4028c6:	pop	rdi
0x4028c7:	ret	
F 0x40b244
0x403a21:	pop	rbp
0x403a22:	pop	r12
0x403a24:	pop	r13
0x403a26:	ret	
F 0x4041e6
0x403a24:	pop	r13
0x403a26:	ret	
F 0x4041e1
0x403a1f:	or	byte ptr [rbx + 0x5d], bl
0x403a22:	pop	r12
0x403a24:	pop	r13
0x403a26:	ret	
F 0x405d57
0x40457e:	mov	eax, r12d
0x404581:	pop	rbx
0x404582:	pop	rbp
0x404583:	pop	r12
0x404585:	pop	r13
0x404587:	ret	
F 0x409a3c
0x409a3c:	add	rax, 1
0x409a40:	test	rdx, rdx
0x409a43:	cmove	rax, rbx
0x409a47:	add	rsp, 8
0x409a4b:	pop	rbx
0x409a4c:	pop	rbp
0x409a4d:	ret	
F 0x406e52
0x406e52:	pop	r14
0x406e54:	pop	r15
0x406e56:	pop	rbp
0x406e57:	ret	
F 0x40a808
0x402016:	ret	
F 0x4079b8
0x402016:	ret	
F 0x409ad6
0x402016:	ret	
F 0x408db2
0x408db2:	add	rsp, 0x28
0x408db6:	mov	rax, r15
0x408db9:	pop	rbx
0x408dba:	pop	rbp
0x408dbb:	pop	r12
0x408dbd:	pop	r13
0x408dbf:	pop	r14
0x408dc1:	pop	r15
0x408dc3:	ret	
F 0x40519e
0x40519e:	add	byte ptr [rbp + 0x13], dh
0x4051a1:	add	rsp, 0x20
0x4051a5:	pop	rbx
0x4051a6:	pop	r12
0x4051a8:	pop	r13
0x4051aa:	ret	
F 0x4097fe
0x402016:	ret	
F 0x40910a
0x40910a:	add	bh, al
0x40910c:	add	eax, 0x9f63
0x409111:	add	dword ptr [rax], eax
0x409113:	add	byte ptr [rax], al
0x409115:	pop	rbx
0x409116:	pop	rbp
0x409117:	pop	r12
0x409119:	ret	
F 0x406e50
0x406e50:	pop	r13
0x406e52:	pop	r14
0x406e54:	pop	r15
0x406e56:	pop	rbp
0x406e57:	ret	
F 0x40ae34
0x40ae34:	sub	eax, 0x18c48348
0x40ae39:	mov	rax, r12
0x40ae3c:	pop	rbx
0x40ae3d:	pop	rbp
0x40ae3e:	pop	r12
0x40ae40:	pop	r13
0x40ae42:	ret	
F 0x40749d
0x4057d8:	add	dword ptr [rax - 0x7d], ecx
0x4057db:	ret	
F 0x40645c
0x403a24:	pop	r13
0x403a26:	ret	
F 0x4051a1
0x4051a1:	add	rsp, 0x20
0x4051a5:	pop	rbx
0x4051a6:	pop	r12
0x4051a8:	pop	r13
0x4051aa:	ret	
F 0x407940
0x40365f:	pop	rbp
0x403660:	ret	
F 0x4063f9
0x405263:	ret	0x8348
F 0x408dba
0x4028be:	pop	rbp
0x4028bf:	pop	r12
0x4028c1:	pop	r13
0x4028c3:	pop	r14
0x4028c5:	pop	r15
0x4028c7:	ret	
F 0x405fff
0x405fff:	add	byte ptr [rbp + 0x4f], dh
0x406002:	add	rsp, 0x28
0x406006:	pop	rbx
0x406007:	pop	r12
0x406009:	ret	
F 0x405e00
0x405e00:	sub	al, 0x90
0x405e02:	add	rdx, 1
0x405e06:	mov	eax, r12d
0x405e09:	mov	qword ptr [rbx + 8], rdx
0x405e0d:	pop	rbx
0x405e0e:	pop	rbp
0x405e0f:	pop	r12
0x405e11:	ret	
F 0x402016
0x402016:	ret	
F 0x40932c
0x409210:	add	byte ptr [rbp + 5], dh
0x409213:	add	rsp, 0x48
0x409217:	ret	
F 0x40b375
0x403a24:	pop	r13
0x403a26:	ret	
F 0x40b238
0x40b238:	test	byte ptr [rax], al
0x40b23a:	add	byte ptr [rax], al
0x40b23c:	add	rsp, 0x58
0x40b240:	mov	rax, r12
0x40b243:	pop	rbx
0x40b244:	pop	rbp
0x40b245:	pop	r12
0x40b247:	pop	r13
0x40b249:	ret	
F 0x405f0a
0x405f0a:	ret	
F 0x405abb
0x403a24:	pop	r13
0x403a26:	ret	
F 0x409c73
0x4028c6:	pop	rdi
0x4028c7:	ret	
F 0x409d67
0x402be1:	ret	0x8948
F 0x40200a
0x40200a:	add	byte ptr [rax - 0x7b], cl
0x40200d:	sal	byte ptr [rdx + rax - 1], 0xd0
0x402012:	add	rsp, 8
0x402016:	ret	
F 0x409a13
0x403b15:	or	byte ptr [rcx + rcx*4 - 0x20], cl
0x403b19:	pop	rbx
0x403b1a:	pop	rbp
0x403b1b:	pop	r12
0x403b1d:	pop	r13
0x403b1f:	ret	
F 0x406936
0x4060e0:	mov	eax, esp
0x4060e2:	pop	rbx
0x4060e3:	pop	rbp
0x4060e4:	pop	r12
0x4060e6:	pop	r13
0x4060e8:	pop	r14
0x4060ea:	ret	
F 0x40929e
0x409212:	add	eax, 0x48c48348
0x409217:	ret	
F 0x40acee
0x40acee:	push	rdi
0x40acef:	pop	rax
0x40acf0:	sub	rdx, qword ptr [rdi + 0x48]
0x40acf4:	add	rax, rdx
0x40acf7:	ret	
F 0x40a7e8
0x4063e4:	add	byte ptr [rax - 0x77], cl
0x4063e7:	ret	
F 0x409a15
0x403b17:	mov	eax, esp
0x403b19:	pop	rbx
0x403b1a:	pop	rbp
0x403b1b:	pop	r12
0x403b1d:	pop	r13
0x403b1f:	ret	
F 0x409a4b
0x404898:	pop	rbx
0x404899:	pop	rbp
0x40489a:	ret	
F 0x40825c
0x40825c:	and	al, 0x50
0x40825e:	add	byte ptr [rdi], cl
0x408260:	xchg	eax, ebp
0x408261:	ret	0xd020
F 0x40522b
0x40522b:	cmovne	rax, rcx
0x40522f:	ret	
F 0x407933
0x407933:	push	rbx
0x407934:	add	byte ptr [rax], al
0x407937:	cmovne	rax, rdx
0x40793b:	add	rsp, 8
0x40793f:	pop	rbx
0x407940:	pop	rbp
0x407941:	ret	
F 0x408e5e
0x408e5e:	mov	dword ptr [rdi], esi
0x408e60:	ret	
F 0x408f81
0x4028c5:	pop	r15
0x4028c7:	ret	
F 0x406280
0x403a22:	pop	r12
0x403a24:	pop	r13
0x403a26:	ret	
F 0x402bdd
0x402bdd:	ror	byte ptr [rax + 0xf], 1
0x402be0:	ret	0x8948
F 0x404b20
0x402016:	ret	
F 0x402012
0x402012:	add	rsp, 8
0x402016:	ret	
F 0x403a15
0x403a15:	mov	byte ptr [rip + 0xf754], 1
0x403a1c:	add	rsp, 8
0x403a20:	pop	rbx
0x403a21:	pop	rbp
0x403a22:	pop	r12
0x403a24:	pop	r13
0x403a26:	ret	
F 0x4068fa
0x4060e7:	pop	rbp
0x4060e8:	pop	r14
0x4060ea:	ret	
F 0x403664
0x4035e4:	add	byte ptr [rax], al
0x4035e6:	add	byte ptr [rax], al
0x4035e8:	ret	
F 0x405c93
0x405c93:	add	byte ptr [rbp - 0x7b], al
0x405c96:	sal	byte ptr [rdi + rax + 0x5b], 0x5d
0x405c9b:	pop	r12
0x405c9d:	ret	
F 0x40b0ae
0x40b0ae:	and	eax, 7
0x40b0b1:	mov	eax, dword ptr [rdx + rax*4]
0x40b0b4:	shr	eax, cl
0x40b0b6:	and	eax, 1
0x40b0b9:	ret	
F 0x40629c
0x406024:	clc	
0x406025:	dec	dword ptr [rax - 0x77]
0x406028:	ret	
F 0x407c8d
0x407c8d:	ret	0x7c80
F 0x406e4d
0x406e4d:	pop	rbx
0x406e4e:	pop	r12
0x406e50:	pop	r13
0x406e52:	pop	r14
0x406e54:	pop	r15
0x406e56:	pop	rbp
0x406e57:	ret	
F 0x40b36d
0x40b34a:	or	byte ptr [rcx + rcx*4 - 0x18], al
0x40b34e:	pop	rbx
0x40b34f:	pop	rbp
0x40b350:	pop	r12
0x40b352:	pop	r13
0x40b354:	ret	
F 0x407889
0x407889:	sbb	eax, 0xba1a
0x40788e:	mov	qword ptr [rip + 0xb853], rbx
0x407895:	pop	rbx
0x407896:	ret	
F 0x405f6c
0x4028bf:	pop	r12
0x4028c1:	pop	r13
0x4028c3:	pop	r14
0x4028c5:	pop	r15
0x4028c7:	ret	
F 0x407226
0x407226:	ret	0xb4e8
F 0x408e52
0x408e52:	dec	dword ptr [rax - 0x73]
0x408e55:	add	eax, 0xa566
0x408e5a:	cmove	rdi, rax
0x408e5e:	mov	dword ptr [rdi], esi
0x408e60:	ret	
F 0x4028bd
0x4028bd:	pop	rbx
0x4028be:	pop	rbp
0x4028bf:	pop	r12
0x4028c1:	pop	r13
0x4028c3:	pop	r14
0x4028c5:	pop	r15
0x4028c7:	ret	
F 0x40629d
0x405cef:	dec	dword ptr [rax - 0x77]
0x405cf2:	ret	
F 0x405cb1
0x405cb1:	test	eax, eax
0x405cb3:	pop	r12
0x405cb5:	setne	al
0x405cb8:	ret	
F 0x40ab13
0x40ab13:	test	dword ptr [rdx + 1], esp
0x40ab16:	add	byte ptr [rax], al
0x40ab18:	add	rsp, 0x60
0x40ab1c:	mov	eax, r12d
0x40ab1f:	pop	rbp
0x40ab20:	pop	r12
0x40ab22:	pop	r13
0x40ab24:	ret	
F 0x409a6f
0x402016:	ret	
F 0x4089ab
0x402016:	ret	
F 0x40b354
0x402016:	ret	
F 0x4066d4
0x404898:	pop	rbx
0x404899:	pop	rbp
0x40489a:	ret	
F 0x409a8a
0x409a8a:	xchg	edi, edi
0x409a8c:	inc	dword ptr [rcx + rcx*4 - 0x20]
0x409a90:	mov	dword ptr [rbx], r13d
0x409a93:	add	rsp, 8
0x409a97:	pop	rbx
0x409a98:	pop	rbp
0x409a99:	pop	r12
0x409a9b:	pop	r13
0x409a9d:	ret	
F 0x409619
0x409213:	add	rsp, 0x48
0x409217:	ret	
F 0x40789f
0x40789f:	add	byte ptr [rcx + rcx*4 - 0x3d], cl
0x4078a3:	mov	qword ptr [rip + 0xb9fe], rbx
0x4078aa:	mov	qword ptr [rip + 0xb837], rbx
0x4078b1:	pop	rbx
0x4078b2:	ret	
F 0x406864
0x402016:	ret	
F 0x40af7d
0x40af7d:	cmove	rax, rdx
0x40af81:	add	rsp, 8
0x40af85:	ret	
F 0x4097fd
0x409216:	ret	
F 0x406397
0x406397:	movsd	dword ptr [rdi], dword ptr [rsi]
0x406398:	cmp	al, 0
0x40639a:	add	byte ptr [rax + 0x5a], bl
0x40639d:	pop	rbx
0x40639e:	pop	rbp
0x40639f:	pop	r12
0x4063a1:	ret	
F 0x40a314
0x40a314:	xchg	eax, edi
0x40a315:	ret	0x8d48
F 0x405dff
0x405dff:	mov	dword ptr [rax + rdx*4], ebp
0x405e02:	add	rdx, 1
0x405e06:	mov	eax, r12d
0x405e09:	mov	qword ptr [rbx + 8], rdx
0x405e0d:	pop	rbx
0x405e0e:	pop	rbp
0x405e0f:	pop	r12
0x405e11:	ret	
F 0x40a315
0x40527a:	ret	0x8d48
F 0x4093b3
0x40920e:	add	byte ptr [rax], al
0x409210:	add	byte ptr [rbp + 5], dh
0x409213:	add	rsp, 0x48
0x409217:	ret	
F 0x40afd7
0x402016:	ret	
F 0x40519c
0x40519c:	add	byte ptr [rax], al
0x40519e:	add	byte ptr [rbp + 0x13], dh
0x4051a1:	add	rsp, 0x20
0x4051a5:	pop	rbx
0x4051a6:	pop	r12
0x4051a8:	pop	r13
0x4051aa:	ret	
F 0x40596a
0x40596a:	ret	0x8348
F 0x409ed4
0x402016:	ret	
F 0x4047b5
0x4047b5:	add	eax, 0xe856
0x4047ba:	ret	
F 0x40361a
0x40361a:	add	byte ptr [rax - 0x7b], cl
0x40361d:	sal	byte ptr [rax + rcx - 1], 0xe0
0x403622:	nop	word ptr [rax + rax]
0x403628:	ret	
F 0x406e54
0x406e54:	pop	r15
0x406e56:	pop	rbp
0x406e57:	ret	
F 0x40416f
0x402016:	ret	
F 0x4059b4
0x4059b4:	push	qword ptr [rbp - 0x17]
0x4059b7:	add	rsp, 8
0x4059bb:	mov	rax, r12
0x4059be:	pop	rbx
0x4059bf:	pop	r12
0x4059c1:	ret	
F 0x405d9c
0x405d9c:	mov	r12d, 0xffffffff
0x405da2:	pop	rbx
0x405da3:	mov	eax, r12d
0x405da6:	pop	rbp
0x405da7:	pop	r12
0x405da9:	pop	r13
0x405dab:	ret	
F 0x40929f
0x409213:	add	rsp, 0x48
0x409217:	ret	
F 0x405b6f
0x405b6f:	mov	qword ptr [rdi + 0x18], rax
0x405b73:	ret	
F 0x40af39
0x40af39:	add	rsp, 0x118
0x40af40:	ret	
F 0x4093b8
0x409213:	add	rsp, 0x48
0x409217:	ret	
F 0x406537
0x406537:	add	byte ptr [rax], al
0x406539:	add	byte ptr [rax - 0x77], cl
0x40653c:	ret	0x8d48
F 0x40587e
0x4028c2:	pop	rbp
0x4028c3:	pop	r14
0x4028c5:	pop	r15
0x4028c7:	ret	
F 0x406c6b
0x406ba3:	or	al, 1
0x406ba5:	pop	rbx
0x406ba6:	pop	rbp
0x406ba7:	pop	r12
0x406ba9:	ret	
F 0x4060e2
0x4060e2:	pop	rbx
0x4060e3:	pop	rbp
0x4060e4:	pop	r12
0x4060e6:	pop	r13
0x4060e8:	pop	r14
0x4060ea:	ret	
F 0x40af7a
0x40af7a:	cmp	eax, 0xf480000
0x40af7f:	ret	0x8348
F 0x40b36e
0x40b34b:	mov	eax, r13d
0x40b34e:	pop	rbx
0x40b34f:	pop	rbp
0x40b350:	pop	r12
0x40b352:	pop	r13
0x40b354:	ret	
F 0x409ed3
0x4028c6:	pop	rdi
0x4028c7:	ret	
F 0x40393a
0x402be1:	ret	0x8948
F 0x408f7b
0x4028bf:	pop	r12
0x4028c1:	pop	r13
0x4028c3:	pop	r14
0x4028c5:	pop	r15
0x4028c7:	ret	
F 0x406025
0x405cef:	dec	dword ptr [rax - 0x77]
0x405cf2:	ret	
F 0x40a259
0x402016:	ret	
F 0x405da3
0x405da3:	mov	eax, r12d
0x405da6:	pop	rbp
0x405da7:	pop	r12
0x405da9:	pop	r13
0x405dab:	ret	
F 0x403a26
0x402016:	ret	
F 0x40aeab
0x40aeab:	sal	bh, 0xd8
0x40aeae:	pop	rbx
0x40aeaf:	pop	rbp
0x40aeb0:	pop	r12
0x40aeb2:	ret	
F 0x409c6a
0x4028bd:	pop	rbx
0x4028be:	pop	rbp
0x4028bf:	pop	r12
0x4028c1:	pop	r13
0x4028c3:	pop	r14
0x4028c5:	pop	r15
0x4028c7:	ret	
F 0x405d5c
0x403a22:	pop	r12
0x403a24:	pop	r13
0x403a26:	ret	
F 0x4066cb
0x4066cb:	neg	eax
0x4066cd:	add	rsp, 8
0x4066d1:	mov	eax, r8d
0x4066d4:	pop	rbx
0x4066d5:	pop	rbp
0x4066d6:	ret	
F 0x40a206
0x40a206:	add	eax, 0x8c48348
0x40a20b:	ret	
F 0x40693f
0x4060e9:	pop	rsi
0x4060ea:	ret	
F 0x40a63b
0x4028c1:	pop	r13
0x4028c3:	pop	r14
0x4028c5:	pop	r15
0x4028c7:	ret	
F 0x40512b
0x40512b:	add	byte ptr [rax], al
0x40512d:	add	byte ptr [rsi - 0x70], ah
0x405130:	xor	eax, eax
0x405132:	ret	
F 0x405437
0x4028c6:	pop	rdi
0x4028c7:	ret	
F 0x40a458
0x402012:	add	rsp, 8
0x402016:	ret	
F 0x406c5e
0x406c5e:	mov	ch, 0xff
0x406c60:	inc	esi
0x406c62:	and	byte ptr [r8], al
0x406c65:	mov	qword ptr [rbx + 0x18], rax
0x406c69:	mov	byte ptr [rbx + 0xc], 1
0x406c6d:	pop	rbx
0x406c6e:	pop	rbp
0x406c6f:	pop	r12
0x406c71:	ret	
F 0x4035df
0x4035df:	jmp	rax
F 0x408f7a
0x4028be:	pop	rbp
0x4028bf:	pop	r12
0x4028c1:	pop	r13
0x4028c3:	pop	r14
0x4028c5:	pop	r15
0x4028c7:	ret	
F 0x40a639
0x4028bf:	pop	r12
0x4028c1:	pop	r13
0x4028c3:	pop	r14
0x4028c5:	pop	r15
0x4028c7:	ret	
F 0x40b34c
0x40b34c:	mov	eax, ebp
0x40b34e:	pop	rbx
0x40b34f:	pop	rbp
0x40b350:	pop	r12
0x40b352:	pop	r13
0x40b354:	ret	
F 0x40b395
0x40b347:	add	rsp, 8
0x40b34b:	mov	eax, r13d
0x40b34e:	pop	rbx
0x40b34f:	pop	rbp
0x40b350:	pop	r12
0x40b352:	pop	r13
0x40b354:	ret	
F 0x408e20
0x405c99:	pop	rbx
0x405c9a:	pop	rbp
0x405c9b:	pop	r12
0x405c9d:	ret	
F 0x40788e
0x40788e:	mov	qword ptr [rip + 0xb853], rbx
0x407895:	pop	rbx
0x407896:	ret	
F 0x4093b5
0x409210:	add	byte ptr [rbp + 5], dh
0x409213:	add	rsp, 0x48
0x409217:	ret	
F 0x4050ce
0x402016:	ret	
F 0x405dce
0x405dce:	mov	eax, esp
0x405dd0:	pop	rbx
0x405dd1:	pop	rbp
0x405dd2:	pop	r12
0x405dd4:	ret	
F 0x4036ac
0x4036ac:	mov	dword ptr [rip + 0xfa96], 1
0x4036b6:	ret	
F 0x40680d
0x40680d:	add	byte ptr [rax], al
0x40680f:	add	byte ptr [rax - 0x78], al
0x406812:	cmp	eax, 0xca81
0x406817:	ret	
F 0x407937
0x407937:	cmovne	rax, rdx
0x40793b:	add	rsp, 8
0x40793f:	pop	rbx
0x407940:	pop	rbp
0x407941:	ret	
F 0x4036a6
0x4036a6:	mov	dword ptr [rip + 0xf964], eax
0x4036ac:	mov	dword ptr [rip + 0xfa96], 1
0x4036b6:	ret	
F 0x409c6f
0x4028c2:	pop	rbp
0x4028c3:	pop	r14
0x4028c5:	pop	r15
0x4028c7:	ret	
F 0x405d5a
0x403a20:	pop	rbx
0x403a21:	pop	rbp
0x403a22:	pop	r12
0x403a24:	pop	r13
0x403a26:	ret	
F 0x4072ea
0x4028c1:	pop	r13
0x4028c3:	pop	r14
0x4028c5:	pop	r15
0x4028c7:	ret	
F 0x4036ab
0x4036ab:	add	bh, al
0x4036ad:	add	eax, 0xfa96
0x4036b2:	add	dword ptr [rax], eax
0x4036b4:	add	byte ptr [rax], al
0x4036b6:	ret	
F 0x40796a
0x407937:	cmovne	rax, rdx
0x40793b:	add	rsp, 8
0x40793f:	pop	rbx
0x407940:	pop	rbp
0x407941:	ret	
F 0x407964
0x407964:	lea	edx, [rip + 0x65a4]
0x40796a:	cmovne	rax, rdx
0x40796e:	add	rsp, 8
0x407972:	pop	rbx
0x407973:	pop	rbp
0x407974:	ret	
F 0x406b9c
0x406b9c:	and	byte ptr [rcx], al
0x406b9e:	mov	dword ptr [rdi + 0x24], eax
0x406ba1:	mov	byte ptr [rbx + 0xc], 1
0x406ba5:	pop	rbx
0x406ba6:	pop	rbp
0x406ba7:	pop	r12
0x406ba9:	ret	
F 0x40b243
0x403a20:	pop	rbx
0x403a21:	pop	rbp
0x403a22:	pop	r12
0x403a24:	pop	r13
0x403a26:	ret	
F 0x405130
0x405130:	xor	eax, eax
0x405132:	ret	
F 0x407941
0x402016:	ret	
F 0x405c4a
0x405c4a:	mov	dword ptr [rsi + 0x38], eax
0x405c4d:	ret	
F 0x403b2c
0x402016:	ret	
F 0x405ac4
0x405ac4:	mov	eax, 1
0x405ac9:	pop	rbx
0x405aca:	pop	rbp
0x405acb:	pop	r12
0x405acd:	pop	r13
0x405acf:	ret	
F 0x406c48
0x406c48:	mov	byte ptr [rbx + 0x20], 0
0x406c4c:	mov	byte ptr [rbx + 0xc], 1
0x406c50:	pop	rbx
0x406c51:	pop	rbp
0x406c52:	pop	r12
0x406c54:	ret	
F 0x404208
0x403a21:	pop	rbp
0x403a22:	pop	r12
0x403a24:	pop	r13
0x403a26:	ret	
F 0x406e55
0x406e55:	pop	rdi
0x406e56:	pop	rbp
0x406e57:	ret	
F 0x4079a9
0x4079a9:	adc	eax, 0x65e4
0x4079ae:	cmovne	rax, rdx
0x4079b2:	add	rsp, 8
0x4079b6:	pop	rbx
0x4079b7:	pop	rbp
0x4079b8:	ret	
F 0x408e5d
0x408e5d:	clc	
0x408e5e:	mov	dword ptr [rdi], esi
0x408e60:	ret	
F 0x406842
0x4063e4:	add	byte ptr [rax - 0x77], cl
0x4063e7:	ret	
F 0x408e35
0x408e35:	add	eax, 0xa586
0x408e3a:	cmove	rdi, rax
0x408e3e:	mov	eax, dword ptr [rdi]
0x408e40:	ret	
F 0x4059a8
0x4059a8:	or	byte ptr [rax - 0x7d], cl
0x4059ab:	ret	
F 0x407893
0x407893:	add	byte ptr [rax], al
0x407895:	pop	rbx
0x407896:	ret	
F 0x405b6b
0x405b6b:	cmovb	rax, rdx
0x405b6f:	mov	qword ptr [rdi + 0x18], rax
0x405b73:	ret	
F 0x40a2ce
0x40a250:	add	rsp, 0x18
0x40a254:	pop	rbp
0x40a255:	pop	r12
0x40a257:	ret	
F 0x407407
0x407407:	and	al, 8
0x407409:	add	dword ptr [rax - 0x7d], ecx
0x40740c:	ret	
F 0x409111
0x409111:	add	dword ptr [rax], eax
0x409113:	add	byte ptr [rax], al
0x409115:	pop	rbx
0x409116:	pop	rbp
0x409117:	pop	r12
0x409119:	ret	
F 0x40a257
0x402016:	ret	
F 0x40acec
0x40acec:	mov	rdx, qword ptr [rdi + 0x58]
0x40acf0:	sub	rdx, qword ptr [rdi + 0x48]
0x40acf4:	add	rax, rdx
0x40acf7:	ret	
F 0x403fe2
0x403fe2:	sbb	byte ptr [rbx + 0x5d], bl
0x403fe5:	pop	r12
0x403fe7:	pop	r13
0x403fe9:	pop	r14
0x403feb:	pop	r15
0x403fed:	ret	
F 0x405b6e
0x402be1:	ret	0x8948
F 0x408b51
0x4028c1:	pop	r13
0x4028c3:	pop	r14
0x4028c5:	pop	r15
0x4028c7:	ret	
F 0x4035e3
0x4035e3:	add	byte ptr [rax], 0
0x4035e6:	add	byte ptr [rax], al
0x4035e8:	ret	
F 0x406e53
0x406e53:	pop	rsi
0x406e54:	pop	r15
0x406e56:	pop	rbp
0x406e57:	ret	
F 0x4065fb
0x4065fb:	mov	ebp, 0x8548ffff
0x406600:	sal	byte ptr [rbp - 0x21], 0x5b
0x406604:	xor	eax, eax
0x406606:	pop	rbp
0x406607:	pop	r12
0x406609:	pop	r13
0x40660b:	pop	r14
0x40660d:	ret	
F 0x408312
0x402016:	ret	
F 0x4097f9
0x409212:	add	eax, 0x48c48348
0x409217:	ret	
F 0x4051aa
0x402016:	ret	
F 0x403658
0x403658:	mov	byte ptr [rip + 0xfaa9], 1
0x40365f:	pop	rbp
0x403660:	ret	
F 0x40b427
0x402016:	ret	
F 0x403fe4
0x4028be:	pop	rbp
0x4028bf:	pop	r12
0x4028c1:	pop	r13
0x4028c3:	pop	r14
0x4028c5:	pop	r15
0x4028c7:	ret	
F 0x409a65
0x405d56:	or	byte ptr [rcx + rcx*4 - 0x20], al
0x405d5a:	pop	rbx
0x405d5b:	pop	rbp
0x405d5c:	pop	r12
0x405d5e:	pop	r13
0x405d60:	ret	
F 0x4093b7
0x409212:	add	eax, 0x48c48348
0x409217:	ret	
F 0x406ba1
0x406ba1:	mov	byte ptr [rbx + 0xc], 1
0x406ba5:	pop	rbx
0x406ba6:	pop	rbp
0x406ba7:	pop	r12
0x406ba9:	ret	
F 0x40512e
0x40512e:	nop	
0x405130:	xor	eax, eax
0x405132:	ret	
F 0x406ba2
0x406ba2:	or	al, 1
0x406ba5:	pop	rbx
0x406ba6:	pop	rbp
0x406ba7:	pop	r12
0x406ba9:	ret	
F 0x406845
0x402016:	ret	
F 0x40a02b
0x40a02b:	add	rsp, 0x68
0x40a02f:	ret	
F 0x40958c
0x409212:	add	eax, 0x48c48348
0x409217:	ret	
F 0x405c03
0x402016:	ret	
F 0x409e1f
0x4028c3:	pop	r14
0x4028c5:	pop	r15
0x4028c7:	ret	
F 0x4066d6
0x402016:	ret	
F 0x4090b5
0x402016:	ret	
F 0x40645e
0x402016:	ret	
F 0x406939
0x4060e3:	pop	rbp
0x4060e4:	pop	r12
0x4060e6:	pop	r13
0x4060e8:	pop	r14
0x4060ea:	ret	
F 0x406812
0x406812:	cmp	eax, 0xca81
0x406817:	ret	
F 0x4076b8
0x402016:	ret	
F 0x40af73
0x40af73:	cmp	byte ptr [rax], 0
0x40af76:	lea	rdx, [rip + 0x3da3]
0x40af7d:	cmove	rax, rdx
0x40af81:	add	rsp, 8
0x40af85:	ret	
F 0x40acef
0x40acef:	pop	rax
0x40acf0:	sub	rdx, qword ptr [rdi + 0x48]
0x40acf4:	add	rax, rdx
0x40acf7:	ret	
F 0x409ed1
0x4028c4:	pop	rsi
0x4028c5:	pop	r15
0x4028c7:	ret	
F 0x4072e4
0x405f68:	add	byte ptr [rax], al
0x405f6a:	pop	rbx
0x405f6b:	pop	rbp
0x405f6c:	pop	r12
0x405f6e:	pop	r13
0x405f70:	pop	r14
0x405f72:	pop	r15
0x405f74:	ret	
F 0x4060e4
0x4060e4:	pop	r12
0x4060e6:	pop	r13
0x4060e8:	pop	r14
0x4060ea:	ret	
F 0x408f06
0x402016:	ret	
F 0x40906f
0x4028c2:	pop	rbp
0x4028c3:	pop	r14
0x4028c5:	pop	r15
0x4028c7:	ret	
F 0x408261
0x408261:	ret	0xd020
F 0x40660b
0x4060e8:	pop	r14
0x4060ea:	ret	
F 0x409c71
0x4028c4:	pop	rsi
0x4028c5:	pop	r15
0x4028c7:	ret	
F 0x4041e8
0x402016:	ret	
F 0x409acc
0x409acc:	sar	byte ptr [rax + 0x15], 0x44
0x409ad0:	mov	eax, esp
0x409ad2:	pop	rbx
0x409ad3:	pop	rbp
0x409ad4:	pop	r12
0x409ad6:	ret	
F 0x4079ae
0x407937:	cmovne	rax, rdx
0x40793b:	add	rsp, 8
0x40793f:	pop	rbx
0x407940:	pop	rbp
0x407941:	ret	
F 0x4066fe
0x4066fe:	nop	
0x406700:	mov	qword ptr [rip + 0xcb89], rdi
0x406707:	ret	
F 0x4063e4
0x4063e4:	add	byte ptr [rax - 0x77], cl
0x4063e7:	ret	
F 0x40a352
0x402016:	ret	
F 0x406457
0x406457:	sbb	byte ptr [rbx + 0x5d], bl
0x40645a:	pop	r12
0x40645c:	pop	r13
0x40645e:	ret	
F 0x407406
0x407406:	and	al, 8
0x407409:	add	dword ptr [rax - 0x7d], ecx
0x40740c:	ret	
F 0x4047af
0x4047af:	add	byte ptr [rax], al
0x4047b1:	sub	eax, 1
0x4047b4:	mov	dword ptr [rip + 0xe856], eax
0x4047ba:	ret	
F 0x406b12
0x406b12:	lea	rsp, [rbp - 0x20]
0x406b16:	pop	rbx
0x406b17:	pop	r12
0x406b19:	pop	r13
0x406b1b:	pop	r14
0x406b1d:	pop	rbp
0x406b1e:	ret	
F 0x4072ee
0x4028c5:	pop	r15
0x4028c7:	ret	
F 0x40ab1c
0x405da3:	mov	eax, r12d
0x405da6:	pop	rbp
0x405da7:	pop	r12
0x405da9:	pop	r13
0x405dab:	ret	
F 0x407d46
0x402016:	ret	
F 0x4068f7
0x4060e4:	pop	r12
0x4060e6:	pop	r13
0x4060e8:	pop	r14
0x4060ea:	ret	
F 0x40489a
0x402016:	ret	
F 0x405224
0x405224:	test	ecx, ecx
0x405226:	mov	eax, 1
0x40522b:	cmovne	rax, rcx
0x40522f:	ret	
F 0x409a14
0x403b16:	mov	rax, r12
0x403b19:	pop	rbx
0x403b1a:	pop	rbp
0x403b1b:	pop	r12
0x403b1d:	pop	r13
0x403b1f:	ret	
F 0x408dc0
0x4028c4:	pop	rsi
0x4028c5:	pop	r15
0x4028c7:	ret	
F 0x40627d
0x40627d:	cmp	byte ptr [rbx + 0x5d], bl
0x406280:	pop	r12
0x406282:	pop	r13
0x406284:	ret	
F 0x406e4b
0x406e4b:	mov	eax, ebp
0x406e4d:	pop	rbx
0x406e4e:	pop	r12
0x406e50:	pop	r13
0x406e52:	pop	r14
0x406e54:	pop	r15
0x406e56:	pop	rbp
0x406e57:	ret	
F 0x40b34b
0x40b34b:	mov	eax, r13d
0x40b34e:	pop	rbx
0x40b34f:	pop	rbp
0x40b350:	pop	r12
0x40b352:	pop	r13
0x40b354:	ret	
F 0x40b39d
0x403a21:	pop	rbp
0x403a22:	pop	r12
0x403a24:	pop	r13
0x403a26:	ret	
F 0x40af77
0x40af77:	lea	edx, [rip + 0x3da3]
0x40af7d:	cmove	rax, rdx
0x40af81:	add	rsp, 8
0x40af85:	ret	
F 0x409504
0x402016:	ret	
F 0x40a0b3
0x40a0b3:	ret	0x4808
F 0x40989f
0x409212:	add	eax, 0x48c48348
0x409217:	ret	
F 0x404b13
0x404b13:	mov	eax, r13d
0x404b16:	pop	rbx
0x404b17:	pop	rbp
0x404b18:	pop	r12
0x404b1a:	pop	r13
0x404b1c:	pop	r14
0x404b1e:	pop	r15
0x404b20:	ret	
F 0x4060e3
0x4060e3:	pop	rbp
0x4060e4:	pop	r12
0x4060e6:	pop	r13
0x4060e8:	pop	r14
0x4060ea:	ret	
F 0x405da4
0x405da4:	mov	eax, esp
0x405da6:	pop	rbp
0x405da7:	pop	r12
0x405da9:	pop	r13
0x405dab:	ret	
F 0x4066fb
0x4066fb:	add	byte ptr [r8], al
0x4066fe:	nop	
0x406700:	mov	qword ptr [rip + 0xcb89], rdi
0x406707:	ret	
F 0x40b249
0x402016:	ret	
F 0x40483b
0x40483b:	jmp	0x4048f1
F 0x4060e9
0x4060e9:	pop	rsi
0x4060ea:	ret	
F 0x409616
0x409210:	add	byte ptr [rbp + 5], dh
0x409213:	add	rsp, 0x48
0x409217:	ret	
F 0x4079a8
0x4079a8:	lea	edx, [rip + 0x65e4]
0x4079ae:	cmovne	rax, rdx
0x4079b2:	add	rsp, 8
0x4079b6:	pop	rbx
0x4079b7:	pop	rbp
0x4079b8:	ret	
F 0x404f48
0x402016:	ret	
F 0x40906c
0x4028bf:	pop	r12
0x4028c1:	pop	r13
0x4028c3:	pop	r14
0x4028c5:	pop	r15
0x4028c7:	ret	
F 0x406c4d
0x406ba2:	or	al, 1
0x406ba5:	pop	rbx
0x406ba6:	pop	rbp
0x406ba7:	pop	r12
0x406ba9:	ret	
F 0x40ab20
0x403a22:	pop	r12
0x403a24:	pop	r13
0x403a26:	ret	
F 0x406e56
0x40365f:	pop	rbp
0x403660:	ret	
F 0x4061c6
0x402012:	add	rsp, 8
0x402016:	ret	
F 0x4097e4
0x4097e4:	ret	0x66e8
F 0x405432
0x4028c1:	pop	r13
0x4028c3:	pop	r14
0x4028c5:	pop	r15
0x4028c7:	ret	
F 0x406c61
0x406c61:	mov	byte ptr [rbx + 0x20], 0
0x406c65:	mov	qword ptr [rbx + 0x18], rax
0x406c69:	mov	byte ptr [rbx + 0xc], 1
0x406c6d:	pop	rbx
0x406c6e:	pop	rbp
0x406c6f:	pop	r12
0x406c71:	ret	
F 0x40788d
0x40788d:	add	byte ptr [rax - 0x77], cl
0x407890:	sbb	eax, 0xb853
0x407895:	pop	rbx
0x407896:	ret	
F 0x40788a
0x40788a:	sbb	bh, byte ptr [rdx - 0x76b80000]
0x407890:	sbb	eax, 0xb853
0x407895:	pop	rbx
0x407896:	ret	
F 0x4096bc
0x409216:	ret	
F 0x405e09
0x405e09:	mov	qword ptr [rbx + 8], rdx
0x405e0d:	pop	rbx
0x405e0e:	pop	rbp
0x405e0f:	pop	r12
0x405e11:	ret	
F 0x4060e7
0x4060e7:	pop	rbp
0x4060e8:	pop	r14
0x4060ea:	ret	
F 0x406c6e
0x405c9a:	pop	rbp
0x405c9b:	pop	r12
0x405c9d:	ret	
F 0x40afd0
0x402016:	ret	
F 0x405e11
0x402016:	ret	
F 0x405f0b
0x402016:	ret	
F 0x40a2d3
0x4059bf:	pop	r12
0x4059c1:	ret	
F 0x4094fb
0x40920e:	add	byte ptr [rax], al
0x409210:	add	byte ptr [rbp + 5], dh
0x409213:	add	rsp, 0x48
0x409217:	ret	
F 0x40945a
0x40920e:	add	byte ptr [rax], al
0x409210:	add	byte ptr [rbp + 5], dh
0x409213:	add	rsp, 0x48
0x409217:	ret	
F 0x405875
0x405875:	add	rsp, 8
0x405879:	pop	rbx
0x40587a:	pop	rbp
0x40587b:	pop	r12
0x40587d:	pop	r13
0x40587f:	pop	r14
0x405881:	pop	r15
0x405883:	ret	
F 0x4063e7
0x402016:	ret	
F 0x406429
0x406429:	dec	dword ptr [rax + 1]
0x40642c:	ret	0x3948
F 0x4072f0
0x402016:	ret	
F 0x406c4f
0x406ba4:	add	dword ptr [rbx + 0x5d], ebx
0x406ba7:	pop	r12
0x406ba9:	ret	
F 0x408ebe
0x408ebe:	mov	eax, dword ptr [rdi + 4]
0x408ec1:	mov	dword ptr [rdi + 4], esi
0x408ec4:	ret	
F 0x40740c
0x402016:	ret	
F 0x40690f
0x40690f:	or	eax, 0x89000041
0x406914:	vorps	xmm6, xmm2, xmmword ptr [rdi - 0x76b70001]
0x40691c:	ret	
F 0x405968
0x405968:	cmovle	rax, rdx
0x40596c:	add	rsp, 8
0x405970:	ret	
F 0x40b017
0x40b017:	inc	dword ptr [rbp + 0x5d0478c0]
0x40b01d:	ret	
F 0x406d23
0x406d23:	ret	0x8548
F 0x405426
0x405426:	mov	qword ptr [rbx + 0x28], r12
0x40542a:	add	rsp, 0x18
0x40542e:	pop	rbx
0x40542f:	pop	rbp
0x405430:	pop	r12
0x405432:	pop	r13
0x405434:	pop	r14
0x405436:	pop	r15
0x405438:	ret	
F 0x40a63f
0x4028c5:	pop	r15
0x4028c7:	ret	
F 0x4076c2
0x407406:	and	al, 8
0x407409:	add	dword ptr [rax - 0x7d], ecx
0x40740c:	ret	
F 0x409ec6
0x408f75:	add	rsp, 0x38
0x408f79:	pop	rbx
0x408f7a:	pop	rbp
0x408f7b:	pop	r12
0x408f7d:	pop	r13
0x408f7f:	pop	r14
0x408f81:	pop	r15
0x408f83:	ret	
F 0x406800
0x406800:	mov	qword ptr [rip + 0xca99], rdi
0x406807:	ret	
F 0x40ad51
0x40ad51:	add	byte ptr [rax], al
0x40ad53:	add	byte ptr [rbp + 7], dh
0x40ad56:	add	rsp, 0x18
0x40ad5a:	pop	rbx
0x40ad5b:	pop	rbp
0x40ad5c:	ret	
F 0x402be0
0x402be0:	ret	0x8948
F 0x40af7e
0x40af7e:	cmove	eax, edx
0x40af81:	add	rsp, 8
0x40af85:	ret	
F 0x403679
0x403679:	test	byte ptr [rax], al
0x40367b:	add	byte ptr [rax], al
0x40367d:	add	byte ptr [rax], al
0x40367f:	nop	
0x403680:	ret	
F 0x40af97
0x402012:	add	rsp, 8
0x402016:	ret	
F 0x40596b
0x405263:	ret	0x8348
F 0x406c6a
0x406ba2:	or	al, 1
0x406ba5:	pop	rbx
0x406ba6:	pop	rbp
0x406ba7:	pop	r12
0x406ba9:	ret	
F 0x405263
0x405263:	ret	0x8348
F 0x407965
0x407965:	adc	eax, 0x65a4
0x40796a:	cmovne	rax, rdx
0x40796e:	add	rsp, 8
0x407972:	pop	rbx
0x407973:	pop	rbp
0x407974:	ret	
F 0x40aea3
0x40aea3:	cmp	dword ptr [rax], 9
0x40aea6:	setne	al
0x40aea9:	movzx	eax, al
0x40aeac:	neg	eax
0x40aeae:	pop	rbx
0x40aeaf:	pop	rbp
0x40aeb0:	pop	r12
0x40aeb2:	ret	
F 0x4083bd
0x4083bd:	dec	dword ptr [rax - 0x7d]
0x4083c0:	ret	
F 0x4066c7
0x4066c7:	sete	al
0x4066ca:	neg	r8d
0x4066cd:	add	rsp, 8
0x4066d1:	mov	eax, r8d
0x4066d4:	pop	rbx
0x4066d5:	pop	rbp
0x4066d6:	ret	
F 0x409eca
0x4028bd:	pop	rbx
0x4028be:	pop	rbp
0x4028bf:	pop	r12
0x4028c1:	pop	r13
0x4028c3:	pop	r14
0x4028c5:	pop	r15
0x4028c7:	ret	
F 0x40b347
0x40b347:	add	rsp, 8
0x40b34b:	mov	eax, r13d
0x40b34e:	pop	rbx
0x40b34f:	pop	rbp
0x40b350:	pop	r12
0x40b352:	pop	r13
0x40b354:	ret	
F 0x409a45
0x409a45:	ret	
F 0x406916
0x406916:	push	rsi
0x406917:	mov	bh, 0xff
0x406919:	dec	dword ptr [rax - 0x77]
0x40691c:	ret	
F 0x406b96
0x406b96:	add	byte ptr [rdi], cl
0x406b98:	mov	esi, 0x2047c602
0x406b9d:	add	dword ptr [rcx + 0x43c62447], ecx
0x406ba3:	or	al, 1
0x406ba5:	pop	rbx
0x406ba6:	pop	rbp
0x406ba7:	pop	r12
0x406ba9:	ret	
F 0x409e21
0x4028c5:	pop	r15
0x4028c7:	ret	
F 0x406284
0x402016:	ret	
F 0x4028c4
0x4028c4:	pop	rsi
0x4028c5:	pop	r15
0x4028c7:	ret	
F 0x4028c7
0x402016:	ret	
F 0x405dd1
0x405c9a:	pop	rbp
0x405c9b:	pop	r12
0x405c9d:	ret	
F 0x408e50
0x408e50:	test	rdi, rdi
0x408e53:	lea	rax, [rip + 0xa566]
0x408e5a:	cmove	rdi, rax
0x408e5e:	mov	dword ptr [rdi], esi
0x408e60:	ret	
F 0x406b0f
0x406b0f:	add	byte ptr [rbp + 0x49], dh
0x406b12:	lea	rsp, [rbp - 0x20]
0x406b16:	pop	rbx
0x406b17:	pop	r12
0x406b19:	pop	r13
0x406b1b:	pop	r14
0x406b1d:	pop	rbp
0x406b1e:	ret	
F 0x4036a9
0x4036a9:	stc	
0x4036aa:	add	byte ptr [rax], al
0x4036ac:	mov	dword ptr [rip + 0xfa96], 1
0x4036b6:	ret	
F 0x409e23
0x402016:	ret	
F 0x40b433
0x4028be:	pop	rbp
0x4028bf:	pop	r12
0x4028c1:	pop	r13
0x4028c3:	pop	r14
0x4028c5:	pop	r15
0x4028c7:	ret	
F 0x40afd3
0x402012:	add	rsp, 8
0x402016:	ret	
F 0x40a638
0x4028be:	pop	rbp
0x4028bf:	pop	r12
0x4028c1:	pop	r13
0x4028c3:	pop	r14
0x4028c5:	pop	r15
0x4028c7:	ret	
F 0x408f7e
0x4028c2:	pop	rbp
0x4028c3:	pop	r14
0x4028c5:	pop	r15
0x4028c7:	ret	
F 0x4066d0
0x4066d0:	or	byte ptr [rcx + rcx*4 - 0x40], al
0x4066d4:	pop	rbx
0x4066d5:	pop	rbp
0x4066d6:	ret	
F 0x40527a
0x40527a:	ret	0x8d48
F 0x4067f8
0x4067f8:	add	cl, ch
0x4067fa:	imul	edi, edi, 0x9066ffff
0x406800:	mov	qword ptr [rip + 0xca99], rdi
0x406807:	ret	
F 0x403fe5
0x4028bf:	pop	r12
0x4028c1:	pop	r13
0x4028c3:	pop	r14
0x4028c5:	pop	r15
0x4028c7:	ret	
F 0x409ecb
0x4028be:	pop	rbp
0x4028bf:	pop	r12
0x4028c1:	pop	r13
0x4028c3:	pop	r14
0x4028c5:	pop	r15
0x4028c7:	ret	
F 0x40ad5b
0x40365f:	pop	rbp
0x403660:	ret	
F 0x4048e3
0x4048e3:	add	byte ptr [rax + 0x5a], bl
0x4048e6:	mov	eax, dword ptr [rsp + 0xc]
0x4048ea:	add	rsp, 0x18
0x4048ee:	pop	rbx
0x4048ef:	pop	rbp
0x4048f0:	ret	
F 0x407973
0x40365f:	pop	rbp
0x403660:	ret	
F 0x403fdf
0x403fdf:	add	rsp, 0x18
0x403fe3:	pop	rbx
0x403fe4:	pop	rbp
0x403fe5:	pop	r12
0x403fe7:	pop	r13
0x403fe9:	pop	r14
0x403feb:	pop	r15
0x403fed:	ret	
F 0x405c96
0x405c96:	sal	byte ptr [rdi + rax + 0x5b], 0x5d
0x405c9b:	pop	r12
0x405c9d:	ret	
F 0x406705
0x4035e6:	add	byte ptr [rax], al
0x4035e8:	ret	
F 0x40793e
0x405c00:	or	byte ptr [rbx + 0x5d], bl
0x405c03:	ret	
F 0x405cef
0x405cef:	dec	dword ptr [rax - 0x77]
0x405cf2:	ret	
F 0x40aea8
0x40aea8:	ror	byte ptr [rdi], 0xb6
0x40aeab:	sal	bh, 0xd8
0x40aeae:	pop	rbx
0x40aeaf:	pop	rbp
0x40aeb0:	pop	r12
0x40aeb2:	ret	
F 0x40a30f
0x40a30f:	add	byte ptr [rax], 0
0x40a312:	add	byte ptr [rdi], cl
0x40a314:	xchg	eax, edi
0x40a315:	ret	0x8d48
F 0x407931
0x407931:	lea	edx, [rip + 0x6653]
0x407937:	cmovne	rax, rdx
0x40793b:	add	rsp, 8
0x40793f:	pop	rbx
0x407940:	pop	rbp
0x407941:	ret	
F 0x405b63
0x405b63:	add	al, byte ptr [rax]
0x405b65:	cmp	rax, 0x20001
0x405b6b:	cmovb	rax, rdx
0x405b6f:	mov	qword ptr [rdi + 0x18], rax
0x405b73:	ret	
F 0x405969
0x405969:	cmovle	eax, edx
0x40596c:	add	rsp, 8
0x405970:	ret	
F 0x4096b4
0x40920e:	add	byte ptr [rax], al
0x409210:	add	byte ptr [rbp + 5], dh
0x409213:	add	rsp, 0x48
0x409217:	ret	
F 0x407887
0x407887:	mov	qword ptr [rip + 0xba1a], rbx
0x40788e:	mov	qword ptr [rip + 0xb853], rbx
0x407895:	pop	rbx
0x407896:	ret	
F 0x409a99
0x403a22:	pop	r12
0x403a24:	pop	r13
0x403a26:	ret	
F 0x408f02
0x402012:	add	rsp, 8
0x402016:	ret	
F 0x40afd2
0x40afd2:	ror	byte ptr [rax - 0x7d], 0xc4
0x40afd6:	or	bl, al
0x40afd8:	xor	eax, eax
0x40afda:	ret	
F 0x409591
0x402016:	ret	
F 0x409a5f
0x409a5f:	add	dh, byte ptr [rsi + 0xe]
0x409a62:	add	rsp, 8
0x409a66:	mov	eax, r12d
0x409a69:	pop	rbx
0x409a6a:	pop	rbp
0x409a6b:	pop	r12
0x409a6d:	pop	r13
0x409a6f:	ret	
F 0x406459
0x403a21:	pop	rbp
0x403a22:	pop	r12
0x403a24:	pop	r13
0x403a26:	ret	
F 0x406c49
0x406c49:	and	byte ptr [r8], al
0x406c4c:	mov	byte ptr [rbx + 0xc], 1
0x406c50:	pop	rbx
0x406c51:	pop	rbp
0x406c52:	pop	r12
0x406c54:	ret	
F 0x408e1d
0x408e1d:	mov	dword ptr [rbx], r12d
0x408e20:	pop	rbx
0x408e21:	pop	rbp
0x408e22:	pop	r12
0x408e24:	ret	
F 0x404a7b
0x402016:	ret	
F 0x409a90
0x409a90:	mov	dword ptr [rbx], r13d
0x409a93:	add	rsp, 8
0x409a97:	pop	rbx
0x409a98:	pop	rbp
0x409a99:	pop	r12
0x409a9b:	pop	r13
0x409a9d:	ret	
F 0x40788c
0x40788c:	add	byte ptr [rax], al
0x40788e:	mov	qword ptr [rip + 0xb853], rbx
0x407895:	pop	rbx
0x407896:	ret	
F 0x40906b
0x4028be:	pop	rbp
0x4028bf:	pop	r12
0x4028c1:	pop	r13
0x4028c3:	pop	r14
0x4028c5:	pop	r15
0x4028c7:	ret	
F 0x4065ec
0x4060e8:	pop	r14
0x4060ea:	ret	
F 0x40596c
0x402012:	add	rsp, 8
0x402016:	ret	
F 0x405e02
0x405e02:	add	rdx, 1
0x405e06:	mov	eax, r12d
0x405e09:	mov	qword ptr [rbx + 8], rdx
0x405e0d:	pop	rbx
0x405e0e:	pop	rbp
0x405e0f:	pop	r12
0x405e11:	ret	
F 0x4047a8
0x4047a8:	add	dword ptr [rsi + 0xf], edi
0x4047ab:	mov	eax, dword ptr [rip + 0xe85f]
0x4047b1:	sub	eax, 1
0x4047b4:	mov	dword ptr [rip + 0xe856], eax
0x4047ba:	ret	
F 0x40aeb0
0x4059bf:	pop	r12
0x4059c1:	ret	
F 0x403661
0x4035e1:	nop	dword ptr [rax]
0x4035e8:	ret	
F 0x40b07a
0x402016:	ret	
F 0x406ba6
0x405c9a:	pop	rbp
0x405c9b:	pop	r12
0x405c9d:	ret	
F 0x40a114
0x40a114:	add	byte ptr [rcx + 0x5c], al
0x40a117:	ret	
F 0x40749b
0x407407:	and	al, 8
0x407409:	add	dword ptr [rax - 0x7d], ecx
0x40740c:	ret	
F 0x409e20
0x4028c4:	pop	rsi
0x4028c5:	pop	r15
0x4028c7:	ret	
F 0x408b4c
0x408b4c:	clc	
0x408b4d:	pop	rbx
0x408b4e:	pop	rbp
0x408b4f:	pop	r12
0x408b51:	pop	r13
0x408b53:	pop	r14
0x408b55:	pop	r15
0x408b57:	ret	
F 0x4047ac
0x4047ac:	add	eax, 0xe85f
0x4047b1:	sub	eax, 1
0x4047b4:	mov	dword ptr [rip + 0xe856], eax
0x4047ba:	ret	
F 0x407860
0x407860:	ret	0xda80
F 0x405c9d
0x402016:	ret	
F 0x4079a7
0x4079a7:	lea	rdx, [rip + 0x65e4]
0x4079ae:	cmovne	rax, rdx
0x4079b2:	add	rsp, 8
0x4079b6:	pop	rbx
0x4079b7:	pop	rbp
0x4079b8:	ret	
F 0x40acf7
0x402016:	ret	
F 0x4068fd
0x402016:	ret	
F 0x408ebc
0x408ebc:	clc	
0x408ebe:	mov	eax, dword ptr [rdi + 4]
0x408ec1:	mov	dword ptr [rdi + 4], esi
0x408ec4:	ret	
F 0x4067fa
0x4067fa:	imul	edi, edi, 0x9066ffff
0x406800:	mov	qword ptr [rip + 0xca99], rdi
0x406807:	ret	
F 0x40b0a6
0x40b0a6:	cmp	al, 0
0x40b0a8:	add	byte ptr [rcx + 0x5e8c0f9], cl
0x40b0ae:	and	eax, 7
0x40b0b1:	mov	eax, dword ptr [rdx + rax*4]
0x40b0b4:	shr	eax, cl
0x40b0b6:	and	eax, 1
0x40b0b9:	ret	
F 0x407ce4
0x4057d8:	add	dword ptr [rax - 0x7d], ecx
0x4057db:	ret	
F 0x409a91
0x409a91:	mov	dword ptr [rbx], ebp
0x409a93:	add	rsp, 8
0x409a97:	pop	rbx
0x409a98:	pop	rbp
0x409a99:	pop	r12
0x409a9b:	pop	r13
0x409a9d:	ret	
F 0x409e22
0x4028c6:	pop	rdi
0x4028c7:	ret	
F 0x405d53
0x405d53:	add	rsp, 8
0x405d57:	mov	eax, r12d
0x405d5a:	pop	rbx
0x405d5b:	pop	rbp
0x405d5c:	pop	r12
0x405d5e:	pop	r13
0x405d60:	ret	
F 0x40410f
0x402016:	ret	
F 0x4060e6
0x4060e6:	pop	r13
0x4060e8:	pop	r14
0x4060ea:	ret	
F 0x4097f5
0x40920e:	add	byte ptr [rax], al
0x409210:	add	byte ptr [rbp + 5], dh
0x409213:	add	rsp, 0x48
0x409217:	ret	
F 0x4086c9
0x402016:	ret	
F 0x408e40
0x402016:	ret	
F 0x40a457
0x40a206:	add	eax, 0x8c48348
0x40a20b:	ret	
F 0x4072e3
0x4072e3:	add	dword ptr [rax], eax
0x4072e5:	add	byte ptr [rbx + 0x5d], bl
0x4072e8:	pop	r12
0x4072ea:	pop	r13
0x4072ec:	pop	r14
0x4072ee:	pop	r15
0x4072f0:	ret	
F 0x4096b9
0x409213:	add	rsp, 0x48
0x409217:	ret	
F 0x4063a1
0x402016:	ret	
F 0x40b0b1
0x40b0b1:	mov	eax, dword ptr [rdx + rax*4]
0x40b0b4:	shr	eax, cl
0x40b0b6:	and	eax, 1
0x40b0b9:	ret	
F 0x409a33
0x409a33:	mov	bh, bh
0x409a35:	dec	dword ptr [rax - 0x77]
0x409a38:	ret	0x2948
F 0x405229
0x405229:	add	byte ptr [rax], al
0x40522b:	cmovne	rax, rcx
0x40522f:	ret	
F 0x4076c8
0x402016:	ret	
F 0x40afc1
0x40afc1:	rcl	byte ptr [rax], 0x48
0x40afc4:	mov	ecx, eax
0x40afc6:	sub	rcx, rdx
0x40afc9:	mov	byte ptr [rax - 1], cl
0x40afcc:	add	rsp, 8
0x40afd0:	ret	
F 0x40b440
0x402016:	ret	
F 0x404581
0x403a20:	pop	rbx
0x403a21:	pop	rbp
0x403a22:	pop	r12
0x403a24:	pop	r13
0x403a26:	ret	
F 0x405125
0x405125:	nop	dword ptr cs:[rax + rax]
0x40512e:	nop	
0x405130:	xor	eax, eax
0x405132:	ret	
F 0x405b6a
0x405b6a:	add	byte ptr [rax + 0xf], cl
0x405b6d:	ret	0x8948
F 0x409a43
0x409a43:	cmove	rax, rbx
0x409a47:	add	rsp, 8
0x409a4b:	pop	rbx
0x409a4c:	pop	rbp
0x409a4d:	ret	
F 0x40a633
0x40a633:	sub	byte ptr [rcx + rcx*4 - 0x20], al
0x40a637:	pop	rbx
0x40a638:	pop	rbp
0x40a639:	pop	r12
0x40a63b:	pop	r13
0x40a63d:	pop	r14
0x40a63f:	pop	r15
0x40a641:	ret	
F 0x406c6c
0x406ba4:	add	dword ptr [rbx + 0x5d], ebx
0x406ba7:	pop	r12
0x406ba9:	ret	
F 0x40793b
0x405bfd:	add	rsp, 8
0x405c01:	pop	rbx
0x405c02:	pop	rbp
0x405c03:	ret	
F 0x40ab24
0x402016:	ret	
F 0x405f6f
0x4028c2:	pop	rbp
0x4028c3:	pop	r14
0x4028c5:	pop	r15
0x4028c7:	ret	
F 0x409068
0x409068:	mov	eax, ebx
0x40906a:	pop	rbx
0x40906b:	pop	rbp
0x40906c:	pop	r12
0x40906e:	pop	r13
0x409070:	pop	r14
0x409072:	pop	r15
0x409074:	ret	
F 0x40a8d8
0x402016:	ret	
F 0x403666
0x4035e6:	add	byte ptr [rax], al
0x4035e8:	ret	
F 0x405ac6
0x405ac6:	add	byte ptr [rax], al
0x405ac8:	add	byte ptr [rbx + 0x5d], bl
0x405acb:	pop	r12
0x405acd:	pop	r13
0x405acf:	ret	
F 0x409588
0x40920e:	add	byte ptr [rax], al
0x409210:	add	byte ptr [rbp + 5], dh
0x409213:	add	rsp, 0x48
0x409217:	ret	
F 0x4061b9
0x4061b9:	add	byte ptr [rax], al
0x4061bb:	mov	qword ptr [rip + 0xd0ba], 0
0x4061c6:	add	rsp, 8
0x4061ca:	ret	
F 0x40b439
0x4028c4:	pop	rsi
0x4028c5:	pop	r15
0x4028c7:	ret	
F 0x40a117
0x402016:	ret	
F 0x406ba4
0x406ba4:	add	dword ptr [rbx + 0x5d], ebx
0x406ba7:	pop	r12
0x406ba9:	ret	
F 0x408e30
0x408e30:	test	rdi, rdi
0x408e33:	lea	rax, [rip + 0xa586]
0x408e3a:	cmove	rdi, rax
0x408e3e:	mov	eax, dword ptr [rdi]
0x408e40:	ret	
F 0x407223
0x407223:	dec	dword ptr [rax - 0x77]
0x407226:	ret	0xb4e8
F 0x4072a7
0x40410c:	add	byte ptr [rax - 0x7d], cl
0x40410f:	ret	
F 0x4066c3
0x4066c3:	cmp	eax, -1
0x4066c6:	sete	r8b
0x4066ca:	neg	r8d
0x4066cd:	add	rsp, 8
0x4066d1:	mov	eax, r8d
0x4066d4:	pop	rbx
0x4066d5:	pop	rbp
0x4066d6:	ret	
F 0x405d58
0x403b17:	mov	eax, esp
0x403b19:	pop	rbx
0x403b1a:	pop	rbp
0x403b1b:	pop	r12
0x403b1d:	pop	r13
0x403b1f:	ret	
F 0x408e1b
0x408e1b:	add	byte ptr [rax], al
0x408e1d:	mov	dword ptr [rbx], r12d
0x408e20:	pop	rbx
0x408e21:	pop	rbp
0x408e22:	pop	r12
0x408e24:	ret	
F 0x406700
0x406700:	mov	qword ptr [rip + 0xcb89], rdi
0x406707:	ret	
F 0x409113
0x409113:	add	byte ptr [rax], al
0x409115:	pop	rbx
0x409116:	pop	rbp
0x409117:	pop	r12
0x409119:	ret	
F 0x40ae3c
0x403a20:	pop	rbx
0x403a21:	pop	rbp
0x403a22:	pop	r12
0x403a24:	pop	r13
0x403a26:	ret	
F 0x404898
0x404898:	pop	rbx
0x404899:	pop	rbp
0x40489a:	ret	
F 0x4065ed
0x4060e9:	pop	rsi
0x4060ea:	ret	
F 0x405a03
0x402016:	ret	
F 0x40adcf
0x40adcf:	ror	byte ptr [rax - 0x7d], 0xc4
0x40add3:	adc	byte ptr [rbp - 0x3d], bl
0x40add6:	or	eax, 0xffffffff
0x40add9:	jmp	0x40add0
F 0x405acb
0x403a22:	pop	r12
0x403a24:	pop	r13
0x403a26:	ret	
F 0x40aeaf
0x405c9a:	pop	rbp
0x405c9b:	pop	r12
0x405c9d:	ret	
F 0x40a026
0x40a026:	add	byte ptr [rax], al
0x40a028:	add	byte ptr [rbp + 5], dh
0x40a02b:	add	rsp, 0x68
0x40a02f:	ret	
F 0x40adc4
0x40adc4:	add	bh, ch
0x40adc7:	mov	qword ptr [rbp + 0x90], rax
0x40adce:	xor	eax, eax
0x40add0:	add	rsp, 0x10
0x40add4:	pop	rbp
0x40add5:	ret	
F 0x409a1d
0x402016:	ret	
F 0x409a4d
0x402016:	ret	
F 0x40afc3
0x40afc3:	mov	rcx, rax
0x40afc6:	sub	rcx, rdx
0x40afc9:	mov	byte ptr [rax - 1], cl
0x40afcc:	add	rsp, 8
0x40afd0:	ret	
F 0x406703
0x406703:	mov	ebx, ecx
0x406705:	add	byte ptr [rax], al
0x406707:	ret	
F 0x407497
0x407403:	add	byte ptr [rax - 0x7d], cl
0x407406:	and	al, 8
0x407409:	add	dword ptr [rax - 0x7d], ecx
0x40740c:	ret	
F 0x404897
0x404897:	sbb	byte ptr [rbx + 0x5d], bl
0x40489a:	ret	
F 0x4050ca
0x402012:	add	rsp, 8
0x402016:	ret	
F 0x40a312
0x40a312:	add	byte ptr [rdi], cl
0x40a314:	xchg	eax, edi
0x40a315:	ret	0x8d48
F 0x404899
0x40365f:	pop	rbp
0x403660:	ret	
F 0x40975d
0x409212:	add	eax, 0x48c48348
0x409217:	ret	
F 0x40685c
0x40685c:	add	rsp, 8
0x406861:	pop	rbx
0x406862:	pop	r12
0x406864:	ret	
F 0x405dca
0x405dca:	xor	r12d, r12d
0x405dcd:	mov	eax, r12d
0x405dd0:	pop	rbx
0x405dd1:	pop	rbp
0x405dd2:	pop	r12
0x405dd4:	ret	
F 0x408b49
0x408b49:	add	byte ptr [rcx + rcx*4 - 8], cl
0x408b4d:	pop	rbx
0x408b4e:	pop	rbp
0x408b4f:	pop	r12
0x408b51:	pop	r13
0x408b53:	pop	r14
0x408b55:	pop	r15
0x408b57:	ret	
F 0x40b3a1
0x40365f:	pop	rbp
0x403660:	ret	
F 0x4060d9
0x4060d9:	add	byte ptr [rax], al
0x4060db:	add	rsp, 0x50
0x4060df:	mov	eax, r12d
0x4060e2:	pop	rbx
0x4060e3:	pop	rbp
0x4060e4:	pop	r12
0x4060e6:	pop	r13
0x4060e8:	pop	r14
0x4060ea:	ret	
F 0x406c71
0x402016:	ret	
F 0x407968
0x407935:	add	byte ptr [rax], al
0x407937:	cmovne	rax, rdx
0x40793b:	add	rsp, 8
0x40793f:	pop	rbx
0x407940:	pop	rbp
0x407941:	ret	
F 0x40788b
0x40788b:	mov	edx, 0x89480000
0x407890:	sbb	eax, 0xb853
0x407895:	pop	rbx
0x407896:	ret	
F 0x409b22
0x402016:	ret	
F 0x406840
0x4063e2:	add	byte ptr [rax], al
0x4063e4:	add	byte ptr [rax - 0x77], cl
0x4063e7:	ret	
F 0x403a25
0x40365f:	pop	rbp
0x403660:	ret	
F 0x40920e
0x40920e:	add	byte ptr [rax], al
0x409210:	add	byte ptr [rbp + 5], dh
0x409213:	add	rsp, 0x48
0x409217:	ret	
F 0x40adc3
0x40adc3:	and	dword ptr [rbp], 0xffffffef
0x40adc7:	mov	qword ptr [rbp + 0x90], rax
0x40adce:	xor	eax, eax
0x40add0:	add	rsp, 0x10
0x40add4:	pop	rbp
0x40add5:	ret	
F 0x40627e
0x403a20:	pop	rbx
0x403a21:	pop	rbp
0x403a22:	pop	r12
0x403a24:	pop	r13
0x403a26:	ret	
F 0x405bfa
0x405bfa:	mov	dword ptr [rbx + 0x30], ebp
0x405bfd:	add	rsp, 8
0x405c01:	pop	rbx
0x405c02:	pop	rbp
0x405c03:	ret	
F 0x408f80
0x4028c4:	pop	rsi
0x4028c5:	pop	r15
0x4028c7:	ret	
F 0x40af72
0x40af72:	sbb	eax, 0x48003880
0x40af77:	lea	edx, [rip + 0x3da3]
0x40af7d:	cmove	rax, rdx
0x40af81:	add	rsp, 8
0x40af85:	ret	
F 0x408eb1
0x408eb1:	test	edi, edi
0x408eb3:	lea	rax, [rip + 0xa506]
0x408eba:	cmove	rdi, rax
0x408ebe:	mov	eax, dword ptr [rdi + 4]
0x408ec1:	mov	dword ptr [rdi + 4], esi
0x408ec4:	ret	
F 0x405c3f
0x405c3f:	movabs	rax, 0xffffffff00000000
0x405c49:	mov	qword ptr [rsi + 0x38], rax
0x405c4d:	ret	
F 0x409e14
0x409e14:	pop	rdx
0x409e15:	add	rsp, 0x38
0x409e19:	pop	rbx
0x409e1a:	pop	rbp
0x409e1b:	pop	r12
0x409e1d:	pop	r13
0x409e1f:	pop	r14
0x409e21:	pop	r15
0x409e23:	ret	
F 0x406458
0x403a20:	pop	rbx
0x403a21:	pop	rbp
0x403a22:	pop	r12
0x403a24:	pop	r13
0x403a26:	ret	
F 0x406801
0x406801:	mov	dword ptr [rip + 0xca99], edi
0x406807:	ret	
F 0x403b29
0x403b29:	sub	byte ptr [rax - 0x77], cl
0x403b2c:	ret	
F 0x409106
0x409106:	sbb	eax, 0x9f75
0x40910b:	mov	dword ptr [rip + 0x9f63], 1
0x409115:	pop	rbx
0x409116:	pop	rbp
0x409117:	pop	r12
0x409119:	ret	
F 0x40b027
0x40b027:	pop	rbp
0x40b028:	test	eax, eax
0x40b02a:	sete	al
0x40b02d:	movzx	eax, al
0x40b030:	ret	
F 0x406b98
0x406b98:	mov	esi, 0x2047c602
0x406b9d:	add	dword ptr [rcx + 0x43c62447], ecx
0x406ba3:	or	al, 1
0x406ba5:	pop	rbx
0x406ba6:	pop	rbp
0x406ba7:	pop	r12
0x406ba9:	ret	
F 0x40a888
0x402016:	ret	
F 0x4065e8
0x4060e4:	pop	r12
0x4060e6:	pop	r13
0x4060e8:	pop	r14
0x4060ea:	ret	
F 0x408ea0
0x408ea0:	xor	edx, edi
0x408ea2:	mov	dword ptr [rsi], edx
0x408ea4:	ret	
F 0x4059be
0x4059be:	pop	rbx
0x4059bf:	pop	r12
0x4059c1:	ret	
F 0x408e21
0x405c9a:	pop	rbp
0x405c9b:	pop	r12
0x405c9d:	ret	
F 0x40929a
0x40920e:	add	byte ptr [rax], al
0x409210:	add	byte ptr [rbp + 5], dh
0x409213:	add	rsp, 0x48
0x409217:	ret	
F 0x40542a
0x403fdf:	add	rsp, 0x18
0x403fe3:	pop	rbx
0x403fe4:	pop	rbp
0x403fe5:	pop	r12
0x403fe7:	pop	r13
0x403fe9:	pop	r14
0x403feb:	pop	r15
0x403fed:	ret	
F 0x40ae3e
0x403a22:	pop	r12
0x403a24:	pop	r13
0x403a26:	ret	
F 0x406919
0x405cef:	dec	dword ptr [rax - 0x77]
0x405cf2:	ret	
F 0x40afc9
0x40afc9:	mov	byte ptr [rax - 1], cl
0x40afcc:	add	rsp, 8
0x40afd0:	ret	
F 0x405ad7
0x405ac7:	add	byte ptr [rax], al
0x405ac9:	pop	rbx
0x405aca:	pop	rbp
0x405acb:	pop	r12
0x405acd:	pop	r13
0x405acf:	ret	
F 0x40b028
0x40b028:	test	eax, eax
0x40b02a:	sete	al
0x40b02d:	movzx	eax, al
0x40b030:	ret	
F 0x40b36f
0x40b34c:	mov	eax, ebp
0x40b34e:	pop	rbx
0x40b34f:	pop	rbp
0x40b350:	pop	r12
0x40b352:	pop	r13
0x40b354:	ret	
F 0x4028bb
0x4028bb:	mov	eax, esi
0x4028bd:	pop	rbx
0x4028be:	pop	rbp
0x4028bf:	pop	r12
0x4028c1:	pop	r13
0x4028c3:	pop	r14
0x4028c5:	pop	r15
0x4028c7:	ret	
F 0x404f44
0x404f44:	pop	rdx
0x404f45:	pop	r11
0x404f47:	jmp	0x404b0f
F 0x406395
0x406395:	add	al, ch
0x406397:	movsd	dword ptr [rdi], dword ptr [rsi]
0x406398:	cmp	al, 0
0x40639a:	add	byte ptr [rax + 0x5a], bl
0x40639d:	pop	rbx
0x40639e:	pop	rbp
0x40639f:	pop	r12
0x4063a1:	ret	
F 0x4037ca
0x402016:	ret	
F 0x409759
0x40920e:	add	byte ptr [rax], al
0x409210:	add	byte ptr [rbp + 5], dh
0x409213:	add	rsp, 0x48
0x409217:	ret	
F 0x4041dd
0x4041dd:	ror	byte ptr [rax - 0x7d], 0xc4
0x4041e1:	or	byte ptr [rbx + 0x5d], bl
0x4041e4:	pop	r12
0x4041e6:	pop	r13
0x4041e8:	ret	
F 0x4028ba
0x4028ba:	mov	eax, r14d
0x4028bd:	pop	rbx
0x4028be:	pop	rbp
0x4028bf:	pop	r12
0x4028c1:	pop	r13
0x4028c3:	pop	r14
0x4028c5:	pop	r15
0x4028c7:	ret	
F 0x407932
0x407932:	adc	eax, 0x6653
0x407937:	cmovne	rax, rdx
0x40793b:	add	rsp, 8
0x40793f:	pop	rbx
0x407940:	pop	rbp
0x407941:	ret	
F 0x40ab11
0x40ab11:	add	byte ptr [rdi], cl
0x40ab13:	test	dword ptr [rdx + 1], esp
0x40ab16:	add	byte ptr [rax], al
0x40ab18:	add	rsp, 0x60
0x40ab1c:	mov	eax, r12d
0x40ab1f:	pop	rbp
0x40ab20:	pop	r12
0x40ab22:	pop	r13
0x40ab24:	ret	
F 0x403a13
0x403a13:	add	byte ptr [rcx], al
0x403a15:	mov	byte ptr [rip + 0xf754], 1
0x403a1c:	add	rsp, 8
0x403a20:	pop	rbx
0x403a21:	pop	rbp
0x403a22:	pop	r12
0x403a24:	pop	r13
0x403a26:	ret	
F 0x4047ab
0x4047ab:	mov	eax, dword ptr [rip + 0xe85f]
0x4047b1:	sub	eax, 1
0x4047b4:	mov	dword ptr [rip + 0xe856], eax
0x4047ba:	ret	
F 0x40749a
0x407406:	and	al, 8
0x407409:	add	dword ptr [rax - 0x7d], ecx
0x40740c:	ret	
F 0x40adce
0x40adce:	xor	eax, eax
0x40add0:	add	rsp, 0x10
0x40add4:	pop	rbp
0x40add5:	ret	
F 0x4048ea
0x404894:	add	rsp, 0x18
0x404898:	pop	rbx
0x404899:	pop	rbp
0x40489a:	ret	
F 0x409ec9
0x408f78:	cmp	byte ptr [rbx + 0x5d], bl
0x408f7b:	pop	r12
0x408f7d:	pop	r13
0x408f7f:	pop	r14
0x408f81:	pop	r15
0x408f83:	ret	
F 0x409a10
0x403b12:	add	rsp, 8
0x403b16:	mov	rax, r12
0x403b19:	pop	rbx
0x403b1a:	pop	rbp
0x403b1b:	pop	r12
0x403b1d:	pop	r13
0x403b1f:	ret	
F 0x409a69
0x403a20:	pop	rbx
0x403a21:	pop	rbp
0x403a22:	pop	r12
0x403a24:	pop	r13
0x403a26:	ret	
F 0x4068ee
0x4068ee:	clc	
0x4068ef:	add	dh, byte ptr [rsi + 0xe]
0x4068f2:	pop	rbx
0x4068f3:	mov	rax, r12
0x4068f6:	pop	rbp
0x4068f7:	pop	r12
0x4068f9:	pop	r13
0x4068fb:	pop	r14
0x4068fd:	ret	
F 0x406938
0x4060e2:	pop	rbx
0x4060e3:	pop	rbp
0x4060e4:	pop	r12
0x4060e6:	pop	r13
0x4060e8:	pop	r14
0x4060ea:	ret	
F 0x405126
0x405126:	nop	dword ptr [rax + rax]
0x40512e:	nop	
0x405130:	xor	eax, eax
0x405132:	ret	
F 0x405c4d
0x402016:	ret	
F 0x409a46
0x402016:	ret	
F 0x405220
0x405220:	cmovb	ecx, edi
0x405223:	test	rcx, rcx
0x405226:	mov	eax, 1
0x40522b:	cmovne	rax, rcx
0x40522f:	ret	
F 0x40aff8
0x402016:	ret	
F 0x4065fd
0x4065fd:	dec	dword ptr [rax - 0x7b]
0x406600:	sal	byte ptr [rbp - 0x21], 0x5b
0x406604:	xor	eax, eax
0x406606:	pop	rbp
0x406607:	pop	r12
0x406609:	pop	r13
0x40660b:	pop	r14
0x40660d:	ret	
F 0x405adb
0x403a22:	pop	r12
0x403a24:	pop	r13
0x403a26:	ret	
F 0x408260
0x408260:	xchg	eax, ebp
0x408261:	ret	0xd020
F 0x409aca
0x409aca:	add	al, 0x85
0x409acc:	sar	byte ptr [rax + 0x15], 0x44
0x409ad0:	mov	eax, esp
0x409ad2:	pop	rbx
0x409ad3:	pop	rbp
0x409ad4:	pop	r12
0x409ad6:	ret	
F 0x406c47
0x406c47:	add	dh, al
0x406c49:	and	byte ptr [r8], al
0x406c4c:	mov	byte ptr [rbx + 0xc], 1
0x406c50:	pop	rbx
0x406c51:	pop	rbp
0x406c52:	pop	r12
0x406c54:	ret	
F 0x40afd1
0x40afd1:	xor	eax, eax
0x40afd3:	add	rsp, 8
0x40afd7:	ret	
F 0x4061bc
0x4061bc:	mov	dword ptr [rip + 0xd0ba], 0
0x4061c6:	add	rsp, 8
0x4061ca:	ret	
F 0x409a8e
0x409a8e:	mov	eax, esp
0x409a90:	mov	dword ptr [rbx], r13d
0x409a93:	add	rsp, 8
0x409a97:	pop	rbx
0x409a98:	pop	rbp
0x409a99:	pop	r12
0x409a9b:	pop	r13
0x409a9d:	ret	
F 0x40aea9
0x40aea9:	movzx	eax, al
0x40aeac:	neg	eax
0x40aeae:	pop	rbx
0x40aeaf:	pop	rbp
0x40aeb0:	pop	r12
0x40aeb2:	ret	
F 0x40a30e
0x40a30e:	std	
0x40a30f:	add	byte ptr [rax], 0
0x40a312:	add	byte ptr [rdi], cl
0x40a314:	xchg	eax, edi
0x40a315:	ret	0x8d48
F 0x404858
0x402016:	ret	
F 0x4065df
0x4065df:	sal	byte ptr [rcx + 0x45], 0x89
0x4065e4:	jne	0x4065e6
F 0x40ab1f
0x403a21:	pop	rbp
0x403a22:	pop	r12
0x403a24:	pop	r13
0x403a26:	ret	
F 0x406024
0x406024:	clc	
0x406025:	dec	dword ptr [rax - 0x77]
0x406028:	ret	
F 0x40367d
0x40367d:	add	byte ptr [rax], al
0x40367f:	nop	
0x403680:	ret	
F 0x406c2e
0x406c2e:	mov	byte ptr [rbx], 0
0x406c31:	mov	byte ptr [rbx + 0xc], 1
0x406c35:	pop	rbx
0x406c36:	pop	rbp
0x406c37:	pop	r12
0x406c39:	ret	
F 0x407785
0x407785:	and	al, 8
0x407788:	add	dword ptr [rax - 0x77], ecx
0x40778b:	ret	
F 0x4086c3
0x4086c3:	add	al, byte ptr [rbx - 0x7cb7f81b]
0x4086c9:	ret	
F 0x40420c
0x40365f:	pop	rbp
0x403660:	ret	
F 0x4072e5
0x405f69:	add	byte ptr [rbx + 0x5d], bl
0x405f6c:	pop	r12
0x405f6e:	pop	r13
0x405f70:	pop	r14
0x405f72:	pop	r15
0x405f74:	ret	
F 0x409a3f
0x409a3f:	add	dword ptr [rax - 0x7b], ecx
0x409a42:	ror	byte ptr [rax + 0xf], cl
0x409a45:	ret	
F 0x404207
0x403a20:	pop	rbx
0x403a21:	pop	rbp
0x403a22:	pop	r12
0x403a24:	pop	r13
0x403a26:	ret	
F 0x408eb5
0x408eb5:	add	eax, 0xa506
0x408eba:	cmove	rdi, rax
0x408ebe:	mov	eax, dword ptr [rdi + 4]
0x408ec1:	mov	dword ptr [rdi + 4], esi
0x408ec4:	ret	
F 0x405880
0x4028c4:	pop	rsi
0x4028c5:	pop	r15
0x4028c7:	ret	
F 0x40adc7
0x40adc7:	mov	qword ptr [rbp + 0x90], rax
0x40adce:	xor	eax, eax
0x40add0:	add	rsp, 0x10
0x40add4:	pop	rbp
0x40add5:	ret	
F 0x40910b
0x40910b:	mov	dword ptr [rip + 0x9f63], 1
0x409115:	pop	rbx
0x409116:	pop	rbp
0x409117:	pop	r12
0x409119:	ret	
F 0x406932
0x406932:	mov	dword ptr [rbx], r14d
0x406935:	mov	rax, r12
0x406938:	pop	rbx
0x406939:	pop	rbp
0x40693a:	pop	r12
0x40693c:	pop	r13
0x40693e:	pop	r14
0x406940:	ret	
F 0x40a62e
0x40a62e:	add	byte ptr [rax], al
0x40a630:	add	rsp, 0x28
0x40a634:	mov	eax, r12d
0x40a637:	pop	rbx
0x40a638:	pop	rbp
0x40a639:	pop	r12
0x40a63b:	pop	r13
0x40a63d:	pop	r14
0x40a63f:	pop	r15
0x40a641:	ret	
F 0x40a310
0x40a310:	add	byte ptr [rax], al
0x40a312:	add	byte ptr [rdi], cl
0x40a314:	xchg	eax, edi
0x40a315:	ret	0x8d48
F 0x409c6c
0x4028bf:	pop	r12
0x4028c1:	pop	r13
0x4028c3:	pop	r14
0x4028c5:	pop	r15
0x4028c7:	ret	
F 0x409a1c
0x40365f:	pop	rbp
0x403660:	ret	
F 0x405ad8
0x405ac8:	add	byte ptr [rbx + 0x5d], bl
0x405acb:	pop	r12
0x405acd:	pop	r13
0x405acf:	ret	
F 0x4060e0
0x4060e0:	mov	eax, esp
0x4060e2:	pop	rbx
0x4060e3:	pop	rbp
0x4060e4:	pop	r12
0x4060e6:	pop	r13
0x4060e8:	pop	r14
0x4060ea:	ret	
F 0x40693e
0x4060e8:	pop	r14
0x4060ea:	ret	
F 0x408db0
0x408db0:	mov	dword ptr [rax], ecx
0x408db2:	add	rsp, 0x28
0x408db6:	mov	rax, r15
0x408db9:	pop	rbx
0x408dba:	pop	rbp
0x408dbb:	pop	r12
0x408dbd:	pop	r13
0x408dbf:	pop	r14
0x408dc1:	pop	r15
0x408dc3:	ret	
F 0x4037c8
0x4028c5:	pop	r15
0x4028c7:	ret	
F 0x409a0f
0x409a0f:	nop	
0x409a10:	add	rsp, 8
0x409a14:	mov	rax, r12
0x409a17:	pop	rbx
0x409a18:	pop	rbp
0x409a19:	pop	r12
0x409a1b:	pop	r13
0x409a1d:	ret	
F 0x4061c2
0x4061c2:	add	byte ptr [rax], al
0x4061c4:	add	byte ptr [rax], al
0x4061c6:	add	rsp, 8
0x4061ca:	ret	
F 0x406c34
0x406ba4:	add	dword ptr [rbx + 0x5d], ebx
0x406ba7:	pop	r12
0x406ba9:	ret	
F 0x409a35
0x409a35:	dec	dword ptr [rax - 0x77]
0x409a38:	ret	0x2948
F 0x406605
0x406605:	rcr	byte ptr [rbp + 0x41], 0x5c
0x406609:	pop	r13
0x40660b:	pop	r14
0x40660d:	ret	
F 0x406609
0x4060e6:	pop	r13
0x4060e8:	pop	r14
0x4060ea:	ret	
F 0x408f75
0x408f75:	add	rsp, 0x38
0x408f79:	pop	rbx
0x408f7a:	pop	rbp
0x408f7b:	pop	r12
0x408f7d:	pop	r13
0x408f7f:	pop	r14
0x408f81:	pop	r15
0x408f83:	ret	
F 0x40542f
0x4028be:	pop	rbp
0x4028bf:	pop	r12
0x4028c1:	pop	r13
0x4028c3:	pop	r14
0x4028c5:	pop	r15
0x4028c7:	ret	
F 0x4066f6
0x4066f6:	add	byte ptr [rcx], dh
0x4066f8:	shr	cl, 0x22
0x4066fb:	add	byte ptr [r8], al
0x4066fe:	nop	
0x406700:	mov	qword ptr [rip + 0xcb89], rdi
0x406707:	ret	
F 0x408dbb
0x4028bf:	pop	r12
0x4028c1:	pop	r13
0x4028c3:	pop	r14
0x4028c5:	pop	r15
0x4028c7:	ret	
F 0x407930
0x407930:	lea	rdx, [rip + 0x6653]
0x407937:	cmovne	rax, rdx
0x40793b:	add	rsp, 8
0x40793f:	pop	rbx
0x407940:	pop	rbp
0x407941:	ret	
F 0x4048f0
0x402016:	ret	
F 0x404cce
0x402016:	ret	
F 0x40a7e4
0x40a7e4:	xor	byte ptr [rsi + 0x48000001], 0x89
0x40a7eb:	ret	
F 0x406ba9
0x402016:	ret	
F 0x405ad4
0x405ad4:	mov	eax, 2
0x405ad9:	pop	rbx
0x405ada:	pop	rbp
0x405adb:	pop	r12
0x405add:	pop	r13
0x405adf:	ret	
F 0x407885
0x407885:	add	byte ptr [rax], al
0x407887:	mov	qword ptr [rip + 0xba1a], rbx
0x40788e:	mov	qword ptr [rip + 0xb853], rbx
0x407895:	pop	rbx
0x407896:	ret	
F 0x409a9d
0x402016:	ret	
F 0x409ad0
0x405dce:	mov	eax, esp
0x405dd0:	pop	rbx
0x405dd1:	pop	rbp
0x405dd2:	pop	r12
0x405dd4:	ret	
F 0x40aea4
0x40aea4:	cmp	byte ptr [rcx], cl
0x40aea6:	setne	al
0x40aea9:	movzx	eax, al
0x40aeac:	neg	eax
0x40aeae:	pop	rbx
0x40aeaf:	pop	rbp
0x40aeb0:	pop	r12
0x40aeb2:	ret	
F 0x403fe9
0x4028c3:	pop	r14
0x4028c5:	pop	r15
0x4028c7:	ret	
F 0x409332
0x409216:	ret	
F 0x405e06
0x405e06:	mov	eax, r12d
0x405e09:	mov	qword ptr [rbx + 8], rdx
0x405e0d:	pop	rbx
0x405e0e:	pop	rbp
0x405e0f:	pop	r12
0x405e11:	ret	
F 0x40989d
0x409210:	add	byte ptr [rbp + 5], dh
0x409213:	add	rsp, 0x48
0x409217:	ret	
F 0x407939
0x407939:	ret	0x8348
F 0x406c46
0x406c46:	add	byte ptr [rax], al
0x406c48:	mov	byte ptr [rbx + 0x20], 0
0x406c4c:	mov	byte ptr [rbx + 0xc], 1
0x406c50:	pop	rbx
0x406c51:	pop	rbp
0x406c52:	pop	r12
0x406c54:	ret	
F 0x405f71
0x4028c4:	pop	rsi
0x4028c5:	pop	r15
0x4028c7:	ret	
F 0x40aeb2
0x402016:	ret	
F 0x405ad6
0x405ac6:	add	byte ptr [rax], al
0x405ac8:	add	byte ptr [rbx + 0x5d], bl
0x405acb:	pop	r12
0x405acd:	pop	r13
0x405acf:	ret	
F 0x4072dd
0x4072dd:	add	byte ptr [rax], al
0x4072df:	add	rsp, 0x1b8
0x4072e6:	pop	rbx
0x4072e7:	pop	rbp
0x4072e8:	pop	r12
0x4072ea:	pop	r13
0x4072ec:	pop	r14
0x4072ee:	pop	r15
0x4072f0:	ret	
F 0x409c72
0x4028c5:	pop	r15
0x4028c7:	ret	
F 0x408f7f
0x4028c3:	pop	r14
0x4028c5:	pop	r15
0x4028c7:	ret	
F 0x405aab
0x405aab:	mov	dword ptr [rsp + 0x50], 0
0x405ab3:	add	rsp, 8
0x405ab7:	pop	rbx
0x405ab8:	pop	rbp
0x405ab9:	pop	r12
0x405abb:	pop	r13
0x405abd:	ret	
F 0x408dc1
0x4028c5:	pop	r15
0x4028c7:	ret	
F 0x40a785
0x40a785:	xor	ecx, dword ptr [rax - 0x77]
0x40a788:	ret	
F 0x405c9a
0x405c9a:	pop	rbp
0x405c9b:	pop	r12
0x405c9d:	ret	
F 0x4066d5
0x40365f:	pop	rbp
0x403660:	ret	
F 0x4048e8
0x4048e8:	and	al, 0xc
0x4048ea:	add	rsp, 0x18
0x4048ee:	pop	rbx
0x4048ef:	pop	rbp
0x4048f0:	ret	
F 0x405434
0x4028c3:	pop	r14
0x4028c5:	pop	r15
0x4028c7:	ret	
F 0x40420b
0x403a24:	pop	r13
0x403a26:	ret	
F 0x40457d
0x40457d:	cmp	byte ptr [rcx + rcx*4 - 0x20], al
0x404581:	pop	rbx
0x404582:	pop	rbp
0x404583:	pop	r12
0x404585:	pop	r13
0x404587:	ret	
F 0x404dbe
0x402016:	ret	
F 0x404c72
0x402016:	ret	
F 0x4047ba
0x402016:	ret	
F 0x40ae61
0x402016:	ret	
F 0x409e1b
0x4028bf:	pop	r12
0x4028c1:	pop	r13
0x4028c3:	pop	r14
0x4028c5:	pop	r15
0x4028c7:	ret	
F 0x403b15
0x403b15:	or	byte ptr [rcx + rcx*4 - 0x20], cl
0x403b19:	pop	rbx
0x403b1a:	pop	rbp
0x403b1b:	pop	r12
0x403b1d:	pop	r13
0x403b1f:	ret	
F 0x405b67
0x405b67:	add	dword ptr [rax], eax
0x405b69:	add	al, byte ptr [rax]
0x405b6b:	cmovb	rax, rdx
0x405b6f:	mov	qword ptr [rdi + 0x18], rax
0x405b73:	ret	
F 0x409c62
0x409c62:	add	rsp, 0x30
0x409c66:	add	rsp, 0x38
0x409c6a:	pop	rbx
0x409c6b:	pop	rbp
0x409c6c:	pop	r12
0x409c6e:	pop	r13
0x409c70:	pop	r14
0x409c72:	pop	r15
0x409c74:	ret	
F 0x40660c
0x4060e9:	pop	rsi
0x4060ea:	ret	
F 0x4079b6
0x404898:	pop	rbx
0x404899:	pop	rbp
0x40489a:	ret	
F 0x406c35
0x405c99:	pop	rbx
0x405c9a:	pop	rbp
0x405c9b:	pop	r12
0x405c9d:	ret	
F 0x405f70
0x4028c3:	pop	r14
0x4028c5:	pop	r15
0x4028c7:	ret	
F 0x408e91
0x408e91:	mov	eax, edi
0x408e94:	shr	eax, cl
0x408e96:	xor	edx, eax
0x408e98:	and	eax, 1
0x408e9b:	and	edx, 1
0x408e9e:	shl	edx, cl
0x408ea0:	xor	edx, edi
0x408ea2:	mov	dword ptr [rsi], edx
0x408ea4:	ret	
F 0x40b336
0x40b336:	dec	dword ptr [rax + 0x39]
0x40b339:	ret	
F 0x408b4e
0x4028be:	pop	rbp
0x4028bf:	pop	r12
0x4028c1:	pop	r13
0x4028c3:	pop	r14
0x4028c5:	pop	r15
0x4028c7:	ret	
F 0x406006
0x4059be:	pop	rbx
0x4059bf:	pop	r12
0x4059c1:	ret	
F 0x4065ea
0x4060e6:	pop	r13
0x4060e8:	pop	r14
0x4060ea:	ret	
F 0x40b23c
0x40b23c:	add	rsp, 0x58
0x40b240:	mov	rax, r12
0x40b243:	pop	rbx
0x40b244:	pop	rbp
0x40b245:	pop	r12
0x40b247:	pop	r13
0x40b249:	ret	
F 0x407961
0x407961:	add	byte ptr [rax], al
0x407963:	lea	rdx, [rip + 0x65a4]
0x40796a:	cmovne	rax, rdx
0x40796e:	add	rsp, 8
0x407972:	pop	rbx
0x407973:	pop	rbp
0x407974:	ret	
F 0x40b36a
0x40b347:	add	rsp, 8
0x40b34b:	mov	eax, r13d
0x40b34e:	pop	rbx
0x40b34f:	pop	rbp
0x40b350:	pop	r12
0x40b352:	pop	r13
0x40b354:	ret	
F 0x408b55
0x4028c5:	pop	r15
0x4028c7:	ret	
F 0x40932f
0x409213:	add	rsp, 0x48
0x409217:	ret	
F 0x40850f
0x402016:	ret	
F 0x403fec
0x4028c6:	pop	rdi
0x4028c7:	ret	
F 0x40ab18
0x40ab18:	add	rsp, 0x60
0x40ab1c:	mov	eax, r12d
0x40ab1f:	pop	rbp
0x40ab20:	pop	r12
0x40ab22:	pop	r13
0x40ab24:	ret	
F 0x4041de
0x403a1c:	add	rsp, 8
0x403a20:	pop	rbx
0x403a21:	pop	rbp
0x403a22:	pop	r12
0x403a24:	pop	r13
0x403a26:	ret	
F 0x4036a3
0x4036a3:	add	eax, 1
0x4036a6:	mov	dword ptr [rip + 0xf964], eax
0x4036ac:	mov	dword ptr [rip + 0xfa96], 1
0x4036b6:	ret	
F 0x40365f
0x40365f:	pop	rbp
0x403660:	ret	
F 0x405132
0x402016:	ret	
F 0x409ad4
0x4059bf:	pop	r12
0x4059c1:	ret	
F 0x406565
0x404897:	sbb	byte ptr [rbx + 0x5d], bl
0x40489a:	ret	
F 0x4079af
0x407938:	cmovne	eax, edx
0x40793b:	add	rsp, 8
0x40793f:	pop	rbx
0x407940:	pop	rbp
0x407941:	ret	
F 0x407bcf
0x407bcf:	xor	byte ptr [rcx - 0x77], cl
0x407bd2:	ret	
F 0x405b60
0x405b60:	mov	edx, 0x20000
0x405b65:	cmp	rax, 0x20001
0x405b6b:	cmovb	rax, rdx
0x405b6f:	mov	qword ptr [rdi + 0x18], rax
0x405b73:	ret	
F 0x409a97
0x403a20:	pop	rbx
0x403a21:	pop	rbp
0x403a22:	pop	r12
0x403a24:	pop	r13
0x403a26:	ret	
F 0x40a397
0x40a250:	add	rsp, 0x18
0x40a254:	pop	rbp
0x40a255:	pop	r12
0x40a257:	ret	
F 0x407602
0x402016:	ret	
F 0x409333
0x402016:	ret	
F 0x404b18
0x4028bf:	pop	r12
0x4028c1:	pop	r13
0x4028c3:	pop	r14
0x4028c5:	pop	r15
0x4028c7:	ret	
F 0x4068ef
0x4068ef:	add	dh, byte ptr [rsi + 0xe]
0x4068f2:	pop	rbx
0x4068f3:	mov	rax, r12
0x4068f6:	pop	rbp
0x4068f7:	pop	r12
0x4068f9:	pop	r13
0x4068fb:	pop	r14
0x4068fd:	ret	
F 0x40932e
0x409212:	add	eax, 0x48c48348
0x409217:	ret	
F 0x408f78
0x408f78:	cmp	byte ptr [rbx + 0x5d], bl
0x408f7b:	pop	r12
0x408f7d:	pop	r13
0x408f7f:	pop	r14
0x408f81:	pop	r15
0x408f83:	ret	
F 0x408e94
0x408e94:	shr	eax, cl
0x408e96:	xor	edx, eax
0x408e98:	and	eax, 1
0x408e9b:	and	edx, 1
0x408e9e:	shl	edx, cl
0x408ea0:	xor	edx, edi
0x408ea2:	mov	dword ptr [rsi], edx
0x408ea4:	ret	
F 0x4068f4
0x4068f4:	mov	eax, esp
0x4068f6:	pop	rbp
0x4068f7:	pop	r12
0x4068f9:	pop	r13
0x4068fb:	pop	r14
0x4068fd:	ret	
F 0x407d43
0x4057d8:	add	dword ptr [rax - 0x7d], ecx
0x4057db:	ret	
F 0x409a62
0x405d53:	add	rsp, 8
0x405d57:	mov	eax, r12d
0x405d5a:	pop	rbx
0x405d5b:	pop	rbp
0x405d5c:	pop	r12
0x405d5e:	pop	r13
0x405d60:	ret	
F 0x40b23a
0x40b23a:	add	byte ptr [rax], al
0x40b23c:	add	rsp, 0x58
0x40b240:	mov	rax, r12
0x40b243:	pop	rbx
0x40b244:	pop	rbp
0x40b245:	pop	r12
0x40b247:	pop	r13
0x40b249:	ret	
F 0x409a66
0x40457e:	mov	eax, r12d
0x404581:	pop	rbx
0x404582:	pop	rbp
0x404583:	pop	r12
0x404585:	pop	r13
0x404587:	ret	
F 0x406539
0x406539:	add	byte ptr [rax - 0x77], cl
0x40653c:	ret	0x8d48
F 0x408ea4
0x402016:	ret	
F 0x406c31
0x406ba1:	mov	byte ptr [rbx + 0xc], 1
0x406ba5:	pop	rbx
0x406ba6:	pop	rbp
0x406ba7:	pop	r12
0x406ba9:	ret	
F 0x4069ac
0x4069ac:	add	byte ptr [rbp + 0x2a], dh
0x4069af:	add	rsp, 0x58
0x4069b3:	ret	
F 0x40a8b0
0x402016:	ret	
F 0x403a21
0x403a21:	pop	rbp
0x403a22:	pop	r12
0x403a24:	pop	r13
0x403a26:	ret	
F 0x40b431
0x405878:	or	byte ptr [rbx + 0x5d], bl
0x40587b:	pop	r12
0x40587d:	pop	r13
0x40587f:	pop	r14
0x405881:	pop	r15
0x405883:	ret	
F 0x4036a7
0x4036a7:	add	eax, 0xf964
0x4036ac:	mov	dword ptr [rip + 0xfa96], 1
0x4036b6:	ret	
F 0x40b436
0x4028c1:	pop	r13
0x4028c3:	pop	r14
0x4028c5:	pop	r15
0x4028c7:	ret	
F 0x403680
0x402016:	ret	
F 0x4079b1
0x405263:	ret	0x8348
F 0x40639d
0x405c99:	pop	rbx
0x405c9a:	pop	rbp
0x405c9b:	pop	r12
0x405c9d:	ret	
F 0x407963
0x407963:	lea	rdx, [rip + 0x65a4]
0x40796a:	cmovne	rax, rdx
0x40796e:	add	rsp, 8
0x407972:	pop	rbx
0x407973:	pop	rbp
0x407974:	ret	
F 0x40365c
0x40365c:	add	byte ptr [rax], al
0x40365e:	add	dword ptr [rbp - 0x3d], ebx
0x403661:	nop	dword ptr [rax]
0x403668:	ret	
F 0x40a39e
0x402016:	ret	
F 0x407969
0x407936:	add	byte ptr [rax + 0xf], cl
0x407939:	ret	0x8348
F 0x407888
0x407888:	mov	dword ptr [rip + 0xba1a], ebx
0x40788e:	mov	qword ptr [rip + 0xb853], rbx
0x407895:	pop	rbx
0x407896:	ret	
F 0x405e73
0x405e73:	add	rsp, 8
0x405e77:	mov	eax, 0xffffffff
0x405e7c:	pop	rbx
0x405e7d:	pop	rbp
0x405e7e:	ret	
F 0x406c60
0x406c60:	inc	esi
0x406c62:	and	byte ptr [r8], al
0x406c65:	mov	qword ptr [rbx + 0x18], rax
0x406c69:	mov	byte ptr [rbx + 0xc], 1
0x406c6d:	pop	rbx
0x406c6e:	pop	rbp
0x406c6f:	pop	r12
0x406c71:	ret	
F 0x40a63c
0x4028c2:	pop	rbp
0x4028c3:	pop	r14
0x4028c5:	pop	r15
0x4028c7:	ret	
F 0x404077
0x404077:	add	al, ch
0x404079:	ret	
F 0x4066ca
0x4066ca:	neg	r8d
0x4066cd:	add	rsp, 8
0x4066d1:	mov	eax, r8d
0x4066d4:	pop	rbx
0x4066d5:	pop	rbp
0x4066d6:	ret	
F 0x4065da
0x4065da:	mov	ebp, 0x8548ffff
0x4065df:	sal	byte ptr [rcx + 0x45], 0x89
0x4065e4:	jne	0x4065e6
F 0x406604
0x406604:	xor	eax, eax
0x406606:	pop	rbp
0x406607:	pop	r12
0x406609:	pop	r13
0x40660b:	pop	r14
0x40660d:	ret	
F 0x409a6e
0x40365f:	pop	rbp
0x403660:	ret	
F 0x40ae30
0x40ae30:	add	byte ptr [rax], al
0x40ae32:	add	byte ptr [rbp + 0x2d], dh
0x40ae35:	add	rsp, 0x18
0x40ae39:	mov	rax, r12
0x40ae3c:	pop	rbx
0x40ae3d:	pop	rbp
0x40ae3e:	pop	r12
0x40ae40:	pop	r13
0x40ae42:	ret	
F 0x403b1f
0x402016:	ret	
F 0x404b1c
0x4028c3:	pop	r14
0x4028c5:	pop	r15
0x4028c7:	ret	
F 0x403fed
0x402016:	ret	
F 0x404f47
0x404f47:	jmp	0x404b0f
F 0x4028c3
0x4028c3:	pop	r14
0x4028c5:	pop	r15
0x4028c7:	ret	
F 0x4065e6
0x4060e2:	pop	rbx
0x4060e3:	pop	rbp
0x4060e4:	pop	r12
0x4060e6:	pop	r13
0x4060e8:	pop	r14
0x4060ea:	ret	
F 0x4061bb
0x4061bb:	mov	qword ptr [rip + 0xd0ba], 0
0x4061c6:	add	rsp, 8
0x4061ca:	ret	
F 0x40af76
0x40af76:	lea	rdx, [rip + 0x3da3]
0x40af7d:	cmove	rax, rdx
0x40af81:	add	rsp, 8
0x40af85:	ret	
F 0x408ec4
0x402016:	ret	
F 0x405c49
0x405c49:	mov	qword ptr [rsi + 0x38], rax
0x405c4d:	ret	
F 0x407890
0x407890:	sbb	eax, 0xb853
0x407895:	pop	rbx
0x407896:	ret	
F 0x40993f
0x409216:	ret	
F 0x406b51
0x402be1:	ret	0x8948
F 0x404f3f
0x404f3f:	pop	rbp
0x404f40:	add	eax, dword ptr [rax]
0x404f42:	add	byte ptr [rcx + 0x5a], al
0x404f45:	pop	r11
0x404f47:	jmp	0x404b0f
F 0x4069af
0x4069af:	add	rsp, 0x58
0x4069b3:	ret	
F 0x40a34d
0x40a206:	add	eax, 0x8c48348
0x40a20b:	ret	
F 0x408f2c
0x402016:	ret	
F 0x408e9a
0x408e9a:	add	dword ptr [rbx - 0x1d2cfe1e], eax
0x408ea0:	xor	edx, edi
0x408ea2:	mov	dword ptr [rsi], edx
0x408ea4:	ret	
F 0x40627a
0x40627a:	add	rsp, 0x38
0x40627e:	pop	rbx
0x40627f:	pop	rbp
0x406280:	pop	r12
0x406282:	pop	r13
0x406284:	ret	
F 0x4072ef
0x4028c6:	pop	rdi
0x4028c7:	ret	
F 0x405b70
0x405b70:	mov	dword ptr [rdi + 0x18], eax
0x405b73:	ret	
F 0x405ab1
0x405ab1:	add	byte ptr [rax], al
0x405ab3:	add	rsp, 8
0x405ab7:	pop	rbx
0x405ab8:	pop	rbp
0x405ab9:	pop	r12
0x405abb:	pop	r13
0x405abd:	ret	
F 0x40792f
0x40792f:	add	byte ptr [rax - 0x73], cl
0x407932:	adc	eax, 0x6653
0x407937:	cmovne	rax, rdx
0x40793b:	add	rsp, 8
0x40793f:	pop	rbx
0x407940:	pop	rbp
0x407941:	ret	
F 0x40587a
0x4028be:	pop	rbp
0x4028bf:	pop	r12
0x4028c1:	pop	r13
0x4028c3:	pop	r14
0x4028c5:	pop	r15
0x4028c7:	ret	
F 0x406283
0x40365f:	pop	rbp
0x403660:	ret	
F 0x4098a4
0x402016:	ret	
F 0x4098a0
0x409213:	add	rsp, 0x48
0x409217:	ret	
F 0x405c99
0x405c99:	pop	rbx
0x405c9a:	pop	rbp
0x405c9b:	pop	r12
0x405c9d:	ret	
F 0x405dd4
0x402016:	ret	
F 0x40788f
0x40788f:	mov	dword ptr [rip + 0xb853], ebx
0x407895:	pop	rbx
0x407896:	ret	
F 0x4068ec
0x4068ec:	inc	dword ptr [rbx + 0xe7602f8]
0x4068f2:	pop	rbx
0x4068f3:	mov	rax, r12
0x4068f6:	pop	rbp
0x4068f7:	pop	r12
0x4068f9:	pop	r13
0x4068fb:	pop	r14
0x4068fd:	ret	
F 0x40b06e
0x40b06e:	mov	eax, dword ptr [rbx + 0x14]
0x40b071:	mov	dword ptr [rbp + 0x14], eax
0x40b074:	add	rsp, 8
0x40b078:	pop	rbx
0x40b079:	pop	rbp
0x40b07a:	ret	
F 0x403660
0x402016:	ret	
F 0x409e18
0x408f78:	cmp	byte ptr [rbx + 0x5d], bl
0x408f7b:	pop	r12
0x408f7d:	pop	r13
0x408f7f:	pop	r14
0x408f81:	pop	r15
0x408f83:	ret	
F 0x40b02a
0x40b02a:	sete	al
0x40b02d:	movzx	eax, al
0x40b030:	ret	
F 0x40b02e
0x40b02e:	mov	dh, 0xc0
0x40b030:	ret	
F 0x407896
0x402016:	ret	
F 0x40a641
0x402016:	ret	
F 0x40945c
0x409210:	add	byte ptr [rbp + 5], dh
0x409213:	add	rsp, 0x48
0x409217:	ret	
F 0x40526f
0x40526f:	shr	ebx, 1
0x405271:	movabs	eax, dword ptr [0x29480000441f0f66]
0x40527a:	ret	0x8d48
F 0x40b019
0x40b019:	sar	byte ptr [rax + 4], 0x5d
0x40b01d:	ret	
F 0x4076b5
0x4057d8:	add	dword ptr [rax - 0x7d], ecx
0x4057db:	ret	
F 0x40b434
0x4028bf:	pop	r12
0x4028c1:	pop	r13
0x4028c3:	pop	r14
0x4028c5:	pop	r15
0x4028c7:	ret	
F 0x409a84
0x403b29:	sub	byte ptr [rax - 0x77], cl
0x403b2c:	ret	
F 0x406c4e
0x406ba3:	or	al, 1
0x406ba5:	pop	rbx
0x406ba6:	pop	rbp
0x406ba7:	pop	r12
0x406ba9:	ret	
F 0x409073
0x4028c6:	pop	rdi
0x4028c7:	ret	
F 0x405f72
0x4028c5:	pop	r15
0x4028c7:	ret	
F 0x40b078
0x404898:	pop	rbx
0x404899:	pop	rbp
0x40489a:	ret	
F 0x405ada
0x403a21:	pop	rbp
0x403a22:	pop	r12
0x403a24:	pop	r13
0x403a26:	ret	
F 0x409119
0x402016:	ret	
F 0x404f3d
0x404f3d:	add	al, ch
0x404f3f:	pop	rbp
0x404f40:	add	eax, dword ptr [rax]
0x404f42:	add	byte ptr [rcx + 0x5a], al
0x404f45:	pop	r11
0x404f47:	jmp	0x404b0f
F 0x409066
0x409066:	sub	byte ptr [rcx + rcx*4 - 0x28], cl
0x40906a:	pop	rbx
0x40906b:	pop	rbp
0x40906c:	pop	r12
0x40906e:	pop	r13
0x409070:	pop	r14
0x409072:	pop	r15
0x409074:	ret	
F 0x40a109
0x40a109:	add	byte ptr [rax], al
0x40a10b:	add	byte ptr [rbp + 0xa], dh
0x40a10e:	add	rsp, 0xb0
0x40a115:	pop	r12
0x40a117:	ret	
F 0x406c4a
0x406c4a:	and	byte ptr [rax], al
0x406c4c:	mov	byte ptr [rbx + 0xc], 1
0x406c50:	pop	rbx
0x406c51:	pop	rbp
0x406c52:	pop	r12
0x406c54:	ret	
F 0x4093bb
0x409216:	ret	
F 0x40a47c
0x406d23:	ret	0x8548
F 0x405adf
0x402016:	ret	
F 0x402929
0x402929:	ret	0x108
F 0x4028b9
0x4028b9:	add	byte ptr [rcx + rcx*4 - 0x10], al
0x4028bd:	pop	rbx
0x4028be:	pop	rbp
0x4028bf:	pop	r12
0x4028c1:	pop	r13
0x4028c3:	pop	r14
0x4028c5:	pop	r15
0x4028c7:	ret	
F 0x40522c
0x40522c:	cmovne	eax, ecx
0x40522f:	ret	
F 0x405d5b
0x403a21:	pop	rbp
0x403a22:	pop	r12
0x403a24:	pop	r13
0x403a26:	ret	
F 0x408e24
0x402016:	ret	
F 0x4065eb
0x4060e7:	pop	rbp
0x4060e8:	pop	r14
0x4060ea:	ret	
F 0x409070
0x4028c3:	pop	r14
0x4028c5:	pop	r15
0x4028c7:	ret	
F 0x409c69
0x408f78:	cmp	byte ptr [rbx + 0x5d], bl
0x408f7b:	pop	r12
0x408f7d:	pop	r13
0x408f7f:	pop	r14
0x408f81:	pop	r15
0x408f83:	ret	
F 0x409a93
0x403a1c:	add	rsp, 8
0x403a20:	pop	rbx
0x403a21:	pop	rbp
0x403a22:	pop	r12
0x403a24:	pop	r13
0x403a26:	ret	
F 0x4059ab
0x402016:	ret	
F 0x4064c7
0x404077:	add	al, ch
0x404079:	ret	
F 0x406c63
0x406c63:	and	byte ptr [rax], al
0x406c65:	mov	qword ptr [rbx + 0x18], rax
0x406c69:	mov	byte ptr [rbx + 0xc], 1
0x406c6d:	pop	rbx
0x406c6e:	pop	rbp
0x406c6f:	pop	r12
0x406c71:	ret	
F 0x40759e
0x402016:	ret	
F 0x4061b7
0x4061b7:	add	byte ptr [rax], al
0x4061b9:	add	byte ptr [rax], al
0x4061bb:	mov	qword ptr [rip + 0xd0ba], 0
0x4061c6:	add	rsp, 8
0x4061ca:	ret	
F 0x40b0b4
0x40b0b4:	shr	eax, cl
0x40b0b6:	and	eax, 1
0x40b0b9:	ret	
F 0x4048e4
0x4048e4:	pop	rax
0x4048e5:	pop	rdx
0x4048e6:	mov	eax, dword ptr [rsp + 0xc]
0x4048ea:	add	rsp, 0x18
0x4048ee:	pop	rbx
0x4048ef:	pop	rbp
0x4048f0:	ret	
F 0x4079b5
0x405c00:	or	byte ptr [rbx + 0x5d], bl
0x405c03:	ret	
F 0x406568
0x402016:	ret	
F 0x408e31
0x408e31:	test	edi, edi
0x408e33:	lea	rax, [rip + 0xa586]
0x408e3a:	cmove	rdi, rax
0x408e3e:	mov	eax, dword ptr [rdi]
0x408e40:	ret	
F 0x408e9b
0x408e9b:	and	edx, 1
0x408e9e:	shl	edx, cl
0x408ea0:	xor	edx, edi
0x408ea2:	mov	dword ptr [rsi], edx
0x408ea4:	ret	
F 0x4072e2
0x4072e2:	mov	eax, 0x5b000001
0x4072e7:	pop	rbp
0x4072e8:	pop	r12
0x4072ea:	pop	r13
0x4072ec:	pop	r14
0x4072ee:	pop	r15
0x4072f0:	ret	
F 0x4035e8
0x402016:	ret	
F 0x408f83
0x402016:	ret	
F 0x405760
0x405760:	ret	0xf8
F 0x405b65
0x405b65:	cmp	rax, 0x20001
0x405b6b:	cmovb	rax, rdx
0x405b6f:	mov	qword ptr [rdi + 0x18], rax
0x405b73:	ret	
F 0x4041e3
0x403a21:	pop	rbp
0x403a22:	pop	r12
0x403a24:	pop	r13
0x403a26:	ret	
F 0x40b352
0x403a24:	pop	r13
0x403a26:	ret	
F 0x40add5
0x402016:	ret	
F 0x408e5c
0x408e5c:	clc	
0x408e5e:	mov	dword ptr [rdi], esi
0x408e60:	ret	
F 0x4041fd
0x4035df:	jmp	rax
F 0x40a39b
0x405c9a:	pop	rbp
0x405c9b:	pop	r12
0x405c9d:	ret	
F 0x4083c0
0x402016:	ret	
F 0x407d84
0x407d84:	cmp	byte ptr [rcx - 0x77], cl
0x407d87:	ret	0xf40
F 0x4041da
0x4041da:	pop	rcx
0x4041db:	sete	al
0x4041de:	add	rsp, 8
0x4041e2:	pop	rbx
0x4041e3:	pop	rbp
0x4041e4:	pop	r12
0x4041e6:	pop	r13
0x4041e8:	ret	
F 0x405b68
0x405b68:	add	byte ptr [rdx], al
0x405b6a:	add	byte ptr [rax + 0xf], cl
0x405b6d:	ret	0x8948
F 0x407995
0x402016:	ret	
F 0x40a494
0x402012:	add	rsp, 8
0x402016:	ret	
F 0x40a788
0x402016:	ret	
F 0x409503
0x409216:	ret	
F 0x40afc0
0x40afc0:	add	eax, 0x10
0x40afc3:	mov	rcx, rax
0x40afc6:	sub	rcx, rdx
0x40afc9:	mov	byte ptr [rax - 1], cl
0x40afcc:	add	rsp, 8
0x40afd0:	ret	
F 0x405acd
0x403a24:	pop	r13
0x403a26:	ret	
F 0x40a02a
0x40a02a:	add	eax, 0x68c48348
0x40a02f:	ret	
F 0x40522f
0x402016:	ret	
F 0x40b350
0x403a22:	pop	r12
0x403a24:	pop	r13
0x403a26:	ret	
F 0x405e07
0x405e07:	mov	eax, esp
0x405e09:	mov	qword ptr [rbx + 8], rdx
0x405e0d:	pop	rbx
0x405e0e:	pop	rbp
0x405e0f:	pop	r12
0x405e11:	ret	
F 0x405cf2
0x402016:	ret	
F 0x403fe3
0x4028bd:	pop	rbx
0x4028be:	pop	rbp
0x4028bf:	pop	r12
0x4028c1:	pop	r13
0x4028c3:	pop	r14
0x4028c5:	pop	r15
0x4028c7:	ret	
F 0x404b0f
0x404b0f:	add	rsp, 0x18
0x404b13:	mov	eax, r13d
0x404b16:	pop	rbx
0x404b17:	pop	rbp
0x404b18:	pop	r12
0x404b1a:	pop	r13
0x404b1c:	pop	r14
0x404b1e:	pop	r15
0x404b20:	ret	
F 0x409a4c
0x40365f:	pop	rbp
0x403660:	ret	
F 0x4048e2
0x4048e2:	add	byte ptr [rax], al
0x4048e4:	pop	rax
0x4048e5:	pop	rdx
0x4048e6:	mov	eax, dword ptr [rsp + 0xc]
0x4048ea:	add	rsp, 0x18
0x4048ee:	pop	rbx
0x4048ef:	pop	rbp
0x4048f0:	ret	
F 0x406862
0x4059bf:	pop	r12
0x4059c1:	ret	
F 0x40542d
0x403fe2:	sbb	byte ptr [rbx + 0x5d], bl
0x403fe5:	pop	r12
0x403fe7:	pop	r13
0x403fe9:	pop	r14
0x403feb:	pop	r15
0x403fed:	ret	
F 0x40b371
0x403a20:	pop	rbx
0x403a21:	pop	rbp
0x403a22:	pop	r12
0x403a24:	pop	r13
0x403a26:	ret	
F 0x403fe7
0x4028c1:	pop	r13
0x4028c3:	pop	r14
0x4028c5:	pop	r15
0x4028c7:	ret	
F 0x40ae5f
0x40ae5f:	add	ebp, ebx
0x40ae61:	ret	
F 0x40a112
0x40a112:	add	byte ptr [rax], al
0x40a114:	add	byte ptr [rcx + 0x5c], al
0x40a117:	ret	
F 0x40b438
0x4028c3:	pop	r14
0x4028c5:	pop	r15
0x4028c7:	ret	
F 0x405436
0x4028c5:	pop	r15
0x4028c7:	ret	
F 0x406933
0x406933:	mov	dword ptr [rbx], esi
0x406935:	mov	rax, r12
0x406938:	pop	rbx
0x406939:	pop	rbp
0x40693a:	pop	r12
0x40693c:	pop	r13
0x40693e:	pop	r14
0x406940:	ret	
F 0x40785f
0x40785f:	xchg	eax, edi
0x407860:	ret	0xda80
F 0x409e1a
0x4028be:	pop	rbp
0x4028bf:	pop	r12
0x4028c1:	pop	r13
0x4028c3:	pop	r14
0x4028c5:	pop	r15
0x4028c7:	ret	
F 0x404883
0x402016:	ret	
F 0x406028
0x402016:	ret	
F 0x4061e6
0x402012:	add	rsp, 8
0x402016:	ret	
F 0x4059bc
0x4059bc:	mov	eax, esp
0x4059be:	pop	rbx
0x4059bf:	pop	r12
0x4059c1:	ret	
F 0x404075
0x404075:	add	byte ptr [rax], al
0x404077:	add	al, ch
0x404079:	ret	
F 0x406e4e
0x406e4e:	pop	r12
0x406e50:	pop	r13
0x406e52:	pop	r14
0x406e54:	pop	r15
0x406e56:	pop	rbp
0x406e57:	ret	
F 0x408f72
0x408f72:	mov	dword ptr [rbp], edi
0x408f75:	add	rsp, 0x38
0x408f79:	pop	rbx
0x408f7a:	pop	rbp
0x408f7b:	pop	r12
0x408f7d:	pop	r13
0x408f7f:	pop	r14
0x408f81:	pop	r15
0x408f83:	ret	
F 0x409a41
0x409a41:	test	edx, edx
0x409a43:	cmove	rax, rbx
0x409a47:	add	rsp, 8
0x409a4b:	pop	rbx
0x409a4c:	pop	rbp
0x409a4d:	ret	
F 0x405d5f
0x40365f:	pop	rbp
0x403660:	ret	
F 0x4061e1
0x4061e1:	test	eax, eax
0x4061e3:	setne	al
0x4061e6:	add	rsp, 8
0x4061ea:	ret	
F 0x4037c7
0x4028c4:	pop	rsi
0x4028c5:	pop	r15
0x4028c7:	ret	
F 0x40457f
0x403b17:	mov	eax, esp
0x403b19:	pop	rbx
0x403b1a:	pop	rbp
0x403b1b:	pop	r12
0x403b1d:	pop	r13
0x403b1f:	ret	
F 0x406707
0x402016:	ret	
F 0x404582
0x403a21:	pop	rbp
0x403a22:	pop	r12
0x403a24:	pop	r13
0x403a26:	ret	
F 0x4078ab
0x4078ab:	mov	dword ptr [rip + 0xb837], ebx
0x4078b1:	pop	rbx
0x4078b2:	ret	
F 0x403626
0x4035e6:	add	byte ptr [rax], al
0x4035e8:	ret	
F 0x4076c3
0x407407:	and	al, 8
0x407409:	add	dword ptr [rax - 0x7d], ecx
0x40740c:	ret	
F 0x40aceb
0x40aceb:	or	ecx, dword ptr [rax - 0x75]
0x40acee:	push	rdi
0x40acef:	pop	rax
0x40acf0:	sub	rdx, qword ptr [rdi + 0x48]
0x40acf4:	add	rax, rdx
0x40acf7:	ret	
F 0x4097fa
0x409213:	add	rsp, 0x48
0x409217:	ret	
F 0x405f6e
0x4028c1:	pop	r13
0x4028c3:	pop	r14
0x4028c5:	pop	r15
0x4028c7:	ret	
F 0x407599
0x407599:	add	byte ptr [rax], al
0x40759b:	add	byte ptr [rax - 0x7d], cl
0x40759e:	ret	
F 0x40692e
0x40692e:	pop	rsi
0x40692f:	mov	ecx, 0x8944ffff
0x406934:	xor	ecx, dword ptr [rcx + rcx*4 - 0x20]
0x406938:	pop	rbx
0x406939:	pop	rbp
0x40693a:	pop	r12
0x40693c:	pop	r13
0x40693e:	pop	r14
0x406940:	ret	
F 0x4028bf
0x4028bf:	pop	r12
0x4028c1:	pop	r13
0x4028c3:	pop	r14
0x4028c5:	pop	r15
0x4028c7:	ret	
F 0x409c6e
0x4028c1:	pop	r13
0x4028c3:	pop	r14
0x4028c5:	pop	r15
0x4028c7:	ret	
F 0x405e0a
0x405e0a:	mov	dword ptr [rbx + 8], edx
0x405e0d:	pop	rbx
0x405e0e:	pop	rbp
0x405e0f:	pop	r12
0x405e11:	ret	
F 0x40653c
0x40527a:	ret	0x8d48
F 0x404586
0x40365f:	pop	rbp
0x403660:	ret	
F 0x40ae35
0x40ae35:	add	rsp, 0x18
0x40ae39:	mov	rax, r12
0x40ae3c:	pop	rbx
0x40ae3d:	pop	rbp
0x40ae3e:	pop	r12
0x40ae40:	pop	r13
0x40ae42:	ret	
F 0x409a38
0x407842:	ret	0x2948
F 0x404880
0x40410c:	add	byte ptr [rax - 0x7d], cl
0x40410f:	ret	
F 0x40a2d5
0x402016:	ret	
F 0x405ac9
0x403a20:	pop	rbx
0x403a21:	pop	rbp
0x403a22:	pop	r12
0x403a24:	pop	r13
0x403a26:	ret	
F 0x4076b3
0x407407:	and	al, 8
0x407409:	add	dword ptr [rax - 0x7d], ecx
0x40740c:	ret	
F 0x406808
0x406808:	nop	dword ptr [rax + rax]
0x406810:	mov	byte ptr [rip + 0xca81], dil
0x406817:	ret	
F 0x40b030
0x402016:	ret	
F 0x408e19
0x408e19:	adc	dword ptr [rsi], 0
0x408e1c:	add	byte ptr [rcx + rcx*4 + 0x23], al
0x408e20:	pop	rbx
0x408e21:	pop	rbp
0x408e22:	pop	r12
0x408e24:	ret	
F 0x405430
0x4028bf:	pop	r12
0x4028c1:	pop	r13
0x4028c3:	pop	r14
0x4028c5:	pop	r15
0x4028c7:	ret	
F 0x40ab16
0x40ab16:	add	byte ptr [rax], al
0x40ab18:	add	rsp, 0x60
0x40ab1c:	mov	eax, r12d
0x40ab1f:	pop	rbp
0x40ab20:	pop	r12
0x40ab22:	pop	r13
0x40ab24:	ret	
F 0x40af8a
0x40af8a:	test	byte ptr [rax], al
0x40af8c:	add	byte ptr [rax], al
0x40af8e:	add	byte ptr [rax], al
0x40af90:	lea	rax, [rip + 0x3d89]
0x40af97:	add	rsp, 8
0x40af9b:	ret	
F 0x407842
0x407842:	ret	0x2948
F 0x4035e6
0x4035e6:	add	byte ptr [rax], al
0x4035e8:	ret	
F 0x406ba3
0x406ba3:	or	al, 1
0x406ba5:	pop	rbx
0x406ba6:	pop	rbp
0x406ba7:	pop	r12
0x406ba9:	ret	
F 0x403368
0x402016:	ret	
F 0x409ae2
0x402016:	ret	
F 0x405c01
0x404898:	pop	rbx
0x404899:	pop	rbp
0x40489a:	ret	
F 0x405f6a
0x4028bd:	pop	rbx
0x4028be:	pop	rbp
0x4028bf:	pop	r12
0x4028c1:	pop	r13
0x4028c3:	pop	r14
0x4028c5:	pop	r15
0x4028c7:	ret	
F 0x40a39c
0x4059bf:	pop	r12
0x4059c1:	ret	
F 0x405d60
0x402016:	ret	
F 0x40b43a
0x4028c5:	pop	r15
0x4028c7:	ret	
F 0x403676
0x403676:	nop	dword ptr cs:[rax + rax]
0x40367f:	nop	
0x403680:	ret	
F 0x40b1b6
0x40b1b6:	ret	0x24e8
F 0x406c65
0x406c65:	mov	qword ptr [rbx + 0x18], rax
0x406c69:	mov	byte ptr [rbx + 0xc], 1
0x406c6d:	pop	rbx
0x406c6e:	pop	rbp
0x406c6f:	pop	r12
0x406c71:	ret	
F 0x4037c0
0x4028bd:	pop	rbx
0x4028be:	pop	rbp
0x4028bf:	pop	r12
0x4028c1:	pop	r13
0x4028c3:	pop	r14
0x4028c5:	pop	r15
0x4028c7:	ret	
F 0x40afd6
0x40afd6:	or	bl, al
0x40afd8:	xor	eax, eax
0x40afda:	ret	
F 0x406b0d
0x406b0d:	add	byte ptr [rax], al
0x406b0f:	add	byte ptr [rbp + 0x49], dh
0x406b12:	lea	rsp, [rbp - 0x20]
0x406b16:	pop	rbx
0x406b17:	pop	r12
0x406b19:	pop	r13
0x406b1b:	pop	r14
0x406b1d:	pop	rbp
0x406b1e:	ret	
F 0x40b437
0x4028c2:	pop	rbp
0x4028c3:	pop	r14
0x4028c5:	pop	r15
0x4028c7:	ret	
F 0x40958d
0x409213:	add	rsp, 0x48
0x409217:	ret	
F 0x405e0d
0x405c99:	pop	rbx
0x405c9a:	pop	rbp
0x405c9b:	pop	r12
0x405c9d:	ret	
F 0x4047b1
0x4047b1:	sub	eax, 1
0x4047b4:	mov	dword ptr [rip + 0xe856], eax
0x4047ba:	ret	
F 0x4028b7
0x4028b7:	add	dword ptr [rax], eax
0x4028b9:	add	byte ptr [rcx + rcx*4 - 0x10], al
0x4028bd:	pop	rbx
0x4028be:	pop	rbp
0x4028bf:	pop	r12
0x4028c1:	pop	r13
0x4028c3:	pop	r14
0x4028c5:	pop	r15
0x4028c7:	ret	
F 0x409115
0x405c99:	pop	rbx
0x405c9a:	pop	rbp
0x405c9b:	pop	r12
0x405c9d:	ret	
F 0x408b57
0x402016:	ret	
F 0x4068fc
0x4060e9:	pop	rsi
0x4060ea:	ret	
F 0x406ba0
0x406ba0:	and	al, 0xc6
0x406ba2:	or	al, 1
0x406ba5:	pop	rbx
0x406ba6:	pop	rbp
0x406ba7:	pop	r12
0x406ba9:	ret	
F 0x40adc5
0x40adc5:	add	bh, ch
0x40adc7:	mov	qword ptr [rbp + 0x90], rax
0x40adce:	xor	eax, eax
0x40add0:	add	rsp, 0x10
0x40add4:	pop	rbp
0x40add5:	ret	
F 0x40975b
0x409210:	add	byte ptr [rbp + 5], dh
0x409213:	add	rsp, 0x48
0x409217:	ret	
F 0x409ecf
0x4028c2:	pop	rbp
0x4028c3:	pop	r14
0x4028c5:	pop	r15
0x4028c7:	ret	
F 0x40afb1
0x406d23:	ret	0x8548
F 0x4041d8
0x4041d8:	cmp	ebx, 0x59
0x4041db:	sete	al
0x4041de:	add	rsp, 8
0x4041e2:	pop	rbx
0x4041e3:	pop	rbp
0x4041e4:	pop	r12
0x4041e6:	pop	r13
0x4041e8:	ret	
F 0x407935
0x407935:	add	byte ptr [rax], al
0x407937:	cmovne	rax, rdx
0x40793b:	add	rsp, 8
0x40793f:	pop	rbx
0x407940:	pop	rbp
0x407941:	ret	
F 0x409a6b
0x403a22:	pop	r12
0x403a24:	pop	r13
0x403a26:	ret	
F 0x407971
0x405c00:	or	byte ptr [rbx + 0x5d], bl
0x405c03:	ret	
F 0x404f46
0x404f46:	pop	rbx
0x404f47:	jmp	0x404b0f
F 0x403937
0x403937:	add	byte ptr [rax - 0x77], cl
0x40393a:	ret	0x8948
F 0x4028c1
0x4028c1:	pop	r13
0x4028c3:	pop	r14
0x4028c5:	pop	r15
0x4028c7:	ret	
F 0x4041e7
0x40365f:	pop	rbp
0x403660:	ret	
F 0x40b38f
0x40b38f:	mov	byte ptr [r12 + rbx - 1], 0
0x40b395:	add	rsp, 8
0x40b399:	mov	eax, r13d
0x40b39c:	pop	rbx
0x40b39d:	pop	rbp
0x40b39e:	pop	r12
0x40b3a0:	pop	r13
0x40b3a2:	ret	
F 0x40958a
0x409210:	add	byte ptr [rbp + 5], dh
0x409213:	add	rsp, 0x48
0x409217:	ret	
F 0x40a640
0x4028c6:	pop	rdi
0x4028c7:	ret	
F 0x40521e
0x40521e:	stc	
0x40521f:	cmovb	rcx, rdi
0x405223:	test	rcx, rcx
0x405226:	mov	eax, 1
0x40522b:	cmovne	rax, rcx
0x40522f:	ret	
F 0x4048e1
0x4048e1:	or	dword ptr [rax], eax
0x4048e3:	add	byte ptr [rax + 0x5a], bl
0x4048e6:	mov	eax, dword ptr [rsp + 0xc]
0x4048ea:	add	rsp, 0x18
0x4048ee:	pop	rbx
0x4048ef:	pop	rbp
0x4048f0:	ret	
F 0x40792e
0x40792e:	add	byte ptr [rax], al
0x407930:	lea	rdx, [rip + 0x6653]
0x407937:	cmovne	rax, rdx
0x40793b:	add	rsp, 8
0x40793f:	pop	rbx
0x407940:	pop	rbp
0x407941:	ret	
F 0x40680c
0x40680c:	add	byte ptr [rax], al
0x40680e:	add	byte ptr [rax], al
0x406810:	mov	byte ptr [rip + 0xca81], dil
0x406817:	ret	
F 0x405ac0
0x405ac0:	add	rsp, 8
0x405ac4:	mov	eax, 1
0x405ac9:	pop	rbx
0x405aca:	pop	rbp
0x405acb:	pop	r12
0x405acd:	pop	r13
0x405acf:	ret	
F 0x40b39a
0x40b34c:	mov	eax, ebp
0x40b34e:	pop	rbx
0x40b34f:	pop	rbp
0x40b350:	pop	r12
0x40b352:	pop	r13
0x40b354:	ret	
F 0x409a3a
0x409a3a:	sub	eax, ebp
0x409a3c:	add	rax, 1
0x409a40:	test	rdx, rdx
0x409a43:	cmove	rax, rbx
0x409a47:	add	rsp, 8
0x409a4b:	pop	rbx
0x409a4c:	pop	rbp
0x409a4d:	ret	
F 0x40b34a
0x40b34a:	or	byte ptr [rcx + rcx*4 - 0x18], al
0x40b34e:	pop	rbx
0x40b34f:	pop	rbp
0x40b350:	pop	r12
0x40b352:	pop	r13
0x40b354:	ret	
F 0x403935
0x403935:	add	byte ptr [rax], al
0x403937:	add	byte ptr [rax - 0x77], cl
0x40393a:	ret	0x8948
F 0x4066c6
0x4066c6:	sete	r8b
0x4066ca:	neg	r8d
0x4066cd:	add	rsp, 8
0x4066d1:	mov	eax, r8d
0x4066d4:	pop	rbx
0x4066d5:	pop	rbp
0x4066d6:	ret	
F 0x40975e
0x409213:	add	rsp, 0x48
0x409217:	ret	
F 0x40542e
0x4028bd:	pop	rbx
0x4028be:	pop	rbp
0x4028bf:	pop	r12
0x4028c1:	pop	r13
0x4028c3:	pop	r14
0x4028c5:	pop	r15
0x4028c7:	ret	
F 0x405435
0x4028c4:	pop	rsi
0x4028c5:	pop	r15
0x4028c7:	ret	
F 0x40a207
0x402012:	add	rsp, 8
0x402016:	ret	
F 0x4065e7
0x4060e3:	pop	rbp
0x4060e4:	pop	r12
0x4060e6:	pop	r13
0x4060e8:	pop	r14
0x4060ea:	ret	
F 0x40ab22
0x403a24:	pop	r13
0x403a26:	ret	
F 0x408e3c
0x408e3c:	clc	
0x408e3e:	mov	eax, dword ptr [rdi]
0x408e40:	ret	
F 0x4078a4
0x4078a4:	mov	dword ptr [rip + 0xb9fe], ebx
0x4078aa:	mov	qword ptr [rip + 0xb837], rbx
0x4078b1:	pop	rbx
0x4078b2:	ret	
F 0x4036aa
0x4036aa:	add	byte ptr [rax], al
0x4036ac:	mov	dword ptr [rip + 0xfa96], 1
0x4036b6:	ret	
F 0x40a493
0x40a206:	add	eax, 0x8c48348
0x40a20b:	ret	
F 0x40a2d2
0x405c9a:	pop	rbp
0x405c9b:	pop	r12
0x405c9d:	ret	
F 0x406c39
0x402016:	ret	
F 0x40aea5
0x40aea5:	or	dword ptr [rdi], ecx
0x40aea7:	xchg	eax, ebp
0x40aea8:	ror	byte ptr [rdi], 0xb6
0x40aeab:	sal	bh, 0xd8
0x40aeae:	pop	rbx
0x40aeaf:	pop	rbp
0x40aeb0:	pop	r12
0x40aeb2:	ret	
F 0x40a498
0x402016:	ret	
F 0x40ad5a
0x404898:	pop	rbx
0x404899:	pop	rbp
0x40489a:	ret	
F 0x40796c
0x407939:	ret	0x8348
F 0x403620
0x4035df:	jmp	rax
F 0x405225
0x405225:	leave	
0x405226:	mov	eax, 1
0x40522b:	cmovne	rax, rcx
0x40522f:	ret	
F 0x4066c9
0x4066c9:	rol	byte ptr [rcx - 9], 0xd8
0x4066cd:	add	rsp, 8
0x4066d1:	mov	eax, r8d
0x4066d4:	pop	rbx
0x4066d5:	pop	rbp
0x4066d6:	ret	
F 0x40636c
0x402016:	ret	
F 0x409ad3
0x405c9a:	pop	rbp
0x405c9b:	pop	r12
0x405c9d:	ret	
F 0x4041d9
0x4041d9:	sti	
F 0x405acf
0x402016:	ret	
F 0x40b373
0x403a22:	pop	r12
0x403a24:	pop	r13
0x403a26:	ret	
F 0x40afae
0x40afae:	dec	dword ptr [rax - 0x77]
0x40afb1:	ret	0x8548
F 0x4028b8
0x4028b8:	add	byte ptr [rax], al
0x4028ba:	mov	eax, r14d
0x4028bd:	pop	rbx
0x4028be:	pop	rbp
0x4028bf:	pop	r12
0x4028c1:	pop	r13
0x4028c3:	pop	r14
0x4028c5:	pop	r15
0x4028c7:	ret	
F 0x405da7
0x403a22:	pop	r12
0x403a24:	pop	r13
0x403a26:	ret	
F 0x40aa18
0x402016:	ret	
F 0x40993c
0x409213:	add	rsp, 0x48
0x409217:	ret	
F 0x4051a5
0x4051a5:	pop	rbx
0x4051a6:	pop	r12
0x4051a8:	pop	r13
0x4051aa:	ret	
F 0x403657
0x403657:	inc	esi
0x403659:	add	eax, 0xfaa9
0x40365e:	add	dword ptr [rbp - 0x3d], ebx
0x403661:	nop	dword ptr [rax]
0x403668:	ret	
F 0x404cb7
0x404cb7:	add	bh, dh
0x404cb9:	ret	
F 0x405dab
0x402016:	ret	
F 0x40af36
0x40af36:	add	byte ptr [rbp + 0x1b], dh
0x40af39:	add	rsp, 0x118
0x40af40:	ret	
F 0x405aaf
0x405aaf:	add	byte ptr [rax], al
0x405ab1:	add	byte ptr [rax], al
0x405ab3:	add	rsp, 8
0x405ab7:	pop	rbx
0x405ab8:	pop	rbp
0x405ab9:	pop	r12
0x405abb:	pop	r13
0x405abd:	ret	
F 0x4061c4
0x4061c4:	add	byte ptr [rax], al
0x4061c6:	add	rsp, 8
0x4061ca:	ret	
F 0x40361d
0x40361d:	sal	byte ptr [rax + rcx - 1], 0xe0
0x403622:	nop	word ptr [rax + rax]
0x403628:	ret	
F 0x40b42e
0x405875:	add	rsp, 8
0x405879:	pop	rbx
0x40587a:	pop	rbp
0x40587b:	pop	r12
0x40587d:	pop	r13
0x40587f:	pop	r14
0x405881:	pop	r15
0x405883:	ret	
F 0x407409
0x4057d8:	add	dword ptr [rax - 0x7d], ecx
0x4057db:	ret	
F 0x40ae41
0x40365f:	pop	rbp
0x403660:	ret	
F 0x4047ca
0x402016:	ret	
F 0x4078ac
0x4078ac:	sbb	eax, 0xb837
0x4078b1:	pop	rbx
0x4078b2:	ret	
F 0x408086
0x407c8d:	ret	0x7c80
F 0x40b43c
0x402016:	ret	
F 0x40af8c
0x40af8c:	add	byte ptr [rax], al
0x40af8e:	add	byte ptr [rax], al
0x40af90:	lea	rax, [rip + 0x3d89]
0x40af97:	add	rsp, 8
0x40af9b:	ret	
F 0x4037c4
0x4028c1:	pop	r13
0x4028c3:	pop	r14
0x4028c5:	pop	r15
0x4028c7:	ret	
F 0x408b53
0x4028c3:	pop	r14
0x4028c5:	pop	r15
0x4028c7:	ret	
F 0x40680e
0x40680e:	add	byte ptr [rax], al
0x406810:	mov	byte ptr [rip + 0xca81], dil
0x406817:	ret	
F 0x404894
0x404894:	add	rsp, 0x18
0x404898:	pop	rbx
0x404899:	pop	rbp
0x40489a:	ret	
F 0x40a635
0x40a635:	mov	eax, esp
0x40a637:	pop	rbx
0x40a638:	pop	rbp
0x40a639:	pop	r12
0x40a63b:	pop	r13
0x40a63d:	pop	r14
0x40a63f:	pop	r15
0x40a641:	ret	
F 0x40691c
0x402016:	ret	
F 0x4047a7
0x4047a7:	clc	
0x4047a8:	add	dword ptr [rsi + 0xf], edi
0x4047ab:	mov	eax, dword ptr [rip + 0xe85f]
0x4047b1:	sub	eax, 1
0x4047b4:	mov	dword ptr [rip + 0xe856], eax
0x4047ba:	ret	
F 0x40afd8
0x405130:	xor	eax, eax
0x405132:	ret	
F 0x4062a0
0x402016:	ret	
F 0x407788
0x407788:	add	dword ptr [rax - 0x77], ecx
0x40778b:	ret	
F 0x4068ea
0x4068ea:	mov	edx, 0xf883ffff
0x4068ef:	add	dh, byte ptr [rsi + 0xe]
0x4068f2:	pop	rbx
0x4068f3:	mov	rax, r12
0x4068f6:	pop	rbp
0x4068f7:	pop	r12
0x4068f9:	pop	r13
0x4068fb:	pop	r14
0x4068fd:	ret	
F 0x409a1b
0x403a24:	pop	r13
0x403a26:	ret	
F 0x404b1a
0x4028c1:	pop	r13
0x4028c3:	pop	r14
0x4028c5:	pop	r15
0x4028c7:	ret	
F 0x4096b6
0x409210:	add	byte ptr [rbp + 5], dh
0x409213:	add	rsp, 0x48
0x409217:	ret	
F 0x40906e
0x4028c1:	pop	r13
0x4028c3:	pop	r14
0x4028c5:	pop	r15
0x4028c7:	ret	
F 0x405e0e
0x405c9a:	pop	rbp
0x405c9b:	pop	r12
0x405c9d:	ret	
F 0x403b17
0x403b17:	mov	eax, esp
0x403b19:	pop	rbx
0x403b1a:	pop	rbp
0x403b1b:	pop	r12
0x403b1d:	pop	r13
0x403b1f:	ret	
F 0x405ad0
0x405ad0:	add	rsp, 8
0x405ad4:	mov	eax, 2
0x405ad9:	pop	rbx
0x405ada:	pop	rbp
0x405adb:	pop	r12
0x405add:	pop	r13
0x405adf:	ret	
F 0x40a5f2
0x402016:	ret	
F 0x40825e
0x40825e:	add	byte ptr [rdi], cl
0x408260:	xchg	eax, ebp
0x408261:	ret	0xd020
F 0x4093bc
0x402016:	ret	
F 0x40796b
0x407938:	cmovne	eax, edx
0x40793b:	add	rsp, 8
0x40793f:	pop	rbx
0x407940:	pop	rbp
0x407941:	ret	
F 0x40693c
0x4060e6:	pop	r13
0x4060e8:	pop	r14
0x4060ea:	ret	
F 0x4064c9
0x402016:	ret	
F 0x403a22
0x403a22:	pop	r12
0x403a24:	pop	r13
0x403a26:	ret	
F 0x40b0aa
0x40b0aa:	stc	
0x40b0ab:	shr	al, 5
0x40b0ae:	and	eax, 7
0x40b0b1:	mov	eax, dword ptr [rdx + rax*4]
0x40b0b4:	shr	eax, cl
0x40b0b6:	and	eax, 1
0x40b0b9:	ret	
F 0x4041db
0x4041db:	sete	al
0x4041de:	add	rsp, 8
0x4041e2:	pop	rbx
0x4041e3:	pop	rbp
0x4041e4:	pop	r12
0x4041e6:	pop	r13
0x4041e8:	ret	
F 0x40683d
0x40683d:	cmp	eax, 0xca55
0x406842:	add	byte ptr [rax - 0x77], cl
0x406845:	ret	
F 0x4048f6
0x4048f6:	jmp	0x404894
F 0x409463
0x402016:	ret	
F 0x409618
0x409212:	add	eax, 0x48c48348
0x409217:	ret	
F 0x408e59
0x408e59:	add	byte ptr [rax + 0xf], cl
0x408e5c:	clc	
0x408e5e:	mov	dword ptr [rdi], esi
0x408e60:	ret	
F 0x409074
0x402016:	ret	
F 0x406600
0x406600:	sal	byte ptr [rbp - 0x21], 0x5b
0x406604:	xor	eax, eax
0x406606:	pop	rbp
0x406607:	pop	r12
0x406609:	pop	r13
0x40660b:	pop	r14
0x40660d:	ret	
F 0x4096bd
0x402016:	ret	
F 0x406566
0x404898:	pop	rbx
0x404899:	pop	rbp
0x40489a:	ret	
F 0x40b0a9
0x40b0a9:	mov	ecx, edi
0x40b0ab:	shr	al, 5
0x40b0ae:	and	eax, 7
0x40b0b1:	mov	eax, dword ptr [rdx + rax*4]
0x40b0b4:	shr	eax, cl
0x40b0b6:	and	eax, 1
0x40b0b9:	ret	
F 0x407974
0x402016:	ret	
F 0x404201
0x404201:	add	rsp, 8
0x404205:	xor	eax, eax
0x404207:	pop	rbx
0x404208:	pop	rbp
0x404209:	pop	r12
0x40420b:	pop	r13
0x40420d:	ret	
F 0x4065fa
0x4065fa:	xchg	eax, edx
0x4065fb:	mov	ebp, 0x8548ffff
0x406600:	sal	byte ptr [rbp - 0x21], 0x5b
0x406604:	xor	eax, eax
0x406606:	pop	rbp
0x406607:	pop	r12
0x406609:	pop	r13
0x40660b:	pop	r14
0x40660d:	ret	
F 0x40a10b
0x40a10b:	add	byte ptr [rbp + 0xa], dh
0x40a10e:	add	rsp, 0xb0
0x40a115:	pop	r12
0x40a117:	ret	
F 0x409a44
0x409a44:	cmove	eax, ebx
0x409a47:	add	rsp, 8
0x409a4b:	pop	rbx
0x409a4c:	pop	rbp
0x409a4d:	ret	
F 0x40693a
0x4060e4:	pop	r12
0x4060e6:	pop	r13
0x4060e8:	pop	r14
0x4060ea:	ret	
F 0x403fdd
0x403fdd:	add	byte ptr [rax], al
0x403fdf:	add	rsp, 0x18
0x403fe3:	pop	rbx
0x403fe4:	pop	rbp
0x403fe5:	pop	r12
0x403fe7:	pop	r13
0x403fe9:	pop	r14
0x403feb:	pop	r15
0x403fed:	ret	
F 0x40a2cd
0x40a2cd:	add	rsp, 0x18
0x40a2d2:	pop	rbp
0x40a2d3:	pop	r12
0x40a2d5:	ret	
F 0x409a8c
0x409a8c:	inc	dword ptr [rcx + rcx*4 - 0x20]
0x409a90:	mov	dword ptr [rbx], r13d
0x409a93:	add	rsp, 8
0x409a97:	pop	rbx
0x409a98:	pop	rbp
0x409a99:	pop	r12
0x409a9b:	pop	r13
0x409a9d:	ret	
F 0x405c00
0x405c00:	or	byte ptr [rbx + 0x5d], bl
0x405c03:	ret	
F 0x40a1ca
0x402016:	ret	
F 0x403364
0x403364:	add	byte ptr [rbx + rcx*4 + 0x24], cl
0x403368:	ret	
F 0x406b9d
0x406b9d:	add	dword ptr [rcx + 0x43c62447], ecx
0x406ba3:	or	al, 1
0x406ba5:	pop	rbx
0x406ba6:	pop	rbp
0x406ba7:	pop	r12
0x406ba9:	ret	
F 0x4097f7
0x409210:	add	byte ptr [rbp + 5], dh
0x409213:	add	rsp, 0x48
0x409217:	ret	
F 0x408eb9
0x408eb9:	add	byte ptr [rax + 0xf], cl
0x408ebc:	clc	
0x408ebe:	mov	eax, dword ptr [rdi + 4]
0x408ec1:	mov	dword ptr [rdi + 4], esi
0x408ec4:	ret	
F 0x405daa
0x40365f:	pop	rbp
0x403660:	ret	
F 0x405d98
0x405d98:	add	rsp, 8
0x405d9c:	mov	r12d, 0xffffffff
0x405da2:	pop	rbx
0x405da3:	mov	eax, r12d
0x405da6:	pop	rbp
0x405da7:	pop	r12
0x405da9:	pop	r13
0x405dab:	ret	
F 0x406917
0x406917:	mov	bh, 0xff
0x406919:	dec	dword ptr [rax - 0x77]
0x40691c:	ret	
F 0x405b61
0x405b61:	add	byte ptr [rax], al
0x405b63:	add	al, byte ptr [rax]
0x405b65:	cmp	rax, 0x20001
0x405b6b:	cmovb	rax, rdx
0x405b6f:	mov	qword ptr [rdi + 0x18], rax
0x405b73:	ret	
F 0x40adc2
0x40adc2:	adc	eax, dword ptr [rbx + 0x48ef0065]
0x40adc8:	mov	dword ptr [rbp + 0x90], eax
0x40adce:	xor	eax, eax
0x40add0:	add	rsp, 0x10
0x40add4:	pop	rbp
0x40add5:	ret	
F 0x405967
0x405967:	ror	byte ptr [rax + 0xf], 0x4e
0x40596b:	ret	0x8348
F 0x407962
0x407962:	add	byte ptr [rax - 0x73], cl
0x407965:	adc	eax, 0x65a4
0x40796a:	cmovne	rax, rdx
0x40796e:	add	rsp, 8
0x407972:	pop	rbx
0x407973:	pop	rbp
0x407974:	ret	
F 0x4036a4
0x4036a4:	rol	byte ptr [rcx], 0x89
0x4036a7:	add	eax, 0xf964
0x4036ac:	mov	dword ptr [rip + 0xfa96], 1
0x4036b6:	ret	
F 0x405f69
0x405f69:	add	byte ptr [rbx + 0x5d], bl
0x405f6c:	pop	r12
0x405f6e:	pop	r13
0x405f70:	pop	r14
0x405f72:	pop	r15
0x405f74:	ret	
F 0x4053d9
0x402016:	ret	
F 0x406d22
0x406d22:	nop	
0x406d23:	ret	0x8548
F 0x40850c
0x407bcf:	xor	byte ptr [rcx - 0x77], cl
0x407bd2:	ret	
F 0x406c6d
0x405c99:	pop	rbx
0x405c9a:	pop	rbp
0x405c9b:	pop	r12
0x405c9d:	ret	
F 0x40910c
0x40910c:	add	eax, 0x9f63
0x409111:	add	dword ptr [rax], eax
0x409113:	add	byte ptr [rax], al
0x409115:	pop	rbx
0x409116:	pop	rbp
0x409117:	pop	r12
0x409119:	ret	
F 0x405e6d
0x405e6d:	nop	dword ptr [rax]
0x405e70:	mov	dword ptr [rbx + 0x18], ebp
0x405e73:	add	rsp, 8
0x405e77:	mov	eax, 0xffffffff
0x405e7c:	pop	rbx
0x405e7d:	pop	rbp
0x405e7e:	ret	
F 0x409ece
0x4028c1:	pop	r13
0x4028c3:	pop	r14
0x4028c5:	pop	r15
0x4028c7:	ret	
F 0x4037c1
0x4028be:	pop	rbp
0x4028bf:	pop	r12
0x4028c1:	pop	r13
0x4028c3:	pop	r14
0x4028c5:	pop	r15
0x4028c7:	ret	
F 0x40a372
0x402016:	ret	
F 0x4047b4
0x4047b4:	mov	dword ptr [rip + 0xe856], eax
0x4047ba:	ret	
F 0x40ad23
0x402016:	ret	
F 0x40af78
0x40af78:	adc	eax, 0x3da3
0x40af7d:	cmove	rax, rdx
0x40af81:	add	rsp, 8
0x40af85:	ret	
F 0x404f42
0x404f42:	add	byte ptr [rcx + 0x5a], al
0x404f45:	pop	r11
0x404f47:	jmp	0x404b0f
F 0x4078a5
0x4078a5:	sbb	eax, 0xb9fe
0x4078aa:	mov	qword ptr [rip + 0xb837], rbx
0x4078b1:	pop	rbx
0x4078b2:	ret	
F 0x409939
0x409210:	add	byte ptr [rbp + 5], dh
0x409213:	add	rsp, 0x48
0x409217:	ret	
F 0x403781
0x402016:	ret	
F 0x40b0ad
0x40b0ad:	add	eax, 0x8b07e083
0x40b0b2:	add	al, 0x82
0x40b0b4:	shr	eax, cl
0x40b0b6:	and	eax, 1
0x40b0b9:	ret	
F 0x40ae8b
0x402016:	ret	
F 0x40b0a8
0x40b0a8:	add	byte ptr [rcx + 0x5e8c0f9], cl
0x40b0ae:	and	eax, 7
0x40b0b1:	mov	eax, dword ptr [rdx + rax*4]
0x40b0b4:	shr	eax, cl
0x40b0b6:	and	eax, 1
0x40b0b9:	ret	
F 0x40afbf
0x40afbf:	add	rax, 0x10
0x40afc3:	mov	rcx, rax
0x40afc6:	sub	rcx, rdx
0x40afc9:	mov	byte ptr [rax - 1], cl
0x40afcc:	add	rsp, 8
0x40afd0:	ret	
F 0x40a63d
0x4028c3:	pop	r14
0x4028c5:	pop	r15
0x4028c7:	ret	
F 0x406b1c
0x406b1c:	pop	rsi
0x406b1d:	pop	rbp
0x406b1e:	ret	
F 0x405cec
0x405cec:	add	bl, 0xff
0x405cef:	dec	dword ptr [rax - 0x77]
0x405cf2:	ret	
F 0x40af7f
0x40af7f:	ret	0x8348
F 0x408b47
0x408b47:	add	byte ptr [rax], al
0x408b49:	add	byte ptr [rcx + rcx*4 - 8], cl
0x408b4d:	pop	rbx
0x408b4e:	pop	rbp
0x408b4f:	pop	r12
0x408b51:	pop	r13
0x408b53:	pop	r14
0x408b55:	pop	r15
0x408b57:	ret	
F 0x40a250
0x40a250:	add	rsp, 0x18
0x40a254:	pop	rbp
0x40a255:	pop	r12
0x40a257:	ret	
F 0x407972
0x404898:	pop	rbx
0x404899:	pop	rbp
0x40489a:	ret	
F 0x403b1d
0x403a24:	pop	r13
0x403a26:	ret	
F 0x4092a2
0x409216:	ret	
F 0x405e0f
0x4059bf:	pop	r12
0x4059c1:	ret	
F 0x405f67
0x405f67:	add	al, byte ptr [rax]
0x405f69:	add	byte ptr [rbx + 0x5d], bl
0x405f6c:	pop	r12
0x405f6e:	pop	r13
0x405f70:	pop	r14
0x405f72:	pop	r15
0x405f74:	ret	
F 0x4059bf
0x4059bf:	pop	r12
0x4059c1:	ret	
F 0x406c41
0x406c41:	mov	dword ptr [rbx + 0x18], 1
0x406c48:	mov	byte ptr [rbx + 0x20], 0
0x406c4c:	mov	byte ptr [rbx + 0xc], 1
0x406c50:	pop	rbx
0x406c51:	pop	rbp
0x406c52:	pop	r12
0x406c54:	ret	
F 0x4069b3
0x402016:	ret	
F 0x40b23f
0x40b23f:	pop	rax
0x40b240:	mov	rax, r12
0x40b243:	pop	rbx
0x40b244:	pop	rbp
0x40b245:	pop	r12
0x40b247:	pop	r13
0x40b249:	ret	
F 0x4028c6
0x4028c6:	pop	rdi
0x4028c7:	ret	
F 0x408db9
0x4028bd:	pop	rbx
0x4028be:	pop	rbp
0x4028bf:	pop	r12
0x4028c1:	pop	r13
0x4028c3:	pop	r14
0x4028c5:	pop	r15
0x4028c7:	ret	
F 0x409e15
0x408f75:	add	rsp, 0x38
0x408f79:	pop	rbx
0x408f7a:	pop	rbp
0x408f7b:	pop	r12
0x408f7d:	pop	r13
0x408f7f:	pop	r14
0x408f81:	pop	r15
0x408f83:	ret	
F 0x4048e5
0x4048e5:	pop	rdx
0x4048e6:	mov	eax, dword ptr [rsp + 0xc]
0x4048ea:	add	rsp, 0x18
0x4048ee:	pop	rbx
0x4048ef:	pop	rbp
0x4048f0:	ret	
F 0x407403
0x407403:	add	byte ptr [rax - 0x7d], cl
0x407406:	and	al, 8
0x407409:	add	dword ptr [rax - 0x7d], ecx
0x40740c:	ret	
F 0x4078af
0x407893:	add	byte ptr [rax], al
0x407895:	pop	rbx
0x407896:	ret	
F 0x405e76
0x405e76:	or	byte ptr [rax - 1], bh
0x405e7c:	pop	rbx
0x405e7d:	pop	rbp
0x405e7e:	ret	
F 0x406c66
0x406c66:	mov	dword ptr [rbx + 0x18], eax
0x406c69:	mov	byte ptr [rbx + 0xc], 1
0x406c6d:	pop	rbx
0x406c6e:	pop	rbp
0x406c6f:	pop	r12
0x406c71:	ret	
F 0x408e1f
0x408e1f:	and	ebx, dword ptr [rbx + 0x5d]
0x408e22:	pop	r12
0x408e24:	ret	
F 0x4061e0
0x4061e0:	test	rax, rax
0x4061e3:	setne	al
0x4061e6:	add	rsp, 8
0x4061ea:	ret	
F 0x4057db
0x402016:	ret	
F 0x403a1c
0x403a1c:	add	rsp, 8
0x403a20:	pop	rbx
0x403a21:	pop	rbp
0x403a22:	pop	r12
0x403a24:	pop	r13
0x403a26:	ret	
F 0x409c6b
0x4028be:	pop	rbp
0x4028bf:	pop	r12
0x4028c1:	pop	r13
0x4028c3:	pop	r14
0x4028c5:	pop	r15
0x4028c7:	ret	
F 0x404f58
0x402016:	ret	
F 0x406934
0x406934:	xor	ecx, dword ptr [rcx + rcx*4 - 0x20]
0x406938:	pop	rbx
0x406939:	pop	rbp
0x40693a:	pop	r12
0x40693c:	pop	r13
0x40693e:	pop	r14
0x406940:	ret	
F 0x40410c
0x40410c:	add	byte ptr [rax - 0x7d], cl
0x40410f:	ret	
F 0x40b01c
0x40365f:	pop	rbp
0x403660:	ret	
F 0x40acf2
0x40acf2:	push	rdi
0x40acf3:	add	rax, rdx
0x40acf7:	ret	
F 0x40afc5
0x40afc5:	ror	dword ptr [rax + 0x29], 0xd1
0x40afc9:	mov	byte ptr [rax - 1], cl
0x40afcc:	add	rsp, 8
0x40afd0:	ret	
F 0x406b1e
0x402016:	ret	
F 0x408e51
0x408e51:	test	edi, edi
0x408e53:	lea	rax, [rip + 0xa566]
0x408e5a:	cmove	rdi, rax
0x408e5e:	mov	dword ptr [rdi], esi
0x408e60:	ret	
F 0x406b1b
0x406b1b:	pop	r14
0x406b1d:	pop	rbp
0x406b1e:	ret	
F 0x408dbe
0x4028c2:	pop	rbp
0x4028c3:	pop	r14
0x4028c5:	pop	r15
0x4028c7:	ret	
F 0x405dd0
0x405c99:	pop	rbx
0x405c9a:	pop	rbp
0x405c9b:	pop	r12
0x405c9d:	ret	
F 0x405872
0x405872:	mov	dword ptr [rbp + 0x38], eax
0x405875:	add	rsp, 8
0x405879:	pop	rbx
0x40587a:	pop	rbp
0x40587b:	pop	r12
0x40587d:	pop	r13
0x40587f:	pop	r14
0x405881:	pop	r15
0x405883:	ret	
F 0x40aff4
0x402012:	add	rsp, 8
0x402016:	ret	
F 0x405883
0x402016:	ret	
F 0x40afc6
0x40afc6:	sub	rcx, rdx
0x40afc9:	mov	byte ptr [rax - 1], cl
0x40afcc:	add	rsp, 8
0x40afd0:	ret	
F 0x40a36d
0x40a206:	add	eax, 0x8c48348
0x40a20b:	ret	
F 0x405b6c
0x405b6c:	cmovb	eax, edx
0x405b6f:	mov	qword ptr [rdi + 0x18], rax
0x405b73:	ret	
F 0x40b01b
0x40b01b:	add	al, 0x5d
0x40b01d:	ret	
F 0x408258
0x408258:	ror	byte ptr [rax - 0x7d], 0x7c
0x40825c:	and	al, 0x50
0x40825e:	add	byte ptr [rdi], cl
0x408260:	xchg	eax, ebp
0x408261:	ret	0xd020
F 0x4066d1
0x4066d1:	mov	eax, r8d
0x4066d4:	pop	rbx
0x4066d5:	pop	rbp
0x4066d6:	ret	
F 0x406811
0x406811:	mov	byte ptr [rip + 0xca81], bh
0x406817:	ret	
F 0x403b1e
0x40365f:	pop	rbp
0x403660:	ret	
F 0x406562
0x404894:	add	rsp, 0x18
0x404898:	pop	rbx
0x404899:	pop	rbp
0x40489a:	ret	
F 0x406b1d
0x40365f:	pop	rbp
0x403660:	ret	
F 0x4069aa
0x4069aa:	add	byte ptr [rax], al
0x4069ac:	add	byte ptr [rbp + 0x2a], dh
0x4069af:	add	rsp, 0x58
0x4069b3:	ret	
F 0x4048ed
0x404897:	sbb	byte ptr [rbx + 0x5d], bl
0x40489a:	ret	
F 0x4061bd
0x4061bd:	add	eax, 0xd0ba
0x4061c2:	add	byte ptr [rax], al
0x4061c4:	add	byte ptr [rax], al
0x4061c6:	add	rsp, 8
0x4061ca:	ret	
F 0x405e70
0x405e70:	mov	dword ptr [rbx + 0x18], ebp
0x405e73:	add	rsp, 8
0x405e77:	mov	eax, 0xffffffff
0x405e7c:	pop	rbx
0x405e7d:	pop	rbp
0x405e7e:	ret	
F 0x405e0c
0x405e0c:	or	byte ptr [rbx + 0x5d], bl
0x405e0f:	pop	r12
0x405e11:	ret	
F 0x4067ff
0x4067ff:	nop	
0x406800:	mov	qword ptr [rip + 0xca99], rdi
0x406807:	ret	
F 0x40a113
0x40a113:	add	byte ptr [rax], al
0x40a115:	pop	r12
0x40a117:	ret	
F 0x408e93
0x408e93:	clc	
0x408e94:	shr	eax, cl
0x408e96:	xor	edx, eax
0x408e98:	and	eax, 1
0x408e9b:	and	edx, 1
0x408e9e:	shl	edx, cl
0x408ea0:	xor	edx, edi
0x408ea2:	mov	dword ptr [rsi], edx
0x408ea4:	ret	
F 0x403b12
0x403b12:	add	rsp, 8
0x403b16:	mov	rax, r12
0x403b19:	pop	rbx
0x403b1a:	pop	rbp
0x403b1b:	pop	r12
0x403b1d:	pop	r13
0x403b1f:	ret	
F 0x4072e8
0x4028bf:	pop	r12
0x4028c1:	pop	r13
0x4028c3:	pop	r14
0x4028c5:	pop	r15
0x4028c7:	ret	
F 0x409ec2
0x409ec2:	add	rsp, 0x20
0x409ec6:	add	rsp, 0x38
0x409eca:	pop	rbx
0x409ecb:	pop	rbp
0x409ecc:	pop	r12
0x409ece:	pop	r13
0x409ed0:	pop	r14
0x409ed2:	pop	r15
0x409ed4:	ret	
F 0x40aeaa
0x40aeaa:	mov	dh, 0xc0
0x40aeac:	neg	eax
0x40aeae:	pop	rbx
0x40aeaf:	pop	rbp
0x40aeb0:	pop	r12
0x40aeb2:	ret	
F 0x40af8f
0x40af8f:	add	byte ptr [rax - 0x73], cl
0x40af92:	add	eax, 0x3d89
0x40af97:	add	rsp, 8
0x40af9b:	ret	
F 0x4067fe
0x4067fe:	nop	
0x406800:	mov	qword ptr [rip + 0xca99], rdi
0x406807:	ret	
F 0x40b241
0x403b17:	mov	eax, esp
0x403b19:	pop	rbx
0x403b1a:	pop	rbp
0x403b1b:	pop	r12
0x403b1d:	pop	r13
0x403b1f:	ret	
F 0x408db8
0x408b4c:	clc	
0x408b4d:	pop	rbx
0x408b4e:	pop	rbp
0x408b4f:	pop	r12
0x408b51:	pop	r13
0x408b53:	pop	r14
0x408b55:	pop	r15
0x408b57:	ret	
F 0x40512a
0x40512a:	add	byte ptr [rax], al
0x40512c:	add	byte ptr [rax], al
0x40512e:	nop	
0x405130:	xor	eax, eax
0x405132:	ret	
F 0x409c70
0x4028c3:	pop	r14
0x4028c5:	pop	r15
0x4028c7:	ret	
F 0x4070a2
0x402016:	ret	
F 0x4078b1
0x407895:	pop	rbx
0x407896:	ret	
F 0x405f66
0x405f66:	sub	byte ptr [rdx], al
0x405f68:	add	byte ptr [rax], al
0x405f6a:	pop	rbx
0x405f6b:	pop	rbp
0x405f6c:	pop	r12
0x405f6e:	pop	r13
0x405f70:	pop	r14
0x405f72:	pop	r15
0x405f74:	ret	
F 0x403b19
0x403a20:	pop	rbx
0x403a21:	pop	rbp
0x403a22:	pop	r12
0x403a24:	pop	r13
0x403a26:	ret	
F 0x406e57
0x402016:	ret	
F 0x4028be
0x4028be:	pop	rbp
0x4028bf:	pop	r12
0x4028c1:	pop	r13
0x4028c3:	pop	r14
0x4028c5:	pop	r15
0x4028c7:	ret	
F 0x40457e
0x40457e:	mov	eax, r12d
0x404581:	pop	rbx
0x404582:	pop	rbp
0x404583:	pop	r12
0x404585:	pop	r13
0x404587:	ret	
F 0x404587
0x402016:	ret	
F 0x4076af
0x407403:	add	byte ptr [rax - 0x7d], cl
0x407406:	and	al, 8
0x407409:	add	dword ptr [rax - 0x7d], ecx
0x40740c:	ret	
F 0x406367
0x406367:	add	byte ptr [rcx], dh
0x406369:	dec	dword ptr [rax - 0x77]
0x40636c:	ret	
F 0x40af91
0x40af91:	lea	eax, [rip + 0x3d89]
0x40af97:	add	rsp, 8
0x40af9b:	ret	
F 0x405bfd
0x405bfd:	add	rsp, 8
0x405c01:	pop	rbx
0x405c02:	pop	rbp
0x405c03:	ret	
F 0x4057d8
0x4057d8:	add	dword ptr [rax - 0x7d], ecx
0x4057db:	ret	
F 0x40acf3
0x40acf3:	add	rax, rdx
0x40acf7:	ret	
F 0x404b17
0x4028be:	pop	rbp
0x4028bf:	pop	r12
0x4028c1:	pop	r13
0x4028c3:	pop	r14
0x4028c5:	pop	r15
0x4028c7:	ret	
F 0x40acf4
0x40acf4:	add	rax, rdx
0x40acf7:	ret	
F 0x407d87
0x407d87:	ret	0xf40
F 0x407bd2
0x402016:	ret	
F 0x4066d2
0x4066d2:	mov	eax, eax
0x4066d4:	pop	rbx
0x4066d5:	pop	rbp
0x4066d6:	ret	
F 0x409adf
0x40410c:	add	byte ptr [rax - 0x7d], cl
0x40410f:	ret	
F 0x406c2f
0x406c2f:	add	eax, dword ptr [rax]
0x406c31:	mov	byte ptr [rbx + 0xc], 1
0x406c35:	pop	rbx
0x406c36:	pop	rbp
0x406c37:	pop	r12
0x406c39:	ret	
F 0x405965
0x405965:	test	rax, rax
0x405968:	cmovle	rax, rdx
0x40596c:	add	rsp, 8
0x405970:	ret	
F 0x408dc2
0x4028c6:	pop	rdi
0x4028c7:	ret	
F 0x40b34f
0x403a21:	pop	rbp
0x403a22:	pop	r12
0x403a24:	pop	r13
0x403a26:	ret	
F 0x409ace
0x409ace:	adc	eax, 0x5be08944
0x409ad3:	pop	rbp
0x409ad4:	pop	r12
0x409ad6:	ret	
F 0x407938
0x407938:	cmovne	eax, edx
0x40793b:	add	rsp, 8
0x40793f:	pop	rbx
0x407940:	pop	rbp
0x407941:	ret	
F 0x40ad56
0x404894:	add	rsp, 0x18
0x404898:	pop	rbx
0x404899:	pop	rbp
0x40489a:	ret	
F 0x409a4a
0x405c00:	or	byte ptr [rbx + 0x5d], bl
0x405c03:	ret	
F 0x409a3e
0x409a3e:	rol	byte ptr [rcx], 0x48
0x409a41:	test	edx, edx
0x409a43:	cmove	rax, rbx
0x409a47:	add	rsp, 8
0x409a4b:	pop	rbx
0x409a4c:	pop	rbp
0x409a4d:	ret	
F 0x4065e5
0x4065e5:	add	byte ptr [rbx + 0x5d], bl
0x4065e8:	pop	r12
0x4065ea:	pop	r13
0x4065ec:	pop	r14
0x4065ee:	ret	
F 0x405c02
0x40365f:	pop	rbp
0x403660:	ret	
F 0x409a18
0x403a21:	pop	rbp
0x403a22:	pop	r12
0x403a24:	pop	r13
0x403a26:	ret	
F 0x407886
0x407886:	add	byte ptr [rax - 0x77], cl
0x407889:	sbb	eax, 0xba1a
0x40788e:	mov	qword ptr [rip + 0xb853], rbx
0x407895:	pop	rbx
0x407896:	ret	
F 0x40639e
0x405c9a:	pop	rbp
0x405c9b:	pop	r12
0x405c9d:	ret	
F 0x402bda
0x402bda:	add	byte ptr [rax + 0x39], cl
0x402bdd:	ror	byte ptr [rax + 0xf], 1
0x402be0:	ret	0x8948
F 0x408e98
0x408e98:	and	eax, 1
0x408e9b:	and	edx, 1
0x408e9e:	shl	edx, cl
0x408ea0:	xor	edx, edi
0x408ea2:	mov	dword ptr [rsi], edx
0x408ea4:	ret	
F 0x405b69
0x405b69:	add	al, byte ptr [rax]
0x405b6b:	cmovb	rax, rdx
0x405b6f:	mov	qword ptr [rdi + 0x18], rax
0x405b73:	ret	
F 0x405abd
0x402016:	ret	
F 0x409a3d
0x409a3d:	add	eax, 1
0x409a40:	test	rdx, rdx
0x409a43:	cmove	rax, rbx
0x409a47:	add	rsp, 8
0x409a4b:	pop	rbx
0x409a4c:	pop	rbp
0x409a4d:	ret	
F 0x40ad59
0x404897:	sbb	byte ptr [rbx + 0x5d], bl
0x40489a:	ret	
F 0x405ab7
0x403a20:	pop	rbx
0x403a21:	pop	rbp
0x403a22:	pop	r12
0x403a24:	pop	r13
0x403a26:	ret	
F 0x4037c2
0x4028bf:	pop	r12
0x4028c1:	pop	r13
0x4028c3:	pop	r14
0x4028c5:	pop	r15
0x4028c7:	ret	
F 0x409a8d
0x409a8d:	mov	eax, r12d
0x409a90:	mov	dword ptr [rbx], r13d
0x409a93:	add	rsp, 8
0x409a97:	pop	rbx
0x409a98:	pop	rbp
0x409a99:	pop	r12
0x409a9b:	pop	r13
0x409a9d:	ret	
F 0x40639c
0x40639c:	pop	rdx
0x40639d:	pop	rbx
0x40639e:	pop	rbp
0x40639f:	pop	r12
0x4063a1:	ret	
F 0x409937
0x40920e:	add	byte ptr [rax], al
0x409210:	add	byte ptr [rbp + 5], dh
0x409213:	add	rsp, 0x48
0x409217:	ret	
F 0x409213
0x409213:	add	rsp, 0x48
0x409217:	ret	
F 0x40365e
0x40365e:	add	dword ptr [rbp - 0x3d], ebx
0x403661:	nop	dword ptr [rax]
0x403668:	ret	
F 0x4035e1
0x4035e1:	nop	dword ptr [rax]
0x4035e8:	ret	
F 0x404b14
0x404b14:	mov	eax, ebp
0x404b16:	pop	rbx
0x404b17:	pop	rbp
0x404b18:	pop	r12
0x404b1a:	pop	r13
0x404b1c:	pop	r14
0x404b1e:	pop	r15
0x404b20:	ret	
F 0x408eff
0x408eff:	mov	dword ptr [rdi + 0x30], edx
0x408f02:	add	rsp, 8
0x408f06:	ret	
F 0x4041e4
0x403a22:	pop	r12
0x403a24:	pop	r13
0x403a26:	ret	
F 0x40af40
0x402016:	ret	
F 0x406940
0x402016:	ret	
F 0x405ac3
0x405ac3:	or	byte ptr [rax + 1], bh
0x405ac9:	pop	rbx
0x405aca:	pop	rbp
0x405acb:	pop	r12
0x405acd:	pop	r13
0x405acf:	ret	
F 0x4048e6
0x4048e6:	mov	eax, dword ptr [rsp + 0xc]
0x4048ea:	add	rsp, 0x18
0x4048ee:	pop	rbx
0x4048ef:	pop	rbp
0x4048f0:	ret	
F 0x403a43
0x402016:	ret	
F 0x404585
0x403a24:	pop	r13
0x403a26:	ret	
F 0x405add
0x403a24:	pop	r13
0x403a26:	ret	
F 0x40ae42
0x402016:	ret	
F 0x40b3a0
0x403a24:	pop	r13
0x403a26:	ret	
F 0x40796d
0x405263:	ret	0x8348
F 0x406ba5
0x405c99:	pop	rbx
0x405c9a:	pop	rbp
0x405c9b:	pop	r12
0x405c9d:	ret	
F 0x4060ea
0x402016:	ret	
F 0x409614
0x40920e:	add	byte ptr [rax], al
0x409210:	add	byte ptr [rbp + 5], dh
0x409213:	add	rsp, 0x48
0x409217:	ret	
F 0x40af90
0x40af90:	lea	rax, [rip + 0x3d89]
0x40af97:	add	rsp, 8
0x40af9b:	ret	
F 0x40a028
0x40a028:	add	byte ptr [rbp + 5], dh
0x40a02b:	add	rsp, 0x68
0x40a02f:	ret	
F 0x4030e5
0x402016:	ret	
F 0x40932a
0x40920e:	add	byte ptr [rax], al
0x409210:	add	byte ptr [rbp + 5], dh
0x409213:	add	rsp, 0x48
0x409217:	ret	
F 0x4036b6
0x402016:	ret	
F 0x40a36e
0x402012:	add	rsp, 8
0x402016:	ret	
F 0x405ffd
0x405ffd:	add	byte ptr [rax], al
0x405fff:	add	byte ptr [rbp + 0x4f], dh
0x406002:	add	rsp, 0x28
0x406006:	pop	rbx
0x406007:	pop	r12
0x406009:	ret	
F 0x409acf
0x405dcd:	mov	eax, r12d
0x405dd0:	pop	rbx
0x405dd1:	pop	rbp
0x405dd2:	pop	r12
0x405dd4:	ret	
F 0x405aad
0x405aad:	and	al, 0x50
0x405aaf:	add	byte ptr [rax], al
0x405ab1:	add	byte ptr [rax], al
0x405ab3:	add	rsp, 8
0x405ab7:	pop	rbx
0x405ab8:	pop	rbp
0x405ab9:	pop	r12
0x405abb:	pop	r13
0x405abd:	ret	
F 0x40639f
0x4059bf:	pop	r12
0x4059c1:	ret	
F 0x40b077
0x405c00:	or	byte ptr [rbx + 0x5d], bl
0x405c03:	ret	
F 0x409216
0x409216:	ret	
F 0x408710
0x4057d8:	add	dword ptr [rax - 0x7d], ecx
0x4057db:	ret	
F 0x407883
0x407883:	sbb	dword ptr [rax - 0x76b80000], edi
0x407889:	sbb	eax, 0xba1a
0x40788e:	mov	qword ptr [rip + 0xb853], rbx
0x407895:	pop	rbx
0x407896:	ret	
F 0x409500
0x409213:	add	rsp, 0x48
0x409217:	ret	
F 0x406c2d
0x406c2d:	inc	esi
0x406c2f:	add	eax, dword ptr [rax]
0x406c31:	mov	byte ptr [rbx + 0xc], 1
0x406c35:	pop	rbx
0x406c36:	pop	rbp
0x406c37:	pop	r12
0x406c39:	ret	
F 0x4066f8
0x4066f8:	shr	cl, 0x22
0x4066fb:	add	byte ptr [r8], al
0x4066fe:	nop	
0x406700:	mov	qword ptr [rip + 0xcb89], rdi
0x406707:	ret	
F 0x405e0b
0x405e0b:	push	rbx
0x405e0c:	or	byte ptr [rbx + 0x5d], bl
0x405e0f:	pop	r12
0x405e11:	ret	
F 0x40a3ff
0x40a250:	add	rsp, 0x18
0x40a254:	pop	rbp
0x40a255:	pop	r12
0x40a257:	ret	
F 0x40367f
0x40367f:	nop	
0x403680:	ret	
F 0x405e6a
0x404898:	pop	rbx
0x404899:	pop	rbp
0x40489a:	ret	
F 0x405dc4
0x405dc4:	add	byte ptr [rbx + 0xe7401e0], al
0x405dca:	xor	r12d, r12d
0x405dcd:	mov	eax, r12d
0x405dd0:	pop	rbx
0x405dd1:	pop	rbp
0x405dd2:	pop	r12
0x405dd4:	ret	
F 0x405d5e
0x403a24:	pop	r13
0x403a26:	ret	
F 0x409e1d
0x4028c1:	pop	r13
0x4028c3:	pop	r14
0x4028c5:	pop	r15
0x4028c7:	ret	
F 0x408efe
0x408efe:	mov	qword ptr [rdi + 0x30], rdx
0x408f02:	add	rsp, 8
0x408f06:	ret	
F 0x406c54
0x402016:	ret	
F 0x4068f6
0x4060e3:	pop	rbp
0x4060e4:	pop	r12
0x4060e6:	pop	r13
0x4060e8:	pop	r14
0x4060ea:	ret	
F 0x4078a0
0x4078a0:	mov	rbx, r8
0x4078a3:	mov	qword ptr [rip + 0xb9fe], rbx
0x4078aa:	mov	qword ptr [rip + 0xb837], rbx
0x4078b1:	pop	rbx
0x4078b2:	ret	
F 0x405ac8
0x405ac8:	add	byte ptr [rbx + 0x5d], bl
0x405acb:	pop	r12
0x405acd:	pop	r13
0x405acf:	ret	
F 0x4061ea
0x402016:	ret	
F 0x408efb
0x408efb:	mov	dword ptr [rdi + 0x28], esi
0x408efe:	mov	qword ptr [rdi + 0x30], rdx
0x408f02:	add	rsp, 8
0x408f06:	ret	
F 0x406817
0x402016:	ret	
F 0x40365a
0x40365a:	test	eax, 0x10000fa
0x40365f:	pop	rbp
0x403660:	ret	
F 0x405ab3
0x403a1c:	add	rsp, 8
0x403a20:	pop	rbx
0x403a21:	pop	rbp
0x403a22:	pop	r12
0x403a24:	pop	r13
0x403a26:	ret	
F 0x40a637
0x4028bd:	pop	rbx
0x4028be:	pop	rbp
0x4028bf:	pop	r12
0x4028c1:	pop	r13
0x4028c3:	pop	r14
0x4028c5:	pop	r15
0x4028c7:	ret	
F 0x406453
0x406453:	add	rsp, 0x18
0x406458:	pop	rbx
0x406459:	pop	rbp
0x40645a:	pop	r12
0x40645c:	pop	r13
0x40645e:	ret	
F 0x40b43b
0x4028c6:	pop	rdi
0x4028c7:	ret	
F 0x40acf5
0x40acf5:	add	eax, edx
0x40acf7:	ret	
F 0x4048e7
0x4048e7:	and	al, 0xc
0x4048ea:	add	rsp, 0x18
0x4048ee:	pop	rbx
0x4048ef:	pop	rbp
0x4048f0:	ret	
F 0x406c33
0x406ba3:	or	al, 1
0x406ba5:	pop	rbx
0x406ba6:	pop	rbp
0x406ba7:	pop	r12
0x406ba9:	ret	
F 0x4064c5
0x404075:	add	byte ptr [rax], al
0x404077:	add	al, ch
0x404079:	ret	
F 0x4037bc
0x4037bc:	add	rsp, 0x28
0x4037c0:	pop	rbx
0x4037c1:	pop	rbp
0x4037c2:	pop	r12
0x4037c4:	pop	r13
0x4037c6:	pop	r14
0x4037c8:	pop	r15
0x4037ca:	ret	
F 0x408dbf
0x4028c3:	pop	r14
0x4028c5:	pop	r15
0x4028c7:	ret	
F 0x405abf
0x405abf:	nop	
0x405ac0:	add	rsp, 8
0x405ac4:	mov	eax, 1
0x405ac9:	pop	rbx
0x405aca:	pop	rbp
0x405acb:	pop	r12
0x405acd:	pop	r13
0x405acf:	ret	
F 0x405f63
0x405f63:	add	rsp, 0x228
0x405f6a:	pop	rbx
0x405f6b:	pop	rbp
0x405f6c:	pop	r12
0x405f6e:	pop	r13
0x405f70:	pop	r14
0x405f72:	pop	r15
0x405f74:	ret	
F 0x40b353
0x40365f:	pop	rbp
0x403660:	ret	
F 0x4036a8
0x4036a8:	stc	
0x4036aa:	add	byte ptr [rax], al
0x4036ac:	mov	dword ptr [rip + 0xfa96], 1
0x4036b6:	ret	
F 0x4035e4
0x4035e4:	add	byte ptr [rax], al
0x4035e6:	add	byte ptr [rax], al
0x4035e8:	ret	
F 0x40692f
0x40692f:	mov	ecx, 0x8944ffff
0x406934:	xor	ecx, dword ptr [rcx + rcx*4 - 0x20]
0x406938:	pop	rbx
0x406939:	pop	rbp
0x40693a:	pop	r12
0x40693c:	pop	r13
0x40693e:	pop	r14
0x406940:	ret	
F 0x406606
0x4060e3:	pop	rbp
0x4060e4:	pop	r12
0x4060e6:	pop	r13
0x4060e8:	pop	r14
0x4060ea:	ret	
F 0x40b247
0x403a24:	pop	r13
0x403a26:	ret	
F 0x405f74
0x402016:	ret	
F 0x405ad9
0x403a20:	pop	rbx
0x403a21:	pop	rbp
0x403a22:	pop	r12
0x403a24:	pop	r13
0x403a26:	ret	
F 0x40b390
0x40b390:	mov	byte ptr [rsp + rbx - 1], 0
0x40b395:	add	rsp, 8
0x40b399:	mov	eax, r13d
0x40b39c:	pop	rbx
0x40b39d:	pop	rbp
0x40b39e:	pop	r12
0x40b3a0:	pop	r13
0x40b3a2:	ret	
F 0x40587f
0x4028c3:	pop	r14
0x4028c5:	pop	r15
0x4028c7:	ret	
F 0x406c36
0x405c9a:	pop	rbp
0x405c9b:	pop	r12
0x405c9d:	ret	
F 0x405ade
0x40365f:	pop	rbp
0x403660:	ret	
F 0x404b16
0x4028bd:	pop	rbx
0x4028be:	pop	rbp
0x4028bf:	pop	r12
0x4028c1:	pop	r13
0x4028c3:	pop	r14
0x4028c5:	pop	r15
0x4028c7:	ret	
F 0x406567
0x40365f:	pop	rbp
0x403660:	ret	
F 0x408ec1
0x408ec1:	mov	dword ptr [rdi + 4], esi
0x408ec4:	ret	
F 0x409112
0x409112:	add	byte ptr [rax], al
0x409114:	add	byte ptr [rbx + 0x5d], bl
0x409117:	pop	r12
0x409119:	ret	
F 0x406e51
0x406e51:	pop	rbp
0x406e52:	pop	r14
0x406e54:	pop	r15
0x406e56:	pop	rbp
0x406e57:	ret	
F 0x409ed0
0x4028c3:	pop	r14
0x4028c5:	pop	r15
0x4028c7:	ret	
F 0x409ecc
0x4028bf:	pop	r12
0x4028c1:	pop	r13
0x4028c3:	pop	r14
0x4028c5:	pop	r15
0x4028c7:	ret	
F 0x405aae
0x405aae:	push	rax
0x405aaf:	add	byte ptr [rax], al
0x405ab1:	add	byte ptr [rax], al
0x405ab3:	add	rsp, 8
0x405ab7:	pop	rbx
0x405ab8:	pop	rbp
0x405ab9:	pop	r12
0x405abb:	pop	r13
0x405abd:	ret	
F 0x409a0e
0x409a0e:	leave	
0x409a0f:	nop	
0x409a10:	add	rsp, 8
0x409a14:	mov	rax, r12
0x409a17:	pop	rbx
0x409a18:	pop	rbp
0x409a19:	pop	r12
0x409a1b:	pop	r13
0x409a1d:	ret	
F 0x405ad3
0x405ad3:	or	byte ptr [rax + 2], bh
0x405ad9:	pop	rbx
0x405ada:	pop	rbp
0x405adb:	pop	r12
0x405add:	pop	r13
0x405adf:	ret	
F 0x408e09
0x402016:	ret	
F 0x40af74
0x40af74:	cmp	byte ptr [rax], al
0x40af76:	lea	rdx, [rip + 0x3da3]
0x40af7d:	cmove	rax, rdx
0x40af81:	add	rsp, 8
0x40af85:	ret	
F 0x408db7
0x408b4b:	mov	eax, edi
0x408b4d:	pop	rbx
0x408b4e:	pop	rbp
0x408b4f:	pop	r12
0x408b51:	pop	r13
0x408b53:	pop	r14
0x408b55:	pop	r15
0x408b57:	ret	
F 0x404f41
0x404f41:	add	byte ptr [rax], al
0x404f43:	pop	r10
0x404f45:	pop	r11
0x404f47:	jmp	0x404b0f
F 0x40929c
0x409210:	add	byte ptr [rbp + 5], dh
0x409213:	add	rsp, 0x48
0x409217:	ret	
F 0x40693d
0x4060e7:	pop	rbp
0x4060e8:	pop	r14
0x4060ea:	ret	
F 0x406c50
0x405c99:	pop	rbx
0x405c9a:	pop	rbp
0x405c9b:	pop	r12
0x405c9d:	ret	
F 0x40945f
0x409213:	add	rsp, 0x48
0x409217:	ret	
F 0x4098a3
0x409216:	ret	
F 0x404e12
0x402016:	ret	
F 0x405226
0x405226:	mov	eax, 1
0x40522b:	cmovne	rax, rcx
0x40522f:	ret	
F 0x40af85
0x402016:	ret	
F 0x4079b0
0x407939:	ret	0x8348
F 0x403fea
0x4028c4:	pop	rsi
0x4028c5:	pop	r15
0x4028c7:	ret	
F 0x405e7e
0x402016:	ret	
F 0x40645a
0x403a22:	pop	r12
0x403a24:	pop	r13
0x403a26:	ret	
F 0x405b66
0x405b66:	cmp	eax, 0x20001
0x405b6b:	cmovb	rax, rdx
0x405b6f:	mov	qword ptr [rdi + 0x18], rax
0x405b73:	ret	
F 0x4035d9
0x4035d9:	add	byte ptr [rax - 0x7b], cl
0x4035dc:	sal	byte ptr [rcx + rcx - 1], 0xe0
0x4035e1:	nop	dword ptr [rax]
0x4035e8:	ret	
F 0x404578
0x404578:	add	byte ptr [rax], al
0x40457a:	add	rsp, 0x38
0x40457e:	mov	eax, r12d
0x404581:	pop	rbx
0x404582:	pop	rbp
0x404583:	pop	r12
0x404585:	pop	r13
0x404587:	ret	
F 0x407ce7
0x402016:	ret	
F 0x40b02d
0x40b02d:	movzx	eax, al
0x40b030:	ret	
F 0x409add
0x407599:	add	byte ptr [rax], al
0x40759b:	add	byte ptr [rax - 0x7d], cl
0x40759e:	ret	
F 0x40af7b
0x40af7b:	add	byte ptr [rax], al
0x40af7d:	cmove	rax, rdx
0x40af81:	add	rsp, 8
0x40af85:	ret	
F 0x40b248
0x40365f:	pop	rbp
0x403660:	ret	
F 0x40ab23
0x40365f:	pop	rbp
0x403660:	ret	
F 0x40b0ab
0x40b0ab:	shr	al, 5
0x40b0ae:	and	eax, 7
0x40b0b1:	mov	eax, dword ptr [rdx + rax*4]
0x40b0b4:	shr	eax, cl
0x40b0b6:	and	eax, 1
0x40b0b9:	ret	
F 0x4048f1
0x4048f1:	mov	eax, 0xffffffff
0x4048f6:	jmp	0x404894
F 0x40ad5c
0x402016:	ret	
F 0x40a20b
0x402016:	ret	
F 0x409a17
0x403a20:	pop	rbx
0x403a21:	pop	rbp
0x403a22:	pop	r12
0x403a24:	pop	r13
0x403a26:	ret	
F 0x4047b8
0x4035e6:	add	byte ptr [rax], al
0x4035e8:	ret	
F 0x403625
0x403625:	add	byte ptr [rax], r8b
0x403628:	ret	
F 0x406c32
0x406ba2:	or	al, 1
0x406ba5:	pop	rbx
0x406ba6:	pop	rbp
0x406ba7:	pop	r12
0x406ba9:	ret	
F 0x40993b
0x409212:	add	eax, 0x48c48348
0x409217:	ret	
F 0x408dbd
0x4028c1:	pop	r13
0x4028c3:	pop	r14
0x4028c5:	pop	r15
0x4028c7:	ret	
F 0x408f7d
0x4028c1:	pop	r13
0x4028c3:	pop	r14
0x4028c5:	pop	r15
0x4028c7:	ret	
F 0x4092a3
0x402016:	ret	
F 0x40b39e
0x403a22:	pop	r12
0x403a24:	pop	r13
0x403a26:	ret	
F 0x4078aa
0x4078aa:	mov	qword ptr [rip + 0xb837], rbx
0x4078b1:	pop	rbx
0x4078b2:	ret	
F 0x405ac7
0x405ac7:	add	byte ptr [rax], al
0x405ac9:	pop	rbx
0x405aca:	pop	rbp
0x405acb:	pop	r12
0x405acd:	pop	r13
0x405acf:	ret	
F 0x40afcc
0x402012:	add	rsp, 8
0x402016:	ret	
F 0x40b0a7
0x40b0a7:	add	byte ptr [rax], al
0x40b0a9:	mov	ecx, edi
0x40b0ab:	shr	al, 5
0x40b0ae:	and	eax, 7
0x40b0b1:	mov	eax, dword ptr [rdx + rax*4]
0x40b0b4:	shr	eax, cl
0x40b0b6:	and	eax, 1
0x40b0b9:	ret	
F 0x40ad53
0x40ad53:	add	byte ptr [rbp + 7], dh
0x40ad56:	add	rsp, 0x18
0x40ad5a:	pop	rbx
0x40ad5b:	pop	rbp
0x40ad5c:	ret	
F 0x405124
0x405124:	nop	word ptr cs:[rax + rax]
0x40512e:	nop	
0x405130:	xor	eax, eax
0x405132:	ret	
F 0x4094fd
0x409210:	add	byte ptr [rbp + 5], dh
0x409213:	add	rsp, 0x48
0x409217:	ret	
F 0x40ae3a
0x403b17:	mov	eax, esp
0x403b19:	pop	rbx
0x403b1a:	pop	rbp
0x403b1b:	pop	r12
0x403b1d:	pop	r13
0x403b1f:	ret	
F 0x405e7c
0x404898:	pop	rbx
0x404899:	pop	rbp
0x40489a:	ret	
F 0x409590
0x409216:	ret	
F 0x4041e2
0x403a20:	pop	rbx
0x403a21:	pop	rbp
0x403a22:	pop	r12
0x403a24:	pop	r13
0x403a26:	ret	
F 0x40793f
0x404898:	pop	rbx
0x404899:	pop	rbp
0x40489a:	ret	
F 0x40512d
0x40512d:	add	byte ptr [rsi - 0x70], ah
0x405130:	xor	eax, eax
0x405132:	ret	
F 0x4078a2
0x402016:	ret	
F 0x4051a9
0x40365f:	pop	rbp
0x403660:	ret	
F 0x4072e6
0x4028bd:	pop	rbx
0x4028be:	pop	rbp
0x4028bf:	pop	r12
0x4028c1:	pop	r13
0x4028c3:	pop	r14
0x4028c5:	pop	r15
0x4028c7:	ret	
F 0x40aeac
0x40aeac:	neg	eax
0x40aeae:	pop	rbx
0x40aeaf:	pop	rbp
0x40aeb0:	pop	r12
0x40aeb2:	ret	
F 0x409a9c
0x40365f:	pop	rbp
0x403660:	ret	
F 0x409e19
0x4028bd:	pop	rbx
0x4028be:	pop	rbp
0x4028bf:	pop	r12
0x4028c1:	pop	r13
0x4028c3:	pop	r14
0x4028c5:	pop	r15
0x4028c7:	ret	
F 0x405438
0x402016:	ret	
F 0x4048ee
0x404898:	pop	rbx
0x404899:	pop	rbp
0x40489a:	ret	
F 0x405427
0x405427:	mov	dword ptr [rbx + 0x28], esp
0x40542a:	add	rsp, 0x18
0x40542e:	pop	rbx
0x40542f:	pop	rbp
0x405430:	pop	r12
0x405432:	pop	r13
0x405434:	pop	r14
0x405436:	pop	r15
0x405438:	ret	
F 0x4059c1
0x402016:	ret	
F 0x408b48
0x408b48:	add	byte ptr [rax], al
0x408b4a:	mov	rax, r15
0x408b4d:	pop	rbx
0x408b4e:	pop	rbp
0x408b4f:	pop	r12
0x408b51:	pop	r13
0x408b53:	pop	r14
0x408b55:	pop	r15
0x408b57:	ret	
F 0x405d52
0x405d52:	add	rsp, 8
0x405d57:	mov	eax, r12d
0x405d5a:	pop	rbx
0x405d5b:	pop	rbp
0x405d5c:	pop	r12
0x405d5e:	pop	r13
0x405d60:	ret	
F 0x4072e7
0x4028be:	pop	rbp
0x4028bf:	pop	r12
0x4028c1:	pop	r13
0x4028c3:	pop	r14
0x4028c5:	pop	r15
0x4028c7:	ret	
F 0x405881
0x4028c5:	pop	r15
0x4028c7:	ret	
F 0x408f82
0x4028c6:	pop	rdi
0x4028c7:	ret	
F 0x409ad2
0x405c99:	pop	rbx
0x405c9a:	pop	rbp
0x405c9b:	pop	r12
0x405c9d:	ret	
F 0x4066cd
0x4066cd:	add	rsp, 8
0x4066d1:	mov	eax, r8d
0x4066d4:	pop	rbx
0x4066d5:	pop	rbp
0x4066d6:	ret	
F 0x40aea6
0x40aea6:	setne	al
0x40aea9:	movzx	eax, al
0x40aeac:	neg	eax
0x40aeae:	pop	rbx
0x40aeaf:	pop	rbp
0x40aeb0:	pop	r12
0x40aeb2:	ret	
F 0x40512f
0x40512f:	nop	
0x405130:	xor	eax, eax
0x405132:	ret	
F 0x4065e3
0x4065e3:	mov	dword ptr [rbp], esi
0x4065e6:	pop	rbx
0x4065e7:	pop	rbp
0x4065e8:	pop	r12
0x4065ea:	pop	r13
0x4065ec:	pop	r14
0x4065ee:	ret	
F 0x40420d
0x402016:	ret	
F 0x404209
0x403a22:	pop	r12
0x403a24:	pop	r13
0x403a26:	ret	
F 0x406e46
0x406e46:	lea	rsp, [rbp - 0x28]
0x406e4a:	mov	eax, r13d
0x406e4d:	pop	rbx
0x406e4e:	pop	r12
0x406e50:	pop	r13
0x406e52:	pop	r14
0x406e54:	pop	r15
0x406e56:	pop	rbp
0x406e57:	ret	
F 0x406b97
0x406b97:	movsx	eax, byte ptr [rdx]
0x406b9a:	mov	byte ptr [rdi + 0x20], 1
0x406b9e:	mov	dword ptr [rdi + 0x24], eax
0x406ba1:	mov	byte ptr [rbx + 0xc], 1
0x406ba5:	pop	rbx
0x406ba6:	pop	rbp
0x406ba7:	pop	r12
0x406ba9:	ret	
F 0x409a87
0x402016:	ret	
F 0x405f08
0x405f08:	imul	eax
0x405f0a:	ret	
F 0x405e05
0x405e05:	add	dword ptr [rcx + rcx*4 - 0x20], eax
0x405e09:	mov	qword ptr [rbx + 8], rdx
0x405e0d:	pop	rbx
0x405e0e:	pop	rbp
0x405e0f:	pop	r12
0x405e11:	ret	
F 0x4072aa
0x402016:	ret	
F 0x408e39
0x408e39:	add	byte ptr [rax + 0xf], cl
0x408e3c:	clc	
0x408e3e:	mov	eax, dword ptr [rdi]
0x408e40:	ret	
F 0x405da2
0x405da2:	pop	rbx
0x405da3:	mov	eax, r12d
0x405da6:	pop	rbp
0x405da7:	pop	r12
0x405da9:	pop	r13
0x405dab:	ret	
F 0x4076c5
0x4057d8:	add	dword ptr [rax - 0x7d], ecx
0x4057db:	ret	
F 0x403628
0x402016:	ret	
F 0x406c67
0x406c67:	sbb	r14b, al
0x406c6a:	or	al, 1
0x406c6d:	pop	rbx
0x406c6e:	pop	rbp
0x406c6f:	pop	r12
0x406c71:	ret	
F 0x405871
0x405871:	mov	qword ptr [r13 + 0x38], rax
0x405875:	add	rsp, 8
0x405879:	pop	rbx
0x40587a:	pop	rbp
0x40587b:	pop	r12
0x40587d:	pop	r13
0x40587f:	pop	r14
0x405881:	pop	r15
0x405883:	ret	
F 0x4079ad
0x407936:	add	byte ptr [rax + 0xf], cl
0x407939:	ret	0x8348
F 0x4063e2
0x4063e2:	add	byte ptr [rax], al
0x4063e4:	add	byte ptr [rax - 0x77], cl
0x4063e7:	ret	
F 0x4051a8
0x403a24:	pop	r13
0x403a26:	ret	
F 0x405128
0x405128:	test	byte ptr [rax], al
0x40512a:	add	byte ptr [rax], al
0x40512c:	add	byte ptr [rax], al
0x40512e:	nop	
0x405130:	xor	eax, eax
0x405132:	ret	
F 0x4094ff
0x409212:	add	eax, 0x48c48348
0x409217:	ret	
F 0x40b01d
0x402016:	ret	
F 0x40945e
0x409212:	add	eax, 0x48c48348
0x409217:	ret	
F 0x40af9b
0x402016:	ret	
F 0x405e77
0x405e77:	mov	eax, 0xffffffff
0x405e7c:	pop	rbx
0x405e7d:	pop	rbp
0x405e7e:	ret	
F 0x405e03
0x405e03:	add	edx, 1
0x405e06:	mov	eax, r12d
0x405e09:	mov	qword ptr [rbx + 8], rdx
0x405e0d:	pop	rbx
0x405e0e:	pop	rbp
0x405e0f:	pop	r12
0x405e11:	ret	
F 0x408e3e
0x408e3e:	mov	eax, dword ptr [rdi]
0x408e40:	ret	
F 0x40add4
0x40365f:	pop	rbp
0x403660:	ret	
F 0x402be1
0x402be1:	ret	0x8948
F 0x405882
0x4028c6:	pop	rdi
0x4028c7:	ret	
F 0x40759b
0x40410c:	add	byte ptr [rax - 0x7d], cl
0x40410f:	ret	
F 0x408e92
0x408e92:	mov	eax, edi
0x408e94:	shr	eax, cl
0x408e96:	xor	edx, eax
0x408e98:	and	eax, 1
0x408e9b:	and	edx, 1
0x408e9e:	shl	edx, cl
0x408ea0:	xor	edx, edi
0x408ea2:	mov	dword ptr [rsi], edx
0x408ea4:	ret	
F 0x4078a8
0x4078a8:	add	byte ptr [rax], al
0x4078aa:	mov	qword ptr [rip + 0xb837], rbx
0x4078b1:	pop	rbx
0x4078b2:	ret	
F 0x404f40
0x404f40:	add	eax, dword ptr [rax]
0x404f42:	add	byte ptr [rcx + 0x5a], al
0x404f45:	pop	r11
0x404f47:	jmp	0x404b0f
F 0x40aea7
0x40aea7:	xchg	eax, ebp
0x40aea8:	ror	byte ptr [rdi], 0xb6
0x40aeab:	sal	bh, 0xd8
0x40aeae:	pop	rbx
0x40aeaf:	pop	rbp
0x40aeb0:	pop	r12
0x40aeb2:	ret	
F 0x40b372
0x403a21:	pop	rbp
0x403a22:	pop	r12
0x403a24:	pop	r13
0x403a26:	ret	
F 0x409212
0x409212:	add	eax, 0x48c48348
0x409217:	ret	
F 0x408e9e
0x408e9e:	shl	edx, cl
0x408ea0:	xor	edx, edi
0x408ea2:	mov	dword ptr [rsi], edx
0x408ea4:	ret	
F 0x4060df
0x4060df:	mov	eax, r12d
0x4060e2:	pop	rbx
0x4060e3:	pop	rbp
0x4060e4:	pop	r12
0x4060e6:	pop	r13
0x4060e8:	pop	r14
0x4060ea:	ret	
F 0x40660d
0x402016:	ret	
F 0x406607
0x4060e4:	pop	r12
0x4060e6:	pop	r13
0x4060e8:	pop	r14
0x4060ea:	ret	
F 0x404b1b
0x4028c2:	pop	rbp
0x4028c3:	pop	r14
0x4028c5:	pop	r15
0x4028c7:	ret	
F 0x40afc4
0x40afc4:	mov	ecx, eax
0x40afc6:	sub	rcx, rdx
0x40afc9:	mov	byte ptr [rax - 1], cl
0x40afcc:	add	rsp, 8
0x40afd0:	ret	
F 0x404855
0x404855:	add	ecx, dword ptr [rax - 0x7d]
0x404858:	ret	
F 0x4036ad
0x4036ad:	add	eax, 0xfa96
0x4036b2:	add	dword ptr [rax], eax
0x4036b4:	add	byte ptr [rax], al
0x4036b6:	ret	
F 0x406b9f
0x406b9f:	and	al, 0xc6
0x406ba2:	or	al, 1
0x406ba5:	pop	rbx
0x406ba6:	pop	rbp
0x406ba7:	pop	r12
0x406ba9:	ret	
F 0x40587b
0x4028bf:	pop	r12
0x4028c1:	pop	r13
0x4028c3:	pop	r14
0x4028c5:	pop	r15
0x4028c7:	ret	
F 0x405da6
0x403a21:	pop	rbp
0x403a22:	pop	r12
0x403a24:	pop	r13
0x403a26:	ret	
F 0x408dc3
0x402016:	ret	
F 0x40200d
0x40200d:	sal	byte ptr [rdx + rax - 1], 0xd0
0x402012:	add	rsp, 8
0x402016:	ret	
F 0x40af75
0x40af75:	add	byte ptr [rax - 0x73], cl
0x40af78:	adc	eax, 0x3da3
0x40af7d:	cmove	rax, rdx
0x40af81:	add	rsp, 8
0x40af85:	ret	
F 0x40666e
0x40365f:	pop	rbp
0x403660:	ret	
F 0x405dd2
0x4059bf:	pop	r12
0x4059c1:	ret	
F 0x405f6b
0x4028be:	pop	rbp
0x4028bf:	pop	r12
0x4028c1:	pop	r13
0x4028c3:	pop	r14
0x4028c5:	pop	r15
0x4028c7:	ret	
F 0x4060de
0x4060de:	push	rax
0x4060df:	mov	eax, r12d
0x4060e2:	pop	rbx
0x4060e3:	pop	rbp
0x4060e4:	pop	r12
0x4060e6:	pop	r13
0x4060e8:	pop	r14
0x4060ea:	ret	
F 0x408e1c
0x408e1c:	add	byte ptr [rcx + rcx*4 + 0x23], al
0x408e20:	pop	rbx
0x408e21:	pop	rbp
0x408e22:	pop	r12
0x408e24:	ret	
F 0x408efa
0x408efa:	mov	qword ptr [rdi + 0x28], rsi
0x408efe:	mov	qword ptr [rdi + 0x30], rdx
0x408f02:	add	rsp, 8
0x408f06:	ret	
F 0x404b12
0x404b12:	sbb	byte ptr [rcx + rcx*4 - 0x18], al
0x404b16:	pop	rbx
0x404b17:	pop	rbp
0x404b18:	pop	r12
0x404b1a:	pop	r13
0x404b1c:	pop	r14
0x404b1e:	pop	r15
0x404b20:	ret	
F 0x40680a
0x40680a:	test	byte ptr [rax], al
0x40680c:	add	byte ptr [rax], al
0x40680e:	add	byte ptr [rax], al
0x406810:	mov	byte ptr [rip + 0xca81], dil
0x406817:	ret	
F 0x409940
0x402016:	ret	
F 0x406810
0x406810:	mov	byte ptr [rip + 0xca81], dil
0x406817:	ret	
F 0x40af92
0x40af92:	add	eax, 0x3d89
0x40af97:	add	rsp, 8
0x40af9b:	ret	
F 0x4066fa
0x4066fa:	and	al, byte ptr [rbx]
0x4066fd:	add	byte ptr [rsi - 0x70], ah
0x406700:	mov	qword ptr [rip + 0xcb89], rdi
0x406707:	ret	
F 0x40680f
0x40680f:	add	byte ptr [rax - 0x78], al
0x406812:	cmp	eax, 0xca81
0x406817:	ret	
F 0x405ace
0x40365f:	pop	rbp
0x403660:	ret	
F 0x405d56
0x405d56:	or	byte ptr [rcx + rcx*4 - 0x20], al
0x405d5a:	pop	rbx
0x405d5b:	pop	rbp
0x405d5c:	pop	r12
0x405d5e:	pop	r13
0x405d60:	ret	
F 0x406e44
0x406e44:	add	byte ptr [rax], al
0x406e46:	lea	rsp, [rbp - 0x28]
0x406e4a:	mov	eax, r13d
0x406e4d:	pop	rbx
0x406e4e:	pop	r12
0x406e50:	pop	r13
0x406e52:	pop	r14
0x406e54:	pop	r15
0x406e56:	pop	rbp
0x406e57:	ret	
F 0x409217
0x402016:	ret	
F 0x403a24
0x403a24:	pop	r13
0x403a26:	ret	
F 0x40af8d
0x40af8d:	add	byte ptr [rax], al
0x40af8f:	add	byte ptr [rax - 0x73], cl
0x40af92:	add	eax, 0x3d89
0x40af97:	add	rsp, 8
0x40af9b:	ret	
F 0x40b398
0x40b34a:	or	byte ptr [rcx + rcx*4 - 0x18], al
0x40b34e:	pop	rbx
0x40b34f:	pop	rbp
0x40b350:	pop	r12
0x40b352:	pop	r13
0x40b354:	ret	
F 0x408eb2
0x408eb2:	dec	dword ptr [rax - 0x73]
0x408eb5:	add	eax, 0xa506
0x408eba:	cmove	rdi, rax
0x408ebe:	mov	eax, dword ptr [rdi + 4]
0x408ec1:	mov	dword ptr [rdi + 4], esi
0x408ec4:	ret	
F 0x405abc
0x40365f:	pop	rbp
0x403660:	ret	
F 0x40a45c
0x402016:	ret	
F 0x40add3
0x40add3:	adc	byte ptr [rbp - 0x3d], bl
0x40add6:	or	eax, 0xffffffff
0x40add9:	jmp	0x40add0
F 0x4076b2
0x407406:	and	al, 8
0x407409:	add	dword ptr [rax - 0x7d], ecx
0x40740c:	ret	
F 0x40a406
0x402016:	ret	
F 0x408db5
0x408db5:	sub	byte ptr [rcx + rcx*4 - 8], cl
0x408db9:	pop	rbx
0x408dba:	pop	rbp
0x408dbb:	pop	r12
0x408dbd:	pop	r13
0x408dbf:	pop	r14
0x408dc1:	pop	r15
0x408dc3:	ret	
F 0x409ac9
0x409ac9:	add	al, 0x85
0x409acc:	sar	byte ptr [rax + 0x15], 0x44
0x409ad0:	mov	eax, esp
0x409ad2:	pop	rbx
0x409ad3:	pop	rbp
0x409ad4:	pop	r12
0x409ad6:	ret	
F 0x409a42
0x409a42:	ror	byte ptr [rax + 0xf], cl
0x409a45:	ret	
F 0x406861
0x4059be:	pop	rbx
0x4059bf:	pop	r12
0x4059c1:	ret	
F 0x4048f9
0x402016:	ret	
F 0x40a02f
0x402016:	ret	
F 0x406b9a
0x406b9a:	mov	byte ptr [rdi + 0x20], 1
0x406b9e:	mov	dword ptr [rdi + 0x24], eax
0x406ba1:	mov	byte ptr [rbx + 0xc], 1
0x406ba5:	pop	rbx
0x406ba6:	pop	rbp
0x406ba7:	pop	r12
0x406ba9:	ret	
F 0x403b1b
0x403a22:	pop	r12
0x403a24:	pop	r13
0x403a26:	ret	
F 0x405c3c
0x405c3c:	mov	dword ptr [rsi + 0x20], eax
0x405c3f:	movabs	rax, 0xffffffff00000000
0x405c49:	mov	qword ptr [rsi + 0x38], rax
0x405c4d:	ret	
F 0x4068fb
0x4060e8:	pop	r14
0x4060ea:	ret	
F 0x40af81
0x402012:	add	rsp, 8
0x402016:	ret	
F 0x40a111
0x40a111:	mov	al, 0
0x40a113:	add	byte ptr [rax], al
0x40a115:	pop	r12
0x40a117:	ret	
F 0x4078a3
0x4078a3:	mov	qword ptr [rip + 0xb9fe], rbx
0x4078aa:	mov	qword ptr [rip + 0xb837], rbx
0x4078b1:	pop	rbx
0x4078b2:	ret	
F 0x406454
0x406454:	add	rsp, 0x18
0x406458:	pop	rbx
0x406459:	pop	rbp
0x40645a:	pop	r12
0x40645c:	pop	r13
0x40645e:	ret	
F 0x405a00
0x4059a8:	or	byte ptr [rax - 0x7d], cl
0x4059ab:	ret	
F 0x406c6f
0x4059bf:	pop	r12
0x4059c1:	ret	
F 0x408b56
0x4028c6:	pop	rdi
0x4028c7:	ret	
F 0x40b399
0x40b34b:	mov	eax, r13d
0x40b34e:	pop	rbx
0x40b34f:	pop	rbp
0x40b350:	pop	r12
0x40b352:	pop	r13
0x40b354:	ret	
F 0x40aeae
0x405c99:	pop	rbx
0x405c9a:	pop	rbp
0x405c9b:	pop	r12
0x405c9d:	ret	
F 0x407895
0x407895:	pop	rbx
0x407896:	ret	
F 0x405e01
0x405e01:	nop	
0x405e02:	add	rdx, 1
0x405e06:	mov	eax, r12d
0x405e09:	mov	qword ptr [rbx + 8], rdx
0x405e0d:	pop	rbx
0x405e0e:	pop	rbp
0x405e0f:	pop	r12
0x405e11:	ret	
F 0x405970
0x402016:	ret	
F 0x405cb5
0x405cb5:	setne	al
0x405cb8:	ret	
F 0x406009
0x402016:	ret	
F 0x409a6d
0x403a24:	pop	r13
0x403a26:	ret	
F 0x40b39c
0x403a20:	pop	rbx
0x403a21:	pop	rbp
0x403a22:	pop	r12
0x403a24:	pop	r13
0x403a26:	ret	
F 0x4072eb
0x4028c2:	pop	rbp
0x4028c3:	pop	r14
0x4028c5:	pop	r15
0x4028c7:	ret	
F 0x405aca
0x403a21:	pop	rbp
0x403a22:	pop	r12
0x403a24:	pop	r13
0x403a26:	ret	
F 0x40b376
0x40365f:	pop	rbp
0x403660:	ret	
F 0x40b0b9
0x402016:	ret	
F 0x403659
0x403659:	add	eax, 0xfaa9
0x40365e:	add	dword ptr [rbp - 0x3d], ebx
0x403661:	nop	dword ptr [rax]
0x403668:	ret	
F 0x406b9e
0x406b9e:	mov	dword ptr [rdi + 0x24], eax
0x406ba1:	mov	byte ptr [rbx + 0xc], 1
0x406ba5:	pop	rbx
0x406ba6:	pop	rbp
0x406ba7:	pop	r12
0x406ba9:	ret	
F 0x407884
0x407884:	mov	eax, 0x89480000
0x407889:	sbb	eax, 0xba1a
0x40788e:	mov	qword ptr [rip + 0xb853], rbx
0x407895:	pop	rbx
0x407896:	ret	
F 0x409a6a
0x403a21:	pop	rbp
0x403a22:	pop	r12
0x403a24:	pop	r13
0x403a26:	ret	
F 0x409a40
0x409a40:	test	rdx, rdx
0x409a43:	cmove	rax, rbx
0x409a47:	add	rsp, 8
0x409a4b:	pop	rbx
0x409a4c:	pop	rbp
0x409a4d:	ret	
F 0x406806
0x406806:	add	bl, al
0x406808:	nop	dword ptr [rax + rax]
0x406810:	mov	byte ptr [rip + 0xca81], dil
0x406817:	ret	
F 0x406282
0x403a24:	pop	r13
0x403a26:	ret	
F 0x40ae32
0x40ae32:	add	byte ptr [rbp + 0x2d], dh
0x40ae35:	add	rsp, 0x18
0x40ae39:	mov	rax, r12
0x40ae3c:	pop	rbx
0x40ae3d:	pop	rbp
0x40ae3e:	pop	r12
0x40ae40:	pop	r13
0x40ae42:	ret	
F 0x40acf0
0x40acf0:	sub	rdx, qword ptr [rdi + 0x48]
0x40acf4:	add	rax, rdx
0x40acf7:	ret	
F 0x404205
0x404205:	xor	eax, eax
0x404207:	pop	rbx
0x404208:	pop	rbp
0x404209:	pop	r12
0x40420b:	pop	r13
0x40420d:	ret	
F 0x405ac5
0x405ac5:	add	dword ptr [rax], eax
0x405ac7:	add	byte ptr [rax], al
0x405ac9:	pop	rbx
0x405aca:	pop	rbp
0x405acb:	pop	r12
0x405acd:	pop	r13
0x405acf:	ret	
F 0x406369
0x405cef:	dec	dword ptr [rax - 0x77]
0x405cf2:	ret	
F 0x406802
0x406802:	cmp	eax, 0xca99
0x406807:	ret	
F 0x406b1a
0x406b1a:	pop	rbp
0x406b1b:	pop	r14
0x406b1d:	pop	rbp
0x406b1e:	ret	
F 0x405e6b
0x40365f:	pop	rbp
0x403660:	ret	
F 0x4055d2
0x402016:	ret	
F 0x4072df
0x4072df:	add	rsp, 0x1b8
0x4072e6:	pop	rbx
0x4072e7:	pop	rbp
0x4072e8:	pop	r12
0x4072ea:	pop	r13
0x4072ec:	pop	r14
0x4072ee:	pop	r15
0x4072f0:	ret	
F 0x4036b4
0x4035e6:	add	byte ptr [rax], al
0x4035e8:	ret	
F 0x40b339
0x402016:	ret	
F 0x4060db
0x4060db:	add	rsp, 0x50
0x4060df:	mov	eax, r12d
0x4060e2:	pop	rbx
0x4060e3:	pop	rbp
0x4060e4:	pop	r12
0x4060e6:	pop	r13
0x4060e8:	pop	r14
0x4060ea:	ret	
F 0x406b16
0x406b16:	pop	rbx
0x406b17:	pop	r12
0x406b19:	pop	r13
0x406b1b:	pop	r14
0x406b1d:	pop	rbp
0x406b1e:	ret	
F 0x4065ee
0x402016:	ret	
F 0x409c66
0x408f75:	add	rsp, 0x38
0x408f79:	pop	rbx
0x408f7a:	pop	rbp
0x408f7b:	pop	r12
0x408f7d:	pop	r13
0x408f7f:	pop	r14
0x408f81:	pop	r15
0x408f83:	ret	
F 0x40778b
0x402016:	ret	
F 0x405966
0x405966:	test	eax, eax
0x405968:	cmovle	rax, rdx
0x40596c:	add	rsp, 8
0x405970:	ret	
F 0x403fe8
0x4028c2:	pop	rbp
0x4028c3:	pop	r14
0x4028c5:	pop	r15
0x4028c7:	ret	
F 0x409a5c
0x409a5c:	or	byte ptr [rbx + 0xe7602ff], al
0x409a62:	add	rsp, 8
0x409a66:	mov	eax, r12d
0x409a69:	pop	rbx
0x409a6a:	pop	rbp
0x409a6b:	pop	r12
0x409a6d:	pop	r13
0x409a6f:	ret	
F 0x408ea2
0x408ea2:	mov	dword ptr [rsi], edx
0x408ea4:	ret	
F 0x40af3c
0x40af3c:	sbb	byte ptr [rcx], al
0x40af3e:	add	byte ptr [rax], al
0x40af40:	ret	
F 0x405abe
0x405abe:	nop	
0x405ac0:	add	rsp, 8
0x405ac4:	mov	eax, 1
0x405ac9:	pop	rbx
0x405aca:	pop	rbp
0x405acb:	pop	r12
0x405acd:	pop	r13
0x405acf:	ret	
F 0x40587d
0x4028c1:	pop	r13
0x4028c3:	pop	r14
0x4028c5:	pop	r15
0x4028c7:	ret	
F 0x406b9b
0x406b9b:	and	byte ptr [r9], r8b
0x406b9e:	mov	dword ptr [rdi + 0x24], eax
0x406ba1:	mov	byte ptr [rbx + 0xc], 1
0x406ba5:	pop	rbx
0x406ba6:	pop	rbp
0x406ba7:	pop	r12
0x406ba9:	ret	
F 0x40a24f
0x40a24f:	or	eax, 0x18c48348
0x40a254:	pop	rbp
0x40a255:	pop	r12
0x40a257:	ret	
F 0x40b3a2
0x402016:	ret	
F 0x403a1a
0x403a1a:	add	byte ptr [rcx], al
0x403a1c:	add	rsp, 8
0x403a20:	pop	rbx
0x403a21:	pop	rbp
0x403a22:	pop	r12
0x403a24:	pop	r13
0x403a26:	ret	
F 0x4072ec
0x4028c3:	pop	r14
0x4028c5:	pop	r15
0x4028c7:	ret	
F 0x40645d
0x40365f:	pop	rbp
0x403660:	ret	
F 0x403780
0x403780:	xchg	eax, esi
0x403781:	ret	
F 0x40afda
0x402016:	ret	
F 0x4066f4
0x4066f4:	add	al, 0
0x4066f6:	add	byte ptr [rcx], dh
0x4066f8:	shr	cl, 0x22
0x4066fb:	add	byte ptr [r8], al
0x4066fe:	nop	
0x406700:	mov	qword ptr [rip + 0xcb89], rdi
0x406707:	ret	
F 0x408f71
0x408f71:	mov	dword ptr [rbp], r15d
0x408f75:	add	rsp, 0x38
0x408f79:	pop	rbx
0x408f7a:	pop	rbp
0x408f7b:	pop	r12
0x408f7d:	pop	r13
0x408f7f:	pop	r14
0x408f81:	pop	r15
0x408f83:	ret	
F 0x4041d5
0x4041d5:	and	ebx, 0xffffffdf
0x4041d8:	cmp	ebx, 0x59
0x4041db:	sete	al
0x4041de:	add	rsp, 8
0x4041e2:	pop	rbx
0x4041e3:	pop	rbp
0x4041e4:	pop	r12
0x4041e6:	pop	r13
0x4041e8:	ret	
F 0x407936
0x407936:	add	byte ptr [rax + 0xf], cl
0x407939:	ret	0x8348
F 0x406815
0x4035e6:	add	byte ptr [rax], al
0x4035e8:	ret	
F 0x4051c1
0x402016:	ret	
F 0x40521c
0x40521c:	cmp	rcx, rdi
0x40521f:	cmovb	rcx, rdi
0x405223:	test	rcx, rcx
0x405226:	mov	eax, 1
0x40522b:	cmovne	rax, rcx
0x40522f:	ret	
F 0x40906a
0x4028bd:	pop	rbx
0x4028be:	pop	rbp
0x4028bf:	pop	r12
0x4028c1:	pop	r13
0x4028c3:	pop	r14
0x4028c5:	pop	r15
0x4028c7:	ret	
F 0x4068f9
0x4060e6:	pop	r13
0x4060e8:	pop	r14
0x4060ea:	ret	
F 0x405e68
0x405e68:	xor	eax, eax
0x405e6a:	pop	rbx
0x405e6b:	pop	rbp
0x405e6c:	ret	
F 0x4061ca
0x402016:	ret	
F 0x40989b
0x40920e:	add	byte ptr [rax], al
0x409210:	add	byte ptr [rbp + 5], dh
0x409213:	add	rsp, 0x48
0x409217:	ret	
F 0x40b079
0x40365f:	pop	rbp
0x403660:	ret	
F 0x40365d
0x40365d:	add	byte ptr [rcx], al
0x40365f:	pop	rbp
0x403660:	ret	
F 0x40a10e
0x40a10e:	add	rsp, 0xb0
0x40a115:	pop	r12
0x40a117:	ret	
F 0x408e96
0x408e96:	xor	edx, eax
0x408e98:	and	eax, 1
0x408e9b:	and	edx, 1
0x408e9e:	shl	edx, cl
0x408ea0:	xor	edx, edi
0x408ea2:	mov	dword ptr [rsi], edx
0x408ea4:	ret	
F 0x402e30
0x402016:	ret	
F 0x405ab9
0x403a22:	pop	r12
0x403a24:	pop	r13
0x403a26:	ret	
F 0x406702
0x406702:	cmp	eax, 0xcb89
0x406707:	ret	
F 0x40af7c
0x40af7c:	add	byte ptr [rax + 0xf], cl
0x40af7f:	ret	0x8348
F 0x408e1e
0x408e1e:	mov	dword ptr [rbx], esp
0x408e20:	pop	rbx
0x408e21:	pop	rbp
0x408e22:	pop	r12
0x408e24:	ret	
F 0x405433
0x4028c2:	pop	rbp
0x4028c3:	pop	r14
0x4028c5:	pop	r15
0x4028c7:	ret	
F 0x406423
0x406423:	add	byte ptr [rax - 0x47], al
0x406429:	dec	dword ptr [rax + 1]
0x40642c:	ret	0x3948
F 0x40627f
0x403a21:	pop	rbp
0x403a22:	pop	r12
0x403a24:	pop	r13
0x403a26:	ret	
F 0x40b0b2
0x40b0b2:	add	al, 0x82
0x40b0b4:	shr	eax, cl
0x40b0b6:	and	eax, 1
0x40b0b9:	ret	
F 0x4036b2
0x4036b2:	add	dword ptr [rax], eax
0x4036b4:	add	byte ptr [rax], al
0x4036b6:	ret	
F 0x405227
0x405227:	add	dword ptr [rax], eax
0x405229:	add	byte ptr [rax], al
0x40522b:	cmovne	rax, rcx
0x40522f:	ret	
F 0x40793a
0x405263:	ret	0x8348
F 0x408b4d
0x4028bd:	pop	rbx
0x4028be:	pop	rbp
0x4028bf:	pop	r12
0x4028c1:	pop	r13
0x4028c3:	pop	r14
0x4028c5:	pop	r15
0x4028c7:	ret	
F 0x40afc7
0x40afc7:	sub	ecx, edx
0x40afc9:	mov	byte ptr [rax - 1], cl
0x40afcc:	add	rsp, 8
0x40afd0:	ret	
F 0x407d40
0x407d40:	inc	dword ptr [rbx - 0x7cb7fe10]
0x407d46:	ret	
F 0x406278
0x406278:	add	byte ptr [rax], al
0x40627a:	add	rsp, 0x38
0x40627e:	pop	rbx
0x40627f:	pop	rbp
0x406280:	pop	r12
0x406282:	pop	r13
0x406284:	ret	
F 0x40a7e6
0x40a7e6:	add	dword ptr [rax], eax
0x40a7e8:	add	byte ptr [rax - 0x77], cl
0x40a7eb:	ret	
F 0x409c74
0x402016:	ret	
F 0x40b43d
0x40b43d:	nop	dword ptr [rax]
0x40b440:	ret	
F 0x409761
0x409216:	ret	
F 0x405bf6
0x405bf6:	mov	dword ptr [rbx + 0x38], eax
0x405bf9:	mov	qword ptr [rbx + 0x30], rbp
0x405bfd:	add	rsp, 8
0x405c01:	pop	rbx
0x405c02:	pop	rbp
0x405c03:	ret	
F 0x408e32
0x408e32:	dec	dword ptr [rax - 0x73]
0x408e35:	add	eax, 0xa586
0x408e3a:	cmove	rdi, rax
0x408e3e:	mov	eax, dword ptr [rdi]
0x408e40:	ret	
F 0x405caf
0x405caf:	pop	rbx
0x405cb0:	pop	rbp
0x405cb1:	test	eax, eax
0x405cb3:	pop	r12
0x405cb5:	setne	al
0x405cb8:	ret	
F 0x405ab8
0x403a21:	pop	rbp
0x403a22:	pop	r12
0x403a24:	pop	r13
0x403a26:	ret	
F 0x405e7d
0x40365f:	pop	rbp
0x403660:	ret	
F 0x40521d
0x40521d:	cmp	ecx, edi
0x40521f:	cmovb	rcx, rdi
0x405223:	test	rcx, rcx
0x405226:	mov	eax, 1
0x40522b:	cmovne	rax, rcx
0x40522f:	ret	
F 0x40b0b6
0x40b0b6:	and	eax, 1
0x40b0b9:	ret	
F 0x40b34e
0x403a20:	pop	rbx
0x403a21:	pop	rbp
0x403a22:	pop	r12
0x403a24:	pop	r13
0x403a26:	ret	
F 0x409a98
0x403a21:	pop	rbp
0x403a22:	pop	r12
0x403a24:	pop	r13
0x403a26:	ret	
F 0x405cb8
0x402016:	ret	
F 0x408e3d
0x408e3d:	clc	
0x408e3e:	mov	eax, dword ptr [rdi]
0x408e40:	ret	
F 0x4051a6
0x403a22:	pop	r12
0x403a24:	pop	r13
0x403a26:	ret	
F 0x406c4b
0x406c30:	add	dh, al
0x406c32:	or	al, 1
0x406c35:	pop	rbx
0x406c36:	pop	rbp
0x406c37:	pop	r12
0x406c39:	ret	
F 0x40961d
0x402016:	ret	
F 0x4066fc
0x4066fc:	add	byte ptr [rax], al
0x4066fe:	nop	
0x406700:	mov	qword ptr [rip + 0xcb89], rdi
0x406707:	ret	
F 0x405271
0x405271:	movabs	eax, dword ptr [0x29480000441f0f66]
0x40527a:	ret	0x8d48
F 0x4037bf
0x4037bf:	sub	byte ptr [rbx + 0x5d], bl
0x4037c2:	pop	r12
0x4037c4:	pop	r13
0x4037c6:	pop	r14
0x4037c8:	pop	r15
0x4037ca:	ret	
F 0x409a9b
0x403a24:	pop	r13
0x403a26:	ret	
F 0x406002
0x406002:	add	rsp, 0x28
0x406006:	pop	rbx
0x406007:	pop	r12
0x406009:	ret	
F 0x406c4c
0x406ba1:	mov	byte ptr [rbx + 0xc], 1
0x406ba5:	pop	rbx
0x406ba6:	pop	rbp
0x406ba7:	pop	r12
0x406ba9:	ret	
F 0x403677
0x403677:	nop	dword ptr [rax + rax]
0x40367f:	nop	
0x403680:	ret	
F 0x405277
0x405277:	add	byte ptr [rax + 0x29], cl
0x40527a:	ret	0x8d48
F 0x406807
0x402016:	ret	
F 0x405cb0
0x405cb0:	pop	rbp
0x405cb1:	test	eax, eax
0x405cb3:	pop	r12
0x405cb5:	setne	al
0x405cb8:	ret	
F 0x409e1e
0x4028c2:	pop	rbp
0x4028c3:	pop	r14
0x4028c5:	pop	r15
0x4028c7:	ret	
F 0x4096b8
0x409212:	add	eax, 0x48c48348
0x409217:	ret	
F 0x4066ff
0x4066ff:	nop	
0x406700:	mov	qword ptr [rip + 0xcb89], rdi
0x406707:	ret	
F 0x408e2e
0x408e2e:	add	byte ptr [rax], al
0x408e30:	test	rdi, rdi
0x408e33:	lea	rax, [rip + 0xa586]
0x408e3a:	cmove	rdi, rax
0x408e3e:	mov	eax, dword ptr [rdi]
0x408e40:	ret	
F 0x4066fd
0x4066fd:	add	byte ptr [rsi - 0x70], ah
0x406700:	mov	qword ptr [rip + 0xcb89], rdi
0x406707:	ret	
F 0x409a96
0x403a1f:	or	byte ptr [rbx + 0x5d], bl
0x403a22:	pop	r12
0x403a24:	pop	r13
0x403a26:	ret	
F 0x40aff1
0x40aff1:	adc	byte ptr [rbp + 0xc], dh
0x40aff4:	add	rsp, 8
0x40aff8:	ret	
F 0x40adc8
0x40adc8:	mov	dword ptr [rbp + 0x90], eax
0x40adce:	xor	eax, eax
0x40add0:	add	rsp, 0x10
0x40add4:	pop	rbp
0x40add5:	ret	
F 0x409762
0x402016:	ret	
F 0x409a47
0x405bfd:	add	rsp, 8
0x405c01:	pop	rbx
0x405c02:	pop	rbp
0x405c03:	ret	
F 0x403b1a
0x403a21:	pop	rbp
0x403a22:	pop	r12
0x403a24:	pop	r13
0x403a26:	ret	
F 0x409a67
0x403b17:	mov	eax, esp
0x403b19:	pop	rbx
0x403b1a:	pop	rbp
0x403b1b:	pop	r12
0x403b1d:	pop	r13
0x403b1f:	ret	
F 0x40a47b
0x406d22:	nop	
0x406d23:	ret	0x8548
F 0x406451
0x406451:	add	byte ptr [rbp + 0x65], dh
0x406454:	add	rsp, 0x18
0x406458:	pop	rbx
0x406459:	pop	rbp
0x40645a:	pop	r12
0x40645c:	pop	r13
0x40645e:	ret	
F 0x40ae38
0x40ae38:	sbb	byte ptr [rcx + rcx*4 - 0x20], cl
0x40ae3c:	pop	rbx
0x40ae3d:	pop	rbp
0x40ae3e:	pop	r12
0x40ae40:	pop	r13
0x40ae42:	ret	
F 0x40a7eb
0x402016:	ret	
F 0x408e06
0x408e06:	and	byte ptr [rax - 0x77], cl
0x408e09:	ret	
F 0x406931
0x406931:	inc	dword ptr [rcx + rcx*4 + 0x33]
0x406935:	mov	rax, r12
0x406938:	pop	rbx
0x406939:	pop	rbp
0x40693a:	pop	r12
0x40693c:	pop	r13
0x40693e:	pop	r14
0x406940:	ret	
F 0x4028b6
0x4028b6:	or	byte ptr [rcx], al
0x4028b8:	add	byte ptr [rax], al
0x4028ba:	mov	eax, r14d
0x4028bd:	pop	rbx
0x4028be:	pop	rbp
0x4028bf:	pop	r12
0x4028c1:	pop	r13
0x4028c3:	pop	r14
0x4028c5:	pop	r15
0x4028c7:	ret	
F 0x4078a9
0x4078a9:	add	byte ptr [rax - 0x77], cl
0x4078ac:	sbb	eax, 0xb837
0x4078b1:	pop	rbx
0x4078b2:	ret	
F 0x408ebd
0x408ebd:	clc	
0x408ebe:	mov	eax, dword ptr [rdi + 4]
0x408ec1:	mov	dword ptr [rdi + 4], esi
0x408ec4:	ret	
F 0x40a634
0x40a634:	mov	eax, r12d
0x40a637:	pop	rbx
0x40a638:	pop	rbp
0x40a639:	pop	r12
0x40a63b:	pop	r13
0x40a63d:	pop	r14
0x40a63f:	pop	r15
0x40a641:	ret	
F 0x4035dc
0x4035dc:	sal	byte ptr [rcx + rcx - 1], 0xe0
0x4035e1:	nop	dword ptr [rax]
0x4035e8:	ret	
F 0x405ab6
0x403a1f:	or	byte ptr [rbx + 0x5d], bl
0x403a22:	pop	r12
0x403a24:	pop	r13
0x403a26:	ret	
F 0x403663
0x4035e3:	add	byte ptr [rax], 0
0x4035e6:	add	byte ptr [rax], al
0x4035e8:	ret	
F 0x40b071
0x40b071:	mov	dword ptr [rbp + 0x14], eax
0x40b074:	add	rsp, 8
0x40b078:	pop	rbx
0x40b079:	pop	rbp
0x40b07a:	ret	
F 0x4072ed
0x4028c4:	pop	rsi
0x4028c5:	pop	r15
0x4028c7:	ret	
F 0x40aced
0x40aced:	mov	edx, dword ptr [rdi + 0x58]
0x40acf0:	sub	rdx, qword ptr [rdi + 0x48]
0x40acf4:	add	rax, rdx
0x40acf7:	ret	
F 0x409109
0x409109:	add	byte ptr [rax], al
0x40910b:	mov	dword ptr [rip + 0x9f63], 1
0x409115:	pop	rbx
0x409116:	pop	rbp
0x409117:	pop	r12
0x409119:	ret	
F 0x408e55
0x408e55:	add	eax, 0xa566
0x408e5a:	cmove	rdi, rax
0x408e5e:	mov	dword ptr [rdi], esi
0x408e60:	ret	
F 0x407786
0x407786:	and	al, 8
0x407788:	add	dword ptr [rax - 0x77], ecx
0x40778b:	ret	
F 0x409116
0x405c9a:	pop	rbp
0x405c9b:	pop	r12
0x405c9d:	ret	
F 0x406c62
0x406c62:	and	byte ptr [r8], al
0x406c65:	mov	qword ptr [rbx + 0x18], rax
0x406c69:	mov	byte ptr [rbx + 0xc], 1
0x406c6d:	pop	rbx
0x406c6e:	pop	rbp
0x406c6f:	pop	r12
0x406c71:	ret	
F 0x406398
0x406398:	cmp	al, 0
0x40639a:	add	byte ptr [rax + 0x5a], bl
0x40639d:	pop	rbx
0x40639e:	pop	rbp
0x40639f:	pop	r12
0x4063a1:	ret	
F 0x4059b1
0x4059b1:	add	dword ptr [rax - 0x7b], ecx
0x4059b4:	push	qword ptr [rbp - 0x17]
0x4059b7:	add	rsp, 8
0x4059bb:	mov	rax, r12
0x4059be:	pop	rbx
0x4059bf:	pop	r12
0x4059c1:	ret	
F 0x406c69
0x406ba1:	mov	byte ptr [rbx + 0xc], 1
0x406ba5:	pop	rbx
0x406ba6:	pop	rbp
0x406ba7:	pop	r12
0x406ba9:	ret	
F 0x405879
0x4028bd:	pop	rbx
0x4028be:	pop	rbp
0x4028bf:	pop	r12
0x4028c1:	pop	r13
0x4028c3:	pop	r14
0x4028c5:	pop	r15
0x4028c7:	ret	
F 0x407934
0x407934:	add	byte ptr [rax], al
0x407937:	cmovne	rax, rdx
0x40793b:	add	rsp, 8
0x40793f:	pop	rbx
0x407940:	pop	rbp
0x407941:	ret	
F 0x405bf9
0x405bf9:	mov	qword ptr [rbx + 0x30], rbp
0x405bfd:	add	rsp, 8
0x405c01:	pop	rbx
0x405c02:	pop	rbp
0x405c03:	ret	
F 0x406c30
0x406c30:	add	dh, al
0x406c32:	or	al, 1
0x406c35:	pop	rbx
0x406c36:	pop	rbp
0x406c37:	pop	r12
0x406c39:	ret	
F 0x40795a
0x40795a:	sti	
F 0x406c68
0x406c68:	sbb	dh, al
0x406c6a:	or	al, 1
0x406c6d:	pop	rbx
0x406c6e:	pop	rbp
0x406c6f:	pop	r12
0x406c71:	ret	
F 0x406603
0x406603:	pop	rbx
0x406604:	xor	eax, eax
0x406606:	pop	rbp
0x406607:	pop	r12
0x406609:	pop	r13
0x40660b:	pop	r14
0x40660d:	ret	
F 0x4037c5
0x4028c2:	pop	rbp
0x4028c3:	pop	r14
0x4028c5:	pop	r15
0x4028c7:	ret	
F 0x40639a
0x40639a:	add	byte ptr [rax + 0x5a], bl
0x40639d:	pop	rbx
0x40639e:	pop	rbp
0x40639f:	pop	r12
0x4063a1:	ret	
F 0x40add0
0x40add0:	add	rsp, 0x10
0x40add4:	pop	rbp
0x40add5:	ret	
F 0x4061e3
0x4061e3:	setne	al
0x4061e6:	add	rsp, 8
0x4061ea:	ret	
F 0x40b377
0x402016:	ret	
F 0x408f79
0x4028bd:	pop	rbx
0x4028be:	pop	rbp
0x4028bf:	pop	r12
0x4028c1:	pop	r13
0x4028c3:	pop	r14
0x4028c5:	pop	r15
0x4028c7:	ret	
F 0x404079
0x402016:	ret	
F 0x405c9b
0x4059bf:	pop	r12
0x4059c1:	ret	
F 0x405aaa
0x405aaa:	mov	qword ptr [r12 + 0x50], 0
0x405ab3:	add	rsp, 8
0x405ab7:	pop	rbx
0x405ab8:	pop	rbp
0x405ab9:	pop	r12
0x405abb:	pop	r13
0x405abd:	ret	
F 0x409210
0x409210:	add	byte ptr [rbp + 5], dh
0x409213:	add	rsp, 0x48
0x409217:	ret	
F 0x40afcf
0x40afcf:	or	bl, al
0x40afd1:	xor	eax, eax
0x40afd3:	add	rsp, 8
0x40afd7:	ret	
F 0x408e60
0x402016:	ret	
F 0x403675
0x403675:	nop	word ptr cs:[rax + rax]
0x40367f:	nop	
0x403680:	ret	
F 0x405da9
0x403a24:	pop	r13
0x403a26:	ret	
F 0x4078b2
0x402016:	ret	
F 0x40a34e
0x402012:	add	rsp, 8
0x402016:	ret	
F 0x40a7b6
0x402016:	ret	
F 0x4065e2
0x4065e2:	mov	dword ptr [r13], r14d
0x4065e6:	pop	rbx
0x4065e7:	pop	rbp
0x4065e8:	pop	r12
0x4065ea:	pop	r13
0x4065ec:	pop	r14
0x4065ee:	ret	
F 0x40aea2
0x40aea2:	inc	dword ptr [rbx - 0x6af0f6c8]
0x40aea8:	ror	byte ptr [rdi], 0xb6
0x40aeab:	sal	bh, 0xd8
0x40aeae:	pop	rbx
0x40aeaf:	pop	rbp
0x40aeb0:	pop	r12
0x40aeb2:	ret	
F 0x40b432
0x4028bd:	pop	rbx
0x4028be:	pop	rbp
0x4028bf:	pop	r12
0x4028c1:	pop	r13
0x4028c3:	pop	r14
0x4028c5:	pop	r15
0x4028c7:	ret	
F 0x4078a7
0x4078a7:	mov	ecx, 0x89480000
0x4078ac:	sbb	eax, 0xb837
0x4078b1:	pop	rbx
0x4078b2:	ret	
F 0x403668
0x402016:	ret	
F 0x40660a
0x4060e7:	pop	rbp
0x4060e8:	pop	r14
0x4060ea:	ret	
F 0x4037c9
0x4028c6:	pop	rdi
0x4028c7:	ret	
F 0x409ed2
0x4028c5:	pop	r15
0x4028c7:	ret	
F 0x40457a
0x40457a:	add	rsp, 0x38
0x40457e:	mov	eax, r12d
0x404581:	pop	rbx
0x404582:	pop	rbp
0x404583:	pop	r12
0x404585:	pop	r13
0x404587:	ret	
F 0x40acf1
0x40acf1:	sub	edx, dword ptr [rdi + 0x48]
0x40acf4:	add	rax, rdx
0x40acf7:	ret	
F 0x40af34
0x40af34:	add	byte ptr [rax], al
0x40af36:	add	byte ptr [rbp + 0x1b], dh
0x40af39:	add	rsp, 0x118
0x40af40:	ret	
F 0x40af80
0x405263:	ret	0x8348
F 0x408b4b
0x408b4b:	mov	eax, edi
0x408b4d:	pop	rbx
0x408b4e:	pop	rbp
0x408b4f:	pop	r12
0x408b51:	pop	r13
0x408b53:	pop	r14
0x408b55:	pop	r15
0x408b57:	ret	
F 0x405878
0x405878:	or	byte ptr [rbx + 0x5d], bl
0x40587b:	pop	r12
0x40587d:	pop	r13
0x40587f:	pop	r14
0x405881:	pop	r15
0x405883:	ret	
F 0x406c51
0x405c9a:	pop	rbp
0x405c9b:	pop	r12
0x405c9d:	ret	
F 0x40b245
0x403a22:	pop	r12
0x403a24:	pop	r13
0x403a26:	ret	
F 0x405e64
0x405e64:	add	rsp, 8
0x405e68:	xor	eax, eax
0x405e6a:	pop	rbx
0x405e6b:	pop	rbp
0x405e6c:	ret	
