T 0x41ad8c
0x41ad8c:	pop	rax
0x41ad8d:	ret	
T 0x41ad8b
0x41ad8b:	pop	rax
0x41ad8d:	ret	
T 0x41ff71
0x41ff71:	pop	rax
0x41ff72:	sal	dl, 0xf
0x41ff75:	pop	rcx
0x41ff76:	ret	
T 0x41ff6e
0x41ff6e:	sal	dl, 0xf
0x41ff71:	pop	rax
0x41ff72:	sal	dl, 0xf
0x41ff75:	pop	rcx
0x41ff76:	ret	
T 0x419b60
0x40f5ff:	mov	rax, r12
0x40f602:	pop	r12
0x40f604:	ret	
T 0x41f08b
0x40f5ff:	mov	rax, r12
0x40f602:	pop	r12
0x40f604:	ret	
T 0x419b63
0x40f602:	pop	r12
0x40f604:	ret	
T 0x41f079
0x40f5ff:	mov	rax, r12
0x40f602:	pop	r12
0x40f604:	ret	
T 0x41bf10
0x41bf10:	add	eax, 0x1d3f7
0x41bf15:	pop	r12
0x41bf17:	ret	
T 0x40f5ff
0x40f5ff:	mov	rax, r12
0x40f602:	pop	r12
0x40f604:	ret	
T 0x41f4ed
0x40f602:	pop	r12
0x40f604:	ret	
T 0x4239f6
0x40f5ff:	mov	rax, r12
0x40f602:	pop	r12
0x40f604:	ret	
T 0x41bf15
0x40f602:	pop	r12
0x40f604:	ret	
T 0x4223a9
0x40f5ff:	mov	rax, r12
0x40f602:	pop	r12
0x40f604:	ret	
T 0x419c45
0x40f602:	pop	r12
0x40f604:	ret	
T 0x4223bb
0x40f5ff:	mov	rax, r12
0x40f602:	pop	r12
0x40f604:	ret	
T 0x4239f4
0x4239f4:	and	al, 8
0x4239f6:	mov	rax, r12
0x4239f9:	pop	r12
0x4239fb:	ret	
T 0x41f07c
0x40f602:	pop	r12
0x40f604:	ret	
T 0x4239f3
0x4239f3:	and	al, 8
0x4239f6:	mov	rax, r12
0x4239f9:	pop	r12
0x4239fb:	ret	
T 0x419062
0x419062:	pop	rax
0x419063:	add	rsp, 8
0x419067:	pop	rbx
0x419068:	pop	rbp
0x419069:	ret	
T 0x41a820
0x40f602:	pop	r12
0x40f604:	ret	
T 0x41a7f7
0x418a8b:	mov	rax, r12
0x418a8e:	pop	rbp
0x418a8f:	pop	r12
0x418a91:	ret	
T 0x41f79b
0x40f602:	pop	r12
0x40f604:	ret	
T 0x41993a
0x418a8b:	mov	rax, r12
0x418a8e:	pop	rbp
0x418a8f:	pop	r12
0x418a91:	ret	
T 0x418e9c
0x40f602:	pop	r12
0x40f604:	ret	
T 0x419c41
0x418a8b:	mov	rax, r12
0x418a8e:	pop	rbp
0x418a8f:	pop	r12
0x418a91:	ret	
T 0x422e12
0x40f602:	pop	r12
0x40f604:	ret	
T 0x41a81c
0x418a8b:	mov	rax, r12
0x418a8e:	pop	rbp
0x418a8f:	pop	r12
0x418a91:	ret	
T 0x41f08e
0x40f602:	pop	r12
0x40f604:	ret	
T 0x418a8b
0x418a8b:	mov	rax, r12
0x418a8e:	pop	rbp
0x418a8f:	pop	r12
0x418a91:	ret	
T 0x422d3d
0x40f602:	pop	r12
0x40f604:	ret	
T 0x418bab
0x418a8b:	mov	rax, r12
0x418a8e:	pop	rbp
0x418a8f:	pop	r12
0x418a91:	ret	
T 0x41498a
0x40f602:	pop	r12
0x40f604:	ret	
T 0x41996a
0x418a8b:	mov	rax, r12
0x418a8e:	pop	rbp
0x418a8f:	pop	r12
0x418a91:	ret	
T 0x425de2
0x40f602:	pop	r12
0x40f604:	ret	
T 0x420b28
0x41a30d:	mov	rax, r12
0x41a310:	pop	rbp
0x41a311:	pop	r12
0x41a313:	pop	r13
0x41a315:	ret	
T 0x41c3a5
0x40f602:	pop	r12
0x40f604:	ret	
T 0x41a30d
0x41a30d:	mov	rax, r12
0x41a310:	pop	rbp
0x41a311:	pop	r12
0x41a313:	pop	r13
0x41a315:	ret	
T 0x415419
0x40f602:	pop	r12
0x40f604:	ret	
T 0x41a348
0x41a30d:	mov	rax, r12
0x41a310:	pop	rbp
0x41a311:	pop	r12
0x41a313:	pop	r13
0x41a315:	ret	
T 0x419545
0x40f602:	pop	r12
0x40f604:	ret	
T 0x41f265
0x41a30d:	mov	rax, r12
0x41a310:	pop	rbp
0x41a311:	pop	r12
0x41a313:	pop	r13
0x41a315:	ret	
T 0x41993e
0x40f602:	pop	r12
0x40f604:	ret	
T 0x41c668
0x41a30d:	mov	rax, r12
0x41a310:	pop	rbp
0x41a311:	pop	r12
0x41a313:	pop	r13
0x41a315:	ret	
T 0x41fc32
0x40f602:	pop	r12
0x40f604:	ret	
T 0x41c628
0x41a30d:	mov	rax, r12
0x41a310:	pop	rbp
0x41a311:	pop	r12
0x41a313:	pop	r13
0x41a315:	ret	
T 0x418e5d
0x40f602:	pop	r12
0x40f604:	ret	
T 0x41b6a0
0x41a30d:	mov	rax, r12
0x41a310:	pop	rbp
0x41a311:	pop	r12
0x41a313:	pop	r13
0x41a315:	ret	
T 0x422b88
0x40f602:	pop	r12
0x40f604:	ret	
T 0x420b05
0x41a30d:	mov	rax, r12
0x41a310:	pop	rbp
0x41a311:	pop	r12
0x41a313:	pop	r13
0x41a315:	ret	
T 0x41a34e
0x40f448:	pop	r13
0x40f44a:	ret	
T 0x41037b
0x41037b:	mov	rax, r13
0x41037e:	pop	rbp
0x41037f:	pop	r12
0x410381:	pop	r13
0x410383:	ret	
T 0x4265e8
0x40f602:	pop	r12
0x40f604:	ret	
T 0x416ff1
0x416fc6:	mov	rax, r12
0x416fc9:	pop	r12
0x416fcb:	pop	r13
0x416fcd:	pop	r14
0x416fcf:	pop	r15
0x416fd1:	ret	
T 0x41a7fb
0x40f602:	pop	r12
0x40f604:	ret	
T 0x41d17a
0x41d17a:	mov	rax, r12
0x41d17d:	pop	rbp
0x41d17e:	pop	r12
0x41d180:	pop	r13
0x41d182:	pop	r14
0x41d184:	ret	
T 0x419a76
0x40f602:	pop	r12
0x40f604:	ret	
T 0x41b678
0x41a30d:	mov	rax, r12
0x41a310:	pop	rbp
0x41a311:	pop	r12
0x41a313:	pop	r13
0x41a315:	ret	
T 0x413ae6
0x40f602:	pop	r12
0x40f604:	ret	
T 0x419f68
0x419f68:	mov	rax, r12
0x419f6b:	pop	rbx
0x419f6c:	pop	rbp
0x419f6d:	pop	r12
0x419f6f:	pop	r13
0x419f71:	ret	
T 0x41f99d
0x40f602:	pop	r12
0x40f604:	ret	
T 0x41f761
0x41d17a:	mov	rax, r12
0x41d17d:	pop	rbp
0x41d17e:	pop	r12
0x41d180:	pop	r13
0x41d182:	pop	r14
0x41d184:	ret	
T 0x41053b
0x40f602:	pop	r12
0x40f604:	ret	
T 0x416fc6
0x416fc6:	mov	rax, r12
0x416fc9:	pop	r12
0x416fcb:	pop	r13
0x416fcd:	pop	r14
0x416fcf:	pop	r15
0x416fd1:	ret	
T 0x424ab1
0x40f602:	pop	r12
0x40f604:	ret	
T 0x416fc1
0x416fc1:	mov	ebx, 0x5dffff70
0x416fc6:	mov	rax, r12
0x416fc9:	pop	r12
0x416fcb:	pop	r13
0x416fcd:	pop	r14
0x416fcf:	pop	r15
0x416fd1:	ret	
T 0x41996e
0x40f602:	pop	r12
0x40f604:	ret	
T 0x41f701
0x41d17a:	mov	rax, r12
0x41d17d:	pop	rbp
0x41d17e:	pop	r12
0x41d180:	pop	r13
0x41d182:	pop	r14
0x41d184:	ret	
T 0x41699d
0x40f602:	pop	r12
0x40f604:	ret	
T 0x425964
0x41d17a:	mov	rax, r12
0x41d17d:	pop	rbp
0x41d17e:	pop	r12
0x41d180:	pop	r13
0x41d182:	pop	r14
0x41d184:	ret	
T 0x420380
0x41083f:	pop	r14
0x410841:	ret	
T 0x415eb7
0x415016:	mov	rax, r14
0x415019:	pop	rbp
0x41501a:	pop	r12
0x41501c:	pop	r13
0x41501e:	pop	r14
0x415020:	ret	
T 0x4112de
0x41083f:	pop	r14
0x410841:	ret	
T 0x415016
0x415016:	mov	rax, r14
0x415019:	pop	rbp
0x41501a:	pop	r12
0x41501c:	pop	r13
0x41501e:	pop	r14
0x415020:	ret	
T 0x415f8a
0x41083f:	pop	r14
0x410841:	ret	
T 0x415eea
0x415016:	mov	rax, r14
0x415019:	pop	rbp
0x41501a:	pop	r12
0x41501c:	pop	r13
0x41501e:	pop	r14
0x415020:	ret	
T 0x42525f
0x40fb03:	pop	rax
0x40fb04:	pop	rbx
0x40fb05:	pop	rbp
0x40fb06:	pop	r12
0x40fb08:	pop	r13
0x40fb0a:	pop	r14
0x40fb0c:	pop	r15
0x40fb0e:	ret	
T 0x40fb03
0x40fb03:	pop	rax
0x40fb04:	pop	rbx
0x40fb05:	pop	rbp
0x40fb06:	pop	r12
0x40fb08:	pop	r13
0x40fb0a:	pop	r14
0x40fb0c:	pop	r15
0x40fb0e:	ret	
T 0x414404
0x40fb03:	pop	rax
0x40fb04:	pop	rbx
0x40fb05:	pop	rbp
0x40fb06:	pop	r12
0x40fb08:	pop	r13
0x40fb0a:	pop	r14
0x40fb0c:	pop	r15
0x40fb0e:	ret	
T 0x4223ac
0x40f602:	pop	r12
0x40f604:	ret	
T 0x41f700
0x41f700:	pop	rbx
0x41f701:	mov	rax, r12
0x41f704:	pop	rbp
0x41f705:	pop	r12
0x41f707:	pop	r13
0x41f709:	pop	r14
0x41f70b:	ret	
T 0x4239f9
0x40f602:	pop	r12
0x40f604:	ret	
T 0x41f760
0x41f700:	pop	rbx
0x41f701:	mov	rax, r12
0x41f704:	pop	rbp
0x41f705:	pop	r12
0x41f707:	pop	r13
0x41f709:	pop	r14
0x41f70b:	ret	
T 0x416e25
0x40f602:	pop	r12
0x40f604:	ret	
T 0x419b5c
0x419b5c:	add	rsp, 0x20
0x419b60:	mov	rax, r12
0x419b63:	pop	r12
0x419b65:	ret	
T 0x414da1
0x40f602:	pop	r12
0x40f604:	ret	
T 0x416fc5
0x416fc5:	pop	rbp
0x416fc6:	mov	rax, r12
0x416fc9:	pop	r12
0x416fcb:	pop	r13
0x416fcd:	pop	r14
0x416fcf:	pop	r15
0x416fd1:	ret	
T 0x41c2ab
0x40f602:	pop	r12
0x40f604:	ret	
T 0x41d176
0x41d176:	add	rsp, 8
0x41d17a:	mov	rax, r12
0x41d17d:	pop	rbp
0x41d17e:	pop	r12
0x41d180:	pop	r13
0x41d182:	pop	r14
0x41d184:	ret	
T 0x4149ac
0x40f602:	pop	r12
0x40f604:	ret	
T 0x416ff0
0x416fc5:	pop	rbp
0x416fc6:	mov	rax, r12
0x416fc9:	pop	r12
0x416fcb:	pop	r13
0x416fcd:	pop	r14
0x416fcf:	pop	r15
0x416fd1:	ret	
T 0x41501e
0x41083f:	pop	r14
0x410841:	ret	
T 0x415012
0x415012:	add	rsp, 8
0x415016:	mov	rax, r14
0x415019:	pop	rbp
0x41501a:	pop	r12
0x41501c:	pop	r13
0x41501e:	pop	r14
0x415020:	ret	
T 0x41f709
0x41083f:	pop	r14
0x410841:	ret	
T 0x415ee6
0x415012:	add	rsp, 8
0x415016:	mov	rax, r14
0x415019:	pop	rbp
0x41501a:	pop	r12
0x41501c:	pop	r13
0x41501e:	pop	r14
0x415020:	ret	
T 0x418d25
0x41083f:	pop	r14
0x410841:	ret	
T 0x415eb3
0x415012:	add	rsp, 8
0x415016:	mov	rax, r14
0x415019:	pop	rbp
0x41501a:	pop	r12
0x41501c:	pop	r13
0x41501e:	pop	r14
0x415020:	ret	
T 0x416978
0x40f602:	pop	r12
0x40f604:	ret	
T 0x40f56e
0x40f56e:	mov	rax, r12
0x40f571:	pop	rbx
0x40f572:	pop	rbp
0x40f573:	pop	r12
0x40f575:	pop	r13
0x40f577:	pop	r14
0x40f579:	pop	r15
0x40f57b:	ret	
T 0x419a3e
0x40f602:	pop	r12
0x40f604:	ret	
T 0x41ffc0
0x40f56e:	mov	rax, r12
0x40f571:	pop	rbx
0x40f572:	pop	rbp
0x40f573:	pop	r12
0x40f575:	pop	r13
0x40f577:	pop	r14
0x40f579:	pop	r15
0x40f57b:	ret	
T 0x419aae
0x40f602:	pop	r12
0x40f604:	ret	
T 0x41a4f8
0x40f56e:	mov	rax, r12
0x40f571:	pop	rbx
0x40f572:	pop	rbp
0x40f573:	pop	r12
0x40f575:	pop	r13
0x40f577:	pop	r14
0x40f579:	pop	r15
0x40f57b:	ret	
T 0x418baf
0x40f602:	pop	r12
0x40f604:	ret	
T 0x41ffbf
0x41ffbf:	mov	rax, r12
0x41ffc3:	pop	rbx
0x41ffc4:	pop	rbp
0x41ffc5:	pop	r12
0x41ffc7:	pop	r13
0x41ffc9:	pop	r14
0x41ffcb:	pop	r15
0x41ffcd:	ret	
T 0x41f26b
0x40f448:	pop	r13
0x40f44a:	ret	
T 0x420773
0x418780:	mov	rax, r13
0x418783:	pop	rbx
0x418784:	pop	rbp
0x418785:	pop	r12
0x418787:	pop	r13
0x418789:	pop	r14
0x41878b:	pop	r15
0x41878d:	ret	
T 0x41159e
0x40f448:	pop	r13
0x40f44a:	ret	
T 0x418780
0x418780:	mov	rax, r13
0x418783:	pop	rbx
0x418784:	pop	rbp
0x418785:	pop	r12
0x418787:	pop	r13
0x418789:	pop	r14
0x41878b:	pop	r15
0x41878d:	ret	
T 0x426baa
0x40f579:	pop	r15
0x40f57b:	ret	
T 0x411df1
0x411df1:	mov	rax, r15
0x411df4:	pop	rbx
0x411df5:	pop	rbp
0x411df6:	pop	r12
0x411df8:	pop	r13
0x411dfa:	pop	r14
0x411dfc:	pop	r15
0x411dfe:	ret	
T 0x42307e
0x40f579:	pop	r15
0x40f57b:	ret	
T 0x419da3
0x411df1:	mov	rax, r15
0x411df4:	pop	rbx
0x411df5:	pop	rbp
0x411df6:	pop	r12
0x411df8:	pop	r13
0x411dfa:	pop	r14
0x411dfc:	pop	r15
0x411dfe:	ret	
T 0x40f602
0x40f602:	pop	r12
0x40f604:	ret	
T 0x425960
0x425960:	add	rsp, 0x18
0x425964:	mov	rax, r12
0x425967:	pop	rbp
0x425968:	pop	r12
0x42596a:	pop	r13
0x42596c:	pop	r14
0x42596e:	ret	
T 0x416950
0x40f602:	pop	r12
0x40f604:	ret	
T 0x41ffbc
0x41ffbc:	add	rsp, 0x48
0x41ffc0:	mov	rax, r12
0x41ffc3:	pop	rbx
0x41ffc4:	pop	rbp
0x41ffc5:	pop	r12
0x41ffc7:	pop	r13
0x41ffc9:	pop	r14
0x41ffcb:	pop	r15
0x41ffcd:	ret	
T 0x41179c
0x40f602:	pop	r12
0x40f604:	ret	
T 0x41a4f4
0x41a4f4:	add	rsp, 0x18
0x41a4f8:	mov	rax, r12
0x41a4fb:	pop	rbx
0x41a4fc:	pop	rbp
0x41a4fd:	pop	r12
0x41a4ff:	pop	r13
0x41a501:	pop	r14
0x41a503:	pop	r15
0x41a505:	ret	
T 0x41175d
0x40f602:	pop	r12
0x40f604:	ret	
T 0x40f56a
0x40f56a:	add	rsp, 0x28
0x40f56e:	mov	rax, r12
0x40f571:	pop	rbx
0x40f572:	pop	rbp
0x40f573:	pop	r12
0x40f575:	pop	r13
0x40f577:	pop	r14
0x40f579:	pop	r15
0x40f57b:	ret	
T 0x419dae
0x40f579:	pop	r15
0x40f57b:	ret	
T 0x411ded
0x411ded:	add	rsp, 0x78
0x411df1:	mov	rax, r15
0x411df4:	pop	rbx
0x411df5:	pop	rbp
0x411df6:	pop	r12
0x411df8:	pop	r13
0x411dfa:	pop	r14
0x411dfc:	pop	r15
0x411dfe:	ret	
T 0x417df5
0x40f579:	pop	r15
0x40f57b:	ret	
T 0x419d9f
0x419d9f:	add	rsp, 0x28
0x419da3:	mov	rax, r15
0x419da6:	pop	rbx
0x419da7:	pop	rbp
0x419da8:	pop	r12
0x419daa:	pop	r13
0x419dac:	pop	r14
0x419dae:	pop	r15
0x419db0:	ret	
T 0x41ffcb
0x40f579:	pop	r15
0x40f57b:	ret	
T 0x411dec
0x411dec:	sub	eax, 0x78c48348
0x411df1:	mov	rax, r15
0x411df4:	pop	rbx
0x411df5:	pop	rbp
0x411df6:	pop	r12
0x411df8:	pop	r13
0x411dfa:	pop	r14
0x411dfc:	pop	r15
0x411dfe:	ret	
T 0x41ad88
0x41ad88:	adc	byte ptr [rax - 0x75], cl
0x41ad8b:	pop	rax
0x41ad8d:	ret	
T 0x41ad87
0x41ad87:	adc	byte ptr [r8 - 0x75], r9b
0x41ad8b:	pop	rax
0x41ad8d:	ret	
T 0x41ad84
0x41ad84:	or	ecx, dword ptr [rax - 0x75]
0x41ad87:	adc	byte ptr [r8 - 0x75], r9b
0x41ad8b:	pop	rax
0x41ad8d:	ret	
F 0x419da4
0x411df2:	mov	eax, edi
0x411df4:	pop	rbx
0x411df5:	pop	rbp
0x411df6:	pop	r12
0x411df8:	pop	r13
0x411dfa:	pop	r14
0x411dfc:	pop	r15
0x411dfe:	ret	
F 0x4132dd
0x40f578:	pop	rsi
0x40f579:	pop	r15
0x40f57b:	ret	
F 0x41e5df
0x411ef9:	add	byte ptr [rbx + 0x5d], bl
0x411efc:	pop	r12
0x411efe:	pop	r13
0x411f00:	pop	r14
0x411f02:	pop	r15
0x411f04:	ret	
F 0x418a15
0x40f446:	pop	r12
0x40f448:	pop	r13
0x40f44a:	ret	
F 0x420899
0x412496:	add	rsp, 8
0x41249a:	pop	rbx
0x41249b:	pop	rbp
0x41249c:	ret	
F 0x420b02
0x420b02:	mov	dword ptr [rax + 0x48], ebp
0x420b05:	mov	rax, r12
0x420b08:	pop	rbp
0x420b09:	pop	r12
0x420b0b:	pop	r13
0x420b0d:	ret	
F 0x411645
0x40d016:	ret	
F 0x41bdaf
0x41bdaf:	sub	bh, bh
0x41bdb1:	dec	dword ptr [rax - 0x75]
0x41bdb4:	add	eax, 0x1d527
0x41bdb9:	add	rsp, 0x10
0x41bdbd:	pop	rbp
0x41bdbe:	ret	
F 0x419b8a
0x419b8a:	mov	rax, qword ptr [rip + 0x1f727]
0x419b91:	add	rsp, 0x18
0x419b95:	ret	
F 0x40f6c7
0x40f6c7:	nop	word ptr [rax + rax]
0x40f6d0:	xor	eax, eax
0x40f6d2:	pop	rbp
0x40f6d3:	ret	
F 0x4223fb
0x4223fb:	mov	rax, qword ptr [rip + 0x16ff6]
0x422402:	add	rsp, 0x10
0x422406:	pop	rbp
0x422407:	ret	
F 0x414a27
0x40d016:	ret	
F 0x41f87c
0x41f87c:	adc	byte ptr [rbp + 1], dh
0x41f87f:	ret	
F 0x4204c7
0x419b8f:	add	dword ptr [rax], eax
0x419b91:	add	rsp, 0x18
0x419b95:	ret	
F 0x425e8f
0x425cbf:	add	byte ptr [rax], al
0x425cc1:	add	byte ptr [rbp + 0x40], dh
0x425cc4:	add	rsp, 0x50
0x425cc8:	pop	rbp
0x425cc9:	ret	
F 0x410192
0x40f572:	pop	rbp
0x40f573:	pop	r12
0x40f575:	pop	r13
0x40f577:	pop	r14
0x40f579:	pop	r15
0x40f57b:	ret	
F 0x412ed9
0x412ed9:	mov	rax, qword ptr [rax + 0x18]
0x412edd:	ret	
F 0x416873
0x41249a:	pop	rbx
0x41249b:	pop	rbp
0x41249c:	ret	
F 0x4112dc
0x41083d:	pop	r13
0x41083f:	pop	r14
0x410841:	ret	
F 0x418f18
0x40eedf:	pop	rbp
0x40eee0:	ret	
F 0x420b69
0x40d012:	add	rsp, 8
0x40d016:	ret	
F 0x41d1cd
0x41d1cd:	rol	dword ptr [rcx], 0
0x41d1d0:	lea	rax, [rip + 0x3c9]
0x41d1d7:	mov	qword ptr [rbx + 8], rax
0x41d1db:	pop	rbx
0x41d1dc:	ret	
F 0x416852
0x41249a:	pop	rbx
0x41249b:	pop	rbp
0x41249c:	ret	
F 0x41da5c
0x41da5c:	add	byte ptr [rax], al
0x41da5e:	add	rsp, 0x70
0x41da62:	pop	rbp
0x41da63:	pop	r12
0x41da65:	pop	r13
0x41da67:	ret	
F 0x412c2f
0x40f576:	pop	rbp
0x40f577:	pop	r14
0x40f579:	pop	r15
0x40f57b:	ret	
F 0x40f78b
0x40ef1b:	mov	dword ptr [rdi + 0x28], eax
0x40ef1e:	ret	
F 0x4180d1
0x4180d1:	jmp	0x41811f
F 0x4217fb
0x411664:	pop	rbx
0x411665:	ret	
F 0x41ec2a
0x40d016:	ret	
F 0x422656
0x40d016:	ret	
F 0x40f77f
0x40f77f:	nop	
0x40f780:	movsxd	rax, dword ptr [rip + 0x29999]
0x40f787:	add	rax, rdi
0x40f78a:	mov	qword ptr [rdi + 0x28], rax
0x40f78e:	ret	
F 0x422a07
0x422a07:	add	byte ptr [rax], al
0x422a09:	mov	qword ptr [rax + 0xe8], 0
0x422a14:	pop	rbx
0x422a15:	ret	
F 0x4149ab
0x41053a:	pop	rbp
0x41053b:	pop	r12
0x41053d:	ret	
F 0x419b84
0x419b84:	or	byte ptr [rax - 0x7b], cl
0x419b87:	sal	byte ptr [rsi + rdx + 0x48], 0x8b
0x419b8c:	add	eax, 0x1f727
0x419b91:	add	rsp, 0x18
0x419b95:	ret	
F 0x40f446
0x40f446:	pop	r12
0x40f448:	pop	r13
0x40f44a:	ret	
F 0x41b446
0x41b446:	add	byte ptr [rax + 1], cl
0x41b449:	clc	
0x41b44a:	mov	qword ptr [rdi + 0x30], rax
0x41b44e:	ret	
F 0x41c2a6
0x41c2a6:	add	byte ptr [rax], al
0x41c2a8:	add	byte ptr [rbx + 0x5d], bl
0x41c2ab:	pop	r12
0x41c2ad:	ret	
F 0x41c006
0x41083b:	pop	r12
0x41083d:	pop	r13
0x41083f:	pop	r14
0x410841:	ret	
F 0x41e14a
0x40f573:	pop	r12
0x40f575:	pop	r13
0x40f577:	pop	r14
0x40f579:	pop	r15
0x40f57b:	ret	
F 0x4250f0
0x4250f0:	mov	eax, r12d
0x4250f3:	pop	rbx
0x4250f4:	pop	rbp
0x4250f5:	pop	r12
0x4250f7:	pop	r13
0x4250f9:	ret	
F 0x4178a8
0x40f575:	pop	r13
0x40f577:	pop	r14
0x40f579:	pop	r15
0x40f57b:	ret	
F 0x419060
0x419060:	mov	dword ptr [rax + 0x58], ebp
0x419063:	add	rsp, 8
0x419067:	pop	rbx
0x419068:	pop	rbp
0x419069:	ret	
F 0x41ad77
0x40eff3:	xor	eax, eax
0x40eff5:	add	rsp, 8
0x40eff9:	ret	
F 0x40f79c
0x40f79c:	nop	dword ptr [rax]
0x40f7a0:	movsxd	rax, dword ptr [rip + 0x29969]
0x40f7a7:	add	rax, rdi
0x40f7aa:	mov	qword ptr [rdi + 0x28], rax
0x40f7ae:	ret	
F 0x41d41d
0x41d41d:	xchg	eax, esi
0x41d41e:	ror	byte ptr [rax - 0x7d], 0xc4
0x41d422:	or	byte ptr [rdi], cl
0x41d424:	mov	dh, 0xc0
0x41d426:	ret	
F 0x418f77
0x418f77:	mov	qword ptr [rax + 0x28], 0
0x418f7f:	mov	qword ptr [rax + 0x28], rbp
0x418f83:	add	rsp, 8
0x418f87:	pop	rbx
0x418f88:	pop	rbp
0x418f89:	ret	
F 0x4178ac
0x40f579:	pop	r15
0x40f57b:	ret	
F 0x41cad5
0x40f572:	pop	rbp
0x40f573:	pop	r12
0x40f575:	pop	r13
0x40f577:	pop	r14
0x40f579:	pop	r15
0x40f57b:	ret	
F 0x412c23
0x412c23:	add	rsp, 0xb8
0x412c2a:	pop	rbx
0x412c2b:	pop	rbp
0x412c2c:	pop	r12
0x412c2e:	pop	r13
0x412c30:	pop	r14
0x412c32:	pop	r15
0x412c34:	ret	
F 0x41a839
0x40d016:	ret	
F 0x412c30
0x40f577:	pop	r14
0x40f579:	pop	r15
0x40f57b:	ret	
F 0x4126c7
0x40d016:	ret	
F 0x420b97
0x40eff3:	xor	eax, eax
0x40eff5:	add	rsp, 8
0x40eff9:	ret	
F 0x4132de
0x40f579:	pop	r15
0x40f57b:	ret	
F 0x412dac
0x412cec:	add	rsp, 0x38
0x412cf0:	pop	rbx
0x412cf1:	pop	rbp
0x412cf2:	ret	
F 0x41d406
0x40d016:	ret	
F 0x42671d
0x40eedf:	pop	rbp
0x40eee0:	ret	
F 0x41a505
0x40d016:	ret	
F 0x424aa6
0x424aa6:	add	byte ptr [rax], al
0x424aa8:	add	byte ptr [rbp + 0x76], dh
0x424aab:	add	rsp, 0x30
0x424aaf:	pop	rbx
0x424ab0:	pop	rbp
0x424ab1:	pop	r12
0x424ab3:	ret	
F 0x4181b8
0x4181b8:	sal	byte ptr [rbp + rdx + 0x48], 0x8b
0x4181bd:	add	eax, 0x210ae
0x4181c2:	add	rsp, 0x10
0x4181c6:	pop	rbp
0x4181c7:	ret	
F 0x41abc7
0x40eff3:	xor	eax, eax
0x40eff5:	add	rsp, 8
0x40eff9:	ret	
F 0x40fb00
0x40fb00:	add	rsp, 0x58
0x40fb04:	pop	rbx
0x40fb05:	pop	rbp
0x40fb06:	pop	r12
0x40fb08:	pop	r13
0x40fb0a:	pop	r14
0x40fb0c:	pop	r15
0x40fb0e:	ret	
F 0x410b72
0x410b72:	mov	rax, qword ptr [rip + 0x2857f]
0x410b79:	add	rsp, 0x10
0x410b7d:	pop	rbp
0x410b7e:	ret	
F 0x41730c
0x41730c:	pop	r12
0x41730e:	pop	r14
0x417310:	ret	
F 0x41b73e
0x40d016:	ret	
F 0x4156d9
0x40d012:	add	rsp, 8
0x40d016:	ret	
F 0x41ffc4
0x40f572:	pop	rbp
0x40f573:	pop	r12
0x40f575:	pop	r13
0x40f577:	pop	r14
0x40f579:	pop	r15
0x40f57b:	ret	
F 0x41fc28
0x41fc28:	nop	dword ptr [rax + rax]
0x41fc30:	pop	rbx
0x41fc31:	pop	rbp
0x41fc32:	pop	r12
0x41fc34:	ret	
F 0x41f26d
0x40d016:	ret	
F 0x418fe7
0x418fe7:	mov	qword ptr [rax + 0x30], 0
0x418fef:	mov	qword ptr [rax + 0x30], rbp
0x418ff3:	add	rsp, 8
0x418ff7:	pop	rbx
0x418ff8:	pop	rbp
0x418ff9:	ret	
F 0x41e5d9
0x411ef3:	add	rsp, 0x188
0x411efa:	pop	rbx
0x411efb:	pop	rbp
0x411efc:	pop	r12
0x411efe:	pop	r13
0x411f00:	pop	r14
0x411f02:	pop	r15
0x411f04:	ret	
F 0x41c670
0x40d016:	ret	
F 0x416b5b
0x416b5b:	sbb	byte ptr [rbx + 0x5d], bl
0x416b5e:	pop	r12
0x416b60:	pop	r13
0x416b62:	pop	r14
0x416b64:	pop	r15
0x416b66:	ret	
F 0x416b56
0x416b56:	add	byte ptr [rax], al
0x416b58:	add	rsp, 0x18
0x416b5c:	pop	rbx
0x416b5d:	pop	rbp
0x416b5e:	pop	r12
0x416b60:	pop	r13
0x416b62:	pop	r14
0x416b64:	pop	r15
0x416b66:	ret	
F 0x415a8d
0x40eedf:	pop	rbp
0x40eee0:	ret	
F 0x413017
0x40d016:	ret	
F 0x4218b5
0x40d016:	ret	
F 0x410a09
0x40d012:	add	rsp, 8
0x40d016:	ret	
F 0x41e5dd
0x411ef7:	add	dword ptr [rax], eax
0x411ef9:	add	byte ptr [rbx + 0x5d], bl
0x411efc:	pop	r12
0x411efe:	pop	r13
0x411f00:	pop	r14
0x411f02:	pop	r15
0x411f04:	ret	
F 0x416a39
0x40d016:	ret	
F 0x424c43
0x40f575:	pop	r13
0x40f577:	pop	r14
0x40f579:	pop	r15
0x40f57b:	ret	
F 0x414da3
0x40d016:	ret	
F 0x42264c
0x42264c:	adc	byte ptr [rsi - 0x3fce0002], bh
0x422652:	add	rsp, 8
0x422656:	ret	
F 0x426601
0x422a12:	add	byte ptr [rax], al
0x422a14:	pop	rbx
0x422a15:	ret	
F 0x41243e
0x41243e:	add	byte ptr [rax], al
0x412440:	mov	rax, qword ptr [rbx + 8]
0x412444:	pop	rbx
0x412445:	ret	
F 0x4260f7
0x425cc7:	push	rax
0x425cc8:	pop	rbp
0x425cc9:	ret	
F 0x41593d
0x41593d:	add	byte ptr [rax], al
0x41593f:	add	rsp, 0x98
0x415946:	pop	rbx
0x415947:	pop	rbp
0x415948:	pop	r12
0x41594a:	pop	r13
0x41594c:	pop	r14
0x41594e:	pop	r15
0x415950:	ret	
F 0x4192a3
0x40d016:	ret	
F 0x411412
0x411412:	mov	rax, qword ptr [rip + 0x27cc7]
0x411419:	add	rsp, 0x10
0x41141d:	pop	rbp
0x41141e:	ret	
F 0x424611
0x40f579:	pop	r15
0x40f57b:	ret	
F 0x41ceac
0x40f544:	dec	dword ptr [rax - 0x7d]
0x40f547:	ret	
F 0x41cf4d
0x41cf4d:	add	eax, 0x1c3d6
0x41cf52:	add	rsp, 0x10
0x41cf56:	pop	rbp
0x41cf57:	ret	
F 0x41c66c
0x40f446:	pop	r12
0x40f448:	pop	r13
0x40f44a:	ret	
F 0x412db1
0x40eedf:	pop	rbp
0x40eee0:	ret	
F 0x41ffc9
0x40f577:	pop	r14
0x40f579:	pop	r15
0x40f57b:	ret	
F 0x419716
0x40eedf:	pop	rbp
0x40eee0:	ret	
F 0x4219d9
0x4219d9:	sub	al, 0xc1
0x4219db:	sub	eax, 6
0x4219de:	mov	dword ptr [rbx + 0x78], eax
0x4219e1:	pop	rbx
0x4219e2:	ret	
F 0x411827
0x40eff3:	xor	eax, eax
0x40eff5:	add	rsp, 8
0x40eff9:	ret	
F 0x413c6e
0x413c6e:	add	byte ptr [rax], al
0x413c70:	add	rsp, 8
0x413c74:	pop	rbp
0x413c75:	pop	r12
0x413c77:	pop	r13
0x413c79:	pop	r14
0x413c7b:	ret	
F 0x426758
0x40f718:	dec	dword ptr [rax - 0x77]
0x40f71b:	ret	
F 0x412c27
0x412c27:	add	byte ptr [rax], al
0x412c29:	add	byte ptr [rbx + 0x5d], bl
0x412c2c:	pop	r12
0x412c2e:	pop	r13
0x412c30:	pop	r14
0x412c32:	pop	r15
0x412c34:	ret	
F 0x40f2d0
0x40f289:	add	byte ptr [rax - 0x77], cl
0x40f28c:	ret	
F 0x41267a
0x40f576:	pop	rbp
0x40f577:	pop	r14
0x40f579:	pop	r15
0x40f57b:	ret	
F 0x4123a7
0x41083e:	pop	rbp
0x41083f:	pop	r14
0x410841:	ret	
F 0x426b49
0x40f448:	pop	r13
0x40f44a:	ret	
F 0x42460b
0x40f573:	pop	r12
0x40f575:	pop	r13
0x40f577:	pop	r14
0x40f579:	pop	r15
0x40f57b:	ret	
F 0x41d1a7
0x41d1a7:	add	rax, rdi
0x41d1aa:	mov	qword ptr [rdi + 0x30], rax
0x41d1ae:	mov	qword ptr [rax], 0
0x41d1b5:	ret	
F 0x42525c
0x40fb00:	add	rsp, 0x58
0x40fb04:	pop	rbx
0x40fb05:	pop	rbp
0x40fb06:	pop	r12
0x40fb08:	pop	r13
0x40fb0a:	pop	r14
0x40fb0c:	pop	r15
0x40fb0e:	ret	
F 0x4111da
0x4111da:	mov	rax, qword ptr [rip + 0x27f07]
0x4111e1:	add	rsp, 0x18
0x4111e5:	ret	
F 0x41b739
0x40f632:	add	rsp, 0x10
0x40f636:	pop	rbp
0x40f637:	ret	
F 0x411f2c
0x411f2c:	add	byte ptr [rax], al
0x411f2e:	add	byte ptr [rax - 0x77], cl
0x411f31:	ret	0x8948
F 0x41d4bc
0x41d4bc:	mov	dword ptr [rbx + 4], ecx
0x41d4bf:	mov	dword ptr [rbx + 8], edx
0x41d4c2:	mov	dword ptr [rbx + 0xc], eax
0x41d4c5:	add	rsp, 0x30
0x41d4c9:	pop	rbx
0x41d4ca:	ret	
F 0x4132d2
0x4132d2:	add	rsp, 0x78
0x4132d6:	pop	rbx
0x4132d7:	pop	rbp
0x4132d8:	pop	r12
0x4132da:	pop	r13
0x4132dc:	pop	r14
0x4132de:	pop	r15
0x4132e0:	ret	
F 0x420e3b
0x41018b:	add	byte ptr [rax], al
0x41018d:	add	rsp, 0x68
0x410191:	pop	rbx
0x410192:	pop	rbp
0x410193:	pop	r12
0x410195:	pop	r13
0x410197:	pop	r14
0x410199:	pop	r15
0x41019b:	ret	
F 0x415a83
0x415a83:	mov	eax, dword ptr [rip + 0x237a7]
0x415a89:	add	rsp, 0x10
0x415a8d:	pop	rbp
0x415a8e:	ret	
F 0x41a098
0x40f718:	dec	dword ptr [rax - 0x77]
0x40f71b:	ret	
F 0x41abf7
0x40eff3:	xor	eax, eax
0x40eff5:	add	rsp, 8
0x40eff9:	ret	
F 0x41879f
0x41879f:	add	bl, al
0x4187a1:	nop	word ptr cs:[rax + rax]
0x4187ac:	nop	dword ptr [rax]
0x4187b0:	ret	
F 0x40f43a
0x40f43a:	nop	word ptr [rax + rax]
0x40f440:	add	rsp, 8
0x40f444:	pop	rbx
0x40f445:	pop	rbp
0x40f446:	pop	r12
0x40f448:	pop	r13
0x40f44a:	ret	
F 0x42077d
0x40f578:	pop	rsi
0x40f579:	pop	r15
0x40f57b:	ret	
F 0x41bd45
0x41bd45:	or	byte ptr [rax - 0x7b], cl
0x41bd48:	sal	byte ptr [rbp + rdx + 0x48], 0x8b
0x41bd4d:	add	eax, 0x1d58e
0x41bd52:	add	rsp, 0x10
0x41bd56:	pop	rbp
0x41bd57:	ret	
F 0x411bc4
0x411bc4:	add	rsp, 0x28
0x411bc9:	mov	eax, r9d
0x411bcc:	pop	rbx
0x411bcd:	pop	rbp
0x411bce:	pop	r12
0x411bd0:	pop	r13
0x411bd2:	ret	
F 0x411a20
0x411a20:	add	byte ptr [rax], al
0x411a22:	add	byte ptr [rbp + 0x3a], dh
0x411a25:	add	rsp, 0x28
0x411a29:	pop	rbx
0x411a2a:	pop	rbp
0x411a2b:	pop	r12
0x411a2d:	pop	r13
0x411a2f:	ret	
F 0x41add2
0x40f632:	add	rsp, 0x10
0x40f636:	pop	rbp
0x40f637:	ret	
F 0x4178a6
0x40f573:	pop	r12
0x40f575:	pop	r13
0x40f577:	pop	r14
0x40f579:	pop	r15
0x40f57b:	ret	
F 0x418e5f
0x40d016:	ret	
F 0x420c2d
0x40d016:	ret	
F 0x41e5e9
0x40f57a:	pop	rdi
0x40f57b:	ret	
F 0x41ac48
0x40d016:	ret	
F 0x41b440
0x41b440:	movsxd	rax, dword ptr [rip + 0x1deb1]
0x41b447:	add	rax, rdi
0x41b44a:	mov	qword ptr [rdi + 0x30], rax
0x41b44e:	ret	
F 0x411cc6
0x40d016:	ret	
F 0x417c58
0x410839:	pop	rbx
0x41083a:	pop	rbp
0x41083b:	pop	r12
0x41083d:	pop	r13
0x41083f:	pop	r14
0x410841:	ret	
F 0x424da9
0x40d016:	ret	
F 0x416ff9
0x40f578:	pop	rsi
0x40f579:	pop	r15
0x40f57b:	ret	
F 0x411df8
0x40f575:	pop	r13
0x40f577:	pop	r14
0x40f579:	pop	r15
0x40f57b:	ret	
F 0x41699f
0x40d016:	ret	
F 0x4170b1
0x4170b1:	dec	dword ptr [rax - 0x75]
0x4170b4:	add	eax, 0x221bf
0x4170b9:	add	rsp, 0x10
0x4170bd:	pop	rbp
0x4170be:	ret	
F 0x418118
0x411ef9:	add	byte ptr [rbx + 0x5d], bl
0x411efc:	pop	r12
0x411efe:	pop	r13
0x411f00:	pop	r14
0x411f02:	pop	r15
0x411f04:	ret	
F 0x4250ec
0x4250ec:	add	rsp, 0x18
0x4250f0:	mov	eax, r12d
0x4250f3:	pop	rbx
0x4250f4:	pop	rbp
0x4250f5:	pop	r12
0x4250f7:	pop	r13
0x4250f9:	ret	
F 0x412fb1
0x412fb1:	add	byte ptr [rbp + 0x5d0a75c0], al
0x412fb7:	ret	
F 0x412c29
0x411ef9:	add	byte ptr [rbx + 0x5d], bl
0x411efc:	pop	r12
0x411efe:	pop	r13
0x411f00:	pop	r14
0x411f02:	pop	r15
0x411f04:	ret	
F 0x425de1
0x41053a:	pop	rbp
0x41053b:	pop	r12
0x41053d:	ret	
F 0x41a4fb
0x40f571:	pop	rbx
0x40f572:	pop	rbp
0x40f573:	pop	r12
0x40f575:	pop	r13
0x40f577:	pop	r14
0x40f579:	pop	r15
0x40f57b:	ret	
F 0x40f76a
0x40ef1a:	mov	qword ptr [rdi + 0x28], rax
0x40ef1e:	ret	
F 0x42275a
0x41694a:	add	rsp, 0x10
0x41694e:	pop	rbx
0x41694f:	pop	rbp
0x416950:	pop	r12
0x416952:	ret	
F 0x418781
0x418781:	mov	eax, ebp
0x418783:	pop	rbx
0x418784:	pop	rbp
0x418785:	pop	r12
0x418787:	pop	r13
0x418789:	pop	r14
0x41878b:	pop	r15
0x41878d:	ret	
F 0x41af89
0x410840:	pop	rsi
0x410841:	ret	
F 0x4143ff
0x40fafe:	add	byte ptr [rax], al
0x40fb00:	add	rsp, 0x58
0x40fb04:	pop	rbx
0x40fb05:	pop	rbp
0x40fb06:	pop	r12
0x40fb08:	pop	r13
0x40fb0a:	pop	r14
0x40fb0c:	pop	r15
0x40fb0e:	ret	
F 0x4123a2
0x4123a2:	rcr	byte ptr [rbp + 0x41], 0x5c
0x4123a6:	pop	r13
0x4123a8:	pop	r14
0x4123aa:	ret	
F 0x411bd1
0x40eedf:	pop	rbp
0x40eee0:	ret	
F 0x410d1f
0x40eedf:	pop	rbp
0x40eee0:	ret	
F 0x420bc7
0x40eff3:	xor	eax, eax
0x40eff5:	add	rsp, 8
0x40eff9:	ret	
F 0x4117b2
0x40d016:	ret	
F 0x41dc7b
0x40f573:	pop	r12
0x40f575:	pop	r13
0x40f577:	pop	r14
0x40f579:	pop	r15
0x40f57b:	ret	
F 0x41249c
0x40d016:	ret	
F 0x41594f
0x40f57a:	pop	rdi
0x40f57b:	ret	
F 0x410509
0x40d012:	add	rsp, 8
0x40d016:	ret	
F 0x41d2d0
0x40d016:	ret	
F 0x422cad
0x41083b:	pop	r12
0x41083d:	pop	r13
0x41083f:	pop	r14
0x410841:	ret	
F 0x4223fd
0x4223fd:	add	eax, 0x16ff6
0x422402:	add	rsp, 0x10
0x422406:	pop	rbp
0x422407:	ret	
F 0x41bdb4
0x41bdb4:	add	eax, 0x1d527
0x41bdb9:	add	rsp, 0x10
0x41bdbd:	pop	rbp
0x41bdbe:	ret	
F 0x417de4
0x417de4:	add	byte ptr [rax], al
0x417de6:	add	byte ptr [rbp + 0x66], dh
0x417de9:	add	rsp, 0x28
0x417ded:	pop	rbx
0x417dee:	pop	rbp
0x417def:	pop	r12
0x417df1:	pop	r13
0x417df3:	pop	r14
0x417df5:	pop	r15
0x417df7:	ret	
F 0x413340
0x40f445:	pop	rbp
0x40f446:	pop	r12
0x40f448:	pop	r13
0x40f44a:	ret	
F 0x40f445
0x40f445:	pop	rbp
0x40f446:	pop	r12
0x40f448:	pop	r13
0x40f44a:	ret	
F 0x41696c
0x41696c:	add	byte ptr [rax], al
0x41696e:	mov	eax, dword ptr [rsp + 0xc]
0x416972:	add	rsp, 0x10
0x416976:	pop	rbx
0x416977:	pop	rbp
0x416978:	pop	r12
0x41697a:	ret	
F 0x41ea1b
0x40d016:	ret	
F 0x424439
0x40f573:	pop	r12
0x40f575:	pop	r13
0x40f577:	pop	r14
0x40f579:	pop	r15
0x40f57b:	ret	
F 0x4170bd
0x40eedf:	pop	rbp
0x40eee0:	ret	
F 0x4260f9
0x40d016:	ret	
F 0x41d72f
0x41d72f:	mov	eax, r13d
0x41d732:	pop	rbx
0x41d733:	pop	rbp
0x41d734:	pop	r12
0x41d736:	pop	r13
0x41d738:	pop	r14
0x41d73a:	ret	
F 0x4187de
0x4187de:	mov	dword ptr [rdi + 0x20], eax
0x4187e1:	lea	rax, [rip + 0x58]
0x4187e8:	mov	qword ptr [rdi + 0x28], rax
0x4187ec:	ret	
F 0x42037e
0x41083d:	pop	r13
0x41083f:	pop	r14
0x410841:	ret	
F 0x4111db
0x4111db:	mov	eax, dword ptr [rip + 0x27f07]
0x4111e1:	add	rsp, 0x18
0x4111e5:	ret	
F 0x41540e
0x41540e:	add	byte ptr [rax], al
0x415410:	add	byte ptr [rbp + 9], dh
0x415413:	add	rsp, 0x50
0x415417:	pop	rbx
0x415418:	pop	rbp
0x415419:	pop	r12
0x41541b:	ret	
F 0x415ec0
0x410840:	pop	rsi
0x410841:	ret	
F 0x41163d
0x41163d:	mov	qword ptr [rax + 0x38], 0
0x411645:	ret	
F 0x41cbcf
0x41cbcf:	add	byte ptr [rax - 0x7d], cl
0x41cbd2:	ret	0x4808
F 0x416849
0x416849:	mov	eax, ebx
0x41684b:	sub	eax, r8d
0x41684e:	add	rsp, 8
0x416852:	pop	rbx
0x416853:	pop	rbp
0x416854:	ret	
F 0x425268
0x40f579:	pop	r15
0x40f57b:	ret	
F 0x420b49
0x41ab49:	mov	rax, qword ptr [rax]
0x41ab4c:	ret	
F 0x41e5e7
0x40f578:	pop	rsi
0x40f579:	pop	r15
0x40f57b:	ret	
F 0x41b43d
0x41b43d:	nop	dword ptr [rax]
0x41b440:	movsxd	rax, dword ptr [rip + 0x1deb1]
0x41b447:	add	rax, rdi
0x41b44a:	mov	qword ptr [rdi + 0x30], rax
0x41b44e:	ret	
F 0x41cf48
0x41cf48:	sal	byte ptr [rbp + rdx + 0x48], 0x8b
0x41cf4d:	add	eax, 0x1c3d6
0x41cf52:	add	rsp, 0x10
0x41cf56:	pop	rbp
0x41cf57:	ret	
F 0x40eea5
0x40eea5:	add	byte ptr [rax], r8b
0x40eea8:	ret	
F 0x4115f4
0x40ee64:	add	byte ptr [rax], al
0x40ee66:	add	byte ptr [rax], al
0x40ee68:	ret	
F 0x4118b1
0x4118b1:	shr	al, 0x59
0x4118b4:	mov	ebp, 0xc031ffff
0x4118b9:	add	rsp, 8
0x4118bd:	ret	
F 0x424c48
0x40f57a:	pop	rdi
0x40f57b:	ret	
F 0x41f359
0x41d3ff:	add	rsp, 8
0x41d403:	movzx	eax, al
0x41d406:	ret	
F 0x41e111
0x40d016:	ret	
F 0x41e5d7
0x411ef1:	add	byte ptr [rax], al
0x411ef3:	add	rsp, 0x188
0x411efa:	pop	rbx
0x411efb:	pop	rbp
0x411efc:	pop	r12
0x411efe:	pop	r13
0x411f00:	pop	r14
0x411f02:	pop	r15
0x411f04:	ret	
F 0x41b888
0x41b888:	add	byte ptr [rax], al
0x41b88a:	add	rsp, 0x88
0x41b891:	pop	rbx
0x41b892:	pop	rbp
0x41b893:	pop	r12
0x41b895:	pop	r13
0x41b897:	pop	r14
0x41b899:	pop	r15
0x41b89b:	ret	
F 0x4112a0
0x40d016:	ret	
F 0x41b2c2
0x40f579:	pop	r15
0x40f57b:	ret	
F 0x41ad79
0x40d012:	add	rsp, 8
0x40d016:	ret	
F 0x41f0c8
0x41f0c8:	sal	byte ptr [rbp + rdx + 0x48], 0x8b
0x41f0cd:	add	eax, 0x1a286
0x41f0d2:	add	rsp, 0x10
0x41f0d6:	pop	rbp
0x41f0d7:	ret	
F 0x415a15
0x415a15:	or	byte ptr [rax - 0x7b], cl
0x415a18:	sal	byte ptr [rbp + rdx + 0x48], 0x8b
0x415a1d:	add	eax, 0x2380e
0x415a22:	add	rsp, 0x10
0x415a26:	pop	rbp
0x415a27:	ret	
F 0x417c5e
0x41083f:	pop	r14
0x410841:	ret	
F 0x418924
0x40f445:	pop	rbp
0x40f446:	pop	r12
0x40f448:	pop	r13
0x40f44a:	ret	
F 0x412ce9
0x412ce9:	add	byte ptr [rbp + 0x37], dh
0x412cec:	add	rsp, 0x38
0x412cf0:	pop	rbx
0x412cf1:	pop	rbp
0x412cf2:	ret	
F 0x41fc2f
0x41c2a8:	add	byte ptr [rbx + 0x5d], bl
0x41c2ab:	pop	r12
0x41c2ad:	ret	
F 0x4152c2
0x41083a:	pop	rbp
0x41083b:	pop	r12
0x41083d:	pop	r13
0x41083f:	pop	r14
0x410841:	ret	
F 0x423169
0x40d016:	ret	
F 0x410723
0x410723:	mov	eax, dword ptr [rip + 0x289d7]
0x410729:	add	rsp, 0x10
0x41072d:	pop	rbp
0x41072e:	ret	
F 0x41256a
0x40f571:	pop	rbx
0x40f572:	pop	rbp
0x40f573:	pop	r12
0x40f575:	pop	r13
0x40f577:	pop	r14
0x40f579:	pop	r15
0x40f57b:	ret	
F 0x4149aa
0x414988:	rcr	byte ptr [rbp + 0x41], 0x5c
0x41498c:	ret	
F 0x41037f
0x40f446:	pop	r12
0x40f448:	pop	r13
0x40f44a:	ret	
F 0x41594c
0x40f577:	pop	r14
0x40f579:	pop	r15
0x40f57b:	ret	
F 0x422155
0x40f575:	pop	r13
0x40f577:	pop	r14
0x40f579:	pop	r15
0x40f57b:	ret	
F 0x41d732
0x410839:	pop	rbx
0x41083a:	pop	rbp
0x41083b:	pop	r12
0x41083d:	pop	r13
0x41083f:	pop	r14
0x410841:	ret	
F 0x41f79a
0x41053a:	pop	rbp
0x41053b:	pop	r12
0x41053d:	ret	
F 0x41122f
0x41122f:	mov	ch, 0x7e
0x411231:	add	al, byte ptr [rax]
0x411233:	add	rsp, 0x18
0x411237:	ret	
F 0x40f78c
0x40f78c:	sub	r11b, r8b
0x40f78f:	nop	
0x40f790:	ret	
F 0x425c1f
0x425c1f:	push	rdi
0x425c20:	add	rsp, 0x48
0x425c24:	pop	rbx
0x425c25:	pop	rbp
0x425c26:	pop	r12
0x425c28:	pop	r13
0x425c2a:	pop	r14
0x425c2c:	pop	r15
0x425c2e:	ret	
F 0x4104a7
0x4104a7:	sub	byte ptr [r11], r15b
0x4104aa:	xor	byte ptr [rbp + 3], dh
0x4104ad:	ret	
F 0x416d11
0x40eedf:	pop	rbp
0x40eee0:	ret	
F 0x413344
0x40eedf:	pop	rbp
0x40eee0:	ret	
F 0x412e70
0x41249a:	pop	rbx
0x41249b:	pop	rbp
0x41249c:	ret	
F 0x41d426
0x40d016:	ret	
F 0x41122d
0x41122d:	mov	eax, dword ptr [rip + 0x27eb5]
0x411233:	add	rsp, 0x18
0x411237:	ret	
F 0x4187eb
0x4187eb:	sub	bl, al
0x4187ed:	nop	dword ptr [rax]
0x4187f0:	mov	qword ptr [rdi + 8], 0
0x4187f8:	ret	
F 0x412439
0x411664:	pop	rbx
0x411665:	ret	
F 0x41811b
0x40f573:	pop	r12
0x40f575:	pop	r13
0x40f577:	pop	r14
0x40f579:	pop	r15
0x40f57b:	ret	
F 0x41286b
0x40d012:	add	rsp, 8
0x40d016:	ret	
F 0x4204ec
0x4204ec:	add	eax, 0x18e9f
0x4204f1:	add	rsp, 0x18
0x4204f5:	ret	
F 0x426031
0x40d016:	ret	
F 0x41b54b
0x40eea3:	nop	dword ptr [rax + rax]
0x40eea8:	ret	
F 0x41f4ec
0x41053a:	pop	rbp
0x41053b:	pop	r12
0x41053d:	ret	
F 0x413852
0x40f576:	pop	rbp
0x40f577:	pop	r14
0x40f579:	pop	r15
0x40f57b:	ret	
F 0x4223bc
0x40f600:	mov	eax, esp
0x40f602:	pop	r12
0x40f604:	ret	
F 0x420ec2
0x40d016:	ret	
F 0x419b65
0x40d016:	ret	
F 0x41f291
0x40ee64:	add	byte ptr [rax], al
0x40ee66:	add	byte ptr [rax], al
0x40ee68:	ret	
F 0x41159b
0x40f445:	pop	rbp
0x40f446:	pop	r12
0x40f448:	pop	r13
0x40f44a:	ret	
F 0x41680b
0x40eea3:	nop	dword ptr [rax + rax]
0x40eea8:	ret	
F 0x424610
0x40f578:	pop	rsi
0x40f579:	pop	r15
0x40f57b:	ret	
F 0x411695
0x411695:	jmp	0x411689
F 0x41f78e
0x41c29e:	and	al, 0xc7
0x41c2a0:	mov	qword ptr [rdi + rax*8 + 8], 0
0x41c2a9:	pop	rbx
0x41c2aa:	pop	rbp
0x41c2ab:	pop	r12
0x41c2ad:	ret	
F 0x416b63
0x40f578:	pop	rsi
0x40f579:	pop	r15
0x40f57b:	ret	
F 0x41f293
0x40ee66:	add	byte ptr [rax], al
0x40ee68:	ret	
F 0x41c701
0x41c701:	dec	dword ptr [rax - 0x75]
0x41c704:	add	eax, 0x1cc27
0x41c709:	add	rsp, 0x10
0x41c70d:	pop	rbp
0x41c70e:	ret	
F 0x410536
0x410536:	add	rsp, 8
0x41053a:	pop	rbp
0x41053b:	pop	r12
0x41053d:	ret	
F 0x41883b
0x40d016:	ret	
F 0x425e94
0x425cc4:	add	rsp, 0x50
0x425cc8:	pop	rbp
0x425cc9:	ret	
F 0x424517
0x412f7e:	add	byte ptr [rax], al
0x412f80:	pop	rbp
0x412f81:	ret	
F 0x40f7ae
0x40d016:	ret	
F 0x422041
0x40d016:	ret	
F 0x4133d5
0x40d016:	ret	
F 0x41bd52
0x40f632:	add	rsp, 0x10
0x40f636:	pop	rbp
0x40f637:	ret	
F 0x4109eb
0x40d016:	ret	
F 0x414a1c
0x414a1c:	mov	eax, dword ptr [rip + 0x247be]
0x414a22:	add	rsp, 0x10
0x414a26:	pop	rbp
0x414a27:	ret	
F 0x4152b6
0x4152b6:	add	byte ptr [rbx - 0x18], dl
0x4152b9:	push	rbx
0x4152ba:	cmp	edi, -1
0x4152bd:	add	rsp, 0x20
0x4152c1:	pop	rbx
0x4152c2:	pop	rbp
0x4152c3:	pop	r12
0x4152c5:	pop	r13
0x4152c7:	pop	r14
0x4152c9:	ret	
F 0x4196ae
0x40f43e:	add	byte ptr [rax], al
0x40f440:	add	rsp, 8
0x40f444:	pop	rbx
0x40f445:	pop	rbp
0x40f446:	pop	r12
0x40f448:	pop	r13
0x40f44a:	ret	
F 0x41725f
0x410840:	pop	rsi
0x410841:	ret	
F 0x418c92
0x40d016:	ret	
F 0x42089e
0x40eedf:	pop	rbp
0x40eee0:	ret	
F 0x42055a
0x42055a:	mov	rax, qword ptr [rip + 0x18e27]
0x420561:	add	rsp, 0x18
0x420565:	ret	
F 0x41ac6d
0x40d016:	ret	
F 0x413dc5
0x412c27:	add	byte ptr [rax], al
0x412c29:	add	byte ptr [rbx + 0x5d], bl
0x412c2c:	pop	r12
0x412c2e:	pop	r13
0x412c30:	pop	r14
0x412c32:	pop	r15
0x412c34:	ret	
F 0x418e9e
0x40d016:	ret	
F 0x412839
0x40eff3:	xor	eax, eax
0x40eff5:	add	rsp, 8
0x40eff9:	ret	
F 0x418ec0
0x40d016:	ret	
F 0x413855
0x40f579:	pop	r15
0x40f57b:	ret	
F 0x4223b8
0x4223b8:	add	edi, edi
0x4223ba:	dec	dword ptr [rcx + rcx*4 - 0x20]
0x4223be:	pop	r12
0x4223c0:	ret	
F 0x421709
0x421709:	mov	qword ptr [rip + 0x17d08], rax
0x421710:	lea	rax, [rip + 0x219]
0x421717:	mov	qword ptr [rbx + 8], rax
0x42171b:	pop	rbx
0x42171c:	ret	
F 0x41b0b7
0x41b0b7:	and	eax, 0x89ffff2a
0x41b0bc:	add	eax, 0x1e213
0x41b0c1:	add	rsp, 0x28
0x41b0c5:	pop	rbx
0x41b0c6:	pop	rbp
0x41b0c7:	ret	
F 0x41adcc
0x41adcc:	mov	eax, dword ptr [rip + 0x1e4de]
0x41add2:	add	rsp, 0x10
0x41add6:	pop	rbp
0x41add7:	ret	
F 0x411417
0x40f630:	add	al, byte ptr [rax]
0x40f632:	add	rsp, 0x10
0x40f636:	pop	rbp
0x40f637:	ret	
F 0x416fd1
0x40d016:	ret	
F 0x40d012
0x40d012:	add	rsp, 8
0x40d016:	ret	
F 0x418ba8
0x418a88:	add	byte ptr [rax], al
0x418a8a:	add	byte ptr [rcx + rcx*4 - 0x20], cl
0x418a8e:	pop	rbp
0x418a8f:	pop	r12
0x418a91:	ret	
F 0x41905f
0x41905f:	mov	qword ptr [rax + 0x58], rbp
0x419063:	add	rsp, 8
0x419067:	pop	rbx
0x419068:	pop	rbp
0x419069:	ret	
F 0x41ac54
0x41ac24:	and	eax, 0xc031ffff
0x41ac29:	add	rsp, 8
0x41ac2d:	ret	
F 0x418ff6
0x412499:	or	byte ptr [rbx + 0x5d], bl
0x41249c:	ret	
F 0x41416b
0x40d016:	ret	
F 0x41ac99
0x413999:	mov	rax, qword ptr [rax + 0x38]
0x41399d:	ret	
F 0x41333f
0x40f444:	pop	rbx
0x40f445:	pop	rbp
0x40f446:	pop	r12
0x40f448:	pop	r13
0x40f44a:	ret	
F 0x4149a8
0x414986:	or	byte ptr [rcx], dh
0x414988:	rcr	byte ptr [rbp + 0x41], 0x5c
0x41498c:	ret	
F 0x415517
0x40eff3:	xor	eax, eax
0x40eff5:	add	rsp, 8
0x40eff9:	ret	
F 0x420f71
0x420f71:	dec	dword ptr [rax - 0x75]
0x420f74:	add	eax, 0x18407
0x420f79:	add	rsp, 0x10
0x420f7d:	pop	rbp
0x420f7e:	ret	
F 0x410b17
0x40d016:	ret	
F 0x40ef19
0x40ef19:	clc	
0x40ef1a:	mov	qword ptr [rdi + 0x28], rax
0x40ef1e:	ret	
F 0x413847
0x413847:	add	rsp, 0x68
0x41384b:	xor	eax, eax
0x41384d:	pop	rbx
0x41384e:	pop	rbp
0x41384f:	pop	r12
0x413851:	pop	r13
0x413853:	pop	r14
0x413855:	pop	r15
0x413857:	ret	
F 0x417027
0x40eff3:	xor	eax, eax
0x40eff5:	add	rsp, 8
0x40eff9:	ret	
F 0x411791
0x411791:	mov	dword ptr [rdi + 8], 0
0x411798:	xor	eax, eax
0x41179a:	pop	rbx
0x41179b:	pop	rbp
0x41179c:	pop	r12
0x41179e:	ret	
F 0x423cd5
0x40f446:	pop	r12
0x40f448:	pop	r13
0x40f44a:	ret	
F 0x413dc4
0x412c26:	mov	eax, 0x5b000000
0x412c2b:	pop	rbp
0x412c2c:	pop	r12
0x412c2e:	pop	r13
0x412c30:	pop	r14
0x412c32:	pop	r15
0x412c34:	ret	
F 0x41d1a5
0x41d1a5:	add	dword ptr [rax], eax
0x41d1a7:	add	rax, rdi
0x41d1aa:	mov	qword ptr [rdi + 0x30], rax
0x41d1ae:	mov	qword ptr [rax], 0
0x41d1b5:	ret	
F 0x41acfb
0x41acfb:	ret	
F 0x411752
0x411752:	or	byte ptr [r9], r8b
0x411755:	xor	eax, eax
0x411757:	mov	qword ptr [rbx + 8], rbp
0x41175b:	pop	rbx
0x41175c:	pop	rbp
0x41175d:	pop	r12
0x41175f:	ret	
F 0x420bfd
0x40d016:	ret	
F 0x420c5d
0x40d016:	ret	
F 0x423167
0x40f137:	add	al, ch
0x40f139:	ret	
F 0x4110ea
0x40f444:	pop	rbx
0x40f445:	pop	rbp
0x40f446:	pop	r12
0x40f448:	pop	r13
0x40f44a:	ret	
F 0x411a2d
0x40f448:	pop	r13
0x40f44a:	ret	
F 0x4110ec
0x40f446:	pop	r12
0x40f448:	pop	r13
0x40f44a:	ret	
F 0x424c45
0x40f577:	pop	r14
0x40f579:	pop	r15
0x40f57b:	ret	
F 0x41a54c
0x41a54c:	adc	byte ptr [rdi + rdi*8], dh
0x41a54f:	dec	dword ptr [rax - 0x77]
0x41a552:	ret	
F 0x417052
0x40f632:	add	rsp, 0x10
0x40f636:	pop	rbp
0x40f637:	ret	
F 0x4190d3
0x412496:	add	rsp, 8
0x41249a:	pop	rbx
0x41249b:	pop	rbp
0x41249c:	ret	
F 0x421601
0x40f448:	pop	r13
0x40f44a:	ret	
F 0x4117ad
0x4117ad:	add	dword ptr [rax - 0x77], ecx
0x4117b0:	or	bl, r8b
0x4117b3:	nop	dword ptr [rax + rax]
0x4117b8:	mov	qword ptr [rsi + 8], 0
0x4117c0:	ret	
F 0x41175a
0x41175a:	or	byte ptr [rbx + 0x5d], bl
0x41175d:	pop	r12
0x41175f:	ret	
F 0x41cdbc
0x40d016:	ret	
F 0x40f765
0x40ef15:	add	al, byte ptr [rax]
0x40ef17:	add	rax, rdi
0x40ef1a:	mov	qword ptr [rdi + 0x28], rax
0x40ef1e:	ret	
F 0x41083a
0x41083a:	pop	rbp
0x41083b:	pop	r12
0x41083d:	pop	r13
0x41083f:	pop	r14
0x410841:	ret	
F 0x4217d6
0x40d016:	ret	
F 0x4131a5
0x412496:	add	rsp, 8
0x41249a:	pop	rbx
0x41249b:	pop	rbp
0x41249c:	ret	
F 0x41bd4d
0x41bd4d:	add	eax, 0x1d58e
0x41bd52:	add	rsp, 0x10
0x41bd56:	pop	rbp
0x41bd57:	ret	
F 0x41160e
0x41160e:	add	byte ptr [rax], al
0x411610:	mov	dword ptr [rdi + 8], 1
0x411617:	ret	
F 0x4187db
0x4187db:	add	byte ptr [rax], al
0x4187dd:	mov	qword ptr [rdi + 0x20], rax
0x4187e1:	lea	rax, [rip + 0x58]
0x4187e8:	mov	qword ptr [rdi + 0x28], rax
0x4187ec:	ret	
F 0x415169
0x41083f:	pop	r14
0x410841:	ret	
F 0x42595b
0x42595b:	test	dword ptr [rbp + 1], ebx
0x42595e:	add	byte ptr [rax], al
0x425960:	add	rsp, 0x18
0x425964:	mov	rax, r12
0x425967:	pop	rbp
0x425968:	pop	r12
0x42596a:	pop	r13
0x42596c:	pop	r14
0x42596e:	ret	
F 0x4115f5
0x4115f5:	add	byte ptr [rax], al
0x4115f7:	add	bl, al
0x4115f9:	nop	dword ptr [rax]
0x411600:	mov	rax, qword ptr [rdi + 8]
0x411604:	ret	
F 0x416770
0x40d016:	ret	
F 0x425c2e
0x40d016:	ret	
F 0x41dc7d
0x40f575:	pop	r13
0x40f577:	pop	r14
0x40f579:	pop	r15
0x40f57b:	ret	
F 0x42307a
0x40f575:	pop	r13
0x40f577:	pop	r14
0x40f579:	pop	r15
0x40f57b:	ret	
F 0x410724
0x410724:	add	eax, 0x289d7
0x410729:	add	rsp, 0x10
0x41072d:	pop	rbp
0x41072e:	ret	
F 0x426024
0x426024:	add	rsp, 0x40
0x426028:	pop	rbp
0x426029:	pop	r12
0x42602b:	pop	r13
0x42602d:	pop	r14
0x42602f:	pop	r15
0x426031:	ret	
F 0x4132da
0x40f575:	pop	r13
0x40f577:	pop	r14
0x40f579:	pop	r15
0x40f57b:	ret	
F 0x41f99f
0x40d016:	ret	
F 0x4111d7
0x4111d7:	sal	byte ptr [rsi + rdx + 0x48], 0x8b
0x4111dc:	add	eax, 0x27f07
0x4111e1:	add	rsp, 0x18
0x4111e5:	ret	
F 0x40f056
0x40f056:	ror	byte ptr [rax - 0x7d], 0xc4
0x40f05a:	or	bl, al
0x40f05c:	nop	dword ptr [rax]
0x40f060:	mov	eax, 0xffffffff
0x40f065:	jmp	0x40f03b
F 0x415a1c
0x415a1c:	mov	eax, dword ptr [rip + 0x2380e]
0x415a22:	add	rsp, 0x10
0x415a26:	pop	rbp
0x415a27:	ret	
F 0x418785
0x40f573:	pop	r12
0x40f575:	pop	r13
0x40f577:	pop	r14
0x40f579:	pop	r15
0x40f57b:	ret	
F 0x41fa7b
0x40eea3:	nop	dword ptr [rax + rax]
0x40eea8:	ret	
F 0x419a35
0x419a35:	add	rsp, 8
0x419a3a:	mov	eax, r8d
0x419a3d:	pop	rbp
0x419a3e:	pop	r12
0x419a40:	ret	
F 0x41f090
0x40d016:	ret	
F 0x41f2e0
0x41f2e0:	cmovae	rax, qword ptr [rsi + 0x28]
0x41f2e5:	mov	qword ptr [rdi + 0x28], rax
0x41f2e9:	ret	
F 0x41f286
0x41f286:	mov	dword ptr [rax + 0x28], 0
0x41f28d:	mov	qword ptr [rax + 0x40], 0
0x41f295:	ret	
F 0x42148a
0x40d016:	ret	
F 0x412836
0x412806:	test	eax, 0xc031ffff
0x41280b:	add	rsp, 8
0x41280f:	ret	
F 0x41bf47
0x418d17:	adc	al, ch
0x418d19:	ret	
F 0x41d1ab
0x41d1ab:	mov	dword ptr [rdi + 0x30], eax
0x41d1ae:	mov	qword ptr [rax], 0
0x41d1b5:	ret	
F 0x41bd48
0x41bd48:	sal	byte ptr [rbp + rdx + 0x48], 0x8b
0x41bd4d:	add	eax, 0x1d58e
0x41bd52:	add	rsp, 0x10
0x41bd56:	pop	rbp
0x41bd57:	ret	
F 0x41c2aa
0x41053a:	pop	rbp
0x41053b:	pop	r12
0x41053d:	ret	
F 0x426ba2
0x40f571:	pop	rbx
0x40f572:	pop	rbp
0x40f573:	pop	r12
0x40f575:	pop	r13
0x40f577:	pop	r14
0x40f579:	pop	r15
0x40f57b:	ret	
F 0x41b809
0x41ab49:	mov	rax, qword ptr [rax]
0x41ab4c:	ret	
F 0x4163b3
0x40f448:	pop	r13
0x40f44a:	ret	
F 0x422a0a
0x422a0a:	mov	dword ptr [rax + 0xe8], 0
0x422a14:	pop	rbx
0x422a15:	ret	
F 0x41725c
0x41083d:	pop	r13
0x41083f:	pop	r14
0x410841:	ret	
F 0x4216ec
0x4216ec:	rol	bl, 0x66
0x4216ef:	nop	
0x4216f0:	movsxd	rax, dword ptr [rip + 0x17d19]
0x4216f7:	add	rax, rdi
0x4216fa:	mov	qword ptr [rdi + 0x30], rax
0x4216fe:	ret	
F 0x4187f9
0x4115f9:	nop	dword ptr [rax]
0x411600:	mov	rax, qword ptr [rdi + 8]
0x411604:	ret	
F 0x40f766
0x40ef16:	add	byte ptr [rax + 1], cl
0x40ef19:	clc	
0x40ef1a:	mov	qword ptr [rdi + 0x28], rax
0x40ef1e:	ret	
F 0x40f71b
0x40d016:	ret	
F 0x412f7c
0x412f7c:	add	byte ptr [rax], al
0x412f7e:	add	byte ptr [rax], al
0x412f80:	pop	rbp
0x412f81:	ret	
F 0x41ad4d
0x40d016:	ret	
F 0x418790
0x40d016:	ret	
F 0x4118b9
0x40d012:	add	rsp, 8
0x40d016:	ret	
F 0x41ab49
0x41ab49:	mov	rax, qword ptr [rax]
0x41ab4c:	ret	
F 0x41a4fc
0x40f572:	pop	rbp
0x40f573:	pop	r12
0x40f575:	pop	r13
0x40f577:	pop	r14
0x40f579:	pop	r15
0x40f57b:	ret	
F 0x41174f
0x41174f:	add	al, dh
0x411751:	add	dword ptr [rbp + 8], 1
0x411755:	xor	eax, eax
0x411757:	mov	qword ptr [rbx + 8], rbp
0x41175b:	pop	rbx
0x41175c:	pop	rbp
0x41175d:	pop	r12
0x41175f:	ret	
F 0x42170f
0x42170f:	add	byte ptr [rax - 0x73], cl
0x421712:	add	eax, 0x219
0x421717:	mov	qword ptr [rbx + 8], rax
0x42171b:	pop	rbx
0x42171c:	ret	
F 0x418a82
0x418a82:	add	byte ptr [rax], al
0x418a84:	add	rsp, 0xa8
0x418a8b:	mov	rax, r12
0x418a8e:	pop	rbp
0x418a8f:	pop	r12
0x418a91:	ret	
F 0x417df3
0x40f577:	pop	r14
0x40f579:	pop	r15
0x40f57b:	ret	
F 0x423cd4
0x40f445:	pop	rbp
0x40f446:	pop	r12
0x40f448:	pop	r13
0x40f44a:	ret	
F 0x40f780
0x40f780:	movsxd	rax, dword ptr [rip + 0x29999]
0x40f787:	add	rax, rdi
0x40f78a:	mov	qword ptr [rdi + 0x28], rax
0x40f78e:	ret	
F 0x412572
0x40f579:	pop	r15
0x40f57b:	ret	
F 0x4228ff
0x40d016:	ret	
F 0x41018b
0x41018b:	add	byte ptr [rax], al
0x41018d:	add	rsp, 0x68
0x410191:	pop	rbx
0x410192:	pop	rbp
0x410193:	pop	r12
0x410195:	pop	r13
0x410197:	pop	r14
0x410199:	pop	r15
0x41019b:	ret	
F 0x4113b0
0x40f630:	add	al, byte ptr [rax]
0x40f632:	add	rsp, 0x10
0x40f636:	pop	rbp
0x40f637:	ret	
F 0x4152c8
0x410840:	pop	rsi
0x410841:	ret	
F 0x4116cb
0x4116cb:	shr	cl, 0x7f
0x4116ce:	ret	
F 0x424aaf
0x41175b:	pop	rbx
0x41175c:	pop	rbp
0x41175d:	pop	r12
0x41175f:	ret	
F 0x40fb0d
0x40f57a:	pop	rdi
0x40f57b:	ret	
F 0x414482
0x40d016:	ret	
F 0x4195a0
0x40d016:	ret	
F 0x41ffc3
0x40f571:	pop	rbx
0x40f572:	pop	rbp
0x40f573:	pop	r12
0x40f575:	pop	r13
0x40f577:	pop	r14
0x40f579:	pop	r15
0x40f57b:	ret	
F 0x41d2fa
0x40eff3:	xor	eax, eax
0x40eff5:	add	rsp, 8
0x40eff9:	ret	
F 0x40f762
0x40f762:	add	eax, 0x299d9
0x40f767:	add	rax, rdi
0x40f76a:	mov	qword ptr [rdi + 0x28], rax
0x40f76e:	ret	
F 0x4219e1
0x411664:	pop	rbx
0x411665:	ret	
F 0x41248e
0x41248e:	mov	qword ptr [rbx + 0x20], 0
0x412496:	add	rsp, 8
0x41249a:	pop	rbx
0x41249b:	pop	rbp
0x41249c:	ret	
F 0x411bc9
0x411bc9:	mov	eax, r9d
0x411bcc:	pop	rbx
0x411bcd:	pop	rbp
0x411bce:	pop	r12
0x411bd0:	pop	r13
0x411bd2:	ret	
F 0x41c70e
0x40d016:	ret	
F 0x411655
0x411655:	sar	edi, 1
0x411658:	dec	dword ptr [rax - 0x73]
0x41165b:	add	eax, 0xdf0
0x411660:	mov	qword ptr [rbx + 8], rax
0x411664:	pop	rbx
0x411665:	ret	
F 0x40f78f
0x40f78f:	nop	
0x40f790:	ret	
F 0x421712
0x421712:	add	eax, 0x219
0x421717:	mov	qword ptr [rbx + 8], rax
0x42171b:	pop	rbx
0x42171c:	ret	
F 0x418e51
0x411751:	add	dword ptr [rbp + 8], 1
0x411755:	xor	eax, eax
0x411757:	mov	qword ptr [rbx + 8], rbp
0x41175b:	pop	rbx
0x41175c:	pop	rbp
0x41175d:	pop	r12
0x41175f:	ret	
F 0x426680
0x4111e1:	add	rsp, 0x18
0x4111e5:	ret	
F 0x414a20
0x40f630:	add	al, byte ptr [rax]
0x40f632:	add	rsp, 0x10
0x40f636:	pop	rbp
0x40f637:	ret	
F 0x411dfc
0x40f579:	pop	r15
0x40f57b:	ret	
F 0x41b6cc
0x41b6cc:	mov	eax, dword ptr [rip + 0x1dc16]
0x41b6d2:	add	rsp, 0x10
0x41b6d6:	pop	rbp
0x41b6d7:	ret	
F 0x40f53f
0x40f53f:	add	eax, 0xffeb3be8
0x40f544:	dec	dword ptr [rax - 0x7d]
0x40f547:	ret	
F 0x41f829
0x413209:	xor	eax, eax
0x41320b:	pop	rbx
0x41320c:	pop	rbp
0x41320d:	ret	
F 0x41ac18
0x40d016:	ret	
F 0x418c7f
0x418c7f:	cmp	eax, 0x48ffff5e
0x418c84:	lea	edx, [rip - 0x4ea]
0x418c8a:	mov	qword ptr [rax + 0x90], rdx
0x418c91:	pop	rbp
0x418c92:	ret	
F 0x41af87
0x41083e:	pop	rbp
0x41083f:	pop	r14
0x410841:	ret	
F 0x4204eb
0x4204eb:	mov	eax, dword ptr [rip + 0x18e9f]
0x4204f1:	add	rsp, 0x18
0x4204f5:	ret	
F 0x41a09b
0x40d016:	ret	
F 0x41c3b6
0x40d016:	ret	
F 0x412e6c
0x412cec:	add	rsp, 0x38
0x412cf0:	pop	rbx
0x412cf1:	pop	rbp
0x412cf2:	ret	
F 0x41e003
0x41cbaa:	adc	byte ptr [rax - 0x77], cl
0x41cbad:	ret	
F 0x411ccf
0x411ccf:	sub	al, ch
0x411cd1:	stosd	dword ptr [rdi], eax
0x411cd2:	ret	
F 0x410f4e
0x40d016:	ret	
F 0x41996d
0x41053a:	pop	rbp
0x41053b:	pop	r12
0x41053d:	ret	
F 0x4181c0
0x40f630:	add	al, byte ptr [rax]
0x40f632:	add	rsp, 0x10
0x40f636:	pop	rbp
0x40f637:	ret	
F 0x40f783
0x40f783:	cdq	
0x40f784:	cdq	
0x40f785:	add	al, byte ptr [rax]
0x40f787:	add	rax, rdi
0x40f78a:	mov	qword ptr [rdi + 0x28], rax
0x40f78e:	ret	
F 0x4112dd
0x41083e:	pop	rbp
0x41083f:	pop	r14
0x410841:	ret	
F 0x420f10
0x419710:	add	dword ptr [rax], eax
0x419712:	add	rsp, 0x10
0x419716:	pop	rbp
0x419717:	ret	
F 0x41d424
0x41d404:	mov	dh, 0xc0
0x41d406:	ret	
F 0x413dd2
0x40d016:	ret	
F 0x4183a8
0x40f718:	dec	dword ptr [rax - 0x77]
0x40f71b:	ret	
F 0x416810
0x40d016:	ret	
F 0x4204cd
0x40d016:	ret	
F 0x41b3cb
0x40f577:	pop	r14
0x40f579:	pop	r15
0x40f57b:	ret	
F 0x40f6c8
0x40f6c8:	nop	dword ptr [rax + rax]
0x40f6d0:	xor	eax, eax
0x40f6d2:	pop	rbp
0x40f6d3:	ret	
F 0x418e5c
0x41053a:	pop	rbp
0x41053b:	pop	r12
0x41053d:	ret	
F 0x418d16
0x418d16:	adc	r8b, bpl
0x418d19:	ret	
F 0x410768
0x40f718:	dec	dword ptr [rax - 0x77]
0x40f71b:	ret	
F 0x410ed5
0x410ed5:	or	byte ptr [rax - 0x7b], cl
0x410ed8:	sal	byte ptr [rbp + rdx + 0x48], 0x8b
0x410edd:	add	eax, 0x2820e
0x410ee2:	add	rsp, 0x10
0x410ee6:	pop	rbp
0x410ee7:	ret	
F 0x4217f9
0x4217f9:	add	al, 0x5b
0x4217fc:	ret	
F 0x42667b
0x42667b:	add	eax, 0x12da8
0x426680:	add	rsp, 0x18
0x426684:	ret	
F 0x420f77
0x419710:	add	dword ptr [rax], eax
0x419712:	add	rsp, 0x10
0x419716:	pop	rbp
0x419717:	ret	
F 0x41d51f
0x419b8f:	add	dword ptr [rax], eax
0x419b91:	add	rsp, 0x18
0x419b95:	ret	
F 0x41f0cd
0x41f0cd:	add	eax, 0x1a286
0x41f0d2:	add	rsp, 0x10
0x41f0d6:	pop	rbp
0x41f0d7:	ret	
F 0x420bd9
0x4154f9:	mov	rax, qword ptr [rax + 0x10]
0x4154fd:	ret	
F 0x40efc9
0x40efc9:	add	byte ptr [rax], al
0x40efcb:	mov	qword ptr [rax + 0x30], rdx
0x40efcf:	pop	rbp
0x40efd0:	ret	
F 0x411686
0x411686:	or	byte ptr [rdi + rax + 0x48], dh
0x41168a:	mov	dword ptr [rdx], eax
0x41168c:	xor	eax, eax
0x41168e:	ret	
F 0x426b4b
0x40d016:	ret	
F 0x412f24
0x412f24:	movabs	byte ptr [0x8c48348c031ffff], al
0x412f2d:	ret	
F 0x414343
0x41083d:	pop	r13
0x41083f:	pop	r14
0x410841:	ret	
F 0x41ad68
0x40dc57:	ret	0
F 0x419b95
0x40d016:	ret	
F 0x4262a6
0x40f57a:	pop	rdi
0x40f57b:	ret	
F 0x4196b8
0x40f448:	pop	r13
0x40f44a:	ret	
F 0x40f573
0x40f573:	pop	r12
0x40f575:	pop	r13
0x40f577:	pop	r14
0x40f579:	pop	r15
0x40f57b:	ret	
F 0x418804
0x40d016:	ret	
F 0x40fb0b
0x40f578:	pop	rsi
0x40f579:	pop	r15
0x40f57b:	ret	
F 0x41175c
0x41053a:	pop	rbp
0x41053b:	pop	r12
0x41053d:	ret	
F 0x425c28
0x40f575:	pop	r13
0x40f577:	pop	r14
0x40f579:	pop	r15
0x40f57b:	ret	
F 0x4262a7
0x40d016:	ret	
F 0x410f42
0x410f42:	mov	rax, qword ptr [rip + 0x281a7]
0x410f49:	add	rsp, 0x10
0x410f4d:	pop	rbp
0x410f4e:	ret	
F 0x41c3a4
0x41053a:	pop	rbp
0x41053b:	pop	r12
0x41053d:	ret	
F 0x41d41b
0x41d41b:	add	al, 0xf
0x41d41d:	xchg	eax, esi
0x41d41e:	ror	byte ptr [rax - 0x7d], 0xc4
0x41d422:	or	byte ptr [rdi], cl
0x41d424:	mov	dh, 0xc0
0x41d426:	ret	
F 0x410da9
0x40d012:	add	rsp, 8
0x40d016:	ret	
F 0x40f317
0x40f289:	add	byte ptr [rax - 0x77], cl
0x40f28c:	ret	
F 0x41cf39
0x40d016:	ret	
F 0x424955
0x40f572:	pop	rbp
0x40f573:	pop	r12
0x40f575:	pop	r13
0x40f577:	pop	r14
0x40f579:	pop	r15
0x40f57b:	ret	
F 0x41182d
0x40d016:	ret	
F 0x421877
0x40d016:	ret	
F 0x416970
0x416970:	and	al, 0xc
0x416972:	add	rsp, 0x10
0x416976:	pop	rbx
0x416977:	pop	rbp
0x416978:	pop	r12
0x41697a:	ret	
F 0x42083f
0x42083f:	dec	dword ptr [rax - 0x77]
0x420842:	ret	0x98e8
F 0x41acc8
0x41acc8:	adc	byte ptr [rax - 0x75], cl
0x41accb:	ret	
F 0x40d016
0x40d016:	ret	
F 0x41c62b
0x40f445:	pop	rbp
0x40f446:	pop	r12
0x40f448:	pop	r13
0x40f44a:	ret	
F 0x42053d
0x40d016:	ret	
F 0x419830
0x40d016:	ret	
F 0x410199
0x40f579:	pop	r15
0x40f57b:	ret	
F 0x41f0d7
0x40d016:	ret	
F 0x419bcb
0x4111e1:	add	rsp, 0x18
0x4111e5:	ret	
F 0x41f4e5
0x41f4e5:	add	byte ptr [rax], al
0x41f4e7:	add	rsp, 0x70
0x41f4eb:	pop	rbx
0x41f4ec:	pop	rbp
0x41f4ed:	pop	r12
0x41f4ef:	ret	
F 0x4266b6
0x40eedf:	pop	rbp
0x40eee0:	ret	
F 0x424da4
0x40f576:	pop	rbp
0x40f577:	pop	r14
0x40f579:	pop	r15
0x40f57b:	ret	
F 0x41d4c9
0x411664:	pop	rbx
0x411665:	ret	
F 0x41acb9
0x40d012:	add	rsp, 8
0x40d016:	ret	
F 0x42281a
0x40d016:	ret	
F 0x41179a
0x41175b:	pop	rbx
0x41175c:	pop	rbp
0x41175d:	pop	r12
0x41175f:	ret	
F 0x41cfb7
0x419710:	add	dword ptr [rax], eax
0x419712:	add	rsp, 0x10
0x419716:	pop	rbp
0x419717:	ret	
F 0x411f00
0x40f577:	pop	r14
0x40f579:	pop	r15
0x40f57b:	ret	
F 0x40f694
0x40f694:	add	eax, 0x29a17
0x40f699:	add	rsp, 0x10
0x40f69d:	pop	rbp
0x40f69e:	ret	
F 0x41acb4
0x41ac24:	and	eax, 0xc031ffff
0x41ac29:	add	rsp, 8
0x41ac2d:	ret	
F 0x4187a0
0x40d016:	ret	
F 0x412da9
0x412ce9:	add	byte ptr [rbp + 0x37], dh
0x412cec:	add	rsp, 0x38
0x412cf0:	pop	rbx
0x412cf1:	pop	rbp
0x412cf2:	ret	
F 0x4219da
0x4219da:	rol	dword ptr [rbx + 0x438906e8], 0x78
0x4219e1:	pop	rbx
0x4219e2:	ret	
F 0x41f074
0x41f074:	inc	dword ptr [rbp + 0x4c0774c0]
0x41f07a:	mov	eax, esp
0x41f07c:	pop	r12
0x41f07e:	ret	
F 0x41a314
0x40eedf:	pop	rbp
0x40eee0:	ret	
F 0x412cef
0x412cef:	cmp	byte ptr [rbx + 0x5d], bl
0x412cf2:	ret	
F 0x414dc4
0x414dc4:	xchg	edi, edi
0x414dc6:	dec	dword ptr [rax - 0x77]
0x414dc9:	ret	
F 0x41b442
0x41b442:	add	eax, 0x1deb1
0x41b447:	add	rax, rdi
0x41b44a:	mov	qword ptr [rdi + 0x30], rax
0x41b44e:	ret	
F 0x41b88f
0x411ef8:	add	byte ptr [rax], al
0x411efa:	pop	rbx
0x411efb:	pop	rbp
0x411efc:	pop	r12
0x411efe:	pop	r13
0x411f00:	pop	r14
0x411f02:	pop	r15
0x411f04:	ret	
F 0x41c0c6
0x417306:	add	rsp, 0x38
0x41730a:	pop	rbx
0x41730b:	pop	rbp
0x41730c:	pop	r12
0x41730e:	pop	r14
0x417310:	ret	
F 0x42246d
0x40eedf:	pop	rbp
0x40eee0:	ret	
F 0x418834
0x411610:	mov	dword ptr [rdi + 8], 1
0x411617:	ret	
F 0x422cac
0x41083a:	pop	rbp
0x41083b:	pop	r12
0x41083d:	pop	r13
0x41083f:	pop	r14
0x410841:	ret	
F 0x411658
0x411658:	dec	dword ptr [rax - 0x73]
0x41165b:	add	eax, 0xdf0
0x411660:	mov	qword ptr [rbx + 8], rax
0x411664:	pop	rbx
0x411665:	ret	
F 0x424ab3
0x40d016:	ret	
F 0x40f777
0x40ef17:	add	rax, rdi
0x40ef1a:	mov	qword ptr [rdi + 0x28], rax
0x40ef1e:	ret	
F 0x40eee4
0x40ee64:	add	byte ptr [rax], al
0x40ee66:	add	byte ptr [rax], al
0x40ee68:	ret	
F 0x411bca
0x411bca:	mov	eax, ecx
0x411bcc:	pop	rbx
0x411bcd:	pop	rbp
0x411bce:	pop	r12
0x411bd0:	pop	r13
0x411bd2:	ret	
F 0x4152bd
0x410835:	add	rsp, 0x20
0x410839:	pop	rbx
0x41083a:	pop	rbp
0x41083b:	pop	r12
0x41083d:	pop	r13
0x41083f:	pop	r14
0x410841:	ret	
F 0x424613
0x40d016:	ret	
F 0x425e93
0x425cc3:	add	rsp, 0x50
0x425cc8:	pop	rbp
0x425cc9:	ret	
F 0x41175f
0x40d016:	ret	
F 0x418f13
0x412496:	add	rsp, 8
0x41249a:	pop	rbx
0x41249b:	pop	rbp
0x41249c:	ret	
F 0x40f571
0x40f571:	pop	rbx
0x40f572:	pop	rbp
0x40f573:	pop	r12
0x40f575:	pop	r13
0x40f577:	pop	r14
0x40f579:	pop	r15
0x40f57b:	ret	
F 0x420772
0x420772:	add	byte ptr [rcx + rcx*4 - 0x18], cl
0x420776:	pop	rbx
0x420777:	pop	rbp
0x420778:	pop	r12
0x42077a:	pop	r13
0x42077c:	pop	r14
0x42077e:	pop	r15
0x420780:	ret	
F 0x4143b1
0x41083f:	pop	r14
0x410841:	ret	
F 0x415ebd
0x41083d:	pop	r13
0x41083f:	pop	r14
0x410841:	ret	
F 0x4218fd
0x4218fd:	mov	eax, dword ptr [rip + 0x17afd]
0x421903:	add	rsp, 0x18
0x421907:	ret	
F 0x4131aa
0x40eedf:	pop	rbp
0x40eee0:	ret	
F 0x417045
0x417045:	or	byte ptr [rax - 0x7b], cl
0x417048:	sal	byte ptr [rbp + rdx + 0x48], 0x8b
0x41704d:	add	eax, 0x22226
0x417052:	add	rsp, 0x10
0x417056:	pop	rbp
0x417057:	ret	
F 0x411613
0x411613:	add	dword ptr [rax], eax
0x411615:	add	byte ptr [rax], al
0x411617:	ret	
F 0x41970e
0x41970e:	scasb	al, byte ptr [rdi]
0x41970f:	sti	
F 0x40ef12
0x40ef12:	add	eax, 0x2a1b1
0x40ef17:	add	rax, rdi
0x40ef1a:	mov	qword ptr [rdi + 0x28], rax
0x40ef1e:	ret	
F 0x423850
0x40f289:	add	byte ptr [rax - 0x77], cl
0x40f28c:	ret	
F 0x41bd50
0x419710:	add	dword ptr [rax], eax
0x419712:	add	rsp, 0x10
0x419716:	pop	rbp
0x419717:	ret	
F 0x41163e
0x41163e:	mov	dword ptr [rax + 0x38], 0
0x411645:	ret	
F 0x41f34d
0x41f34d:	nop	dword ptr [rax]
0x41f350:	mov	eax, dword ptr [rsi + 8]
0x41f353:	cmp	dword ptr [rdi + 8], eax
0x41f356:	sete	al
0x41f359:	add	rsp, 8
0x41f35d:	movzx	eax, al
0x41f360:	ret	
F 0x41d189
0x41d189:	test	byte ptr [rax], al
0x41d18b:	add	byte ptr [rax], al
0x41d18d:	add	byte ptr [rax], al
0x41d18f:	nop	
0x41d190:	ret	
F 0x41a7fa
0x41053a:	pop	rbp
0x41053b:	pop	r12
0x41053d:	ret	
F 0x4123a0
0x4123a0:	pop	rbx
0x4123a1:	xor	eax, eax
0x4123a3:	pop	rbp
0x4123a4:	pop	r12
0x4123a6:	pop	r13
0x4123a8:	pop	r14
0x4123aa:	ret	
F 0x41d145
0x41d145:	dec	dword ptr [rax - 0x77]
0x41d148:	ret	0xd2e8
F 0x41b1e6
0x412496:	add	rsp, 8
0x41249a:	pop	rbx
0x41249b:	pop	rbp
0x41249c:	ret	
F 0x4170b4
0x4170b4:	add	eax, 0x221bf
0x4170b9:	add	rsp, 0x10
0x4170bd:	pop	rbp
0x4170be:	ret	
F 0x41bdb3
0x41bdb3:	mov	eax, dword ptr [rip + 0x1d527]
0x41bdb9:	add	rsp, 0x10
0x41bdbd:	pop	rbp
0x41bdbe:	ret	
F 0x42307c
0x40f577:	pop	r14
0x40f579:	pop	r15
0x40f57b:	ret	
F 0x422e0e
0x41c2a7:	add	byte ptr [rax], al
0x41c2a9:	pop	rbx
0x41c2aa:	pop	rbp
0x41c2ab:	pop	r12
0x41c2ad:	ret	
F 0x414a7f
0x414a7f:	add	al, ch
0x414a81:	cmp	ebx, dword ptr [rbx - 0x74b70001]
0x414a87:	add	eax, 0x24754
0x414a8c:	add	rsp, 0x10
0x414a90:	pop	rbp
0x414a91:	ret	
F 0x41b01d
0x41243d:	add	byte ptr [rax], r8b
0x412440:	mov	rax, qword ptr [rbx + 8]
0x412444:	pop	rbx
0x412445:	ret	
F 0x425cc9
0x40d016:	ret	
F 0x41dc83
0x40d016:	ret	
F 0x41ac0a
0x412f09:	mov	eax, dword ptr [rax + 0x20]
0x412f0c:	ret	
F 0x41c66b
0x40f445:	pop	rbp
0x40f446:	pop	r12
0x40f448:	pop	r13
0x40f44a:	ret	
F 0x411344
0x411344:	mov	esi, 0xc031ffff
0x411349:	add	rsp, 8
0x41134d:	ret	
F 0x4156bd
0x40d016:	ret	
F 0x414401
0x40fb00:	add	rsp, 0x58
0x40fb04:	pop	rbx
0x40fb05:	pop	rbp
0x40fb06:	pop	r12
0x40fb08:	pop	r13
0x40fb0a:	pop	r14
0x40fb0c:	pop	r15
0x40fb0e:	ret	
F 0x40f407
0x40f407:	ret	0xa3e8
F 0x41fb4e
0x40d016:	ret	
F 0x4122f5
0x40d016:	ret	
F 0x417ded
0x40f571:	pop	rbx
0x40f572:	pop	rbp
0x40f573:	pop	r12
0x40f575:	pop	r13
0x40f577:	pop	r14
0x40f579:	pop	r15
0x40f57b:	ret	
F 0x40f444
0x40f444:	pop	rbx
0x40f445:	pop	rbp
0x40f446:	pop	r12
0x40f448:	pop	r13
0x40f44a:	ret	
F 0x41877f
0x41877f:	or	byte ptr [rcx + rcx*4 - 0x18], cl
0x418783:	pop	rbx
0x418784:	pop	rbp
0x418785:	pop	r12
0x418787:	pop	r13
0x418789:	pop	r14
0x41878b:	pop	r15
0x41878d:	ret	
F 0x4262a4
0x40f578:	pop	rsi
0x40f579:	pop	r15
0x40f57b:	ret	
F 0x41c29a
0x41c29a:	mov	dword ptr [rbx], edx
0x41c29c:	mov	qword ptr [rdi + rax*8], r12
0x41c2a0:	mov	qword ptr [rdi + rax*8 + 8], 0
0x41c2a9:	pop	rbx
0x41c2aa:	pop	rbp
0x41c2ab:	pop	r12
0x41c2ad:	ret	
F 0x4266a8
0x4266a8:	sal	byte ptr [rbp + rdx + 0x48], 0x8b
0x4266ad:	add	eax, 0x12d6e
0x4266b2:	add	rsp, 0x10
0x4266b6:	pop	rbp
0x4266b7:	ret	
F 0x414341
0x41083b:	pop	r12
0x41083d:	pop	r13
0x41083f:	pop	r14
0x410841:	ret	
F 0x423074
0x411ef8:	add	byte ptr [rax], al
0x411efa:	pop	rbx
0x411efb:	pop	rbp
0x411efc:	pop	r12
0x411efe:	pop	r13
0x411f00:	pop	r14
0x411f02:	pop	r15
0x411f04:	ret	
F 0x41f791
0x41c2a1:	mov	dword ptr [rdi + rax*8 + 8], 0
0x41c2a9:	pop	rbx
0x41c2aa:	pop	rbp
0x41c2ab:	pop	r12
0x41c2ad:	ret	
F 0x41f75c
0x41f75c:	movabs	al, byte ptr [0x5de0894c5bfffeda]
0x41f765:	pop	r12
0x41f767:	pop	r13
0x41f769:	pop	r14
0x41f76b:	ret	
F 0x416c56
0x40d016:	ret	
F 0x41a7fd
0x40d016:	ret	
F 0x41ae3b
0x41ae3b:	mov	eax, dword ptr [rip + 0x1e46f]
0x41ae41:	add	rsp, 0x10
0x41ae45:	pop	rbp
0x41ae46:	ret	
F 0x412ef3
0x412ef3:	or	dword ptr [rbx - 0x3fce0001], esp
0x412ef9:	add	rsp, 8
0x412efd:	ret	
F 0x416976
0x41175b:	pop	rbx
0x41175c:	pop	rbp
0x41175d:	pop	r12
0x41175f:	ret	
F 0x412c28
0x411ef8:	add	byte ptr [rax], al
0x411efa:	pop	rbx
0x411efb:	pop	rbp
0x411efc:	pop	r12
0x411efe:	pop	r13
0x411f00:	pop	r14
0x411f02:	pop	r15
0x411f04:	ret	
F 0x42451a
0x40d016:	ret	
F 0x42170e
0x42170e:	add	dword ptr [rax], eax
0x421710:	lea	rax, [rip + 0x219]
0x421717:	mov	qword ptr [rbx + 8], rax
0x42171b:	pop	rbx
0x42171c:	ret	
F 0x41c0d0
0x40d016:	ret	
F 0x423165
0x423165:	add	byte ptr [rax], al
0x423167:	add	al, ch
0x423169:	ret	
F 0x415f89
0x41083e:	pop	rbp
0x41083f:	pop	r14
0x410841:	ret	
F 0x41b54e
0x40ee66:	add	byte ptr [rax], al
0x40ee68:	ret	
F 0x4127ab
0x40d012:	add	rsp, 8
0x40d016:	ret	
F 0x4192a0
0x41083e:	pop	rbp
0x41083f:	pop	r14
0x410841:	ret	
F 0x41102b
0x410840:	pop	rsi
0x410841:	ret	
F 0x41d1a8
0x41d1a8:	add	eax, edi
0x41d1aa:	mov	qword ptr [rdi + 0x30], rax
0x41d1ae:	mov	qword ptr [rax], 0
0x41d1b5:	ret	
F 0x4156b9
0x412ed9:	mov	rax, qword ptr [rax + 0x18]
0x412edd:	ret	
F 0x418d1d
0x418d1d:	pop	rdx
0x418d1e:	pop	rcx
0x418d1f:	pop	rbx
0x418d20:	pop	rbp
0x418d21:	pop	r12
0x418d23:	pop	r13
0x418d25:	pop	r14
0x418d27:	ret	
F 0x4117ab
0x4117ab:	or	byte ptr [rcx], al
0x4117ae:	mov	qword ptr [rsi + 8], rax
0x4117b2:	ret	
F 0x410b10
0x40f630:	add	al, byte ptr [rax]
0x40f632:	add	rsp, 0x10
0x40f636:	pop	rbp
0x40f637:	ret	
F 0x41dc75
0x41dc75:	add	rsp, 0x48
0x41dc79:	pop	rbx
0x41dc7a:	pop	rbp
0x41dc7b:	pop	r12
0x41dc7d:	pop	r13
0x41dc7f:	pop	r14
0x41dc81:	pop	r15
0x41dc83:	ret	
F 0x422519
0x416d39:	mov	eax, 1
0x416d3e:	add	rsp, 8
0x416d42:	ret	
F 0x41b89b
0x40d016:	ret	
F 0x41b6d0
0x419710:	add	dword ptr [rax], eax
0x419712:	add	rsp, 0x10
0x419716:	pop	rbp
0x419717:	ret	
F 0x40f6d0
0x40f6d0:	xor	eax, eax
0x40f6d2:	pop	rbp
0x40f6d3:	ret	
F 0x420b2f
0x40eedf:	pop	rbp
0x40eee0:	ret	
F 0x425c1b
0x425c1b:	add	byte ptr [rax], al
0x425c1d:	add	byte ptr [rbp + 0x57], dh
0x425c20:	add	rsp, 0x48
0x425c24:	pop	rbx
0x425c25:	pop	rbp
0x425c26:	pop	r12
0x425c28:	pop	r13
0x425c2a:	pop	r14
0x425c2c:	pop	r15
0x425c2e:	ret	
F 0x41f708
0x41083e:	pop	rbp
0x41083f:	pop	r14
0x410841:	ret	
F 0x4156ba
0x412eda:	mov	eax, dword ptr [rax + 0x18]
0x412edd:	ret	
F 0x40fb05
0x40f572:	pop	rbp
0x40f573:	pop	r12
0x40f575:	pop	r13
0x40f577:	pop	r14
0x40f579:	pop	r15
0x40f57b:	ret	
F 0x421481
0x410838:	and	byte ptr [rbx + 0x5d], bl
0x41083b:	pop	r12
0x41083d:	pop	r13
0x41083f:	pop	r14
0x410841:	ret	
F 0x4216e4
0x4216e4:	cmp	dword ptr [rax], 1
0x4216e7:	seta	al
0x4216ea:	movzx	eax, al
0x4216ed:	ret	
F 0x4205a2
0x4205a2:	mov	rax, qword ptr [rip + 0x18ddf]
0x4205a9:	add	rsp, 0x18
0x4205ad:	ret	
F 0x41234e
0x4111e1:	add	rsp, 0x18
0x4111e5:	ret	
F 0x412e71
0x40eedf:	pop	rbp
0x40eee0:	ret	
F 0x4123a6
0x41083d:	pop	r13
0x41083f:	pop	r14
0x410841:	ret	
F 0x41d2ce
0x40ee66:	add	byte ptr [rax], al
0x40ee68:	ret	
F 0x41b43b
0x41b43b:	add	byte ptr [rax], al
0x41b43d:	nop	dword ptr [rax]
0x41b440:	movsxd	rax, dword ptr [rip + 0x1deb1]
0x41b447:	add	rax, rdi
0x41b44a:	mov	qword ptr [rdi + 0x30], rax
0x41b44e:	ret	
F 0x413853
0x40f577:	pop	r14
0x40f579:	pop	r15
0x40f57b:	ret	
F 0x418115
0x415942:	cwde	
0x415943:	add	byte ptr [rax], al
0x415945:	add	byte ptr [rbx + 0x5d], bl
0x415948:	pop	r12
0x41594a:	pop	r13
0x41594c:	pop	r14
0x41594e:	pop	r15
0x415950:	ret	
F 0x415a79
0x40d016:	ret	
F 0x419aac
0x414988:	rcr	byte ptr [rbp + 0x41], 0x5c
0x41498c:	ret	
F 0x4228f7
0x416d3a:	add	dword ptr [rax], eax
0x416d3c:	add	byte ptr [rax], al
0x416d3e:	add	rsp, 8
0x416d42:	ret	
F 0x4216ed
0x40d016:	ret	
F 0x410b73
0x410b73:	mov	eax, dword ptr [rip + 0x2857f]
0x410b79:	add	rsp, 0x10
0x410b7d:	pop	rbp
0x410b7e:	ret	
F 0x4114f0
0x40d016:	ret	
F 0x40ef10
0x40ef10:	movsxd	rax, dword ptr [rip + 0x2a1b1]
0x40ef17:	add	rax, rdi
0x40ef1a:	mov	qword ptr [rdi + 0x28], rax
0x40ef1e:	ret	
F 0x415a18
0x415a18:	sal	byte ptr [rbp + rdx + 0x48], 0x8b
0x415a1d:	add	eax, 0x2380e
0x415a22:	add	rsp, 0x10
0x415a26:	pop	rbp
0x415a27:	ret	
F 0x41b0c1
0x41b0c1:	add	rsp, 0x28
0x41b0c5:	pop	rbx
0x41b0c6:	pop	rbp
0x41b0c7:	ret	
F 0x420bcd
0x40d016:	ret	
F 0x41ac9a
0x41399a:	mov	eax, dword ptr [rax + 0x38]
0x41399d:	ret	
F 0x419b8f
0x419b8f:	add	dword ptr [rax], eax
0x419b91:	add	rsp, 0x18
0x419b95:	ret	
F 0x410dba
0x4104aa:	xor	byte ptr [rbp + 3], dh
0x4104ad:	ret	
F 0x41d5ec
0x40d016:	ret	
F 0x42077e
0x40f579:	pop	r15
0x40f57b:	ret	
F 0x421718
0x411661:	mov	dword ptr [rbx + 8], eax
0x411664:	pop	rbx
0x411665:	ret	
F 0x411753
0x411753:	or	byte ptr [rcx], al
0x411755:	xor	eax, eax
0x411757:	mov	qword ptr [rbx + 8], rbp
0x41175b:	pop	rbx
0x41175c:	pop	rbp
0x41175d:	pop	r12
0x41175f:	ret	
F 0x419a6e
0x419a6e:	add	dword ptr [rax], eax
0x419a70:	add	byte ptr [rax], al
0x419a72:	mov	eax, r8d
0x419a75:	pop	rbp
0x419a76:	pop	r12
0x419a78:	ret	
F 0x41d517
0x41d517:	sal	byte ptr [rsi + rdx + 0x48], 0x8b
0x41d51c:	add	eax, 0x1be3f
0x41d521:	add	rsp, 0x18
0x41d525:	ret	
F 0x421235
0x421235:	mov	edx, 0x8948fffe
0x42123b:	ret	
F 0x42171b
0x411664:	pop	rbx
0x411665:	ret	
F 0x416b5d
0x40f572:	pop	rbp
0x40f573:	pop	r12
0x40f575:	pop	r13
0x40f577:	pop	r14
0x40f579:	pop	r15
0x40f57b:	ret	
F 0x415945
0x411ef9:	add	byte ptr [rbx + 0x5d], bl
0x411efc:	pop	r12
0x411efe:	pop	r13
0x411f00:	pop	r14
0x411f02:	pop	r15
0x411f04:	ret	
F 0x422156
0x40f576:	pop	rbp
0x40f577:	pop	r14
0x40f579:	pop	r15
0x40f57b:	ret	
F 0x41280f
0x40d016:	ret	
F 0x416057
0x41083e:	pop	rbp
0x41083f:	pop	r14
0x410841:	ret	
F 0x41982d
0x40f6d0:	xor	eax, eax
0x40f6d2:	pop	rbp
0x40f6d3:	ret	
F 0x420774
0x418781:	mov	eax, ebp
0x418783:	pop	rbx
0x418784:	pop	rbp
0x418785:	pop	r12
0x418787:	pop	r13
0x418789:	pop	r14
0x41878b:	pop	r15
0x41878d:	ret	
F 0x4239ed
0x4239ed:	mov	dword ptr [rsp], ebp
0x4239f0:	pop	rbp
0x4239f1:	mov	dword ptr [r12 + 8], eax
0x4239f6:	mov	rax, r12
0x4239f9:	pop	r12
0x4239fb:	ret	
F 0x422e0a
0x41fc2a:	test	byte ptr [rax], al
0x41fc2c:	add	byte ptr [rax], al
0x41fc2e:	add	byte ptr [rax], al
0x41fc30:	pop	rbx
0x41fc31:	pop	rbp
0x41fc32:	pop	r12
0x41fc34:	ret	
F 0x41f087
0x41f087:	xor	eax, 0x4cffff36
0x41f08c:	mov	eax, esp
0x41f08e:	pop	r12
0x41f090:	ret	
F 0x419da2
0x419da2:	sub	byte ptr [rcx + rcx*4 - 8], cl
0x419da6:	pop	rbx
0x419da7:	pop	rbp
0x419da8:	pop	r12
0x419daa:	pop	r13
0x419dac:	pop	r14
0x419dae:	pop	r15
0x419db0:	ret	
F 0x41680a
0x40eea2:	nop	word ptr [rax + rax]
0x40eea8:	ret	
F 0x41ad49
0x40d012:	add	rsp, 8
0x40d016:	ret	
F 0x4196ba
0x40d016:	ret	
F 0x412674
0x412569:	or	byte ptr [rbx + 0x5d], bl
0x41256c:	pop	r12
0x41256e:	pop	r13
0x412570:	pop	r14
0x412572:	pop	r15
0x412574:	ret	
F 0x4113ab
0x4113ab:	mov	rax, qword ptr [rip + 0x27d2e]
0x4113b2:	add	rsp, 0x10
0x4113b6:	pop	rbp
0x4113b7:	ret	
F 0x41ff76
0x40d016:	ret	
F 0x411df6
0x40f573:	pop	r12
0x40f575:	pop	r13
0x40f577:	pop	r14
0x40f579:	pop	r15
0x40f57b:	ret	
F 0x41d3fd
0x41d3fd:	xchg	eax, edi
0x41d3fe:	ror	byte ptr [rax - 0x7d], 0xc4
0x41d402:	or	byte ptr [rdi], cl
0x41d404:	mov	dh, 0xc0
0x41d406:	ret	
F 0x420f05
0x420f05:	or	byte ptr [rax - 0x7b], cl
0x420f08:	sal	byte ptr [rbp + rdx + 0x48], 0x8b
0x420f0d:	add	eax, 0x1846e
0x420f12:	add	rsp, 0x10
0x420f16:	pop	rbp
0x420f17:	ret	
F 0x410c54
0x410839:	pop	rbx
0x41083a:	pop	rbp
0x41083b:	pop	r12
0x41083d:	pop	r13
0x41083f:	pop	r14
0x410841:	ret	
F 0x41ad29
0x41ad29:	mov	eax, dword ptr [rax + 0x4c]
0x41ad2c:	ret	
F 0x410b77
0x40f630:	add	al, byte ptr [rax]
0x40f632:	add	rsp, 0x10
0x40f636:	pop	rbp
0x40f637:	ret	
F 0x422148
0x413dbf:	add	byte ptr [rax], al
0x413dc1:	add	rsp, 0xb8
0x413dc8:	pop	rbx
0x413dc9:	pop	rbp
0x413dca:	pop	r12
0x413dcc:	pop	r13
0x413dce:	pop	r14
0x413dd0:	pop	r15
0x413dd2:	ret	
F 0x40ef0c
0x40ef0c:	nop	dword ptr [rax]
0x40ef10:	movsxd	rax, dword ptr [rip + 0x2a1b1]
0x40ef17:	add	rax, rdi
0x40ef1a:	mov	qword ptr [rdi + 0x28], rax
0x40ef1e:	ret	
F 0x417df4
0x40f578:	pop	rsi
0x40f579:	pop	r15
0x40f57b:	ret	
F 0x418f83
0x412496:	add	rsp, 8
0x41249a:	pop	rbx
0x41249b:	pop	rbp
0x41249c:	ret	
F 0x40eee6
0x40ee66:	add	byte ptr [rax], al
0x40ee68:	ret	
F 0x410ed8
0x410ed8:	sal	byte ptr [rbp + rdx + 0x48], 0x8b
0x410edd:	add	eax, 0x2820e
0x410ee2:	add	rsp, 0x10
0x410ee6:	pop	rbp
0x410ee7:	ret	
F 0x4118b7
0x40eff3:	xor	eax, eax
0x40eff5:	add	rsp, 8
0x40eff9:	ret	
F 0x41dbd1
0x41dbd1:	sbb	byte ptr [rcx], ch
0x41dbd3:	ret	
F 0x422461
0x422461:	dec	dword ptr [rax - 0x75]
0x422464:	add	eax, 0x16f8f
0x422469:	add	rsp, 0x10
0x42246d:	pop	rbp
0x42246e:	ret	
F 0x41d1d0
0x41d1d0:	lea	rax, [rip + 0x3c9]
0x41d1d7:	mov	qword ptr [rbx + 8], rax
0x41d1db:	pop	rbx
0x41d1dc:	ret	
F 0x4166d1
0x40d016:	ret	
F 0x41f353
0x41f353:	cmp	dword ptr [rdi + 8], eax
0x41f356:	sete	al
0x41f359:	add	rsp, 8
0x41f35d:	movzx	eax, al
0x41f360:	ret	
F 0x41b3c9
0x40f575:	pop	r13
0x40f577:	pop	r14
0x40f579:	pop	r15
0x40f57b:	ret	
F 0x4178ae
0x40d016:	ret	
F 0x414405
0x40f571:	pop	rbx
0x40f572:	pop	rbp
0x40f573:	pop	r12
0x40f575:	pop	r13
0x40f577:	pop	r14
0x40f579:	pop	r15
0x40f57b:	ret	
F 0x416239
0x40d016:	ret	
F 0x422e10
0x41175b:	pop	rbx
0x41175c:	pop	rbp
0x41175d:	pop	r12
0x41175f:	ret	
F 0x416fcb
0x40f575:	pop	r13
0x40f577:	pop	r14
0x40f579:	pop	r15
0x40f57b:	ret	
F 0x41725e
0x41083f:	pop	r14
0x410841:	ret	
F 0x41333e
0x40f443:	or	byte ptr [rbx + 0x5d], bl
0x40f446:	pop	r12
0x40f448:	pop	r13
0x40f44a:	ret	
F 0x420b09
0x40f446:	pop	r12
0x40f448:	pop	r13
0x40f44a:	ret	
F 0x423cd1
0x423cd1:	add	dword ptr [rsp + rcx + 0x5d], esi
0x423cd5:	pop	r12
0x423cd7:	pop	r13
0x423cd9:	ret	
F 0x41b899
0x40f579:	pop	r15
0x40f57b:	ret	
F 0x41b44b
0x41b44b:	mov	dword ptr [rdi + 0x30], eax
0x41b44e:	ret	
F 0x40f632
0x40f632:	add	rsp, 0x10
0x40f636:	pop	rbp
0x40f637:	ret	
F 0x41128e
0x41128e:	cmp	al, ch
0x411290:	lodsb	al, byte ptr [rsi]
0x411291:	ret	
F 0x424aab
0x424aab:	add	rsp, 0x30
0x424aaf:	pop	rbx
0x424ab0:	pop	rbp
0x424ab1:	pop	r12
0x424ab3:	ret	
F 0x42184d
0x42184d:	nop	dword ptr [rax]
0x421850:	xor	eax, eax
0x421852:	ret	
F 0x41970d
0x41970d:	add	eax, 0x1fbae
0x419712:	add	rsp, 0x10
0x419716:	pop	rbp
0x419717:	ret	
F 0x411643
0x40ee66:	add	byte ptr [rax], al
0x40ee68:	ret	
F 0x40f6d2
0x40eedf:	pop	rbp
0x40eee0:	ret	
F 0x41ae3c
0x41ae3c:	add	eax, 0x1e46f
0x41ae41:	add	rsp, 0x10
0x41ae45:	pop	rbp
0x41ae46:	ret	
F 0x418121
0x40f579:	pop	r15
0x40f57b:	ret	
F 0x41b891
0x40f571:	pop	rbx
0x40f572:	pop	rbp
0x40f573:	pop	r12
0x40f575:	pop	r13
0x40f577:	pop	r14
0x40f579:	pop	r15
0x40f57b:	ret	
F 0x41f133
0x41f133:	mov	eax, dword ptr [rip + 0x1a21f]
0x41f139:	add	rsp, 0x10
0x41f13d:	pop	rbp
0x41f13e:	ret	
F 0x415eed
0x41083a:	pop	rbp
0x41083b:	pop	r12
0x41083d:	pop	r13
0x41083f:	pop	r14
0x410841:	ret	
F 0x40eedd
0x40eedd:	add	byte ptr [rcx], al
0x40eedf:	pop	rbp
0x40eee0:	ret	
F 0x424c47
0x40f579:	pop	r15
0x40f57b:	ret	
F 0x4170b2
0x4170b2:	mov	rax, qword ptr [rip + 0x221bf]
0x4170b9:	add	rsp, 0x10
0x4170bd:	pop	rbp
0x4170be:	ret	
F 0x4196b9
0x40eedf:	pop	rbp
0x40eee0:	ret	
F 0x41d39a
0x411664:	pop	rbx
0x411665:	ret	
F 0x4114ec
0x41083d:	pop	r13
0x41083f:	pop	r14
0x410841:	ret	
F 0x415019
0x41083a:	pop	rbp
0x41083b:	pop	r12
0x41083d:	pop	r13
0x41083f:	pop	r14
0x410841:	ret	
F 0x41accb
0x41accb:	ret	
F 0x41953c
0x416e1c:	add	byte ptr [rax], al
0x416e1e:	add	byte ptr [rax], al
0x416e20:	add	rsp, 8
0x416e24:	pop	rbp
0x416e25:	pop	r12
0x416e27:	ret	
F 0x40eed7
0x40eed7:	inc	esi
0x40eed9:	add	eax, 0x2a1c9
0x40eede:	add	dword ptr [rbp - 0x3d], ebx
0x40eee1:	nop	dword ptr [rax]
0x40eee8:	ret	
F 0x424515
0x424515:	add	dword ptr [rax], eax
0x424517:	add	byte ptr [rax], al
0x424519:	pop	rbp
0x42451a:	ret	
F 0x41f702
0x41d17b:	mov	eax, esp
0x41d17d:	pop	rbp
0x41d17e:	pop	r12
0x41d180:	pop	r13
0x41d182:	pop	r14
0x41d184:	ret	
F 0x414a1f
0x414a1f:	add	r8b, byte ptr [r8]
0x414a22:	add	rsp, 0x10
0x414a26:	pop	rbp
0x414a27:	ret	
F 0x414dc3
0x414dc3:	cmp	dword ptr [rdi - 0x76b70001], eax
0x414dc9:	ret	
F 0x418791
0x418791:	nop	word ptr cs:[rax + rax]
0x41879c:	nop	dword ptr [rax]
0x4187a0:	ret	
F 0x41440b
0x40f577:	pop	r14
0x40f579:	pop	r15
0x40f57b:	ret	
F 0x41ab4a
0x410479:	mov	eax, dword ptr [rax]
0x41047b:	ret	
F 0x415944
0x411ef8:	add	byte ptr [rax], al
0x411efa:	pop	rbx
0x411efb:	pop	rbp
0x411efc:	pop	r12
0x411efe:	pop	r13
0x411f00:	pop	r14
0x411f02:	pop	r15
0x411f04:	ret	
F 0x41283f
0x40d016:	ret	
F 0x420ba9
0x420ba9:	mov	eax, dword ptr [rax + 0xc]
0x420bac:	ret	
F 0x41b829
0x40d012:	add	rsp, 8
0x40d016:	ret	
F 0x41f139
0x40f632:	add	rsp, 0x10
0x40f636:	pop	rbp
0x40f637:	ret	
F 0x41129f
0x41129f:	popfq	
0x4112a0:	ret	
F 0x41ffc7
0x40f575:	pop	r13
0x40f577:	pop	r14
0x40f579:	pop	r15
0x40f57b:	ret	
F 0x40f56f
0x40f56f:	mov	eax, esp
0x40f571:	pop	rbx
0x40f572:	pop	rbp
0x40f573:	pop	r12
0x40f575:	pop	r13
0x40f577:	pop	r14
0x40f579:	pop	r15
0x40f57b:	ret	
F 0x41878e
0x41878e:	nop	
0x418790:	ret	
F 0x40f699
0x40f632:	add	rsp, 0x10
0x40f636:	pop	rbp
0x40f637:	ret	
F 0x420b2b
0x40f445:	pop	rbp
0x40f446:	pop	r12
0x40f448:	pop	r13
0x40f44a:	ret	
F 0x41dc7f
0x40f577:	pop	r14
0x40f579:	pop	r15
0x40f57b:	ret	
F 0x414988
0x414988:	rcr	byte ptr [rbp + 0x41], 0x5c
0x41498c:	ret	
F 0x42602b
0x40f575:	pop	r13
0x40f577:	pop	r14
0x40f579:	pop	r15
0x40f57b:	ret	
F 0x413845
0x413845:	add	byte ptr [rax], al
0x413847:	add	rsp, 0x68
0x41384b:	xor	eax, eax
0x41384d:	pop	rbx
0x41384e:	pop	rbp
0x41384f:	pop	r12
0x413851:	pop	r13
0x413853:	pop	r14
0x413855:	pop	r15
0x413857:	ret	
F 0x40fb0a
0x40f577:	pop	r14
0x40f579:	pop	r15
0x40f57b:	ret	
F 0x411ab2
0x40d016:	ret	
F 0x41f7fa
0x40d016:	ret	
F 0x41cde1
0x4180e3:	or	byte ptr [rax - 0x7d], cl
0x4180e6:	ret	
F 0x418a0d
0x41891d:	add	rsp, 0x90
0x418924:	pop	rbp
0x418925:	pop	r12
0x418927:	pop	r13
0x418929:	ret	
F 0x418a18
0x40eedf:	pop	rbp
0x40eee0:	ret	
F 0x40f76f
0x40f76f:	nop	
0x40f770:	movsxd	rax, dword ptr [rip + 0x299b9]
0x40f777:	add	rax, rdi
0x40f77a:	mov	qword ptr [rdi + 0x28], rax
0x40f77e:	ret	
F 0x40f3a5
0x40f289:	add	byte ptr [rax - 0x77], cl
0x40f28c:	ret	
F 0x419b57
0x419b57:	add	byte ptr [rax], al
0x419b59:	add	byte ptr [rbp + 0xa], dh
0x419b5c:	add	rsp, 0x20
0x419b60:	mov	rax, r12
0x419b63:	pop	r12
0x419b65:	ret	
F 0x4187ac
0x41879c:	nop	dword ptr [rax]
0x4187a0:	ret	
F 0x4132d6
0x40f571:	pop	rbx
0x40f572:	pop	rbp
0x40f573:	pop	r12
0x40f575:	pop	r13
0x40f577:	pop	r14
0x40f579:	pop	r15
0x40f57b:	ret	
F 0x412e6f
0x412cef:	cmp	byte ptr [rbx + 0x5d], bl
0x412cf2:	ret	
F 0x414d99
0x414d99:	add	r8b, byte ptr [rax]
0x414d9c:	add	rsp, 0x38
0x414da0:	pop	rbp
0x414da1:	pop	r12
0x414da3:	ret	
F 0x41ace3
0x41ace3:	sbb	dword ptr [rip - 0x3fce0001], esp
0x41ace9:	add	rsp, 8
0x41aced:	ret	
F 0x422150
0x411ef9:	add	byte ptr [rbx + 0x5d], bl
0x411efc:	pop	r12
0x411efe:	pop	r13
0x411f00:	pop	r14
0x411f02:	pop	r15
0x411f04:	ret	
F 0x411851
0x411851:	shr	al, 0xb9
0x411854:	mov	ebp, 0xc031ffff
0x411859:	add	rsp, 8
0x41185d:	ret	
F 0x410677
0x40d016:	ret	
F 0x417df2
0x40f576:	pop	rbp
0x40f577:	pop	r14
0x40f579:	pop	r15
0x40f57b:	ret	
F 0x418d9e
0x41169e:	add	byte ptr [rax], al
0x4116a0:	mov	qword ptr [rdx], 0
0x4116a7:	xor	eax, eax
0x4116a9:	ret	
F 0x410f4d
0x40eedf:	pop	rbp
0x40eee0:	ret	
F 0x417de9
0x417de9:	add	rsp, 0x28
0x417ded:	pop	rbx
0x417dee:	pop	rbp
0x417def:	pop	r12
0x417df1:	pop	r13
0x417df3:	pop	r14
0x417df5:	pop	r15
0x417df7:	ret	
F 0x416053
0x41083a:	pop	rbp
0x41083b:	pop	r12
0x41083d:	pop	r13
0x41083f:	pop	r14
0x410841:	ret	
F 0x42443d
0x40f577:	pop	r14
0x40f579:	pop	r15
0x40f57b:	ret	
F 0x411596
0x410d16:	add	rsp, 0x28
0x410d1a:	pop	rbx
0x410d1b:	pop	rbp
0x410d1c:	pop	r12
0x410d1e:	pop	r13
0x410d20:	ret	
F 0x411dfe
0x40d016:	ret	
F 0x40f79f
0x40f79f:	add	byte ptr [rax + 0x63], cl
0x40f7a2:	add	eax, 0x29969
0x40f7a7:	add	rax, rdi
0x40f7aa:	mov	qword ptr [rdi + 0x28], rax
0x40f7ae:	ret	
F 0x41684b
0x41684b:	sub	eax, r8d
0x41684e:	add	rsp, 8
0x416852:	pop	rbx
0x416853:	pop	rbp
0x416854:	ret	
F 0x425967
0x41083a:	pop	rbp
0x41083b:	pop	r12
0x41083d:	pop	r13
0x41083f:	pop	r14
0x410841:	ret	
F 0x424d9c
0x424d9c:	add	rsp, 0x20
0x424da0:	pop	rbp
0x424da1:	pop	r12
0x424da3:	pop	r13
0x424da5:	pop	r14
0x424da7:	pop	r15
0x424da9:	ret	
F 0x41cfb2
0x41cfb2:	mov	rax, qword ptr [rip + 0x1c36f]
0x41cfb9:	add	rsp, 0x10
0x41cfbd:	pop	rbp
0x41cfbe:	ret	
F 0x420537
0x419b8f:	add	dword ptr [rax], eax
0x419b91:	add	rsp, 0x18
0x419b95:	ret	
F 0x41135d
0x40d016:	ret	
F 0x40f62c
0x40f62c:	mov	eax, dword ptr [rip + 0x29a7e]
0x40f632:	add	rsp, 0x10
0x40f636:	pop	rbp
0x40f637:	ret	
F 0x411efe
0x40f575:	pop	r13
0x40f577:	pop	r14
0x40f579:	pop	r15
0x40f57b:	ret	
F 0x419540
0x410536:	add	rsp, 8
0x41053a:	pop	rbp
0x41053b:	pop	r12
0x41053d:	ret	
F 0x41cf57
0x40d016:	ret	
F 0x412571
0x40f578:	pop	rsi
0x40f579:	pop	r15
0x40f57b:	ret	
F 0x41f71f
0x40d016:	ret	
F 0x40eedc
0x40eedc:	add	al, byte ptr [rax]
0x40eede:	add	dword ptr [rbp - 0x3d], ebx
0x40eee1:	nop	dword ptr [rax]
0x40eee8:	ret	
F 0x4187e0
0x4187e0:	and	byte ptr [rax - 0x73], cl
0x4187e3:	add	eax, 0x58
0x4187e8:	mov	qword ptr [rdi + 0x28], rax
0x4187ec:	ret	
F 0x4143ab
0x410839:	pop	rbx
0x41083a:	pop	rbp
0x41083b:	pop	r12
0x41083d:	pop	r13
0x41083f:	pop	r14
0x410841:	ret	
F 0x410930
0x41083a:	pop	rbp
0x41083b:	pop	r12
0x41083d:	pop	r13
0x41083f:	pop	r14
0x410841:	ret	
F 0x4106c6
0x40eedf:	pop	rbp
0x40eee0:	ret	
F 0x417057
0x40d016:	ret	
F 0x4187f1
0x4115f1:	mov	dword ptr [rdi + 8], 0
0x4115f8:	ret	
F 0x4116a5
0x4116a5:	add	byte ptr [rax], al
0x4116a7:	xor	eax, eax
0x4116a9:	ret	
F 0x419705
0x419705:	or	byte ptr [rax - 0x7b], cl
0x419708:	sal	byte ptr [rbp + rdx + 0x48], 0x8b
0x41970d:	add	eax, 0x1fbae
0x419712:	add	rsp, 0x10
0x419716:	pop	rbp
0x419717:	ret	
F 0x411637
0x411637:	and	byte ptr [rip + 0x48000000], al
0x41163e:	mov	dword ptr [rax + 0x38], 0
0x411645:	ret	
F 0x415ef2
0x41083f:	pop	r14
0x410841:	ret	
F 0x41b732
0x41b732:	mov	rax, qword ptr [rip + 0x1dbaf]
0x41b739:	add	rsp, 0x10
0x41b73d:	pop	rbp
0x41b73e:	ret	
F 0x420565
0x40d016:	ret	
F 0x41f2dd
0x41f2dd:	cmp	dword ptr [rsi + 0x28], eax
0x41f2e0:	cmovae	rax, qword ptr [rsi + 0x28]
0x41f2e5:	mov	qword ptr [rdi + 0x28], rax
0x41f2e9:	ret	
F 0x422e11
0x41053a:	pop	rbp
0x41053b:	pop	r12
0x41053d:	ret	
F 0x41ab99
0x40d012:	add	rsp, 8
0x40d016:	ret	
F 0x42384e
0x42384e:	cmp	byte ptr [rax], al
0x423850:	add	byte ptr [rax - 0x77], cl
0x423853:	ret	
F 0x41bad1
0x40f718:	dec	dword ptr [rax - 0x77]
0x40f71b:	ret	
F 0x40f767
0x40ef17:	add	rax, rdi
0x40ef1a:	mov	qword ptr [rdi + 0x28], rax
0x40ef1e:	ret	
F 0x413171
0x413171:	add	al, ch
0x413173:	mov	dword ptr [rax - 0x3fce0001], esp
0x413179:	add	rsp, 8
0x41317d:	ret	
F 0x41ab79
0x4104e9:	mov	rax, qword ptr [rax + 8]
0x4104ed:	ret	
F 0x41878d
0x40d016:	ret	
F 0x41c66f
0x40eedf:	pop	rbp
0x40eee0:	ret	
F 0x41b6a6
0x40f448:	pop	r13
0x40f44a:	ret	
F 0x4228f2
0x4228f2:	mov	edx, 0xb8fffec2
0x4228f7:	add	dword ptr [rax], eax
0x4228f9:	add	byte ptr [rax], al
0x4228fb:	add	rsp, 8
0x4228ff:	ret	
F 0x4123a9
0x410840:	pop	rsi
0x410841:	ret	
F 0x41102c
0x40d016:	ret	
F 0x4216e5
0x4216e5:	cmp	byte ptr [rcx], al
0x4216e7:	seta	al
0x4216ea:	movzx	eax, al
0x4216ed:	ret	
F 0x41140f
0x41140f:	sar	edi, 1
0x411411:	dec	dword ptr [rax - 0x75]
0x411414:	add	eax, 0x27cc7
0x411419:	add	rsp, 0x10
0x41141d:	pop	rbp
0x41141e:	ret	
F 0x4180bf
0x4180bf:	add	byte ptr [rax - 0x77], cl
0x4180c2:	ret	0x8348
F 0x418224
0x418224:	add	eax, 0x21047
0x418229:	add	rsp, 0x10
0x41822d:	pop	rbp
0x41822e:	ret	
F 0x419da7
0x40f572:	pop	rbp
0x40f573:	pop	r12
0x40f575:	pop	r13
0x40f577:	pop	r14
0x40f579:	pop	r15
0x40f57b:	ret	
F 0x418f7f
0x418f7f:	mov	qword ptr [rax + 0x28], rbp
0x418f83:	add	rsp, 8
0x418f87:	pop	rbx
0x418f88:	pop	rbp
0x418f89:	ret	
F 0x41d51c
0x41d51c:	add	eax, 0x1be3f
0x41d521:	add	rsp, 0x18
0x41d525:	ret	
F 0x410838
0x410838:	and	byte ptr [rbx + 0x5d], bl
0x41083b:	pop	r12
0x41083d:	pop	r13
0x41083f:	pop	r14
0x410841:	ret	
F 0x4123a3
0x41083a:	pop	rbp
0x41083b:	pop	r12
0x41083d:	pop	r13
0x41083f:	pop	r14
0x410841:	ret	
F 0x422d33
0x422d33:	nop	dword ptr [rax + rax]
0x422d38:	add	rsp, 8
0x422d3c:	pop	rbp
0x422d3d:	pop	r12
0x422d3f:	ret	
F 0x41cfb1
0x41cfb1:	dec	dword ptr [rax - 0x75]
0x41cfb4:	add	eax, 0x1c36f
0x41cfb9:	add	rsp, 0x10
0x41cfbd:	pop	rbp
0x41cfbe:	ret	
F 0x4111d4
0x4111d4:	or	byte ptr [rax - 0x7b], cl
0x4111d7:	sal	byte ptr [rsi + rdx + 0x48], 0x8b
0x4111dc:	add	eax, 0x27f07
0x4111e1:	add	rsp, 0x18
0x4111e5:	ret	
F 0x417dee
0x40f572:	pop	rbp
0x40f573:	pop	r12
0x40f575:	pop	r13
0x40f577:	pop	r14
0x40f579:	pop	r15
0x40f57b:	ret	
F 0x4126b4
0x4126b4:	add	dword ptr [rdi + 8], 1
0x4126b8:	ret	
F 0x421903
0x4111e1:	add	rsp, 0x18
0x4111e5:	ret	
F 0x419a68
0x419a68:	add	rsp, 8
0x419a6c:	mov	r8d, 1
0x419a72:	mov	eax, r8d
0x419a75:	pop	rbp
0x419a76:	pop	r12
0x419a78:	ret	
F 0x4163af
0x40f444:	pop	rbx
0x40f445:	pop	rbp
0x40f446:	pop	r12
0x40f448:	pop	r13
0x40f44a:	ret	
F 0x41c39c
0x416c3c:	nop	dword ptr [rax]
0x416c40:	add	rsp, 8
0x416c44:	pop	rbp
0x416c45:	pop	r12
0x416c47:	ret	
F 0x426ba7
0x40f576:	pop	rbp
0x40f577:	pop	r14
0x40f579:	pop	r15
0x40f57b:	ret	
F 0x41ad2b
0x41ad2b:	ret	
F 0x41132b
0x40d016:	ret	
F 0x41f995
0x41f995:	nop	dword ptr [rax]
0x41f998:	add	rsp, 8
0x41f99c:	pop	rbp
0x41f99d:	pop	r12
0x41f99f:	ret	
F 0x420f0c
0x420f0c:	mov	eax, dword ptr [rip + 0x1846e]
0x420f12:	add	rsp, 0x10
0x420f16:	pop	rbp
0x420f17:	ret	
F 0x40ee66
0x40ee66:	add	byte ptr [rax], al
0x40ee68:	ret	
F 0x4218b1
0x4111e1:	add	rsp, 0x18
0x4111e5:	ret	
F 0x4152c0
0x410838:	and	byte ptr [rbx + 0x5d], bl
0x41083b:	pop	r12
0x41083d:	pop	r13
0x41083f:	pop	r14
0x410841:	ret	
F 0x425c2c
0x40f579:	pop	r15
0x40f57b:	ret	
F 0x41ac89
0x40d012:	add	rsp, 8
0x40d016:	ret	
F 0x41083e
0x41083e:	pop	rbp
0x41083f:	pop	r14
0x410841:	ret	
F 0x40ef16
0x40ef16:	add	byte ptr [rax + 1], cl
0x40ef19:	clc	
0x40ef1a:	mov	qword ptr [rdi + 0x28], rax
0x40ef1e:	ret	
F 0x418788
0x40f576:	pop	rbp
0x40f577:	pop	r14
0x40f579:	pop	r15
0x40f57b:	ret	
F 0x41c120
0x40d016:	ret	
F 0x420b91
0x420b91:	add	al, ch
0x420b93:	imul	eax, esi, 0xc031fffe
0x420b99:	add	rsp, 8
0x420b9d:	ret	
F 0x41a460
0x40f718:	dec	dword ptr [rax - 0x77]
0x40f71b:	ret	
F 0x420c3c
0x40d016:	ret	
F 0x41fbf1
0x40f718:	dec	dword ptr [rax - 0x77]
0x40f71b:	ret	
F 0x412679
0x40f575:	pop	r13
0x40f577:	pop	r14
0x40f579:	pop	r15
0x40f57b:	ret	
F 0x418119
0x40f571:	pop	rbx
0x40f572:	pop	rbp
0x40f573:	pop	r12
0x40f575:	pop	r13
0x40f577:	pop	r14
0x40f579:	pop	r15
0x40f57b:	ret	
F 0x4239fb
0x40d016:	ret	
F 0x419aad
0x41053a:	pop	rbp
0x41053b:	pop	r12
0x41053d:	ret	
F 0x41b443
0x41b443:	mov	cl, 0xde
0x41b445:	add	dword ptr [rax], eax
0x41b447:	add	rax, rdi
0x41b44a:	mov	qword ptr [rdi + 0x30], rax
0x41b44e:	ret	
F 0x418120
0x40f578:	pop	rsi
0x40f579:	pop	r15
0x40f57b:	ret	
F 0x411231
0x4111df:	add	al, byte ptr [rax]
0x4111e1:	add	rsp, 0x18
0x4111e5:	ret	
F 0x412ef9
0x40d012:	add	rsp, 8
0x40d016:	ret	
F 0x412cf1
0x40eedf:	pop	rbp
0x40eee0:	ret	
F 0x41d6c0
0x40d016:	ret	
F 0x41b449
0x41b449:	clc	
0x41b44a:	mov	qword ptr [rdi + 0x30], rax
0x41b44e:	ret	
F 0x41ff24
0x40d016:	ret	
F 0x422dc5
0x40d016:	ret	
F 0x420e46
0x40f576:	pop	rbp
0x40f577:	pop	r14
0x40f579:	pop	r15
0x40f57b:	ret	
F 0x411d2c
0x40d016:	ret	
F 0x41cbff
0x40d016:	ret	
F 0x41d1d1
0x41d1d1:	lea	eax, [rip + 0x3c9]
0x41d1d7:	mov	qword ptr [rbx + 8], rax
0x41d1db:	pop	rbx
0x41d1dc:	ret	
F 0x420b7c
0x40d016:	ret	
F 0x41b677
0x41a30c:	dec	dword ptr [rcx + rcx*4 - 0x20]
0x41a310:	pop	rbp
0x41a311:	pop	r12
0x41a313:	pop	r13
0x41a315:	ret	
F 0x411cd2
0x40d016:	ret	
F 0x415eeb
0x415017:	mov	eax, esi
0x415019:	pop	rbp
0x41501a:	pop	r12
0x41501c:	pop	r13
0x41501e:	pop	r14
0x415020:	ret	
F 0x412866
0x412806:	test	eax, 0xc031ffff
0x41280b:	add	rsp, 8
0x41280f:	ret	
F 0x4112d8
0x410839:	pop	rbx
0x41083a:	pop	rbp
0x41083b:	pop	r12
0x41083d:	pop	r13
0x41083f:	pop	r14
0x410841:	ret	
F 0x42245c
0x42245c:	add	al, ch
0x42245e:	pop	rsi
0x42245f:	sar	esi, 0xff
0x422462:	mov	rax, qword ptr [rip + 0x16f8f]
0x422469:	add	rsp, 0x10
0x42246d:	pop	rbp
0x42246e:	ret	
F 0x418eb2
0x40d016:	ret	
F 0x420e45
0x40f575:	pop	r13
0x40f577:	pop	r14
0x40f579:	pop	r15
0x40f57b:	ret	
F 0x41b6cb
0x41b6cb:	mov	rax, qword ptr [rip + 0x1dc16]
0x41b6d2:	add	rsp, 0x10
0x41b6d6:	pop	rbp
0x41b6d7:	ret	
F 0x416fcc
0x40f576:	pop	rbp
0x40f577:	pop	r14
0x40f579:	pop	r15
0x40f57b:	ret	
F 0x42596c
0x41083f:	pop	r14
0x410841:	ret	
F 0x40f779
0x40ef19:	clc	
0x40ef1a:	mov	qword ptr [rdi + 0x28], rax
0x40ef1e:	ret	
F 0x40fafe
0x40fafe:	add	byte ptr [rax], al
0x40fb00:	add	rsp, 0x58
0x40fb04:	pop	rbx
0x40fb05:	pop	rbp
0x40fb06:	pop	r12
0x40fb08:	pop	r13
0x40fb0a:	pop	r14
0x40fb0c:	pop	r15
0x40fb0e:	ret	
F 0x420378
0x4143a9:	xor	eax, eax
0x4143ab:	pop	rbx
0x4143ac:	pop	rbp
0x4143ad:	pop	r12
0x4143af:	pop	r13
0x4143b1:	pop	r14
0x4143b3:	ret	
F 0x41c6a7
0x40d016:	ret	
F 0x41ae3a
0x41ae3a:	mov	rax, qword ptr [rip + 0x1e46f]
0x41ae41:	add	rsp, 0x10
0x41ae45:	pop	rbp
0x41ae46:	ret	
F 0x41f4ef
0x40d016:	ret	
F 0x41ac29
0x40d012:	add	rsp, 8
0x40d016:	ret	
F 0x4163b0
0x40f445:	pop	rbp
0x40f446:	pop	r12
0x40f448:	pop	r13
0x40f44a:	ret	
F 0x424c36
0x424c36:	nop	word ptr cs:[rax + rax]
0x424c40:	pop	rbp
0x424c41:	pop	r12
0x424c43:	pop	r13
0x424c45:	pop	r14
0x424c47:	pop	r15
0x424c49:	ret	
F 0x41ace9
0x40d012:	add	rsp, 8
0x40d016:	ret	
F 0x418eb0
0x4117b0:	or	bl, r8b
0x4117b3:	nop	dword ptr [rax + rax]
0x4117b8:	mov	qword ptr [rsi + 8], 0
0x4117c0:	ret	
F 0x41384f
0x40f573:	pop	r12
0x40f575:	pop	r13
0x40f577:	pop	r14
0x40f579:	pop	r15
0x40f57b:	ret	
F 0x41440c
0x40f578:	pop	rsi
0x40f579:	pop	r15
0x40f57b:	ret	
F 0x41e5e1
0x40f572:	pop	rbp
0x40f573:	pop	r12
0x40f575:	pop	r13
0x40f577:	pop	r14
0x40f579:	pop	r15
0x40f57b:	ret	
F 0x42251c
0x416d3c:	add	byte ptr [rax], al
0x416d3e:	add	rsp, 8
0x416d42:	ret	
F 0x4239ea
0x4239ea:	or	byte ptr [rbx + 0x49], bl
0x4239ed:	mov	dword ptr [rsp], ebp
0x4239f0:	pop	rbp
0x4239f1:	mov	dword ptr [r12 + 8], eax
0x4239f6:	mov	rax, r12
0x4239f9:	pop	r12
0x4239fb:	ret	
F 0x410c53
0x410838:	and	byte ptr [rbx + 0x5d], bl
0x41083b:	pop	r12
0x41083d:	pop	r13
0x41083f:	pop	r14
0x410841:	ret	
F 0x418784
0x40f572:	pop	rbp
0x40f573:	pop	r12
0x40f575:	pop	r13
0x40f577:	pop	r14
0x40f579:	pop	r15
0x40f57b:	ret	
F 0x412348
0x412348:	mov	eax, dword ptr [rip + 0x26e9a]
0x41234e:	add	rsp, 0x18
0x412352:	ret	
F 0x4266a5
0x4266a5:	or	byte ptr [rax - 0x7b], cl
0x4266a8:	sal	byte ptr [rbp + rdx + 0x48], 0x8b
0x4266ad:	add	eax, 0x12d6e
0x4266b2:	add	rsp, 0x10
0x4266b6:	pop	rbp
0x4266b7:	ret	
F 0x41f07a
0x40f600:	mov	eax, esp
0x40f602:	pop	r12
0x40f604:	ret	
F 0x4197dd
0x4197dd:	mov	rax, qword ptr [rip + 0x1fadc]
0x4197e4:	add	rsp, 0x10
0x4197e8:	pop	rbp
0x4197e9:	ret	
F 0x419058
0x419058:	mov	dword ptr [rax + 0x58], 0
0x41905f:	mov	qword ptr [rax + 0x58], rbp
0x419063:	add	rsp, 8
0x419067:	pop	rbx
0x419068:	pop	rbp
0x419069:	ret	
F 0x414340
0x41083a:	pop	rbp
0x41083b:	pop	r12
0x41083d:	pop	r13
0x41083f:	pop	r14
0x410841:	ret	
F 0x418da7
0x41168c:	xor	eax, eax
0x41168e:	ret	
F 0x418e55
0x411755:	xor	eax, eax
0x411757:	mov	qword ptr [rbx + 8], rbp
0x41175b:	pop	rbx
0x41175c:	pop	rbp
0x41175d:	pop	r12
0x41175f:	ret	
F 0x41f13d
0x40eedf:	pop	rbp
0x40eee0:	ret	
F 0x411593
0x411593:	sar	bh, 0xff
0x411596:	add	rsp, 0x28
0x41159a:	pop	rbx
0x41159b:	pop	rbp
0x41159c:	pop	r12
0x41159e:	pop	r13
0x4115a0:	ret	
F 0x426b4a
0x40eedf:	pop	rbp
0x40eee0:	ret	
F 0x419d55
0x40d016:	ret	
F 0x411029
0x41083e:	pop	rbp
0x41083f:	pop	r14
0x410841:	ret	
F 0x418eb1
0x4117b1:	or	bl, al
0x4117b3:	nop	dword ptr [rax + rax]
0x4117b8:	mov	qword ptr [rsi + 8], 0
0x4117c0:	ret	
F 0x41d187
0x41d187:	nop	dword ptr [rax + rax]
0x41d18f:	nop	
0x41d190:	ret	
F 0x4216f5
0x41b445:	add	dword ptr [rax], eax
0x41b447:	add	rax, rdi
0x41b44a:	mov	qword ptr [rdi + 0x30], rax
0x41b44e:	ret	
F 0x410ee6
0x40eedf:	pop	rbp
0x40eee0:	ret	
F 0x40f28c
0x40d016:	ret	
F 0x419a74
0x414988:	rcr	byte ptr [rbp + 0x41], 0x5c
0x41498c:	ret	
F 0x41b445
0x41b445:	add	dword ptr [rax], eax
0x41b447:	add	rax, rdi
0x41b44a:	mov	qword ptr [rdi + 0x30], rax
0x41b44e:	ret	
F 0x417257
0x410838:	and	byte ptr [rbx + 0x5d], bl
0x41083b:	pop	r12
0x41083d:	pop	r13
0x41083f:	pop	r14
0x410841:	ret	
F 0x410ee2
0x40f632:	add	rsp, 0x10
0x40f636:	pop	rbp
0x40f637:	ret	
F 0x41d422
0x41d402:	or	byte ptr [rdi], cl
0x41d404:	mov	dh, 0xc0
0x41d406:	ret	
F 0x41384e
0x40f572:	pop	rbp
0x40f573:	pop	r12
0x40f575:	pop	r13
0x40f577:	pop	r14
0x40f579:	pop	r15
0x40f57b:	ret	
F 0x426bab
0x40f57a:	pop	rdi
0x40f57b:	ret	
F 0x420372
0x420372:	add	byte ptr [rax], al
0x420374:	add	rsp, 0x10
0x420378:	xor	eax, eax
0x42037a:	pop	rbx
0x42037b:	pop	rbp
0x42037c:	pop	r12
0x42037e:	pop	r13
0x420380:	pop	r14
0x420382:	ret	
F 0x41249a
0x41249a:	pop	rbx
0x41249b:	pop	rbp
0x41249c:	ret	
F 0x4204ef
0x419b8f:	add	dword ptr [rax], eax
0x419b91:	add	rsp, 0x18
0x419b95:	ret	
F 0x4190d2
0x4190d2:	add	rsp, 8
0x4190d7:	pop	rbx
0x4190d8:	pop	rbp
0x4190d9:	ret	
F 0x418a91
0x40d016:	ret	
F 0x416ffb
0x40f57a:	pop	rdi
0x40f57b:	ret	
F 0x410c59
0x41083e:	pop	rbp
0x41083f:	pop	r14
0x410841:	ret	
F 0x4262a5
0x40f579:	pop	r15
0x40f57b:	ret	
F 0x420e48
0x40f578:	pop	rsi
0x40f579:	pop	r15
0x40f57b:	ret	
F 0x41adcb
0x41adcb:	mov	rax, qword ptr [rip + 0x1e4de]
0x41add2:	add	rsp, 0x10
0x41add6:	pop	rbp
0x41add7:	ret	
F 0x410b0c
0x410b0c:	mov	eax, dword ptr [rip + 0x285e6]
0x410b12:	add	rsp, 0x10
0x410b16:	pop	rbp
0x410b17:	ret	
F 0x41d521
0x4111e1:	add	rsp, 0x18
0x4111e5:	ret	
F 0x40f57b
0x40d016:	ret	
F 0x41c695
0x41c695:	or	byte ptr [rax - 0x7b], cl
0x41c698:	sal	byte ptr [rbp + rdx + 0x48], 0x8b
0x41c69d:	add	eax, 0x1cc8e
0x41c6a2:	add	rsp, 0x10
0x41c6a6:	pop	rbp
0x41c6a7:	ret	
F 0x418e96
0x411796:	add	byte ptr [rax], al
0x411798:	xor	eax, eax
0x41179a:	pop	rbx
0x41179b:	pop	rbp
0x41179c:	pop	r12
0x41179e:	ret	
F 0x425e97
0x425cc7:	push	rax
0x425cc8:	pop	rbp
0x425cc9:	ret	
F 0x417439
0x40d016:	ret	
F 0x411dfb
0x40f578:	pop	rsi
0x40f579:	pop	r15
0x40f57b:	ret	
F 0x424c3c
0x424c3c:	add	byte ptr [rax], al
0x424c3e:	add	byte ptr [rax], al
0x424c40:	pop	rbp
0x424c41:	pop	r12
0x424c43:	pop	r13
0x424c45:	pop	r14
0x424c47:	pop	r15
0x424c49:	ret	
F 0x424aa8
0x424aa8:	add	byte ptr [rbp + 0x76], dh
0x424aab:	add	rsp, 0x30
0x424aaf:	pop	rbx
0x424ab0:	pop	rbp
0x424ab1:	pop	r12
0x424ab3:	ret	
F 0x420b00
0x420b00:	add	byte ptr [rax - 0x77], cl
0x420b03:	push	-0x1f76b3b8
0x420b08:	pop	rbp
0x420b09:	pop	r12
0x420b0b:	pop	r13
0x420b0d:	ret	
F 0x41280b
0x40d012:	add	rsp, 8
0x40d016:	ret	
F 0x425cc7
0x425cc7:	push	rax
0x425cc8:	pop	rbp
0x425cc9:	ret	
F 0x424c37
0x424c37:	nop	dword ptr cs:[rax + rax]
0x424c40:	pop	rbp
0x424c41:	pop	r12
0x424c43:	pop	r13
0x424c45:	pop	r14
0x424c47:	pop	r15
0x424c49:	ret	
F 0x425267
0x40f578:	pop	rsi
0x40f579:	pop	r15
0x40f57b:	ret	
F 0x41730e
0x41083f:	pop	r14
0x410841:	ret	
F 0x418f08
0x418f08:	mov	dword ptr [rax + 8], 0
0x418f0f:	mov	qword ptr [rax + 8], rbp
0x418f13:	add	rsp, 8
0x418f17:	pop	rbx
0x418f18:	pop	rbp
0x418f19:	ret	
F 0x41759c
0x40f579:	pop	r15
0x40f57b:	ret	
F 0x41adcd
0x41adcd:	add	eax, 0x1e4de
0x41add2:	add	rsp, 0x10
0x41add6:	pop	rbp
0x41add7:	ret	
F 0x41f290
0x41f290:	add	byte ptr [rax], al
0x41f293:	add	byte ptr [rax], al
0x41f295:	ret	
F 0x4115f9
0x4115f9:	nop	dword ptr [rax]
0x411600:	mov	rax, qword ptr [rdi + 8]
0x411604:	ret	
F 0x41dc80
0x40f578:	pop	rsi
0x40f579:	pop	r15
0x40f57b:	ret	
F 0x413dca
0x40f573:	pop	r12
0x40f575:	pop	r13
0x40f577:	pop	r14
0x40f579:	pop	r15
0x40f57b:	ret	
F 0x415f88
0x41083d:	pop	r13
0x41083f:	pop	r14
0x410841:	ret	
F 0x418da1
0x4116a1:	mov	dword ptr [rdx], 0
0x4116a7:	xor	eax, eax
0x4116a9:	ret	
F 0x41fafd
0x41fafd:	pandn	mm7, mm6
0x41fb00:	dec	dword ptr [rax - 0x77]
0x41fb03:	ret	
F 0x41b44a
0x41b44a:	mov	qword ptr [rdi + 0x30], rax
0x41b44e:	ret	
F 0x41879c
0x41879c:	nop	dword ptr [rax]
0x4187a0:	ret	
F 0x411329
0x410479:	mov	eax, dword ptr [rax]
0x41047b:	ret	
F 0x418bb1
0x40d016:	ret	
F 0x4149ca
0x40f6d0:	xor	eax, eax
0x40f6d2:	pop	rbp
0x40f6d3:	ret	
F 0x42093a
0x40d016:	ret	
F 0x41f4eb
0x41175b:	pop	rbx
0x41175c:	pop	rbp
0x41175d:	pop	r12
0x41175f:	ret	
F 0x41a66a
0x40d016:	ret	
F 0x425c26
0x40f573:	pop	r12
0x40f575:	pop	r13
0x40f577:	pop	r14
0x40f579:	pop	r15
0x40f57b:	ret	
F 0x412f78
0x412f78:	nop	dword ptr [rax + rax]
0x412f80:	pop	rbp
0x412f81:	ret	
F 0x418da5
0x4116a5:	add	byte ptr [rax], al
0x4116a7:	xor	eax, eax
0x4116a9:	ret	
F 0x41ac57
0x40eff3:	xor	eax, eax
0x40eff5:	add	rsp, 8
0x40eff9:	ret	
F 0x4104a8
0x4104a8:	sub	byte ptr [rbx], bh
0x4104aa:	xor	byte ptr [rbp + 3], dh
0x4104ad:	ret	
F 0x411600
0x411600:	mov	rax, qword ptr [rdi + 8]
0x411604:	ret	
F 0x412db0
0x41249a:	pop	rbx
0x41249b:	pop	rbp
0x41249c:	ret	
F 0x41f79d
0x40d016:	ret	
F 0x412346
0x412346:	dec	dword ptr [rax - 0x75]
0x412349:	add	eax, 0x26e9a
0x41234e:	add	rsp, 0x18
0x412352:	ret	
F 0x40f77e
0x40d016:	ret	
F 0x40f79e
0x40f79e:	add	byte ptr [rax + 0x63], cl
0x40f7a2:	add	eax, 0x29969
0x40f7a7:	add	rax, rdi
0x40f7aa:	mov	qword ptr [rdi + 0x28], rax
0x40f7ae:	ret	
F 0x41f825
0x413205:	add	rsp, 8
0x413209:	xor	eax, eax
0x41320b:	pop	rbx
0x41320c:	pop	rbp
0x41320d:	ret	
F 0x4265fc
0x4265fc:	mov	qword ptr [rbx], 0
0x426603:	pop	rbx
0x426604:	ret	
F 0x4187f8
0x40d016:	ret	
F 0x4110ef
0x40eedf:	pop	rbp
0x40eee0:	ret	
F 0x417c5a
0x41083b:	pop	r12
0x41083d:	pop	r13
0x41083f:	pop	r14
0x410841:	ret	
F 0x41f767
0x41083d:	pop	r13
0x41083f:	pop	r14
0x410841:	ret	
F 0x41f26c
0x40eedf:	pop	rbp
0x40eee0:	ret	
F 0x4239e9
0x4239e9:	or	byte ptr [r11 + 0x49], bl
0x4239ed:	mov	dword ptr [rsp], ebp
0x4239f0:	pop	rbp
0x4239f1:	mov	dword ptr [r12 + 8], eax
0x4239f6:	mov	rax, r12
0x4239f9:	pop	r12
0x4239fb:	ret	
F 0x421238
0x40f718:	dec	dword ptr [rax - 0x77]
0x40f71b:	ret	
F 0x411639
0x411639:	add	eax, 0x48000000
0x41163e:	mov	dword ptr [rax + 0x38], 0
0x411645:	ret	
F 0x426ba8
0x40f577:	pop	r14
0x40f579:	pop	r15
0x40f57b:	ret	
F 0x4114ee
0x41083f:	pop	r14
0x410841:	ret	
F 0x41b01e
0x41243e:	add	byte ptr [rax], al
0x412440:	mov	rax, qword ptr [rbx + 8]
0x412444:	pop	rbx
0x412445:	ret	
F 0x426b42
0x426b42:	inc	dword ptr [rcx + rcx*4 - 0x20]
0x426b46:	pop	rbp
0x426b47:	pop	r12
0x426b49:	pop	r13
0x426b4b:	ret	
F 0x4250ea
0x4250ea:	add	byte ptr [rax], al
0x4250ec:	add	rsp, 0x18
0x4250f0:	mov	eax, r12d
0x4250f3:	pop	rbx
0x4250f4:	pop	rbp
0x4250f5:	pop	r12
0x4250f7:	pop	r13
0x4250f9:	ret	
F 0x41fc34
0x40d016:	ret	
F 0x4204c2
0x4204c2:	mov	rax, qword ptr [rip + 0x18ecf]
0x4204c9:	add	rsp, 0x18
0x4204cd:	ret	
F 0x419f64
0x419f64:	add	rsp, 0x28
0x419f68:	mov	rax, r12
0x419f6b:	pop	rbx
0x419f6c:	pop	rbp
0x419f6d:	pop	r12
0x419f6f:	pop	r13
0x419f71:	ret	
F 0x412444
0x411664:	pop	rbx
0x411665:	ret	
F 0x417596
0x40f573:	pop	r12
0x40f575:	pop	r13
0x40f577:	pop	r14
0x40f579:	pop	r15
0x40f57b:	ret	
F 0x418798
0x418798:	add	byte ptr [rax], al
0x41879a:	add	byte ptr [rax], al
0x41879c:	nop	dword ptr [rax]
0x4187a0:	ret	
F 0x412c2c
0x40f573:	pop	r12
0x40f575:	pop	r13
0x40f577:	pop	r14
0x40f579:	pop	r15
0x40f57b:	ret	
F 0x40ef1a
0x40ef1a:	mov	qword ptr [rdi + 0x28], rax
0x40ef1e:	ret	
F 0x40ec67
0x40d016:	ret	
F 0x412ef7
0x40eff3:	xor	eax, eax
0x40eff5:	add	rsp, 8
0x40eff9:	ret	
F 0x417306
0x417306:	add	rsp, 0x38
0x41730a:	pop	rbx
0x41730b:	pop	rbp
0x41730c:	pop	r12
0x41730e:	pop	r14
0x417310:	ret	
F 0x41bdbe
0x40d016:	ret	
F 0x41929c
0x41083a:	pop	rbp
0x41083b:	pop	r12
0x41083d:	pop	r13
0x41083f:	pop	r14
0x410841:	ret	
F 0x41f2e1
0x41f2e1:	cmovae	eax, dword ptr [rsi + 0x28]
0x41f2e5:	mov	qword ptr [rdi + 0x28], rax
0x41f2e9:	ret	
F 0x422400
0x419710:	add	dword ptr [rax], eax
0x419712:	add	rsp, 0x10
0x419716:	pop	rbp
0x419717:	ret	
F 0x41bdbd
0x40eedf:	pop	rbp
0x40eee0:	ret	
F 0x41f295
0x40d016:	ret	
F 0x411a25
0x410d16:	add	rsp, 0x28
0x410d1a:	pop	rbx
0x410d1b:	pop	rbp
0x410d1c:	pop	r12
0x410d1e:	pop	r13
0x410d20:	ret	
F 0x41baa4
0x40d016:	ret	
F 0x412566
0x412566:	add	rsp, 8
0x41256a:	pop	rbx
0x41256b:	pop	rbp
0x41256c:	pop	r12
0x41256e:	pop	r13
0x412570:	pop	r14
0x412572:	pop	r15
0x412574:	ret	
F 0x42596a
0x41083d:	pop	r13
0x41083f:	pop	r14
0x410841:	ret	
F 0x426711
0x426711:	dec	dword ptr [rax - 0x75]
0x426714:	add	eax, 0x12d07
0x426719:	add	rsp, 0x10
0x42671d:	pop	rbp
0x42671e:	ret	
F 0x419936
0x419936:	add	rsp, 8
0x41993a:	mov	rax, r12
0x41993d:	pop	rbp
0x41993e:	pop	r12
0x419940:	ret	
F 0x419c44
0x41053a:	pop	rbp
0x41053b:	pop	r12
0x41053d:	ret	
F 0x411358
0x4104a8:	sub	byte ptr [rbx], bh
0x4104aa:	xor	byte ptr [rbp + 3], dh
0x4104ad:	ret	
F 0x419a40
0x40d016:	ret	
F 0x420b6d
0x40d016:	ret	
F 0x418801
0x411601:	mov	eax, dword ptr [rdi + 8]
0x411604:	ret	
F 0x41a54d
0x41a45e:	xor	al, 0xff
0x41a460:	dec	dword ptr [rax - 0x77]
0x41a463:	ret	
F 0x4217f8
0x4217f8:	mov	eax, dword ptr [rax + 4]
0x4217fb:	pop	rbx
0x4217fc:	ret	
F 0x41c004
0x410839:	pop	rbx
0x41083a:	pop	rbp
0x41083b:	pop	r12
0x41083d:	pop	r13
0x41083f:	pop	r14
0x410841:	ret	
F 0x411798
0x411798:	xor	eax, eax
0x41179a:	pop	rbx
0x41179b:	pop	rbp
0x41179c:	pop	r12
0x41179e:	ret	
F 0x41b550
0x40d016:	ret	
F 0x41b3c7
0x40f573:	pop	r12
0x40f575:	pop	r13
0x40f577:	pop	r14
0x40f579:	pop	r15
0x40f57b:	ret	
F 0x4106b5
0x4106b5:	or	byte ptr [rax - 0x7b], cl
0x4106b8:	sal	byte ptr [rbp + rdx + 0x48], 0x8b
0x4106bd:	add	eax, 0x28a3e
0x4106c2:	add	rsp, 0x10
0x4106c6:	pop	rbp
0x4106c7:	ret	
F 0x411c13
0x411c13:	cdq	
0x411c14:	ret	
F 0x41551d
0x40d016:	ret	
F 0x41f0d6
0x40eedf:	pop	rbp
0x40eee0:	ret	
F 0x416975
0x41694d:	adc	byte ptr [rbx + 0x5d], bl
0x416950:	pop	r12
0x416952:	ret	
F 0x41b73d
0x40eedf:	pop	rbp
0x40eee0:	ret	
F 0x40f76e
0x40d016:	ret	
F 0x40f628
0x40f628:	sal	byte ptr [rbp + rdx + 0x48], 0x8b
0x40f62d:	add	eax, 0x29a7e
0x40f632:	add	rsp, 0x10
0x40f636:	pop	rbp
0x40f637:	ret	
F 0x418ba9
0x418a89:	add	byte ptr [rax], al
0x418a8b:	mov	rax, r12
0x418a8e:	pop	rbp
0x418a8f:	pop	r12
0x418a91:	ret	
F 0x41abaa
0x4154fa:	mov	eax, dword ptr [rax + 0x10]
0x4154fd:	ret	
F 0x416d0f
0x412499:	or	byte ptr [rbx + 0x5d], bl
0x41249c:	ret	
F 0x415a27
0x40d016:	ret	
F 0x419c40
0x419939:	or	byte ptr [rcx + rcx*4 - 0x20], cl
0x41993d:	pop	rbp
0x41993e:	pop	r12
0x419940:	ret	
F 0x41141d
0x40eedf:	pop	rbp
0x40eee0:	ret	
F 0x41dc79
0x40f571:	pop	rbx
0x40f572:	pop	rbp
0x40f573:	pop	r12
0x40f575:	pop	r13
0x40f577:	pop	r14
0x40f579:	pop	r15
0x40f57b:	ret	
F 0x4123a1
0x4123a1:	xor	eax, eax
0x4123a3:	pop	rbp
0x4123a4:	pop	r12
0x4123a6:	pop	r13
0x4123a8:	pop	r14
0x4123aa:	ret	
F 0x411ab1
0x40eedf:	pop	rbp
0x40eee0:	ret	
F 0x411237
0x40d016:	ret	
F 0x41b1de
0x41b1de:	mov	qword ptr [rax + 0x58], 0
0x41b1e6:	add	rsp, 8
0x41b1ea:	pop	rbx
0x41b1eb:	pop	rbp
0x41b1ec:	ret	
F 0x415a7c
0x415a7c:	add	al, ch
0x415a7e:	mov	edi, edi
0x415a81:	dec	dword ptr [rax - 0x75]
0x415a84:	add	eax, 0x237a7
0x415a89:	add	rsp, 0x10
0x415a8d:	pop	rbp
0x415a8e:	ret	
F 0x41af82
0x4123a2:	rcr	byte ptr [rbp + 0x41], 0x5c
0x4123a6:	pop	r13
0x4123a8:	pop	r14
0x4123aa:	ret	
F 0x425c29
0x40f576:	pop	rbp
0x40f577:	pop	r14
0x40f579:	pop	r15
0x40f57b:	ret	
F 0x41dbbc
0x40d016:	ret	
F 0x41b0bb
0x41b0bb:	mov	dword ptr [rip + 0x1e213], eax
0x41b0c1:	add	rsp, 0x28
0x41b0c5:	pop	rbx
0x41b0c6:	pop	rbp
0x41b0c7:	ret	
F 0x4265ea
0x40d016:	ret	
F 0x41b3c1
0x412566:	add	rsp, 8
0x41256a:	pop	rbx
0x41256b:	pop	rbp
0x41256c:	pop	r12
0x41256e:	pop	r13
0x412570:	pop	r14
0x412572:	pop	r15
0x412574:	ret	
F 0x41903a
0x41903a:	ret	0xff40
F 0x420b79
0x4104ea:	mov	eax, dword ptr [rax + 8]
0x4104ed:	ret	
F 0x410383
0x40d016:	ret	
F 0x41759e
0x40d016:	ret	
F 0x42629a
0x42629a:	add	rsp, 0x10
0x42629e:	pop	rbp
0x42629f:	pop	r12
0x4262a1:	pop	r13
0x4262a3:	pop	r14
0x4262a5:	pop	r15
0x4262a7:	ret	
F 0x415162
0x410838:	and	byte ptr [rbx + 0x5d], bl
0x41083b:	pop	r12
0x41083d:	pop	r13
0x41083f:	pop	r14
0x410841:	ret	
F 0x4187e1
0x4187e1:	lea	rax, [rip + 0x58]
0x4187e8:	mov	qword ptr [rdi + 0x28], rax
0x4187ec:	ret	
F 0x419a3a
0x419a3a:	mov	eax, r8d
0x419a3d:	pop	rbp
0x419a3e:	pop	r12
0x419a40:	ret	
F 0x40f055
0x40eff3:	xor	eax, eax
0x40eff5:	add	rsp, 8
0x40eff9:	ret	
F 0x41af81
0x4123a1:	xor	eax, eax
0x4123a3:	pop	rbp
0x4123a4:	pop	r12
0x4123a6:	pop	r13
0x4123a8:	pop	r14
0x4123aa:	ret	
F 0x411615
0x40ee66:	add	byte ptr [rax], al
0x40ee68:	ret	
F 0x4111dc
0x4111dc:	add	eax, 0x27f07
0x4111e1:	add	rsp, 0x18
0x4111e5:	ret	
F 0x410b08
0x410b08:	sal	byte ptr [rbp + rdx + 0x48], 0x8b
0x410b0d:	add	eax, 0x285e6
0x410b12:	add	rsp, 0x10
0x410b16:	pop	rbp
0x410b17:	ret	
F 0x424537
0x40eedf:	pop	rbp
0x40eee0:	ret	
F 0x41a4fd
0x40f573:	pop	r12
0x40f575:	pop	r13
0x40f577:	pop	r14
0x40f579:	pop	r15
0x40f57b:	ret	
F 0x41ad38
0x40dc57:	ret	0
F 0x4223b7
0x4223b7:	add	eax, 0x4cffff03
0x4223bc:	mov	eax, esp
0x4223be:	pop	r12
0x4223c0:	ret	
F 0x41cff6
0x41cff6:	add	eax, 0x8948ffff
0x41cffb:	ret	
F 0x4224f1
0x40d012:	add	rsp, 8
0x40d016:	ret	
F 0x40f77b
0x40ef1b:	mov	dword ptr [rdi + 0x28], eax
0x40ef1e:	ret	
F 0x4216f2
0x4216f2:	add	eax, 0x17d19
0x4216f7:	add	rax, rdi
0x4216fa:	mov	qword ptr [rdi + 0x30], rax
0x4216fe:	ret	
F 0x40f3ea
0x40f287:	add	byte ptr [rax], al
0x40f289:	add	byte ptr [rax - 0x77], cl
0x40f28c:	ret	
F 0x42047a
0x42047a:	mov	rax, qword ptr [rip + 0x18f17]
0x420481:	add	rsp, 0x18
0x420485:	ret	
F 0x420382
0x40d016:	ret	
F 0x4239f1
0x4239f1:	mov	dword ptr [r12 + 8], eax
0x4239f6:	mov	rax, r12
0x4239f9:	pop	r12
0x4239fb:	ret	
F 0x416b61
0x40f576:	pop	rbp
0x40f577:	pop	r14
0x40f579:	pop	r15
0x40f57b:	ret	
F 0x411796
0x411796:	add	byte ptr [rax], al
0x411798:	xor	eax, eax
0x41179a:	pop	rbx
0x41179b:	pop	rbp
0x41179c:	pop	r12
0x41179e:	ret	
F 0x4143b0
0x41083e:	pop	rbp
0x41083f:	pop	r14
0x410841:	ret	
F 0x415486
0x40d016:	ret	
F 0x41d72e
0x41d72e:	xor	byte ptr [rcx + rcx*4 - 0x18], al
0x41d732:	pop	rbx
0x41d733:	pop	rbp
0x41d734:	pop	r12
0x41d736:	pop	r13
0x41d738:	pop	r14
0x41d73a:	ret	
F 0x41ab9d
0x40d016:	ret	
F 0x426298
0x426298:	add	byte ptr [rax], al
0x42629a:	add	rsp, 0x10
0x42629e:	pop	rbp
0x42629f:	pop	r12
0x4262a1:	pop	r13
0x4262a3:	pop	r14
0x4262a5:	pop	r15
0x4262a7:	ret	
F 0x41cad0
0x41cad0:	add	rsp, 0x38
0x41cad4:	pop	rbx
0x41cad5:	pop	rbp
0x41cad6:	pop	r12
0x41cad8:	pop	r13
0x41cada:	pop	r14
0x41cadc:	pop	r15
0x41cade:	ret	
F 0x410d19
0x410d19:	sub	byte ptr [rbx + 0x5d], bl
0x410d1c:	pop	r12
0x410d1e:	pop	r13
0x410d20:	ret	
F 0x411824
0x411824:	mov	ebp, 0xc031ffff
0x411829:	add	rsp, 8
0x41182d:	ret	
F 0x41d525
0x40d016:	ret	
F 0x422d35
0x422d35:	add	byte ptr [rax], r8b
0x422d38:	add	rsp, 8
0x422d3c:	pop	rbp
0x422d3d:	pop	r12
0x422d3f:	ret	
F 0x410729
0x40f632:	add	rsp, 0x10
0x40f636:	pop	rbp
0x40f637:	ret	
F 0x414a88
0x414a88:	push	rsp
0x414a89:	add	r8b, byte ptr [r8]
0x414a8c:	add	rsp, 0x10
0x414a90:	pop	rbp
0x414a91:	ret	
F 0x4181c7
0x40d016:	ret	
F 0x41049d
0x40d016:	ret	
F 0x41b0e6
0x41b0e6:	and	al, 0xff
0x41b0e8:	dec	dword ptr [rax - 0x77]
0x41b0eb:	ret	
F 0x42214f
0x411ef8:	add	byte ptr [rax], al
0x411efa:	pop	rbx
0x411efb:	pop	rbp
0x411efc:	pop	r12
0x411efe:	pop	r13
0x411f00:	pop	r14
0x411f02:	pop	r15
0x411f04:	ret	
F 0x413159
0x413159:	mov	rax, qword ptr [rax + 0x28]
0x41315d:	ret	
F 0x41d2cb
0x40eea3:	nop	dword ptr [rax + rax]
0x40eea8:	ret	
F 0x4117be
0x40ee66:	add	byte ptr [rax], al
0x40ee68:	ret	
F 0x40f693
0x40f693:	mov	eax, dword ptr [rip + 0x29a17]
0x40f699:	add	rsp, 0x10
0x40f69d:	pop	rbp
0x40f69e:	ret	
F 0x41aca8
0x40d016:	ret	
F 0x411f01
0x40f578:	pop	rsi
0x40f579:	pop	r15
0x40f57b:	ret	
F 0x41c2a9
0x41175b:	pop	rbx
0x41175c:	pop	rbp
0x41175d:	pop	r12
0x41175f:	ret	
F 0x41d568
0x41d568:	push	rsp
0x41d569:	adc	bh, bh
0x41d56b:	dec	dword ptr [rax - 0x75]
0x41d56e:	add	eax, 0x1bded
0x41d573:	add	rsp, 0x18
0x41d577:	ret	
F 0x41d733
0x41083a:	pop	rbp
0x41083b:	pop	r12
0x41083d:	pop	r13
0x41083f:	pop	r14
0x410841:	ret	
F 0x422b7f
0x422b7f:	add	rsp, 0x90
0x422b86:	pop	rbx
0x422b87:	pop	rbp
0x422b88:	pop	r12
0x422b8a:	ret	
F 0x4260f3
0x425cc3:	add	rsp, 0x50
0x425cc8:	pop	rbp
0x425cc9:	ret	
F 0x4265e1
0x4265e1:	mov	dword ptr [rbx], esp
0x4265e3:	mov	dword ptr [rbx + 8], eax
0x4265e6:	pop	rbx
0x4265e7:	pop	rbp
0x4265e8:	pop	r12
0x4265ea:	ret	
F 0x40eee8
0x40d016:	ret	
F 0x41d41c
0x41d41c:	setbe	al
0x41d41f:	add	rsp, 8
0x41d423:	movzx	eax, al
0x41d426:	ret	
F 0x4187b0
0x40d016:	ret	
F 0x413c6a
0x413c6a:	test	byte ptr [rax], al
0x413c6c:	add	byte ptr [rax], al
0x413c6e:	add	byte ptr [rax], al
0x413c70:	add	rsp, 8
0x413c74:	pop	rbp
0x413c75:	pop	r12
0x413c77:	pop	r13
0x413c79:	pop	r14
0x413c7b:	ret	
F 0x41c2a1
0x41c2a1:	mov	dword ptr [rdi + rax*8 + 8], 0
0x41c2a9:	pop	rbx
0x41c2aa:	pop	rbp
0x41c2ab:	pop	r12
0x41c2ad:	ret	
F 0x411dc9
0x40d016:	ret	
F 0x41d190
0x40d016:	ret	
F 0x42089d
0x41249a:	pop	rbx
0x41249b:	pop	rbp
0x41249c:	ret	
F 0x41b890
0x411ef9:	add	byte ptr [rbx + 0x5d], bl
0x411efc:	pop	r12
0x411efe:	pop	r13
0x411f00:	pop	r14
0x411f02:	pop	r15
0x411f04:	ret	
F 0x416054
0x41083b:	pop	r12
0x41083d:	pop	r13
0x41083f:	pop	r14
0x410841:	ret	
F 0x42662b
0x42662b:	mov	eax, dword ptr [rip + 0x12df7]
0x426631:	add	rsp, 0x18
0x426635:	ret	
F 0x41bdb7
0x419710:	add	dword ptr [rax], eax
0x419712:	add	rsp, 0x10
0x419716:	pop	rbp
0x419717:	ret	
F 0x41a463
0x40d016:	ret	
F 0x420b93
0x420b93:	imul	eax, esi, 0xc031fffe
0x420b99:	add	rsp, 8
0x420b9d:	ret	
F 0x40f3ec
0x40f289:	add	byte ptr [rax - 0x77], cl
0x40f28c:	ret	
F 0x419066
0x412499:	or	byte ptr [rbx + 0x5d], bl
0x41249c:	ret	
F 0x416c45
0x40f602:	pop	r12
0x40f604:	ret	
F 0x42214a
0x412c23:	add	rsp, 0xb8
0x412c2a:	pop	rbx
0x412c2b:	pop	rbp
0x412c2c:	pop	r12
0x412c2e:	pop	r13
0x412c30:	pop	r14
0x412c32:	pop	r15
0x412c34:	ret	
F 0x419544
0x41053a:	pop	rbp
0x41053b:	pop	r12
0x41053d:	ret	
F 0x416237
0x416237:	cmp	al, ch
0x416239:	ret	
F 0x41e151
0x40f57a:	pop	rdi
0x40f57b:	ret	
F 0x40f43b
0x40f43b:	nop	dword ptr [rax + rax]
0x40f440:	add	rsp, 8
0x40f444:	pop	rbx
0x40f445:	pop	rbp
0x40f446:	pop	r12
0x40f448:	pop	r13
0x40f44a:	ret	
F 0x4149cd
0x40d016:	ret	
F 0x410b74
0x410b74:	add	eax, 0x2857f
0x410b79:	add	rsp, 0x10
0x410b7d:	pop	rbp
0x410b7e:	ret	
F 0x40d00a
0x40d00a:	add	byte ptr [rax - 0x7b], cl
0x40d00d:	sal	byte ptr [rdx + rax - 1], 0xd0
0x40d012:	add	rsp, 8
0x40d016:	ret	
F 0x417009
0x417009:	mov	rax, qword ptr [rax + 0x30]
0x41700d:	ret	
F 0x41c953
0x4180e3:	or	byte ptr [rax - 0x7d], cl
0x4180e6:	ret	
F 0x424c3e
0x424c3e:	add	byte ptr [rax], al
0x424c40:	pop	rbp
0x424c41:	pop	r12
0x424c43:	pop	r13
0x424c45:	pop	r14
0x424c47:	pop	r15
0x424c49:	ret	
F 0x411aae
0x411aae:	add	dword ptr [rdi + rax + 0x5d], esi
0x411ab2:	ret	
F 0x41256e
0x40f575:	pop	r13
0x40f577:	pop	r14
0x40f579:	pop	r15
0x40f57b:	ret	
F 0x419940
0x40d016:	ret	
F 0x42595e
0x42595e:	add	byte ptr [rax], al
0x425960:	add	rsp, 0x18
0x425964:	mov	rax, r12
0x425967:	pop	rbp
0x425968:	pop	r12
0x42596a:	pop	r13
0x42596c:	pop	r14
0x42596e:	ret	
F 0x41ff4b
0x41ff4b:	ret	0x8548
F 0x413343
0x40f448:	pop	r13
0x40f44a:	ret	
F 0x425cbf
0x425cbf:	add	byte ptr [rax], al
0x425cc1:	add	byte ptr [rbp + 0x40], dh
0x425cc4:	add	rsp, 0x50
0x425cc8:	pop	rbp
0x425cc9:	ret	
F 0x424c41
0x40f573:	pop	r12
0x40f575:	pop	r13
0x40f577:	pop	r14
0x40f579:	pop	r15
0x40f57b:	ret	
F 0x417309
0x417309:	cmp	byte ptr [rbx + 0x5d], bl
0x41730c:	pop	r12
0x41730e:	pop	r14
0x417310:	ret	
F 0x424da1
0x40f573:	pop	r12
0x40f575:	pop	r13
0x40f577:	pop	r14
0x40f579:	pop	r15
0x40f57b:	ret	
F 0x422652
0x40d012:	add	rsp, 8
0x40d016:	ret	
F 0x41f764
0x41083a:	pop	rbp
0x41083b:	pop	r12
0x41083d:	pop	r13
0x41083f:	pop	r14
0x410841:	ret	
F 0x416d10
0x41249a:	pop	rbx
0x41249b:	pop	rbp
0x41249c:	ret	
F 0x4143ad
0x41083b:	pop	r12
0x41083d:	pop	r13
0x41083f:	pop	r14
0x410841:	ret	
F 0x41b6a1
0x41a30e:	mov	eax, esp
0x41a310:	pop	rbp
0x41a311:	pop	r12
0x41a313:	pop	r13
0x41a315:	ret	
F 0x40f547
0x40d016:	ret	
F 0x42184c
0x40d016:	ret	
F 0x4190c7
0x4190c7:	mov	qword ptr [rax + 0x40], 0
0x4190cf:	mov	qword ptr [rax + 0x40], rbp
0x4190d3:	add	rsp, 8
0x4190d7:	pop	rbx
0x4190d8:	pop	rbp
0x4190d9:	ret	
F 0x416b58
0x416b58:	add	rsp, 0x18
0x416b5c:	pop	rbx
0x416b5d:	pop	rbp
0x416b5e:	pop	r12
0x416b60:	pop	r13
0x416b62:	pop	r14
0x416b64:	pop	r15
0x416b66:	ret	
F 0x41b020
0x412440:	mov	rax, qword ptr [rbx + 8]
0x412444:	pop	rbx
0x412445:	ret	
F 0x4264bc
0x4264bc:	or	byte ptr [rax - 0x77], cl
0x4264bf:	ret	
F 0x4196ac
0x4196ac:	add	byte ptr [rax], al
0x4196ae:	add	byte ptr [rax], al
0x4196b0:	add	rsp, 8
0x4196b4:	pop	rbx
0x4196b5:	pop	rbp
0x4196b6:	pop	r12
0x4196b8:	pop	r13
0x4196ba:	ret	
F 0x42307f
0x40f57a:	pop	rdi
0x40f57b:	ret	
F 0x410c5c
0x40d016:	ret	
F 0x41a34f
0x40eedf:	pop	rbp
0x40eee0:	ret	
F 0x42443f
0x40f579:	pop	r15
0x40f57b:	ret	
F 0x41a30e
0x41a30e:	mov	eax, esp
0x41a310:	pop	rbp
0x41a311:	pop	r12
0x41a313:	pop	r13
0x41a315:	ret	
F 0x41bad4
0x40d016:	ret	
F 0x411efb
0x40f572:	pop	rbp
0x40f573:	pop	r12
0x40f575:	pop	r13
0x40f577:	pop	r14
0x40f579:	pop	r15
0x40f57b:	ret	
F 0x4117f9
0x40d012:	add	rsp, 8
0x40d016:	ret	
F 0x41501c
0x41083d:	pop	r13
0x41083f:	pop	r14
0x410841:	ret	
F 0x41aced
0x40d016:	ret	
F 0x41a4ff
0x40f575:	pop	r13
0x40f577:	pop	r14
0x40f579:	pop	r15
0x40f57b:	ret	
F 0x41f0d2
0x40f632:	add	rsp, 0x10
0x40f636:	pop	rbp
0x40f637:	ret	
F 0x417f03
0x40d016:	ret	
F 0x4187ec
0x40d016:	ret	
F 0x423853
0x40d016:	ret	
F 0x41f769
0x41083f:	pop	r14
0x410841:	ret	
F 0x411ef6
0x411ef6:	mov	byte ptr [rcx], al
0x411ef8:	add	byte ptr [rax], al
0x411efa:	pop	rbx
0x411efb:	pop	rbp
0x411efc:	pop	r12
0x411efe:	pop	r13
0x411f00:	pop	r14
0x411f02:	pop	r15
0x411f04:	ret	
F 0x4115f0
0x4115f0:	mov	qword ptr [rdi + 8], 0
0x4115f8:	ret	
F 0x414345
0x41083f:	pop	r14
0x410841:	ret	
F 0x4113ad
0x4113ad:	add	eax, 0x27d2e
0x4113b2:	add	rsp, 0x10
0x4113b6:	pop	rbp
0x4113b7:	ret	
F 0x41d1d2
0x41d1d2:	add	eax, 0x3c9
0x41d1d7:	mov	qword ptr [rbx + 8], rax
0x41d1db:	pop	rbx
0x41d1dc:	ret	
F 0x4218a4
0x4218a4:	or	byte ptr [rax - 0x7b], cl
0x4218a7:	sal	byte ptr [rsi + rdx + 0x48], 0x8b
0x4218ac:	add	eax, 0x17b4f
0x4218b1:	add	rsp, 0x18
0x4218b5:	ret	
F 0x4187f4
0x40ee64:	add	byte ptr [rax], al
0x40ee66:	add	byte ptr [rax], al
0x40ee68:	ret	
F 0x41a81d
0x418a8c:	mov	eax, esp
0x418a8e:	pop	rbp
0x418a8f:	pop	r12
0x418a91:	ret	
F 0x419d52
0x419d52:	add	ecx, dword ptr [rax - 0x7d]
0x419d55:	ret	
F 0x41929d
0x41083b:	pop	r12
0x41083d:	pop	r13
0x41083f:	pop	r14
0x410841:	ret	
F 0x42245f
0x42245f:	sar	esi, 0xff
0x422462:	mov	rax, qword ptr [rip + 0x16f8f]
0x422469:	add	rsp, 0x10
0x42246d:	pop	rbp
0x42246e:	ret	
F 0x420474
0x420474:	or	byte ptr [rax - 0x7b], cl
0x420477:	sal	byte ptr [rsi + rdx + 0x48], 0x8b
0x42047c:	add	eax, 0x18f17
0x420481:	add	rsp, 0x18
0x420485:	ret	
F 0x41f2d6
0x41f2d6:	push	r8
0x41f2d8:	mov	rax, qword ptr [rdi + 0x28]
0x41f2dc:	cmp	qword ptr [rsi + 0x28], rax
0x41f2e0:	cmovae	rax, qword ptr [rsi + 0x28]
0x41f2e5:	mov	qword ptr [rdi + 0x28], rax
0x41f2e9:	ret	
F 0x41440a
0x40f576:	pop	rbp
0x40f577:	pop	r14
0x40f579:	pop	r15
0x40f57b:	ret	
F 0x412fae
0x412fae:	add	byte ptr [rbx], 0
0x412fb1:	add	byte ptr [rbp + 0x5d0a75c0], al
0x412fb7:	ret	
F 0x41d404
0x41d404:	mov	dh, 0xc0
0x41d406:	ret	
F 0x4111e5
0x40d016:	ret	
F 0x4113e9
0x40d016:	ret	
F 0x41f348
0x40d012:	add	rsp, 8
0x40d016:	ret	
F 0x41fa34
0x40f544:	dec	dword ptr [rax - 0x7d]
0x40f547:	ret	
F 0x422e0c
0x41c2a5:	add	byte ptr [rax], al
0x41c2a7:	add	byte ptr [rax], al
0x41c2a9:	pop	rbx
0x41c2aa:	pop	rbp
0x41c2ab:	pop	r12
0x41c2ad:	ret	
F 0x40f7ab
0x40ef1b:	mov	dword ptr [rdi + 0x28], eax
0x40ef1e:	ret	
F 0x4113a5
0x4113a5:	or	byte ptr [rax - 0x7b], cl
0x4113a8:	sal	byte ptr [rbp + rdx + 0x48], 0x8b
0x4113ad:	add	eax, 0x27d2e
0x4113b2:	add	rsp, 0x10
0x4113b6:	pop	rbp
0x4113b7:	ret	
F 0x410721
0x410721:	dec	dword ptr [rax - 0x75]
0x410724:	add	eax, 0x289d7
0x410729:	add	rsp, 0x10
0x41072d:	pop	rbp
0x41072e:	ret	
F 0x418e59
0x411759:	imul	ecx, dword ptr [rax], 0x5b
0x41175c:	pop	rbp
0x41175d:	pop	r12
0x41175f:	ret	
F 0x410722
0x410722:	mov	rax, qword ptr [rip + 0x289d7]
0x410729:	add	rsp, 0x10
0x41072d:	pop	rbp
0x41072e:	ret	
F 0x414a15
0x414a15:	or	byte ptr [rax - 0x7b], cl
0x414a18:	sal	byte ptr [rbp + rdx + 0x48], 0x8b
0x414a1d:	add	eax, 0x247be
0x414a22:	add	rsp, 0x10
0x414a26:	pop	rbp
0x414a27:	ret	
F 0x4187a6
0x418796:	test	byte ptr [rax], al
0x418798:	add	byte ptr [rax], al
0x41879a:	add	byte ptr [rax], al
0x41879c:	nop	dword ptr [rax]
0x4187a0:	ret	
F 0x414a22
0x40f632:	add	rsp, 0x10
0x40f636:	pop	rbp
0x40f637:	ret	
F 0x422469
0x40f632:	add	rsp, 0x10
0x40f636:	pop	rbp
0x40f637:	ret	
F 0x422650
0x40eff3:	xor	eax, eax
0x40eff5:	add	rsp, 8
0x40eff9:	ret	
F 0x414a26
0x40eedf:	pop	rbp
0x40eee0:	ret	
F 0x418f87
0x41249a:	pop	rbx
0x41249b:	pop	rbp
0x41249c:	ret	
F 0x422e08
0x41fc28:	nop	dword ptr [rax + rax]
0x41fc30:	pop	rbx
0x41fc31:	pop	rbp
0x41fc32:	pop	r12
0x41fc34:	ret	
F 0x41fc2c
0x41c2a5:	add	byte ptr [rax], al
0x41c2a7:	add	byte ptr [rax], al
0x41c2a9:	pop	rbx
0x41c2aa:	pop	rbp
0x41c2ab:	pop	r12
0x41c2ad:	ret	
F 0x40f75f
0x40f75f:	add	byte ptr [rax + 0x63], cl
0x40f762:	add	eax, 0x299d9
0x40f767:	add	rax, rdi
0x40f76a:	mov	qword ptr [rdi + 0x28], rax
0x40f76e:	ret	
F 0x419bcf
0x40d016:	ret	
F 0x4106c2
0x40f632:	add	rsp, 0x10
0x40f636:	pop	rbp
0x40f637:	ret	
F 0x4114ef
0x410840:	pop	rsi
0x410841:	ret	
F 0x4152c7
0x41083f:	pop	r14
0x410841:	ret	
F 0x420771
0x420771:	add	byte ptr [rax], al
0x420773:	mov	rax, r13
0x420776:	pop	rbx
0x420777:	pop	rbp
0x420778:	pop	r12
0x42077a:	pop	r13
0x42077c:	pop	r14
0x42077e:	pop	r15
0x420780:	ret	
F 0x42307b
0x40f576:	pop	rbp
0x40f577:	pop	r14
0x40f579:	pop	r15
0x40f57b:	ret	
F 0x41ad1d
0x40d016:	ret	
F 0x4239ee
0x4239ee:	sub	al, 0x24
0x4239f0:	pop	rbp
0x4239f1:	mov	dword ptr [r12 + 8], eax
0x4239f6:	mov	rax, r12
0x4239f9:	pop	r12
0x4239fb:	ret	
F 0x41929a
0x41433e:	adc	byte ptr [rbx + 0x5d], bl
0x414341:	pop	r12
0x414343:	pop	r13
0x414345:	pop	r14
0x414347:	ret	
F 0x419aab
0x419a3b:	mov	eax, eax
0x419a3d:	pop	rbp
0x419a3e:	pop	r12
0x419a40:	ret	
F 0x41a822
0x40d016:	ret	
F 0x4187e8
0x40ef1a:	mov	qword ptr [rdi + 0x28], rax
0x40ef1e:	ret	
F 0x423075
0x411ef9:	add	byte ptr [rbx + 0x5d], bl
0x411efc:	pop	r12
0x411efe:	pop	r13
0x411f00:	pop	r14
0x411f02:	pop	r15
0x411f04:	ret	
F 0x420b29
0x41a30e:	mov	eax, esp
0x41a310:	pop	rbp
0x41a311:	pop	r12
0x41a313:	pop	r13
0x41a315:	ret	
F 0x41cadd
0x40f57a:	pop	rdi
0x40f57b:	ret	
F 0x420bac
0x40d016:	ret	
F 0x4204c4
0x4204c4:	add	eax, 0x18ecf
0x4204c9:	add	rsp, 0x18
0x4204cd:	ret	
F 0x42275f
0x41053a:	pop	rbp
0x41053b:	pop	r12
0x41053d:	ret	
F 0x41594d
0x40f578:	pop	rsi
0x40f579:	pop	r15
0x40f57b:	ret	
F 0x41501a
0x41083b:	pop	r12
0x41083d:	pop	r13
0x41083f:	pop	r14
0x410841:	ret	
F 0x41516b
0x40d016:	ret	
F 0x414d97
0x414d97:	add	eax, 0x24460
0x414d9c:	add	rsp, 0x38
0x414da0:	pop	rbp
0x414da1:	pop	r12
0x414da3:	ret	
F 0x4149da
0x40f6d0:	xor	eax, eax
0x40f6d2:	pop	rbp
0x40f6d3:	ret	
F 0x41ceaf
0x40d016:	ret	
F 0x41f08a
0x40f5fe:	dec	dword ptr [rcx + rcx*4 - 0x20]
0x40f602:	pop	r12
0x40f604:	ret	
F 0x412ef1
0x412ef1:	add	al, ch
0x412ef3:	or	dword ptr [rbx - 0x3fce0001], esp
0x412ef9:	add	rsp, 8
0x412efd:	ret	
F 0x420f0d
0x420f0d:	add	eax, 0x1846e
0x420f12:	add	rsp, 0x10
0x420f16:	pop	rbp
0x420f17:	ret	
F 0x420532
0x420532:	mov	rax, qword ptr [rip + 0x18e57]
0x420539:	add	rsp, 0x18
0x42053d:	ret	
F 0x418e8e
0x41178e:	add	byte ptr [rax], al
0x411790:	mov	qword ptr [rdi + 8], 0
0x411798:	xor	eax, eax
0x41179a:	pop	rbx
0x41179b:	pop	rbp
0x41179c:	pop	r12
0x41179e:	ret	
F 0x41433e
0x41433e:	adc	byte ptr [rbx + 0x5d], bl
0x414341:	pop	r12
0x414343:	pop	r13
0x414345:	pop	r14
0x414347:	ret	
F 0x4118b3
0x4118b3:	pop	rcx
0x4118b4:	mov	ebp, 0xc031ffff
0x4118b9:	add	rsp, 8
0x4118bd:	ret	
F 0x424da3
0x40f575:	pop	r13
0x40f577:	pop	r14
0x40f579:	pop	r15
0x40f57b:	ret	
F 0x420533
0x420533:	mov	eax, dword ptr [rip + 0x18e57]
0x420539:	add	rsp, 0x18
0x42053d:	ret	
F 0x4112d9
0x41083a:	pop	rbp
0x41083b:	pop	r12
0x41083d:	pop	r13
0x41083f:	pop	r14
0x410841:	ret	
F 0x416a8e
0x40f718:	dec	dword ptr [rax - 0x77]
0x40f71b:	ret	
F 0x40f600
0x40f600:	mov	eax, esp
0x40f602:	pop	r12
0x40f604:	ret	
F 0x41944e
0x419366:	xor	byte ptr [rax - 0x77], cl
0x419369:	ret	
F 0x418928
0x40eedf:	pop	rbp
0x40eee0:	ret	
F 0x426b43
0x426b43:	mov	eax, r12d
0x426b46:	pop	rbp
0x426b47:	pop	r12
0x426b49:	pop	r13
0x426b4b:	ret	
F 0x4216ee
0x4216ee:	nop	
0x4216f0:	movsxd	rax, dword ptr [rip + 0x17d19]
0x4216f7:	add	rax, rdi
0x4216fa:	mov	qword ptr [rdi + 0x30], rax
0x4216fe:	ret	
F 0x414a8a
0x40f630:	add	al, byte ptr [rax]
0x40f632:	add	rsp, 0x10
0x40f636:	pop	rbp
0x40f637:	ret	
F 0x41d514
0x41d514:	or	byte ptr [rax - 0x7b], cl
0x41d517:	sal	byte ptr [rsi + rdx + 0x48], 0x8b
0x41d51c:	add	eax, 0x1be3f
0x41d521:	add	rsp, 0x18
0x41d525:	ret	
F 0x418792
0x418792:	nop	word ptr cs:[rax + rax]
0x41879c:	nop	dword ptr [rax]
0x4187a0:	ret	
F 0x422463
0x422463:	mov	eax, dword ptr [rip + 0x16f8f]
0x422469:	add	rsp, 0x10
0x42246d:	pop	rbp
0x42246e:	ret	
F 0x426b40
0x426b40:	cmp	esi, 0xe08944ff
0x426b46:	pop	rbp
0x426b47:	pop	r12
0x426b49:	pop	r13
0x426b4b:	ret	
F 0x41b69d
0x41b69d:	sbb	edi, edi
0x41b69f:	dec	dword ptr [rcx + rcx*4 - 0x20]
0x41b6a3:	pop	rbp
0x41b6a4:	pop	r12
0x41b6a6:	pop	r13
0x41b6a8:	ret	
F 0x410f29
0x40d016:	ret	
F 0x412465
0x412465:	xchg	eax, edi
0x412466:	mov	al, 0xff
0x412468:	dec	dword ptr [rax - 0x77]
0x41246b:	ret	
F 0x41c6a0
0x419710:	add	dword ptr [rax], eax
0x419712:	add	rsp, 0x10
0x419716:	pop	rbp
0x419717:	ret	
F 0x41a13e
0x40d016:	ret	
F 0x4109e9
0x410479:	mov	eax, dword ptr [rax]
0x41047b:	ret	
F 0x41a500
0x40f576:	pop	rbp
0x40f577:	pop	r14
0x40f579:	pop	r15
0x40f57b:	ret	
F 0x41b3cd
0x40f579:	pop	r15
0x40f57b:	ret	
F 0x413dce
0x40f577:	pop	r14
0x40f579:	pop	r15
0x40f57b:	ret	
F 0x4170b3
0x4170b3:	mov	eax, dword ptr [rip + 0x221bf]
0x4170b9:	add	rsp, 0x10
0x4170bd:	pop	rbp
0x4170be:	ret	
F 0x41433f
0x410839:	pop	rbx
0x41083a:	pop	rbp
0x41083b:	pop	r12
0x41083d:	pop	r13
0x41083f:	pop	r14
0x410841:	ret	
F 0x40f790
0x40d016:	ret	
F 0x422a12
0x422a12:	add	byte ptr [rax], al
0x422a14:	pop	rbx
0x422a15:	ret	
F 0x415a8e
0x40d016:	ret	
F 0x41fbf4
0x40d016:	ret	
F 0x411821
0x411821:	shr	al, 0xe9
0x411824:	mov	ebp, 0xc031ffff
0x411829:	add	rsp, 8
0x41182d:	ret	
F 0x4122f1
0x4111e1:	add	rsp, 0x18
0x4111e5:	ret	
F 0x41f5d2
0x40eea2:	nop	word ptr [rax + rax]
0x40eea8:	ret	
F 0x41e5ea
0x40d016:	ret	
F 0x40ee63
0x40ee63:	add	byte ptr [rax], 0
0x40ee66:	add	byte ptr [rax], al
0x40ee68:	ret	
F 0x41b788
0x40f718:	dec	dword ptr [rax - 0x77]
0x40f71b:	ret	
F 0x41c3a0
0x410536:	add	rsp, 8
0x41053a:	pop	rbp
0x41053b:	pop	r12
0x41053d:	ret	
F 0x413341
0x40f446:	pop	r12
0x40f448:	pop	r13
0x40f44a:	ret	
F 0x40ef1b
0x40ef1b:	mov	dword ptr [rdi + 0x28], eax
0x40ef1e:	ret	
F 0x419aaa
0x419a3a:	mov	eax, r8d
0x419a3d:	pop	rbp
0x419a3e:	pop	r12
0x419a40:	ret	
F 0x42214d
0x412c26:	mov	eax, 0x5b000000
0x412c2b:	pop	rbp
0x412c2c:	pop	r12
0x412c2e:	pop	r13
0x412c30:	pop	r14
0x412c32:	pop	r15
0x412c34:	ret	
F 0x40eea6
0x40ee66:	add	byte ptr [rax], al
0x40ee68:	ret	
F 0x4127a9
0x40eff3:	xor	eax, eax
0x40eff5:	add	rsp, 8
0x40eff9:	ret	
F 0x40f636
0x40eedf:	pop	rbp
0x40eee0:	ret	
F 0x419a70
0x419a70:	add	byte ptr [rax], al
0x419a72:	mov	eax, r8d
0x419a75:	pop	rbp
0x419a76:	pop	r12
0x419a78:	ret	
F 0x411601
0x411601:	mov	eax, dword ptr [rdi + 8]
0x411604:	ret	
F 0x416ff4
0x40f573:	pop	r12
0x40f575:	pop	r13
0x40f577:	pop	r14
0x40f579:	pop	r15
0x40f57b:	ret	
F 0x41b6a8
0x40d016:	ret	
F 0x418d11
0x418d11:	add	byte ptr [rax], al
0x418d13:	add	byte ptr [rax - 0x77], cl
0x418d16:	adc	r8b, bpl
0x418d19:	ret	
F 0x4180bd
0x4180bd:	add	byte ptr [rax], al
0x4180bf:	add	byte ptr [rax - 0x77], cl
0x4180c2:	ret	0x8348
F 0x41c0cf
0x410840:	pop	rsi
0x410841:	ret	
F 0x410a18
0x4104a8:	sub	byte ptr [rbx], bh
0x4104aa:	xor	byte ptr [rbp + 3], dh
0x4104ad:	ret	
F 0x41cade
0x40d016:	ret	
F 0x412ce7
0x412ce7:	add	byte ptr [rax], al
0x412ce9:	add	byte ptr [rbp + 0x37], dh
0x412cec:	add	rsp, 0x38
0x412cf0:	pop	rbx
0x412cf1:	pop	rbp
0x412cf2:	ret	
F 0x424c3a
0x424c3a:	test	byte ptr [rax], al
0x424c3c:	add	byte ptr [rax], al
0x424c3e:	add	byte ptr [rax], al
0x424c40:	pop	rbp
0x424c41:	pop	r12
0x424c43:	pop	r13
0x424c45:	pop	r14
0x424c47:	pop	r15
0x424c49:	ret	
F 0x4197e4
0x40f632:	add	rsp, 0x10
0x40f636:	pop	rbp
0x40f637:	ret	
F 0x41aba9
0x4154f9:	mov	rax, qword ptr [rax + 0x10]
0x4154fd:	ret	
F 0x426b3f
0x426b3f:	xchg	eax, ebp
0x426b40:	cmp	esi, 0xe08944ff
0x426b46:	pop	rbp
0x426b47:	pop	r12
0x426b49:	pop	r13
0x426b4b:	ret	
F 0x415413
0x415413:	add	rsp, 0x50
0x415417:	pop	rbx
0x415418:	pop	rbp
0x415419:	pop	r12
0x41541b:	ret	
F 0x4223ba
0x40f5fe:	dec	dword ptr [rcx + rcx*4 - 0x20]
0x40f602:	pop	r12
0x40f604:	ret	
F 0x4130f3
0x4130f3:	add	byte ptr [rbp + 0x51], dh
0x4130f6:	add	rsp, 0x18
0x4130fa:	xor	eax, eax
0x4130fc:	pop	rbx
0x4130fd:	pop	rbp
0x4130fe:	pop	r12
0x413100:	pop	r13
0x413102:	ret	
F 0x41594e
0x40f579:	pop	r15
0x40f57b:	ret	
F 0x418ff3
0x412496:	add	rsp, 8
0x41249a:	pop	rbx
0x41249b:	pop	rbp
0x41249c:	ret	
F 0x41092b
0x41092b:	add	rsp, 0x30
0x41092f:	pop	rbx
0x410930:	pop	rbp
0x410931:	pop	r12
0x410933:	pop	r13
0x410935:	pop	r14
0x410937:	ret	
F 0x418c83
0x418c83:	lea	rdx, [rip - 0x4ea]
0x418c8a:	mov	qword ptr [rax + 0x90], rdx
0x418c91:	pop	rbp
0x418c92:	ret	
F 0x4110ee
0x40f448:	pop	r13
0x40f44a:	ret	
F 0x4152c1
0x410839:	pop	rbx
0x41083a:	pop	rbp
0x41083b:	pop	r12
0x41083d:	pop	r13
0x41083f:	pop	r14
0x410841:	ret	
F 0x41122e
0x41122e:	add	eax, 0x27eb5
0x411233:	add	rsp, 0x18
0x411237:	ret	
F 0x41b6a4
0x40f446:	pop	r12
0x40f448:	pop	r13
0x40f44a:	ret	
F 0x422539
0x40d016:	ret	
F 0x422d30
0x422d30:	mov	edi, 0x1f0ffffe
0x422d35:	add	byte ptr [rax], r8b
0x422d38:	add	rsp, 8
0x422d3c:	pop	rbp
0x422d3d:	pop	r12
0x422d3f:	ret	
F 0x411f2a
0x411f2a:	and	al, 0x90
0x411f2c:	add	byte ptr [rax], al
0x411f2e:	add	byte ptr [rax - 0x77], cl
0x411f31:	ret	0x8948
F 0x419c42
0x418a8c:	mov	eax, esp
0x418a8e:	pop	rbp
0x418a8f:	pop	r12
0x418a91:	ret	
F 0x420f73
0x420f73:	mov	eax, dword ptr [rip + 0x18407]
0x420f79:	add	rsp, 0x10
0x420f7d:	pop	rbp
0x420f7e:	ret	
F 0x4154f9
0x4154f9:	mov	rax, qword ptr [rax + 0x10]
0x4154fd:	ret	
F 0x411413
0x411413:	mov	eax, dword ptr [rip + 0x27cc7]
0x411419:	add	rsp, 0x10
0x41141d:	pop	rbp
0x41141e:	ret	
F 0x4250f8
0x40eedf:	pop	rbp
0x40eee0:	ret	
F 0x41c000
0x410835:	add	rsp, 0x20
0x410839:	pop	rbx
0x41083a:	pop	rbp
0x41083b:	pop	r12
0x41083d:	pop	r13
0x41083f:	pop	r14
0x410841:	ret	
F 0x420776
0x40f571:	pop	rbx
0x40f572:	pop	rbp
0x40f573:	pop	r12
0x40f575:	pop	r13
0x40f577:	pop	r14
0x40f579:	pop	r15
0x40f57b:	ret	
F 0x41b404
0x4126b4:	add	dword ptr [rdi + 8], 1
0x4126b8:	ret	
F 0x4114e7
0x410838:	and	byte ptr [rbx + 0x5d], bl
0x41083b:	pop	r12
0x41083d:	pop	r13
0x41083f:	pop	r14
0x410841:	ret	
F 0x41c6fc
0x41c6fc:	add	al, ch
0x41c6fe:	mov	esi, 0x48ffff1e
0x41c703:	mov	eax, dword ptr [rip + 0x1cc27]
0x41c709:	add	rsp, 0x10
0x41c70d:	pop	rbp
0x41c70e:	ret	
F 0x418a14
0x40f445:	pop	rbp
0x40f446:	pop	r12
0x40f448:	pop	r13
0x40f44a:	ret	
F 0x40f289
0x40f289:	add	byte ptr [rax - 0x77], cl
0x40f28c:	ret	
F 0x418122
0x40f57a:	pop	rdi
0x40f57b:	ret	
F 0x414d9a
0x414d9a:	add	al, byte ptr [rax]
0x414d9c:	add	rsp, 0x38
0x414da0:	pop	rbp
0x414da1:	pop	r12
0x414da3:	ret	
F 0x41fb4b
0x40f718:	dec	dword ptr [rax - 0x77]
0x40f71b:	ret	
F 0x419bc6
0x419bc6:	add	eax, 0x1f6ed
0x419bcb:	add	rsp, 0x18
0x419bcf:	ret	
F 0x415a87
0x40f630:	add	al, byte ptr [rax]
0x40f632:	add	rsp, 0x10
0x40f636:	pop	rbp
0x40f637:	ret	
F 0x410497
0x40eff3:	xor	eax, eax
0x40eff5:	add	rsp, 8
0x40eff9:	ret	
F 0x4204e7
0x4204e7:	sal	byte ptr [rsi + rdx + 0x48], 0x8b
0x4204ec:	add	eax, 0x18e9f
0x4204f1:	add	rsp, 0x18
0x4204f5:	ret	
F 0x413854
0x40f578:	pop	rsi
0x40f579:	pop	r15
0x40f57b:	ret	
F 0x415a7e
0x415a7e:	mov	edi, edi
0x415a81:	dec	dword ptr [rax - 0x75]
0x415a84:	add	eax, 0x237a7
0x415a89:	add	rsp, 0x10
0x415a8d:	pop	rbp
0x415a8e:	ret	
F 0x414165
0x41083b:	pop	r12
0x41083d:	pop	r13
0x41083f:	pop	r14
0x410841:	ret	
F 0x42443e
0x40f578:	pop	rsi
0x40f579:	pop	r15
0x40f57b:	ret	
F 0x410a1d
0x40d016:	ret	
F 0x40eff3
0x40eff3:	xor	eax, eax
0x40eff5:	add	rsp, 8
0x40eff9:	ret	
F 0x41e5e8
0x40f579:	pop	r15
0x40f57b:	ret	
F 0x4219de
0x4219c7:	mov	dword ptr [rbx + 0x78], eax
0x4219ca:	pop	rbx
0x4219cb:	ret	
F 0x41d1cc
0x41d1cc:	test	al, 0xc1
0x41d1ce:	add	dword ptr [rax], eax
0x41d1d0:	lea	rax, [rip + 0x3c9]
0x41d1d7:	mov	qword ptr [rbx + 8], rax
0x41d1db:	pop	rbx
0x41d1dc:	ret	
F 0x41ec4a
0x40d016:	ret	
F 0x4117b1
0x4117b1:	or	bl, al
0x4117b3:	nop	dword ptr [rax + rax]
0x4117b8:	mov	qword ptr [rsi + 8], 0
0x4117c0:	ret	
F 0x41fa7d
0x40eea5:	add	byte ptr [rax], r8b
0x40eea8:	ret	
F 0x41e5e0
0x40f571:	pop	rbx
0x40f572:	pop	rbp
0x40f573:	pop	r12
0x40f575:	pop	r13
0x40f577:	pop	r14
0x40f579:	pop	r15
0x40f57b:	ret	
F 0x4164c9
0x40d016:	ret	
F 0x416127
0x416127:	push	rdx
0x416128:	add	byte ptr [rax], al
0x41612a:	nop	word ptr [rax + rax]
0x416130:	ret	
F 0x413011
0x412fb1:	add	byte ptr [rbp + 0x5d0a75c0], al
0x412fb7:	ret	
F 0x40f43d
0x40f43d:	add	byte ptr [rax], r8b
0x40f440:	add	rsp, 8
0x40f444:	pop	rbx
0x40f445:	pop	rbp
0x40f446:	pop	r12
0x40f448:	pop	r13
0x40f44a:	ret	
F 0x40f05a
0x40f05a:	or	bl, al
0x40f05c:	nop	dword ptr [rax]
0x40f060:	mov	eax, 0xffffffff
0x40f065:	jmp	0x40f03b
F 0x41bf38
0x40f718:	dec	dword ptr [rax - 0x77]
0x40f71b:	ret	
F 0x414d96
0x414d96:	mov	dword ptr [rip + 0x24460], eax
0x414d9c:	add	rsp, 0x38
0x414da0:	pop	rbp
0x414da1:	pop	r12
0x414da3:	ret	
F 0x4166cd
0x4166cd:	dec	dword ptr [rbx + 0x2d]
0x4166d1:	ret	
F 0x41ac24
0x41ac24:	and	eax, 0xc031ffff
0x41ac29:	add	rsp, 8
0x41ac2d:	ret	
F 0x4250f3
0x40f444:	pop	rbx
0x40f445:	pop	rbp
0x40f446:	pop	r12
0x40f448:	pop	r13
0x40f44a:	ret	
F 0x420e43
0x40f573:	pop	r12
0x40f575:	pop	r13
0x40f577:	pop	r14
0x40f579:	pop	r15
0x40f57b:	ret	
F 0x41ec32
0x40d016:	ret	
F 0x40f787
0x40ef17:	add	rax, rdi
0x40ef1a:	mov	qword ptr [rdi + 0x28], rax
0x40ef1e:	ret	
F 0x41cad6
0x40f573:	pop	r12
0x40f575:	pop	r13
0x40f577:	pop	r14
0x40f579:	pop	r15
0x40f57b:	ret	
F 0x424608
0x410190:	push	0x5c415d5b
0x410195:	pop	r13
0x410197:	pop	r14
0x410199:	pop	r15
0x41019b:	ret	
F 0x41c0ca
0x41730a:	pop	rbx
0x41730b:	pop	rbp
0x41730c:	pop	r12
0x41730e:	pop	r14
0x417310:	ret	
F 0x42602f
0x40f579:	pop	r15
0x40f57b:	ret	
F 0x4196b4
0x40f444:	pop	rbx
0x40f445:	pop	rbp
0x40f446:	pop	r12
0x40f448:	pop	r13
0x40f44a:	ret	
F 0x41d444
0x40d016:	ret	
F 0x41384b
0x41384b:	xor	eax, eax
0x41384d:	pop	rbx
0x41384e:	pop	rbp
0x41384f:	pop	r12
0x413851:	pop	r13
0x413853:	pop	r14
0x413855:	pop	r15
0x413857:	ret	
F 0x420557
0x420557:	sal	byte ptr [rsi + rdx + 0x48], 0x8b
0x42055c:	add	eax, 0x18e27
0x420561:	add	rsp, 0x18
0x420565:	ret	
F 0x422157
0x40f577:	pop	r14
0x40f579:	pop	r15
0x40f57b:	ret	
F 0x410b16
0x40eedf:	pop	rbp
0x40eee0:	ret	
F 0x411605
0x411605:	nop	word ptr cs:[rax + rax]
0x411610:	mov	dword ptr [rdi + 8], 1
0x411617:	ret	
F 0x425e99
0x40d016:	ret	
F 0x4216e7
0x4216e7:	seta	al
0x4216ea:	movzx	eax, al
0x4216ed:	ret	
F 0x419295
0x419295:	add	byte ptr [rax], al
0x419297:	add	rsp, 0x10
0x41929b:	pop	rbx
0x41929c:	pop	rbp
0x41929d:	pop	r12
0x41929f:	pop	r13
0x4192a1:	pop	r14
0x4192a3:	ret	
F 0x40f76c
0x40f76c:	sub	r11b, r8b
0x40f76f:	nop	
0x40f770:	movsxd	rax, dword ptr [rip + 0x299b9]
0x40f777:	add	rax, rdi
0x40f77a:	mov	qword ptr [rdi + 0x28], rax
0x40f77e:	ret	
F 0x411f02
0x40f579:	pop	r15
0x40f57b:	ret	
F 0x42495e
0x40d016:	ret	
F 0x41f358
0x41d3fe:	ror	byte ptr [rax - 0x7d], 0xc4
0x41d402:	or	byte ptr [rdi], cl
0x41d404:	mov	dh, 0xc0
0x41d406:	ret	
F 0x422b84
0x41c2a7:	add	byte ptr [rax], al
0x41c2a9:	pop	rbx
0x41c2aa:	pop	rbp
0x41c2ab:	pop	r12
0x41c2ad:	ret	
F 0x41256b
0x40f572:	pop	rbp
0x40f573:	pop	r12
0x40f575:	pop	r13
0x40f577:	pop	r14
0x40f579:	pop	r15
0x40f57b:	ret	
F 0x4187e9
0x40ef1b:	mov	dword ptr [rdi + 0x28], eax
0x40ef1e:	ret	
F 0x41243d
0x41243d:	add	byte ptr [rax], r8b
0x412440:	mov	rax, qword ptr [rbx + 8]
0x412444:	pop	rbx
0x412445:	ret	
F 0x40ee9d
0x40ee9d:	sal	byte ptr [rax + rcx - 1], 0xe0
0x40eea2:	nop	word ptr [rax + rax]
0x40eea8:	ret	
F 0x41234c
0x4111df:	add	al, byte ptr [rax]
0x4111e1:	add	rsp, 0x18
0x4111e5:	ret	
F 0x41ae3f
0x419710:	add	dword ptr [rax], eax
0x419712:	add	rsp, 0x10
0x419716:	pop	rbp
0x419717:	ret	
F 0x4239ef
0x4239ef:	and	al, 0x5d
0x4239f1:	mov	dword ptr [r12 + 8], eax
0x4239f6:	mov	rax, r12
0x4239f9:	pop	r12
0x4239fb:	ret	
F 0x40fafc
0x40fafc:	cmp	dword ptr [rcx], eax
0x40fafe:	add	byte ptr [rax], al
0x40fb00:	add	rsp, 0x58
0x40fb04:	pop	rbx
0x40fb05:	pop	rbp
0x40fb06:	pop	r12
0x40fb08:	pop	r13
0x40fb0a:	pop	r14
0x40fb0c:	pop	r15
0x40fb0e:	ret	
F 0x41433b
0x41433b:	add	rsp, 0x10
0x41433f:	pop	rbx
0x414340:	pop	rbp
0x414341:	pop	r12
0x414343:	pop	r13
0x414345:	pop	r14
0x414347:	ret	
F 0x410eb2
0x40d016:	ret	
F 0x41789c
0x41789c:	add	byte ptr [rax], al
0x41789e:	add	byte ptr [rax], al
0x4178a0:	add	rsp, 0x18
0x4178a4:	pop	rbx
0x4178a5:	pop	rbp
0x4178a6:	pop	r12
0x4178a8:	pop	r13
0x4178aa:	pop	r14
0x4178ac:	pop	r15
0x4178ae:	ret	
F 0x41ad7d
0x40d016:	ret	
F 0x416128
0x416128:	add	byte ptr [rax], al
0x41612a:	nop	word ptr [rax + rax]
0x416130:	ret	
F 0x41759a
0x40f577:	pop	r14
0x40f579:	pop	r15
0x40f57b:	ret	
F 0x4123a4
0x41083b:	pop	r12
0x41083d:	pop	r13
0x41083f:	pop	r14
0x410841:	ret	
F 0x411a29
0x40f444:	pop	rbx
0x40f445:	pop	rbp
0x40f446:	pop	r12
0x40f448:	pop	r13
0x40f44a:	ret	
F 0x416853
0x40eedf:	pop	rbp
0x40eee0:	ret	
F 0x4193cc
0x40d016:	ret	
F 0x422ca5
0x422ca5:	add	byte ptr [rbp + 0x27], dh
0x422ca8:	add	rsp, 0x18
0x422cac:	pop	rbp
0x422cad:	pop	r12
0x422caf:	pop	r13
0x422cb1:	pop	r14
0x422cb3:	ret	
F 0x425cc1
0x425cc1:	add	byte ptr [rbp + 0x40], dh
0x425cc4:	add	rsp, 0x50
0x425cc8:	pop	rbp
0x425cc9:	ret	
F 0x415ebe
0x41083e:	pop	rbp
0x41083f:	pop	r14
0x410841:	ret	
F 0x412fb3
0x412fb3:	sal	byte ptr [rbp + 0xa], 0x5d
0x412fb7:	ret	
F 0x413539
0x40d016:	ret	
F 0x41c536
0x40d016:	ret	
F 0x425261
0x40f572:	pop	rbp
0x40f573:	pop	r12
0x40f575:	pop	r13
0x40f577:	pop	r14
0x40f579:	pop	r15
0x40f57b:	ret	
F 0x41ac6a
0x41700a:	mov	eax, dword ptr [rax + 0x30]
0x41700d:	ret	
F 0x41dbd3
0x40d016:	ret	
F 0x41a4f2
0x41a4f2:	add	byte ptr [rax], al
0x41a4f4:	add	rsp, 0x18
0x41a4f8:	mov	rax, r12
0x41a4fb:	pop	rbx
0x41a4fc:	pop	rbp
0x41a4fd:	pop	r12
0x41a4ff:	pop	r13
0x41a501:	pop	r14
0x41a503:	pop	r15
0x41a505:	ret	
F 0x41ffba
0x41ffba:	add	byte ptr [rax], al
0x41ffbc:	add	rsp, 0x48
0x41ffc0:	mov	rax, r12
0x41ffc3:	pop	rbx
0x41ffc4:	pop	rbp
0x41ffc5:	pop	r12
0x41ffc7:	pop	r13
0x41ffc9:	pop	r14
0x41ffcb:	pop	r15
0x41ffcd:	ret	
F 0x41e13f
0x41e13f:	add	byte ptr [rax], al
0x41e141:	add	rsp, 0x158
0x41e148:	pop	rbx
0x41e149:	pop	rbp
0x41e14a:	pop	r12
0x41e14c:	pop	r13
0x41e14e:	pop	r14
0x41e150:	pop	r15
0x41e152:	ret	
F 0x40efc5
0x40efc5:	lea	edx, [rip + 0x735]
0x40efcb:	mov	qword ptr [rax + 0x30], rdx
0x40efcf:	pop	rbp
0x40efd0:	ret	
F 0x4115ed
0x4115ed:	add	byte ptr [rax], r8b
0x4115f0:	mov	qword ptr [rdi + 8], 0
0x4115f8:	ret	
F 0x40f764
0x40f764:	cdq	
0x40f765:	add	al, byte ptr [rax]
0x40f767:	add	rax, rdi
0x40f76a:	mov	qword ptr [rdi + 0x28], rax
0x40f76e:	ret	
F 0x424c46
0x40f578:	pop	rsi
0x40f579:	pop	r15
0x40f57b:	ret	
F 0x4152ba
0x4152ba:	cmp	edi, -1
0x4152bd:	add	rsp, 0x20
0x4152c1:	pop	rbx
0x4152c2:	pop	rbp
0x4152c3:	pop	r12
0x4152c5:	pop	r13
0x4152c7:	pop	r14
0x4152c9:	ret	
F 0x41abfd
0x40d016:	ret	
F 0x414406
0x40f572:	pop	rbp
0x40f573:	pop	r12
0x40f575:	pop	r13
0x40f577:	pop	r14
0x40f579:	pop	r15
0x40f57b:	ret	
F 0x410d1a
0x40f444:	pop	rbx
0x40f445:	pop	rbp
0x40f446:	pop	r12
0x40f448:	pop	r13
0x40f44a:	ret	
F 0x417df7
0x40d016:	ret	
F 0x41134d
0x40d016:	ret	
F 0x419da5
0x411df3:	clc	
0x411df4:	pop	rbx
0x411df5:	pop	rbp
0x411df6:	pop	r12
0x411df8:	pop	r13
0x411dfa:	pop	r14
0x411dfc:	pop	r15
0x411dfe:	ret	
F 0x41f264
0x41a30c:	dec	dword ptr [rcx + rcx*4 - 0x20]
0x41a310:	pop	rbp
0x41a311:	pop	r12
0x41a313:	pop	r13
0x41a315:	ret	
F 0x41f78a
0x41c29a:	mov	dword ptr [rbx], edx
0x41c29c:	mov	qword ptr [rdi + rax*8], r12
0x41c2a0:	mov	qword ptr [rdi + rax*8 + 8], 0
0x41c2a9:	pop	rbx
0x41c2aa:	pop	rbp
0x41c2ab:	pop	r12
0x41c2ad:	ret	
F 0x41da65
0x40f448:	pop	r13
0x40f44a:	ret	
F 0x4187df
0x4187df:	and	byte ptr [r8 - 0x73], r9b
0x4187e3:	add	eax, 0x58
0x4187e8:	mov	qword ptr [rdi + 0x28], rax
0x4187ec:	ret	
F 0x4169d9
0x40f718:	dec	dword ptr [rax - 0x77]
0x40f71b:	ret	
F 0x41f82c
0x40eedf:	pop	rbp
0x40eee0:	ret	
F 0x426022
0x426022:	add	byte ptr [rax], al
0x426024:	add	rsp, 0x40
0x426028:	pop	rbp
0x426029:	pop	r12
0x42602b:	pop	r13
0x42602d:	pop	r14
0x42602f:	pop	r15
0x426031:	ret	
F 0x421603
0x40d016:	ret	
F 0x419939
0x419939:	or	byte ptr [rcx + rcx*4 - 0x20], cl
0x41993d:	pop	rbp
0x41993e:	pop	r12
0x419940:	ret	
F 0x424c44
0x40f576:	pop	rbp
0x40f577:	pop	r14
0x40f579:	pop	r15
0x40f57b:	ret	
F 0x419a73
0x419a3b:	mov	eax, eax
0x419a3d:	pop	rbp
0x419a3e:	pop	r12
0x419a40:	ret	
F 0x420f79
0x40f632:	add	rsp, 0x10
0x40f636:	pop	rbp
0x40f637:	ret	
F 0x41243b
0x41243b:	nop	dword ptr [rax + rax]
0x412440:	mov	rax, qword ptr [rbx + 8]
0x412444:	pop	rbx
0x412445:	ret	
F 0x419069
0x40d016:	ret	
F 0x41102a
0x41083f:	pop	r14
0x410841:	ret	
F 0x414a90
0x40eedf:	pop	rbp
0x40eee0:	ret	
F 0x41246b
0x40d016:	ret	
F 0x40f625
0x40f625:	or	byte ptr [rax - 0x7b], cl
0x40f628:	sal	byte ptr [rbp + rdx + 0x48], 0x8b
0x40f62d:	add	eax, 0x29a7e
0x40f632:	add	rsp, 0x10
0x40f636:	pop	rbp
0x40f637:	ret	
F 0x412f81
0x40d016:	ret	
F 0x41b0c4
0x41b0c4:	sub	byte ptr [rbx + 0x5d], bl
0x41b0c7:	ret	
F 0x40f772
0x40f772:	add	eax, 0x299b9
0x40f777:	add	rax, rdi
0x40f77a:	mov	qword ptr [rdi + 0x28], rax
0x40f77e:	ret	
F 0x419710
0x419710:	add	dword ptr [rax], eax
0x419712:	add	rsp, 0x10
0x419716:	pop	rbp
0x419717:	ret	
F 0x4181bd
0x4181bd:	add	eax, 0x210ae
0x4181c2:	add	rsp, 0x10
0x4181c6:	pop	rbp
0x4181c7:	ret	
F 0x416949
0x416949:	ror	byte ptr [rax - 0x7d], 0xc4
0x41694d:	adc	byte ptr [rbx + 0x5d], bl
0x416950:	pop	r12
0x416952:	ret	
F 0x41f798
0x41c2a8:	add	byte ptr [rbx + 0x5d], bl
0x41c2ab:	pop	r12
0x41c2ad:	ret	
F 0x4122ec
0x4122ec:	add	eax, 0x26ef7
0x4122f1:	add	rsp, 0x18
0x4122f5:	ret	
F 0x424a42
0x40dc57:	ret	0
F 0x415a20
0x40f630:	add	al, byte ptr [rax]
0x40f632:	add	rsp, 0x10
0x40f636:	pop	rbp
0x40f637:	ret	
F 0x42526a
0x40d016:	ret	
F 0x41ffcd
0x40d016:	ret	
F 0x412675
0x40f571:	pop	rbx
0x40f572:	pop	rbp
0x40f573:	pop	r12
0x40f575:	pop	r13
0x40f577:	pop	r14
0x40f579:	pop	r15
0x40f57b:	ret	
F 0x41f998
0x410536:	add	rsp, 8
0x41053a:	pop	rbp
0x41053b:	pop	r12
0x41053d:	ret	
F 0x420896
0x420896:	mov	dword ptr [rbx + 0x28], eax
0x420899:	add	rsp, 8
0x42089d:	pop	rbx
0x42089e:	pop	rbp
0x42089f:	ret	
F 0x41ab7a
0x4104ea:	mov	eax, dword ptr [rax + 8]
0x4104ed:	ret	
F 0x41d4bf
0x41d4bf:	mov	dword ptr [rbx + 8], edx
0x41d4c2:	mov	dword ptr [rbx + 0xc], eax
0x41d4c5:	add	rsp, 0x30
0x41d4c9:	pop	rbx
0x41d4ca:	ret	
F 0x41cf52
0x40f632:	add	rsp, 0x10
0x40f636:	pop	rbp
0x40f637:	ret	
F 0x418d23
0x41083d:	pop	r13
0x41083f:	pop	r14
0x410841:	ret	
F 0x419a39
0x419a39:	or	byte ptr [rcx + rcx*4 - 0x40], al
0x419a3d:	pop	rbp
0x419a3e:	pop	r12
0x419a40:	ret	
F 0x41696e
0x41696e:	mov	eax, dword ptr [rsp + 0xc]
0x416972:	add	rsp, 0x10
0x416976:	pop	rbx
0x416977:	pop	rbp
0x416978:	pop	r12
0x41697a:	ret	
F 0x418783
0x40f571:	pop	rbx
0x40f572:	pop	rbp
0x40f573:	pop	r12
0x40f575:	pop	r13
0x40f577:	pop	r14
0x40f579:	pop	r15
0x40f57b:	ret	
F 0x41d3ff
0x41d3ff:	add	rsp, 8
0x41d403:	movzx	eax, al
0x41d406:	ret	
F 0x420b0c
0x40eedf:	pop	rbp
0x40eee0:	ret	
F 0x411925
0x40d016:	ret	
F 0x41cf56
0x40eedf:	pop	rbp
0x40eee0:	ret	
F 0x411f2b
0x411f2b:	nop	
0x411f2c:	add	byte ptr [rax], al
0x411f2e:	add	byte ptr [rax - 0x77], cl
0x411f31:	ret	0x8948
F 0x41018d
0x41018d:	add	rsp, 0x68
0x410191:	pop	rbx
0x410192:	pop	rbp
0x410193:	pop	r12
0x410195:	pop	r13
0x410197:	pop	r14
0x410199:	pop	r15
0x41019b:	ret	
F 0x412db2
0x40d016:	ret	
F 0x4228f9
0x416d3c:	add	byte ptr [rax], al
0x416d3e:	add	rsp, 8
0x416d42:	ret	
F 0x420f17
0x40d016:	ret	
F 0x418a84
0x418a84:	add	rsp, 0xa8
0x418a8b:	mov	rax, r12
0x418a8e:	pop	rbp
0x418a8f:	pop	r12
0x418a91:	ret	
F 0x4225a5
0x4225a5:	add	byte ptr [rax], al
0x4225a7:	add	byte ptr [rbp + 0x78], dh
0x4225aa:	add	rsp, 0x18
0x4225ae:	xor	eax, eax
0x4225b0:	pop	rbx
0x4225b1:	pop	rbp
0x4225b2:	ret	
F 0x41f266
0x41a30e:	mov	eax, esp
0x41a310:	pop	rbp
0x41a311:	pop	r12
0x41a313:	pop	r13
0x41a315:	ret	
F 0x41f28d
0x41f28d:	mov	qword ptr [rax + 0x40], 0
0x41f295:	ret	
F 0x423076
0x40f571:	pop	rbx
0x40f572:	pop	rbp
0x40f573:	pop	r12
0x40f575:	pop	r13
0x40f577:	pop	r14
0x40f579:	pop	r15
0x40f57b:	ret	
F 0x415a89
0x40f632:	add	rsp, 0x10
0x40f636:	pop	rbp
0x40f637:	ret	
F 0x41b019
0x411664:	pop	rbx
0x411665:	ret	
F 0x41ac3a
0x41315a:	mov	eax, dword ptr [rax + 0x28]
0x41315d:	ret	
F 0x425de0
0x41175b:	pop	rbx
0x41175c:	pop	rbp
0x41175d:	pop	r12
0x41175f:	ret	
F 0x40eff5
0x40d012:	add	rsp, 8
0x40d016:	ret	
F 0x412fb6
0x40eedf:	pop	rbp
0x40eee0:	ret	
F 0x42602e
0x40f578:	pop	rsi
0x40f579:	pop	r15
0x40f57b:	ret	
F 0x422b8a
0x40d016:	ret	
F 0x41b67f
0x40eedf:	pop	rbp
0x40eee0:	ret	
F 0x418c91
0x40eedf:	pop	rbp
0x40eee0:	ret	
F 0x41dc81
0x40f579:	pop	r15
0x40f57b:	ret	
F 0x4132cf
0x4132cf:	add	byte ptr [rbp + 0x2f], dh
0x4132d2:	add	rsp, 0x78
0x4132d6:	pop	rbx
0x4132d7:	pop	rbp
0x4132d8:	pop	r12
0x4132da:	pop	r13
0x4132dc:	pop	r14
0x4132de:	pop	r15
0x4132e0:	ret	
F 0x42495a
0x40f577:	pop	r14
0x40f579:	pop	r15
0x40f57b:	ret	
F 0x42170b
0x42170b:	add	eax, 0x17d08
0x421710:	lea	rax, [rip + 0x219]
0x421717:	mov	qword ptr [rbx + 8], rax
0x42171b:	pop	rbx
0x42171c:	ret	
F 0x4187a3
0x418793:	nop	dword ptr cs:[rax + rax]
0x41879c:	nop	dword ptr [rax]
0x4187a0:	ret	
F 0x4228fb
0x40d012:	add	rsp, 8
0x40d016:	ret	
F 0x41f8fb
0x41f8fb:	or	byte ptr [rbp + 2], dh
0x41f8fe:	ret	
F 0x41333a
0x41333a:	adc	eax, 0x8c48348
0x41333f:	pop	rbx
0x413340:	pop	rbp
0x413341:	pop	r12
0x413343:	pop	r13
0x413345:	ret	
F 0x41f705
0x41083b:	pop	r12
0x41083d:	pop	r13
0x41083f:	pop	r14
0x410841:	ret	
F 0x410c5b
0x410840:	pop	rsi
0x410841:	ret	
F 0x415947
0x40f572:	pop	rbp
0x40f573:	pop	r12
0x40f575:	pop	r13
0x40f577:	pop	r14
0x40f579:	pop	r15
0x40f57b:	ret	
F 0x41b2b6
0x412566:	add	rsp, 8
0x41256a:	pop	rbx
0x41256b:	pop	rbp
0x41256c:	pop	r12
0x41256e:	pop	r13
0x412570:	pop	r14
0x412572:	pop	r15
0x412574:	ret	
F 0x42245e
0x42245e:	pop	rsi
0x42245f:	sar	esi, 0xff
0x422462:	mov	rax, qword ptr [rip + 0x16f8f]
0x422469:	add	rsp, 0x10
0x42246d:	pop	rbp
0x42246e:	ret	
F 0x41b1eb
0x40eedf:	pop	rbp
0x40eee0:	ret	
F 0x40f788
0x40ef18:	add	eax, edi
0x40ef1a:	mov	qword ptr [rdi + 0x28], rax
0x40ef1e:	ret	
F 0x41d183
0x410840:	pop	rsi
0x410841:	ret	
F 0x41f284
0x41f284:	add	byte ptr [rax], al
0x41f286:	mov	dword ptr [rax + 0x28], 0
0x41f28d:	mov	qword ptr [rax + 0x40], 0
0x41f295:	ret	
F 0x41b01a
0x40d016:	ret	
F 0x4138f3
0x40d016:	ret	
F 0x41add6
0x40eedf:	pop	rbp
0x40eee0:	ret	
F 0x410d8b
0x40d016:	ret	
F 0x41a7f6
0x419939:	or	byte ptr [rcx + rcx*4 - 0x20], cl
0x41993d:	pop	rbp
0x41993e:	pop	r12
0x419940:	ret	
F 0x420e4a
0x40f57a:	pop	rdi
0x40f57b:	ret	
F 0x41541b
0x40d016:	ret	
F 0x420e49
0x40f579:	pop	r15
0x40f57b:	ret	
F 0x40f3c0
0x40f3c0:	ret	0xeae8
F 0x426713
0x426713:	mov	eax, dword ptr [rip + 0x12d07]
0x426719:	add	rsp, 0x10
0x42671d:	pop	rbp
0x42671e:	ret	
F 0x416c40
0x410536:	add	rsp, 8
0x41053a:	pop	rbp
0x41053b:	pop	r12
0x41053d:	ret	
F 0x422675
0x40eff3:	xor	eax, eax
0x40eff5:	add	rsp, 8
0x40eff9:	ret	
F 0x41092e
0x41092e:	xor	byte ptr [rbx + 0x5d], bl
0x410931:	pop	r12
0x410933:	pop	r13
0x410935:	pop	r14
0x410937:	ret	
F 0x42047b
0x42047b:	mov	eax, dword ptr [rip + 0x18f17]
0x420481:	add	rsp, 0x18
0x420485:	ret	
F 0x41092f
0x410839:	pop	rbx
0x41083a:	pop	rbp
0x41083b:	pop	r12
0x41083d:	pop	r13
0x41083f:	pop	r14
0x410841:	ret	
F 0x41cf4f
0x40d016:	ret	
F 0x412671
0x412566:	add	rsp, 8
0x41256a:	pop	rbx
0x41256b:	pop	rbp
0x41256c:	pop	r12
0x41256e:	pop	r13
0x412570:	pop	r14
0x412572:	pop	r15
0x412574:	ret	
F 0x41acc7
0x41acc7:	adc	byte ptr [r8 - 0x75], r9b
0x41accb:	ret	
F 0x41083d
0x41083d:	pop	r13
0x41083f:	pop	r14
0x410841:	ret	
F 0x4117b8
0x4117b8:	mov	qword ptr [rsi + 8], 0
0x4117c0:	ret	
F 0x4156dd
0x40d016:	ret	
F 0x4178ad
0x40f57a:	pop	rdi
0x40f57b:	ret	
F 0x41a667
0x40f718:	dec	dword ptr [rax - 0x77]
0x40f71b:	ret	
F 0x417dec
0x417dec:	sub	byte ptr [rbx + 0x5d], bl
0x417def:	pop	r12
0x417df1:	pop	r13
0x417df3:	pop	r14
0x417df5:	pop	r15
0x417df7:	ret	
F 0x41758e
0x41758e:	add	byte ptr [rax], al
0x417590:	add	rsp, 8
0x417594:	pop	rbx
0x417595:	pop	rbp
0x417596:	pop	r12
0x417598:	pop	r13
0x41759a:	pop	r14
0x41759c:	pop	r15
0x41759e:	ret	
F 0x41cf45
0x41cf45:	or	byte ptr [rax - 0x7b], cl
0x41cf48:	sal	byte ptr [rbp + rdx + 0x48], 0x8b
0x41cf4d:	add	eax, 0x1c3d6
0x41cf52:	add	rsp, 0x10
0x41cf56:	pop	rbp
0x41cf57:	ret	
F 0x41704b
0x41704b:	mov	rax, qword ptr [rip + 0x22226]
0x417052:	add	rsp, 0x10
0x417056:	pop	rbp
0x417057:	ret	
F 0x40f35c
0x40f287:	add	byte ptr [rax], al
0x40f289:	add	byte ptr [rax - 0x77], cl
0x40f28c:	ret	
F 0x410b7e
0x40d016:	ret	
F 0x41399a
0x41399a:	mov	eax, dword ptr [rax + 0x38]
0x41399d:	ret	
F 0x41037e
0x40f445:	pop	rbp
0x40f446:	pop	r12
0x40f448:	pop	r13
0x40f44a:	ret	
F 0x421482
0x410839:	pop	rbx
0x41083a:	pop	rbp
0x41083b:	pop	r12
0x41083d:	pop	r13
0x41083f:	pop	r14
0x410841:	ret	
F 0x4198dd
0x40f6d0:	xor	eax, eax
0x40f6d2:	pop	rbp
0x40f6d3:	ret	
F 0x411dfd
0x40f57a:	pop	rdi
0x40f57b:	ret	
F 0x425260
0x40f571:	pop	rbx
0x40f572:	pop	rbp
0x40f573:	pop	r12
0x40f575:	pop	r13
0x40f577:	pop	r14
0x40f579:	pop	r15
0x40f57b:	ret	
F 0x421711
0x421711:	lea	eax, [rip + 0x219]
0x421717:	mov	qword ptr [rbx + 8], rax
0x42171b:	pop	rbx
0x42171c:	ret	
F 0x4114ed
0x41083e:	pop	rbp
0x41083f:	pop	r14
0x410841:	ret	
F 0x41072d
0x40eedf:	pop	rbp
0x40eee0:	ret	
F 0x41d18f
0x40f78f:	nop	
0x40f790:	ret	
F 0x418eac
0x4117ac:	or	byte ptr [rcx], al
0x4117ae:	mov	qword ptr [rsi + 8], rax
0x4117b2:	ret	
F 0x40eda2
0x40d016:	ret	
F 0x426627
0x426627:	sal	byte ptr [rsi + rdx + 0x48], 0x8b
0x42662c:	add	eax, 0x12df7
0x426631:	add	rsp, 0x18
0x426635:	ret	
F 0x423078
0x40f573:	pop	r12
0x40f575:	pop	r13
0x40f577:	pop	r14
0x40f579:	pop	r15
0x40f57b:	ret	
F 0x4204c1
0x4204c1:	dec	dword ptr [rax - 0x75]
0x4204c4:	add	eax, 0x18ecf
0x4204c9:	add	rsp, 0x18
0x4204cd:	ret	
F 0x418d95
0x418d95:	jmp	0x418d89
F 0x41d72b
0x41d72b:	add	rsp, 0x30
0x41d72f:	mov	eax, r13d
0x41d732:	pop	rbx
0x41d733:	pop	rbp
0x41d734:	pop	r12
0x41d736:	pop	r13
0x41d738:	pop	r14
0x41d73a:	ret	
F 0x40f77a
0x40ef1a:	mov	qword ptr [rdi + 0x28], rax
0x40ef1e:	ret	
F 0x418ff8
0x40eedf:	pop	rbp
0x40eee0:	ret	
F 0x424612
0x40f57a:	pop	rdi
0x40f57b:	ret	
F 0x41d1d5
0x41165e:	add	byte ptr [rax], al
0x411660:	mov	qword ptr [rbx + 8], rax
0x411664:	pop	rbx
0x411665:	ret	
F 0x422afc
0x422afc:	add	byte ptr [rax - 0x77], cl
0x422aff:	ret	0x8d48
F 0x41f796
0x41c2a6:	add	byte ptr [rax], al
0x41c2a8:	add	byte ptr [rbx + 0x5d], bl
0x41c2ab:	pop	r12
0x41c2ad:	ret	
F 0x41f797
0x41c2a7:	add	byte ptr [rax], al
0x41c2a9:	pop	rbx
0x41c2aa:	pop	rbp
0x41c2ab:	pop	r12
0x41c2ad:	ret	
F 0x40d00d
0x40d00d:	sal	byte ptr [rdx + rax - 1], 0xd0
0x40d012:	add	rsp, 8
0x40d016:	ret	
F 0x420c09
0x412eda:	mov	eax, dword ptr [rax + 0x18]
0x412edd:	ret	
F 0x413c79
0x41083f:	pop	r14
0x410841:	ret	
F 0x416871
0x413209:	xor	eax, eax
0x41320b:	pop	rbx
0x41320c:	pop	rbp
0x41320d:	ret	
F 0x417de6
0x417de6:	add	byte ptr [rbp + 0x66], dh
0x417de9:	add	rsp, 0x28
0x417ded:	pop	rbx
0x417dee:	pop	rbp
0x417def:	pop	r12
0x417df1:	pop	r13
0x417df3:	pop	r14
0x417df5:	pop	r15
0x417df7:	ret	
F 0x411efc
0x40f573:	pop	r12
0x40f575:	pop	r13
0x40f577:	pop	r14
0x40f579:	pop	r15
0x40f57b:	ret	
F 0x419f6c
0x40f445:	pop	rbp
0x40f446:	pop	r12
0x40f448:	pop	r13
0x40f44a:	ret	
F 0x41b6d6
0x40eedf:	pop	rbp
0x40eee0:	ret	
F 0x417f5a
0x417f5a:	ret	0xff68
F 0x419c3d
0x419936:	add	rsp, 8
0x41993a:	mov	rax, r12
0x41993d:	pop	rbp
0x41993e:	pop	r12
0x419940:	ret	
F 0x41879a
0x41879a:	add	byte ptr [rax], al
0x41879c:	nop	dword ptr [rax]
0x4187a0:	ret	
F 0x423ba7
0x410840:	pop	rsi
0x410841:	ret	
F 0x412437
0x412437:	xor	eax, eax
0x412439:	pop	rbx
0x41243a:	ret	
F 0x41bdb1
0x41bdb1:	dec	dword ptr [rax - 0x75]
0x41bdb4:	add	eax, 0x1d527
0x41bdb9:	add	rsp, 0x10
0x41bdbd:	pop	rbp
0x41bdbe:	ret	
F 0x420531
0x420531:	dec	dword ptr [rax - 0x75]
0x420534:	add	eax, 0x18e57
0x420539:	add	rsp, 0x18
0x42053d:	ret	
F 0x422cb2
0x410840:	pop	rsi
0x410841:	ret	
F 0x41ab6d
0x40d016:	ret	
F 0x41f2d7
0x41f2d7:	push	rax
0x41f2d8:	mov	rax, qword ptr [rdi + 0x28]
0x41f2dc:	cmp	qword ptr [rsi + 0x28], rax
0x41f2e0:	cmovae	rax, qword ptr [rsi + 0x28]
0x41f2e5:	mov	qword ptr [rdi + 0x28], rax
0x41f2e9:	ret	
F 0x426270
0x422c00:	ret	0x6ae8
F 0x41b417
0x40d016:	ret	
F 0x415950
0x40d016:	ret	
F 0x40f440
0x40f440:	add	rsp, 8
0x40f444:	pop	rbx
0x40f445:	pop	rbp
0x40f446:	pop	r12
0x40f448:	pop	r13
0x40f44a:	ret	
F 0x4115ee
0x4115ee:	add	byte ptr [rax], al
0x4115f0:	mov	qword ptr [rdi + 8], 0
0x4115f8:	ret	
F 0x41440f
0x40d016:	ret	
F 0x41333b
0x40f440:	add	rsp, 8
0x40f444:	pop	rbx
0x40f445:	pop	rbp
0x40f446:	pop	r12
0x40f448:	pop	r13
0x40f44a:	ret	
F 0x419d0c
0x40d016:	ret	
F 0x425c2a
0x40f577:	pop	r14
0x40f579:	pop	r15
0x40f57b:	ret	
F 0x41b43f
0x41b43f:	add	byte ptr [rax + 0x63], cl
0x41b442:	add	eax, 0x1deb1
0x41b447:	add	rax, rdi
0x41b44a:	mov	qword ptr [rdi + 0x30], rax
0x41b44e:	ret	
F 0x41515f
0x410835:	add	rsp, 0x20
0x410839:	pop	rbx
0x41083a:	pop	rbp
0x41083b:	pop	r12
0x41083d:	pop	r13
0x41083f:	pop	r14
0x410841:	ret	
F 0x41b54d
0x40eea5:	add	byte ptr [rax], r8b
0x40eea8:	ret	
F 0x415eb8
0x415017:	mov	eax, esi
0x415019:	pop	rbp
0x41501a:	pop	r12
0x41501c:	pop	r13
0x41501e:	pop	r14
0x415020:	ret	
F 0x41c707
0x419710:	add	dword ptr [rax], eax
0x419712:	add	rsp, 0x10
0x419716:	pop	rbp
0x419717:	ret	
F 0x40f76d
0x40f76d:	sub	bl, al
0x40f76f:	nop	
0x40f770:	movsxd	rax, dword ptr [rip + 0x299b9]
0x40f777:	add	rax, rdi
0x40f77a:	mov	qword ptr [rdi + 0x28], rax
0x40f77e:	ret	
F 0x411df3
0x411df3:	clc	
0x411df4:	pop	rbx
0x411df5:	pop	rbp
0x411df6:	pop	r12
0x411df8:	pop	r13
0x411dfa:	pop	r14
0x411dfc:	pop	r15
0x411dfe:	ret	
F 0x41ad17
0x40eff3:	xor	eax, eax
0x40eff5:	add	rsp, 8
0x40eff9:	ret	
F 0x41140e
0x41140e:	scasb	al, byte ptr [rdi]
0x41140f:	sar	edi, 1
0x411411:	dec	dword ptr [rax - 0x75]
0x411414:	add	eax, 0x27cc7
0x411419:	add	rsp, 0x10
0x41141d:	pop	rbp
0x41141e:	ret	
F 0x410f44
0x410f44:	add	eax, 0x281a7
0x410f49:	add	rsp, 0x10
0x410f4d:	pop	rbp
0x410f4e:	ret	
F 0x41ad89
0x41ad89:	mov	rax, qword ptr [rax + 0x58]
0x41ad8d:	ret	
F 0x414983
0x414983:	add	rsp, 8
0x414987:	xor	eax, eax
0x414989:	pop	rbp
0x41498a:	pop	r12
0x41498c:	ret	
F 0x420c0c
0x40d016:	ret	
F 0x40f2d3
0x40d016:	ret	
F 0x411f31
0x411f31:	ret	0x8948
F 0x422ae6
0x40f289:	add	byte ptr [rax - 0x77], cl
0x40f28c:	ret	
F 0x42170a
0x42170a:	mov	dword ptr [rip + 0x17d08], eax
0x421710:	lea	rax, [rip + 0x219]
0x421717:	mov	qword ptr [rbx + 8], rax
0x42171b:	pop	rbx
0x42171c:	ret	
F 0x420e41
0x40f571:	pop	rbx
0x40f572:	pop	rbp
0x40f573:	pop	r12
0x40f575:	pop	r13
0x40f577:	pop	r14
0x40f579:	pop	r15
0x40f57b:	ret	
F 0x418c84
0x418c84:	lea	edx, [rip - 0x4ea]
0x418c8a:	mov	qword ptr [rax + 0x90], rdx
0x418c91:	pop	rbp
0x418c92:	ret	
F 0x41a13b
0x40f718:	dec	dword ptr [rax - 0x77]
0x40f71b:	ret	
F 0x41e14d
0x40f576:	pop	rbp
0x40f577:	pop	r14
0x40f579:	pop	r15
0x40f57b:	ret	
F 0x417590
0x412566:	add	rsp, 8
0x41256a:	pop	rbx
0x41256b:	pop	rbp
0x41256c:	pop	r12
0x41256e:	pop	r13
0x412570:	pop	r14
0x412572:	pop	r15
0x412574:	ret	
F 0x411758
0x411758:	mov	dword ptr [rbx + 8], ebp
0x41175b:	pop	rbx
0x41175c:	pop	rbp
0x41175d:	pop	r12
0x41175f:	ret	
F 0x40ee5f
0x40ee5f:	jmp	rax
F 0x41b67e
0x40f448:	pop	r13
0x40f44a:	ret	
F 0x420e4b
0x40d016:	ret	
F 0x423077
0x40f572:	pop	rbp
0x40f573:	pop	r12
0x40f575:	pop	r13
0x40f577:	pop	r14
0x40f579:	pop	r15
0x40f57b:	ret	
F 0x41af80
0x4123a0:	pop	rbx
0x4123a1:	xor	eax, eax
0x4123a3:	pop	rbp
0x4123a4:	pop	r12
0x4123a6:	pop	r13
0x4123a8:	pop	r14
0x4123aa:	ret	
F 0x41d730
0x41d730:	mov	eax, ebp
0x41d732:	pop	rbx
0x41d733:	pop	rbp
0x41d734:	pop	r12
0x41d736:	pop	r13
0x41d738:	pop	r14
0x41d73a:	ret	
F 0x41159f
0x40eedf:	pop	rbp
0x40eee0:	ret	
F 0x420381
0x410840:	pop	rsi
0x410841:	ret	
F 0x4127af
0x40d016:	ret	
F 0x411633
0x411633:	add	byte ptr [rax], al
0x411635:	add	bh, al
0x411637:	and	byte ptr [rip + 0x48000000], al
0x41163e:	mov	dword ptr [rax + 0x38], 0
0x411645:	ret	
F 0x41aa2c
0x40d016:	ret	
F 0x41ac09
0x41ac09:	mov	rax, qword ptr [rax + 0x20]
0x41ac0d:	ret	
F 0x42495b
0x40f578:	pop	rsi
0x40f579:	pop	r15
0x40f57b:	ret	
F 0x420bdd
0x40d016:	ret	
F 0x410191
0x40f571:	pop	rbx
0x40f572:	pop	rbp
0x40f573:	pop	r12
0x40f575:	pop	r13
0x40f577:	pop	r14
0x40f579:	pop	r15
0x40f57b:	ret	
F 0x4205ad
0x40d016:	ret	
F 0x4113ac
0x4113ac:	mov	eax, dword ptr [rip + 0x27d2e]
0x4113b2:	add	rsp, 0x10
0x4113b6:	pop	rbp
0x4113b7:	ret	
F 0x41083f
0x41083f:	pop	r14
0x410841:	ret	
F 0x413179
0x40d012:	add	rsp, 8
0x40d016:	ret	
F 0x41d1db
0x411664:	pop	rbx
0x411665:	ret	
F 0x40f776
0x40ef16:	add	byte ptr [rax + 1], cl
0x40ef19:	clc	
0x40ef1a:	mov	qword ptr [rdi + 0x28], rax
0x40ef1e:	ret	
F 0x418f78
0x418f78:	mov	dword ptr [rax + 0x28], 0
0x418f7f:	mov	qword ptr [rax + 0x28], rbp
0x418f83:	add	rsp, 8
0x418f87:	pop	rbx
0x418f88:	pop	rbp
0x418f89:	ret	
F 0x418ba4
0x418a84:	add	rsp, 0xa8
0x418a8b:	mov	rax, r12
0x418a8e:	pop	rbp
0x418a8f:	pop	r12
0x418a91:	ret	
F 0x425cc3
0x425cc3:	add	rsp, 0x50
0x425cc8:	pop	rbp
0x425cc9:	ret	
F 0x4112e0
0x40d016:	ret	
F 0x426631
0x4111e1:	add	rsp, 0x18
0x4111e5:	ret	
F 0x410a07
0x40eff3:	xor	eax, eax
0x40eff5:	add	rsp, 8
0x40eff9:	ret	
F 0x4197e8
0x40eedf:	pop	rbp
0x40eee0:	ret	
F 0x42077b
0x40f576:	pop	rbp
0x40f577:	pop	r14
0x40f579:	pop	r15
0x40f57b:	ret	
F 0x426714
0x426714:	add	eax, 0x12d07
0x426719:	add	rsp, 0x10
0x42671d:	pop	rbp
0x42671e:	ret	
F 0x40f6ce
0x40f6ce:	add	byte ptr [rax], al
0x40f6d0:	xor	eax, eax
0x40f6d2:	pop	rbp
0x40f6d3:	ret	
F 0x422ca8
0x422ca8:	add	rsp, 0x18
0x422cac:	pop	rbp
0x422cad:	pop	r12
0x422caf:	pop	r13
0x422cb1:	pop	r14
0x422cb3:	ret	
F 0x41ac0d
0x40d016:	ret	
F 0x410b05
0x410b05:	or	byte ptr [rax - 0x7b], cl
0x410b08:	sal	byte ptr [rbp + rdx + 0x48], 0x8b
0x410b0d:	add	eax, 0x285e6
0x410b12:	add	rsp, 0x10
0x410b16:	pop	rbp
0x410b17:	ret	
F 0x420c29
0x40d012:	add	rsp, 8
0x40d016:	ret	
F 0x41c0c9
0x417309:	cmp	byte ptr [rbx + 0x5d], bl
0x41730c:	pop	r12
0x41730e:	pop	r14
0x417310:	ret	
F 0x4178a9
0x40f576:	pop	rbp
0x40f577:	pop	r14
0x40f579:	pop	r15
0x40f57b:	ret	
F 0x416fc9
0x40f573:	pop	r12
0x40f575:	pop	r13
0x40f577:	pop	r14
0x40f579:	pop	r15
0x40f57b:	ret	
F 0x416851
0x412499:	or	byte ptr [rbx + 0x5d], bl
0x41249c:	ret	
F 0x4116a0
0x4116a0:	mov	qword ptr [rdx], 0
0x4116a7:	xor	eax, eax
0x4116a9:	ret	
F 0x419b8c
0x419b8c:	add	eax, 0x1f727
0x419b91:	add	rsp, 0x18
0x419b95:	ret	
F 0x40d0d2
0x40d0d2:	ret	0x2b0
F 0x4216ea
0x41d403:	movzx	eax, al
0x41d406:	ret	
F 0x41ad8d
0x40d016:	ret	
F 0x40f6d3
0x40d016:	ret	
F 0x410b71
0x410b71:	dec	dword ptr [rax - 0x75]
0x410b74:	add	eax, 0x2857f
0x410b79:	add	rsp, 0x10
0x410b7d:	pop	rbp
0x410b7e:	ret	
F 0x422522
0x40d016:	ret	
F 0x41dac4
0x40d016:	ret	
F 0x411634
0x411634:	add	byte ptr [rax], al
0x411636:	mov	dword ptr [rax + 0x20], 5
0x41163d:	mov	qword ptr [rax + 0x38], 0
0x411645:	ret	
F 0x4178a4
0x40f571:	pop	rbx
0x40f572:	pop	rbp
0x40f573:	pop	r12
0x40f575:	pop	r13
0x40f577:	pop	r14
0x40f579:	pop	r15
0x40f57b:	ret	
F 0x411dfa
0x40f577:	pop	r14
0x40f579:	pop	r15
0x40f57b:	ret	
F 0x4219c7
0x4219c7:	mov	dword ptr [rbx + 0x78], eax
0x4219ca:	pop	rbx
0x4219cb:	ret	
F 0x4266ac
0x4266ac:	mov	eax, dword ptr [rip + 0x12d6e]
0x4266b2:	add	rsp, 0x10
0x4266b6:	pop	rbp
0x4266b7:	ret	
F 0x414a89
0x414a1f:	add	r8b, byte ptr [r8]
0x414a22:	add	rsp, 0x10
0x414a26:	pop	rbp
0x414a27:	ret	
F 0x419b8b
0x419b8b:	mov	eax, dword ptr [rip + 0x1f727]
0x419b91:	add	rsp, 0x18
0x419b95:	ret	
F 0x41f82b
0x41249a:	pop	rbx
0x41249b:	pop	rbp
0x41249c:	ret	
F 0x42251a
0x416d3a:	add	dword ptr [rax], eax
0x416d3c:	add	byte ptr [rax], al
0x416d3e:	add	rsp, 8
0x416d42:	ret	
F 0x417258
0x410839:	pop	rbx
0x41083a:	pop	rbp
0x41083b:	pop	r12
0x41083d:	pop	r13
0x41083f:	pop	r14
0x410841:	ret	
F 0x41ab67
0x40eff3:	xor	eax, eax
0x40eff5:	add	rsp, 8
0x40eff9:	ret	
F 0x420b0b
0x40f448:	pop	r13
0x40f44a:	ret	
F 0x418a12
0x418922:	add	byte ptr [rax], al
0x418924:	pop	rbp
0x418925:	pop	r12
0x418927:	pop	r13
0x418929:	ret	
F 0x4205a4
0x4205a4:	add	eax, 0x18ddf
0x4205a9:	add	rsp, 0x18
0x4205ad:	ret	
F 0x420b27
0x41a30c:	dec	dword ptr [rcx + rcx*4 - 0x20]
0x41a310:	pop	rbp
0x41a311:	pop	r12
0x41a313:	pop	r13
0x41a315:	ret	
F 0x41b5b6
0x40d016:	ret	
F 0x419bc8
0x419bc8:	test	byte ptr [rcx], 0
0x419bcb:	add	rsp, 0x18
0x419bcf:	ret	
F 0x40ee68
0x40d016:	ret	
F 0x423966
0x40d016:	ret	
F 0x4149a5
0x414983:	add	rsp, 8
0x414987:	xor	eax, eax
0x414989:	pop	rbp
0x41498a:	pop	r12
0x41498c:	ret	
F 0x41953b
0x416e1b:	add	byte ptr [rax], 0
0x416e1e:	add	byte ptr [rax], al
0x416e20:	add	rsp, 8
0x416e24:	pop	rbp
0x416e25:	pop	r12
0x416e27:	ret	
F 0x413205
0x413205:	add	rsp, 8
0x413209:	xor	eax, eax
0x41320b:	pop	rbx
0x41320c:	pop	rbp
0x41320d:	ret	
F 0x411608
0x411608:	nop	dword ptr [rax + rax]
0x411610:	mov	dword ptr [rdi + 8], 1
0x411617:	ret	
F 0x421710
0x421710:	lea	rax, [rip + 0x219]
0x421717:	mov	qword ptr [rbx + 8], rax
0x42171b:	pop	rbx
0x42171c:	ret	
F 0x41dc82
0x40f57a:	pop	rdi
0x40f57b:	ret	
F 0x410b79
0x40f632:	add	rsp, 0x10
0x40f636:	pop	rbp
0x40f637:	ret	
F 0x410841
0x40d016:	ret	
F 0x414169
0x41083f:	pop	r14
0x410841:	ret	
F 0x41fb25
0x40d016:	ret	
F 0x41730b
0x41730b:	pop	rbp
0x41730c:	pop	r12
0x41730e:	pop	r14
0x417310:	ret	
F 0x41163b
0x41163b:	add	byte ptr [rax], al
0x41163d:	mov	qword ptr [rax + 0x38], 0
0x411645:	ret	
F 0x412f7e
0x412f7e:	add	byte ptr [rax], al
0x412f80:	pop	rbp
0x412f81:	ret	
F 0x419067
0x41249a:	pop	rbx
0x41249b:	pop	rbp
0x41249c:	ret	
F 0x413ae3
0x413ae3:	and	byte ptr [rbx + 0x5d], bl
0x413ae6:	pop	r12
0x413ae8:	ret	
F 0x413c77
0x41083d:	pop	r13
0x41083f:	pop	r14
0x410841:	ret	
F 0x424431
0x416b56:	add	byte ptr [rax], al
0x416b58:	add	rsp, 0x18
0x416b5c:	pop	rbx
0x416b5d:	pop	rbp
0x416b5e:	pop	r12
0x416b60:	pop	r13
0x416b62:	pop	r14
0x416b64:	pop	r15
0x416b66:	ret	
F 0x41b89a
0x40f57a:	pop	rdi
0x40f57b:	ret	
F 0x40ef1e
0x40d016:	ret	
F 0x416c44
0x41053a:	pop	rbp
0x41053b:	pop	r12
0x41053d:	ret	
F 0x41c2a5
0x41c2a5:	add	byte ptr [rax], al
0x41c2a7:	add	byte ptr [rax], al
0x41c2a9:	pop	rbx
0x41c2aa:	pop	rbp
0x41c2ab:	pop	r12
0x41c2ad:	ret	
F 0x42037b
0x41083a:	pop	rbp
0x41083b:	pop	r12
0x41083d:	pop	r13
0x41083f:	pop	r14
0x410841:	ret	
F 0x411a2e
0x40eedf:	pop	rbp
0x40eee0:	ret	
F 0x410382
0x40eedf:	pop	rbp
0x40eee0:	ret	
F 0x4114ea
0x41083b:	pop	r12
0x41083d:	pop	r13
0x41083f:	pop	r14
0x410841:	ret	
F 0x4114e8
0x410839:	pop	rbx
0x41083a:	pop	rbp
0x41083b:	pop	r12
0x41083d:	pop	r13
0x41083f:	pop	r14
0x410841:	ret	
F 0x41bf09
0x41bf09:	add	rsp, 0x20
0x41bf0d:	pop	rbx
0x41bf0e:	pop	rbp
0x41bf0f:	mov	dword ptr [rip + 0x1d3f7], eax
0x41bf15:	pop	r12
0x41bf17:	ret	
F 0x41d734
0x41083b:	pop	r12
0x41083d:	pop	r13
0x41083f:	pop	r14
0x410841:	ret	
F 0x4265e4
0x4265e4:	or	byte ptr [r11 + 0x5d], bl
0x4265e8:	pop	r12
0x4265ea:	ret	
F 0x4216fb
0x41b44b:	mov	dword ptr [rdi + 0x30], eax
0x41b44e:	ret	
F 0x41bf14
0x41bf14:	add	byte ptr [rcx + 0x5c], al
0x41bf17:	ret	
F 0x4219db
0x4219db:	sub	eax, 6
0x4219de:	mov	dword ptr [rbx + 0x78], eax
0x4219e1:	pop	rbx
0x4219e2:	ret	
F 0x41c00a
0x41083f:	pop	r14
0x410841:	ret	
F 0x412468
0x40f718:	dec	dword ptr [rax - 0x77]
0x40f71b:	ret	
F 0x415ef3
0x410840:	pop	rsi
0x410841:	ret	
F 0x419451
0x40d016:	ret	
F 0x421487
0x41083e:	pop	rbp
0x41083f:	pop	r14
0x410841:	ret	
F 0x416d39
0x416d39:	mov	eax, 1
0x416d3e:	add	rsp, 8
0x416d42:	ret	
F 0x41f8fe
0x40d016:	ret	
F 0x41b1df
0x41b1df:	mov	dword ptr [rax + 0x58], 0
0x41b1e6:	add	rsp, 8
0x41b1ea:	pop	rbx
0x41b1eb:	pop	rbp
0x41b1ec:	ret	
F 0x41cada
0x40f577:	pop	r14
0x40f579:	pop	r15
0x40f57b:	ret	
F 0x422e0d
0x41c2a6:	add	byte ptr [rax], al
0x41c2a8:	add	byte ptr [rbx + 0x5d], bl
0x41c2ab:	pop	r12
0x41c2ad:	ret	
F 0x418e5b
0x41175b:	pop	rbx
0x41175c:	pop	rbp
0x41175d:	pop	r12
0x41175f:	ret	
F 0x41168c
0x41168c:	xor	eax, eax
0x41168e:	ret	
F 0x40dc67
0x40d016:	ret	
F 0x41b017
0x412437:	xor	eax, eax
0x412439:	pop	rbx
0x41243a:	ret	
F 0x41a54f
0x40f718:	dec	dword ptr [rax - 0x77]
0x40f71b:	ret	
F 0x423cd3
0x423cd3:	or	al, 0x5d
0x423cd5:	pop	r12
0x423cd7:	pop	r13
0x423cd9:	ret	
F 0x4112d4
0x410835:	add	rsp, 0x20
0x410839:	pop	rbx
0x41083a:	pop	rbp
0x41083b:	pop	r12
0x41083d:	pop	r13
0x41083f:	pop	r14
0x410841:	ret	
F 0x419112
0x40d016:	ret	
F 0x4197de
0x4197de:	mov	eax, dword ptr [rip + 0x1fadc]
0x4197e4:	add	rsp, 0x10
0x4197e8:	pop	rbp
0x4197e9:	ret	
F 0x415942
0x415942:	cwde	
0x415943:	add	byte ptr [rax], al
0x415945:	add	byte ptr [rbx + 0x5d], bl
0x415948:	pop	r12
0x41594a:	pop	r13
0x41594c:	pop	r14
0x41594e:	pop	r15
0x415950:	ret	
F 0x426b46
0x40f445:	pop	rbp
0x40f446:	pop	r12
0x40f448:	pop	r13
0x40f44a:	ret	
F 0x421bc3
0x40d016:	ret	
F 0x41c6a2
0x40f632:	add	rsp, 0x10
0x40f636:	pop	rbp
0x40f637:	ret	
F 0x40f785
0x40ef15:	add	al, byte ptr [rax]
0x40ef17:	add	rax, rdi
0x40ef1a:	mov	qword ptr [rdi + 0x28], rax
0x40ef1e:	ret	
F 0x419708
0x419708:	sal	byte ptr [rbp + rdx + 0x48], 0x8b
0x41970d:	add	eax, 0x1fbae
0x419712:	add	rsp, 0x10
0x419716:	pop	rbp
0x419717:	ret	
F 0x411020
0x410835:	add	rsp, 0x20
0x410839:	pop	rbx
0x41083a:	pop	rbp
0x41083b:	pop	r12
0x41083d:	pop	r13
0x41083f:	pop	r14
0x410841:	ret	
F 0x421489
0x410840:	pop	rsi
0x410841:	ret	
F 0x41acd8
0x40d016:	ret	
F 0x41878b
0x40f579:	pop	r15
0x40f57b:	ret	
F 0x414835
0x40d016:	ret	
F 0x4178ab
0x40f578:	pop	rsi
0x40f579:	pop	r15
0x40f57b:	ret	
F 0x4216cc
0x41879c:	nop	dword ptr [rax]
0x4187a0:	ret	
F 0x412efd
0x40d016:	ret	
F 0x41700a
0x41700a:	mov	eax, dword ptr [rax + 0x30]
0x41700d:	ret	
F 0x41b3ca
0x40f576:	pop	rbp
0x40f577:	pop	r14
0x40f579:	pop	r15
0x40f57b:	ret	
F 0x41d402
0x41d402:	or	byte ptr [rdi], cl
0x41d404:	mov	dh, 0xc0
0x41d406:	ret	
F 0x422b85
0x41c2a8:	add	byte ptr [rbx + 0x5d], bl
0x41c2ab:	pop	r12
0x41c2ad:	ret	
F 0x421852
0x40d016:	ret	
F 0x41c29d
0x41c29d:	mov	dword ptr [rdi + rax*8], esp
0x41c2a0:	mov	qword ptr [rdi + rax*8 + 8], 0
0x41c2a9:	pop	rbx
0x41c2aa:	pop	rbp
0x41c2ab:	pop	r12
0x41c2ad:	ret	
F 0x42671e
0x40d016:	ret	
F 0x4170be
0x40d016:	ret	
F 0x41a504
0x40f57a:	pop	rdi
0x40f57b:	ret	
F 0x41b82d
0x40d016:	ret	
F 0x41612e
0x40ee66:	add	byte ptr [rax], al
0x40ee68:	ret	
F 0x40eee3
0x40ee63:	add	byte ptr [rax], 0
0x40ee66:	add	byte ptr [rax], al
0x40ee68:	ret	
F 0x41019a
0x40f57a:	pop	rdi
0x40f57b:	ret	
F 0x41882d
0x41882d:	mov	dword ptr [rax + 0x60], 0
0x418834:	mov	dword ptr [rdi + 8], 1
0x41883b:	ret	
F 0x417594
0x40f571:	pop	rbx
0x40f572:	pop	rbp
0x40f573:	pop	r12
0x40f575:	pop	r13
0x40f577:	pop	r14
0x40f579:	pop	r15
0x40f57b:	ret	
F 0x41cbad
0x40d016:	ret	
F 0x4239e8
0x4239e8:	mov	eax, dword ptr [rbx + 8]
0x4239eb:	pop	rbx
0x4239ec:	mov	qword ptr [r12], rbp
0x4239f0:	pop	rbp
0x4239f1:	mov	dword ptr [r12 + 8], eax
0x4239f6:	mov	rax, r12
0x4239f9:	pop	r12
0x4239fb:	ret	
F 0x41f76a
0x410840:	pop	rsi
0x410841:	ret	
F 0x411638
0x411638:	and	byte ptr [rip + 0x48000000], al
0x41163e:	mov	dword ptr [rax + 0x38], 0
0x411645:	ret	
F 0x41cfbd
0x40eedf:	pop	rbp
0x40eee0:	ret	
F 0x41891d
0x41891d:	add	rsp, 0x90
0x418924:	pop	rbp
0x418925:	pop	r12
0x418927:	pop	r13
0x418929:	ret	
F 0x42089f
0x40d016:	ret	
F 0x413dd1
0x40f57a:	pop	rdi
0x40f57b:	ret	
F 0x41811d
0x40f575:	pop	r13
0x40f577:	pop	r14
0x40f579:	pop	r15
0x40f57b:	ret	
F 0x41c2a0
0x41c2a0:	mov	qword ptr [rdi + rax*8 + 8], 0
0x41c2a9:	pop	rbx
0x41c2aa:	pop	rbp
0x41c2ab:	pop	r12
0x41c2ad:	ret	
F 0x4170fb
0x40d016:	ret	
F 0x4115f7
0x4115f7:	add	bl, al
0x4115f9:	nop	dword ptr [rax]
0x411600:	mov	rax, qword ptr [rdi + 8]
0x411604:	ret	
F 0x41d17e
0x41083b:	pop	r12
0x41083d:	pop	r13
0x41083f:	pop	r14
0x410841:	ret	
F 0x41d1d8
0x411661:	mov	dword ptr [rbx + 8], eax
0x411664:	pop	rbx
0x411665:	ret	
F 0x4225a7
0x4225a7:	add	byte ptr [rbp + 0x78], dh
0x4225aa:	add	rsp, 0x18
0x4225ae:	xor	eax, eax
0x4225b0:	pop	rbx
0x4225b1:	pop	rbp
0x4225b2:	ret	
F 0x4265dd
0x4265dd:	mov	eax, dword ptr [rbp + 8]
0x4265e0:	mov	qword ptr [rbx], r12
0x4265e3:	mov	dword ptr [rbx + 8], eax
0x4265e6:	pop	rbx
0x4265e7:	pop	rbp
0x4265e8:	pop	r12
0x4265ea:	ret	
F 0x423c39
0x40d016:	ret	
F 0x422d3f
0x40d016:	ret	
F 0x420b01
0x420b01:	mov	qword ptr [rax + 0x48], rbp
0x420b05:	mov	rax, r12
0x420b08:	pop	rbp
0x420b09:	pop	r12
0x420b0b:	pop	r13
0x420b0d:	ret	
F 0x424441
0x40d016:	ret	
F 0x42147e
0x410835:	add	rsp, 0x20
0x410839:	pop	rbx
0x41083a:	pop	rbp
0x41083b:	pop	r12
0x41083d:	pop	r13
0x41083f:	pop	r14
0x410841:	ret	
F 0x411759
0x411759:	imul	ecx, dword ptr [rax], 0x5b
0x41175c:	pop	rbp
0x41175d:	pop	r12
0x41175f:	ret	
F 0x4149f1
0x4149f1:	or	ecx, dword ptr [rax - 0x3fce0001]
0x4149f7:	pop	rbp
0x4149f8:	ret	
F 0x40f7a7
0x40ef17:	add	rax, rdi
0x40ef1a:	mov	qword ptr [rdi + 0x28], rax
0x40ef1e:	ret	
F 0x4265e7
0x41053a:	pop	rbp
0x41053b:	pop	r12
0x41053d:	ret	
F 0x41accc
0x41accc:	ret	
F 0x420b2c
0x40f446:	pop	r12
0x40f448:	pop	r13
0x40f44a:	ret	
F 0x4131ab
0x40d016:	ret	
F 0x41877c
0x41877c:	add	rsp, 8
0x418780:	mov	rax, r13
0x418783:	pop	rbx
0x418784:	pop	rbp
0x418785:	pop	r12
0x418787:	pop	r13
0x418789:	pop	r14
0x41878b:	pop	r15
0x41878d:	ret	
F 0x420b06
0x41a30e:	mov	eax, esp
0x41a310:	pop	rbp
0x41a311:	pop	r12
0x41a313:	pop	r13
0x41a315:	ret	
F 0x412573
0x40f57a:	pop	rdi
0x40f57b:	ret	
F 0x416052
0x410839:	pop	rbx
0x41083a:	pop	rbp
0x41083b:	pop	r12
0x41083d:	pop	r13
0x41083f:	pop	r14
0x410841:	ret	
F 0x41a30c
0x41a30c:	dec	dword ptr [rcx + rcx*4 - 0x20]
0x41a310:	pop	rbp
0x41a311:	pop	r12
0x41a313:	pop	r13
0x41a315:	ret	
F 0x41d4b8
0x41d4b8:	cmovge	eax, dword ptr [rbx + 0xc]
0x41d4bc:	mov	dword ptr [rbx + 4], ecx
0x41d4bf:	mov	dword ptr [rbx + 8], edx
0x41d4c2:	mov	dword ptr [rbx + 0xc], eax
0x41d4c5:	add	rsp, 0x30
0x41d4c9:	pop	rbx
0x41d4ca:	ret	
F 0x419f69
0x419f69:	mov	eax, esp
0x419f6b:	pop	rbx
0x419f6c:	pop	rbp
0x419f6d:	pop	r12
0x419f6f:	pop	r13
0x419f71:	ret	
F 0x4187fe
0x4115fe:	add	byte ptr [rax], al
0x411600:	mov	rax, qword ptr [rdi + 8]
0x411604:	ret	
F 0x410a17
0x4104a7:	sub	byte ptr [r11], r15b
0x4104aa:	xor	byte ptr [rbp + 3], dh
0x4104ad:	ret	
F 0x40f578
0x40f578:	pop	rsi
0x40f579:	pop	r15
0x40f57b:	ret	
F 0x4117fd
0x40d016:	ret	
F 0x421717
0x411660:	mov	qword ptr [rbx + 8], rax
0x411664:	pop	rbx
0x411665:	ret	
F 0x4132db
0x40f576:	pop	rbp
0x40f577:	pop	r14
0x40f579:	pop	r15
0x40f57b:	ret	
F 0x418f80
0x418f80:	mov	dword ptr [rax + 0x28], ebp
0x418f83:	add	rsp, 8
0x418f87:	pop	rbx
0x418f88:	pop	rbp
0x418f89:	ret	
F 0x40dc57
0x40dc57:	ret	0
F 0x421488
0x41083f:	pop	r14
0x410841:	ret	
F 0x414a85
0x414a85:	mov	rax, qword ptr [rip + 0x24754]
0x414a8c:	add	rsp, 0x10
0x414a90:	pop	rbp
0x414a91:	ret	
F 0x410b7d
0x40eedf:	pop	rbp
0x40eee0:	ret	
F 0x414168
0x41083e:	pop	rbp
0x41083f:	pop	r14
0x410841:	ret	
F 0x41b0c5
0x41249a:	pop	rbx
0x41249b:	pop	rbp
0x41249c:	ret	
F 0x417f00
0x40f718:	dec	dword ptr [rax - 0x77]
0x40f71b:	ret	
F 0x41cf4a
0x41cf4a:	adc	eax, 0xd6058b48
0x41cf4f:	ret	
F 0x412347
0x412347:	mov	rax, qword ptr [rip + 0x26e9a]
0x41234e:	add	rsp, 0x18
0x412352:	ret	
F 0x41abc9
0x40d012:	add	rsp, 8
0x40d016:	ret	
F 0x41c70d
0x40eedf:	pop	rbp
0x40eee0:	ret	
F 0x42253f
0x40d012:	add	rsp, 8
0x40d016:	ret	
F 0x4215f6
0x4215f6:	sar	dh, 0xff
0x4215f9:	add	rsp, 0x38
0x4215fd:	pop	rbx
0x4215fe:	pop	rbp
0x4215ff:	pop	r12
0x421601:	pop	r13
0x421603:	ret	
F 0x41d51a
0x41d51a:	mov	rax, qword ptr [rip + 0x1be3f]
0x41d521:	add	rsp, 0x18
0x41d525:	ret	
F 0x421484
0x41083b:	pop	r12
0x41083d:	pop	r13
0x41083f:	pop	r14
0x410841:	ret	
F 0x40f44a
0x40d016:	ret	
F 0x4181c6
0x40eedf:	pop	rbp
0x40eee0:	ret	
F 0x421bbd
0x421bbd:	mov	dword ptr [rsi], 0x540f4466
0x421bc3:	ret	
F 0x418e90
0x411790:	mov	qword ptr [rdi + 8], 0
0x411798:	xor	eax, eax
0x41179a:	pop	rbx
0x41179b:	pop	rbp
0x41179c:	pop	r12
0x41179e:	ret	
F 0x4262a3
0x40f577:	pop	r14
0x40f579:	pop	r15
0x40f57b:	ret	
F 0x418ebe
0x40ee66:	add	byte ptr [rax], al
0x40ee68:	ret	
F 0x41e14c
0x40f575:	pop	r13
0x40f577:	pop	r14
0x40f579:	pop	r15
0x40f57b:	ret	
F 0x412f80
0x40eedf:	pop	rbp
0x40eee0:	ret	
F 0x416b5c
0x40f571:	pop	rbx
0x40f572:	pop	rbp
0x40f573:	pop	r12
0x40f575:	pop	r13
0x40f577:	pop	r14
0x40f579:	pop	r15
0x40f57b:	ret	
F 0x412445
0x40d016:	ret	
F 0x4225b2
0x40d016:	ret	
F 0x410840
0x410840:	pop	rsi
0x410841:	ret	
F 0x410db7
0x4104a7:	sub	byte ptr [r11], r15b
0x4104aa:	xor	byte ptr [rbp + 3], dh
0x4104ad:	ret	
F 0x41b69f
0x41a30c:	dec	dword ptr [rcx + rcx*4 - 0x20]
0x41a310:	pop	rbp
0x41a311:	pop	r12
0x41a313:	pop	r13
0x41a315:	ret	
F 0x41141e
0x40d016:	ret	
F 0x41f17b
0x40d016:	ret	
F 0x420e40
0x410190:	push	0x5c415d5b
0x410195:	pop	r13
0x410197:	pop	r14
0x410199:	pop	r15
0x41019b:	ret	
F 0x412f27
0x40eff3:	xor	eax, eax
0x40eff5:	add	rsp, 8
0x40eff9:	ret	
F 0x411bcc
0x40f444:	pop	rbx
0x40f445:	pop	rbp
0x40f446:	pop	r12
0x40f448:	pop	r13
0x40f44a:	ret	
F 0x4250f9
0x40d016:	ret	
F 0x42076f
0x42076f:	cwde	
0x420770:	add	byte ptr [rax], al
0x420772:	add	byte ptr [rcx + rcx*4 - 0x18], cl
0x420776:	pop	rbx
0x420777:	pop	rbp
0x420778:	pop	r12
0x42077a:	pop	r13
0x42077c:	pop	r14
0x42077e:	pop	r15
0x420780:	ret	
F 0x41cfb4
0x41cfb4:	add	eax, 0x1c36f
0x41cfb9:	add	rsp, 0x10
0x41cfbd:	pop	rbp
0x41cfbe:	ret	
F 0x41e149
0x40f572:	pop	rbp
0x40f573:	pop	r12
0x40f575:	pop	r13
0x40f577:	pop	r14
0x40f579:	pop	r15
0x40f57b:	ret	
F 0x41ad2a
0x41ad2a:	ret	
F 0x41acca
0x41acca:	mov	eax, dword ptr [rax + 0x40]
0x41accd:	ret	
F 0x41bd4c
0x41bd4c:	mov	eax, dword ptr [rip + 0x1d58e]
0x41bd52:	add	rsp, 0x10
0x41bd56:	pop	rbp
0x41bd57:	ret	
F 0x41696b
0x41696b:	add	byte ptr [rax], al
0x41696e:	mov	eax, dword ptr [rsp + 0xc]
0x416972:	add	rsp, 0x10
0x416976:	pop	rbx
0x416977:	pop	rbp
0x416978:	pop	r12
0x41697a:	ret	
F 0x410d1b
0x40f445:	pop	rbp
0x40f446:	pop	r12
0x40f448:	pop	r13
0x40f44a:	ret	
F 0x41d737
0x41083e:	pop	rbp
0x41083f:	pop	r14
0x410841:	ret	
F 0x4110eb
0x40f445:	pop	rbp
0x40f446:	pop	r12
0x40f448:	pop	r13
0x40f44a:	ret	
F 0x425266
0x40f577:	pop	r14
0x40f579:	pop	r15
0x40f57b:	ret	
F 0x40efc4
0x40efc4:	lea	rdx, [rip + 0x735]
0x40efcb:	mov	qword ptr [rax + 0x30], rdx
0x40efcf:	pop	rbp
0x40efd0:	ret	
F 0x41abda
0x412eda:	mov	eax, dword ptr [rax + 0x18]
0x412edd:	ret	
F 0x41700d
0x40d016:	ret	
F 0x4115f6
0x40ee66:	add	byte ptr [rax], al
0x40ee68:	ret	
F 0x41abad
0x40d016:	ret	
F 0x40fb08
0x40f575:	pop	r13
0x40f577:	pop	r14
0x40f579:	pop	r15
0x40f57b:	ret	
F 0x419bc5
0x419bc5:	mov	eax, dword ptr [rip + 0x1f6ed]
0x419bcb:	add	rsp, 0x18
0x419bcf:	ret	
F 0x4114e1
0x4114e1:	sar	edi, 0xff
0x4114e4:	add	rsp, 0x20
0x4114e8:	pop	rbx
0x4114e9:	pop	rbp
0x4114ea:	pop	r12
0x4114ec:	pop	r13
0x4114ee:	pop	r14
0x4114f0:	ret	
F 0x4190d9
0x40d016:	ret	
F 0x41e5e4
0x40f575:	pop	r13
0x40f577:	pop	r14
0x40f579:	pop	r15
0x40f57b:	ret	
F 0x4196b0
0x40f440:	add	rsp, 8
0x40f444:	pop	rbx
0x40f445:	pop	rbp
0x40f446:	pop	r12
0x40f448:	pop	r13
0x40f44a:	ret	
F 0x41159c
0x40f446:	pop	r12
0x40f448:	pop	r13
0x40f44a:	ret	
F 0x411659
0x411659:	lea	rax, [rip + 0xdf0]
0x411660:	mov	qword ptr [rbx + 8], rax
0x411664:	pop	rbx
0x411665:	ret	
F 0x41f804
0x41f804:	xor	eax, ebx
0x41f806:	pop	rbx
0x41f807:	pop	rbp
0x41f808:	ret	
F 0x41315a
0x41315a:	mov	eax, dword ptr [rax + 0x28]
0x41315d:	ret	
F 0x4149dc
0x40eedf:	pop	rbp
0x40eee0:	ret	
F 0x42267b
0x40d016:	ret	
F 0x423b9a
0x423b9a:	cmp	dh, byte ptr [rcx - 0x3a140002]
0x423ba0:	pop	rbx
0x423ba1:	pop	rbp
0x423ba2:	pop	r12
0x423ba4:	pop	r13
0x423ba6:	pop	r14
0x423ba8:	ret	
F 0x422759
0x422759:	add	rsp, 0x10
0x42275e:	pop	rbx
0x42275f:	pop	rbp
0x422760:	pop	r12
0x422762:	ret	
F 0x420f7d
0x40eedf:	pop	rbp
0x40eee0:	ret	
F 0x419a6c
0x419a6c:	mov	r8d, 1
0x419a72:	mov	eax, r8d
0x419a75:	pop	rbp
0x419a76:	pop	r12
0x419a78:	ret	
F 0x418f07
0x418f07:	mov	qword ptr [rax + 8], 0
0x418f0f:	mov	qword ptr [rax + 8], rbp
0x418f13:	add	rsp, 8
0x418f17:	pop	rbx
0x418f18:	pop	rbp
0x418f19:	ret	
F 0x414989
0x41053a:	pop	rbp
0x41053b:	pop	r12
0x41053d:	ret	
F 0x41da5e
0x41da5e:	add	rsp, 0x70
0x41da62:	pop	rbp
0x41da63:	pop	r12
0x41da65:	pop	r13
0x41da67:	ret	
F 0x410d1e
0x40f448:	pop	r13
0x40f44a:	ret	
F 0x413dd0
0x40f579:	pop	r15
0x40f57b:	ret	
F 0x420481
0x4111e1:	add	rsp, 0x18
0x4111e5:	ret	
F 0x41f269
0x40f446:	pop	r12
0x40f448:	pop	r13
0x40f44a:	ret	
F 0x41f795
0x41c2a5:	add	byte ptr [rax], al
0x41c2a7:	add	byte ptr [rax], al
0x41c2a9:	pop	rbx
0x41c2aa:	pop	rbp
0x41c2ab:	pop	r12
0x41c2ad:	ret	
F 0x41cc37
0x41cc37:	add	eax, 0xff1443e8
0x41cc3c:	dec	dword ptr [rax - 0x7d]
0x41cc3f:	ret	
F 0x415168
0x41083e:	pop	rbp
0x41083f:	pop	r14
0x410841:	ret	
F 0x4180c2
0x4180c2:	ret	0x8348
F 0x422158
0x40f578:	pop	rsi
0x40f579:	pop	r15
0x40f57b:	ret	
F 0x426717
0x419710:	add	dword ptr [rax], eax
0x419712:	add	rsp, 0x10
0x419716:	pop	rbp
0x419717:	ret	
F 0x410d89
0x410479:	mov	eax, dword ptr [rax]
0x41047b:	ret	
F 0x41759d
0x40f57a:	pop	rdi
0x40f57b:	ret	
F 0x418f7d
0x418f7d:	add	byte ptr [rax], al
0x418f7f:	mov	qword ptr [rax + 0x28], rbp
0x418f83:	add	rsp, 8
0x418f87:	pop	rbx
0x418f88:	pop	rbp
0x418f89:	ret	
F 0x41593f
0x41593f:	add	rsp, 0x98
0x415946:	pop	rbx
0x415947:	pop	rbp
0x415948:	pop	r12
0x41594a:	pop	r13
0x41594c:	pop	r14
0x41594e:	pop	r15
0x415950:	ret	
F 0x4113b2
0x40f632:	add	rsp, 0x10
0x40f636:	pop	rbp
0x40f637:	ret	
F 0x411829
0x40d012:	add	rsp, 8
0x40d016:	ret	
F 0x40f3a3
0x40f287:	add	byte ptr [rax], al
0x40f289:	add	byte ptr [rax - 0x77], cl
0x40f28c:	ret	
F 0x41576e
0x40d016:	ret	
F 0x419b87
0x419b87:	sal	byte ptr [rsi + rdx + 0x48], 0x8b
0x419b8c:	add	eax, 0x1f727
0x419b91:	add	rsp, 0x18
0x419b95:	ret	
F 0x41d573
0x4111e1:	add	rsp, 0x18
0x4111e5:	ret	
F 0x426603
0x411664:	pop	rbx
0x411665:	ret	
F 0x423ba0
0x410839:	pop	rbx
0x41083a:	pop	rbp
0x41083b:	pop	r12
0x41083d:	pop	r13
0x41083f:	pop	r14
0x410841:	ret	
F 0x41ae41
0x40f632:	add	rsp, 0x10
0x40f636:	pop	rbp
0x40f637:	ret	
F 0x413adf
0x413adf:	cmp	eax, 0x20c48348
0x413ae4:	pop	rbx
0x413ae5:	pop	rbp
0x413ae6:	pop	r12
0x413ae8:	ret	
F 0x411f29
0x411f29:	mov	ah, 0x24
0x411f2b:	nop	
0x411f2c:	add	byte ptr [rax], al
0x411f2e:	add	byte ptr [rax - 0x77], cl
0x411f31:	ret	0x8948
F 0x410da7
0x40eff3:	xor	eax, eax
0x40eff5:	add	rsp, 8
0x40eff9:	ret	
F 0x423b9f
0x423b9f:	vminsd	xmm8, xmm4, qword ptr [rcx + 0x5c]
0x423ba4:	pop	r13
0x423ba6:	pop	r14
0x423ba8:	ret	
F 0x4265ff
0x422a10:	add	byte ptr [rax], al
0x422a12:	add	byte ptr [rax], al
0x422a14:	pop	rbx
0x422a15:	ret	
F 0x411290
0x411290:	lodsb	al, byte ptr [rsi]
0x411291:	ret	
F 0x4132d8
0x40f573:	pop	r12
0x40f575:	pop	r13
0x40f577:	pop	r14
0x40f579:	pop	r15
0x40f57b:	ret	
F 0x41ac2d
0x40d016:	ret	
F 0x4170b7
0x40f630:	add	al, byte ptr [rax]
0x40f632:	add	rsp, 0x10
0x40f636:	pop	rbp
0x40f637:	ret	
F 0x417c54
0x417c54:	nop	dword ptr [rax]
0x417c58:	pop	rbx
0x417c59:	pop	rbp
0x417c5a:	pop	r12
0x417c5c:	pop	r13
0x417c5e:	pop	r14
0x417c60:	ret	
F 0x416b64
0x40f579:	pop	r15
0x40f57b:	ret	
F 0x414407
0x40f573:	pop	r12
0x40f575:	pop	r13
0x40f577:	pop	r14
0x40f579:	pop	r15
0x40f57b:	ret	
F 0x40f577
0x40f577:	pop	r14
0x40f579:	pop	r15
0x40f57b:	ret	
F 0x41f806
0x41249a:	pop	rbx
0x41249b:	pop	rbp
0x41249c:	ret	
F 0x41d17d
0x41083a:	pop	rbp
0x41083b:	pop	r12
0x41083d:	pop	r13
0x41083f:	pop	r14
0x410841:	ret	
F 0x418a8a
0x418a8a:	add	byte ptr [rcx + rcx*4 - 0x20], cl
0x418a8e:	pop	rbp
0x418a8f:	pop	r12
0x418a91:	ret	
F 0x4132dc
0x40f577:	pop	r14
0x40f579:	pop	r15
0x40f57b:	ret	
F 0x410dbd
0x40d016:	ret	
F 0x416842
0x416842:	mov	edx, 0x49ffff7a
0x416847:	mov	eax, eax
0x416849:	mov	eax, ebx
0x41684b:	sub	eax, r8d
0x41684e:	add	rsp, 8
0x416852:	pop	rbx
0x416853:	pop	rbp
0x416854:	ret	
F 0x41b3cf
0x40d016:	ret	
F 0x4215f9
0x4215f9:	add	rsp, 0x38
0x4215fd:	pop	rbx
0x4215fe:	pop	rbp
0x4215ff:	pop	r12
0x421601:	pop	r13
0x421603:	ret	
F 0x418e4f
0x41174f:	add	al, dh
0x411751:	add	dword ptr [rbp + 8], 1
0x411755:	xor	eax, eax
0x411757:	mov	qword ptr [rbx + 8], rbp
0x41175b:	pop	rbx
0x41175c:	pop	rbp
0x41175d:	pop	r12
0x41175f:	ret	
F 0x4225b0
0x41249a:	pop	rbx
0x41249b:	pop	rbp
0x41249c:	ret	
F 0x426b44
0x41a30e:	mov	eax, esp
0x41a310:	pop	rbp
0x41a311:	pop	r12
0x41a313:	pop	r13
0x41a315:	ret	
F 0x418eb9
0x4117b9:	mov	dword ptr [rsi + 8], 0
0x4117c0:	ret	
F 0x4106c0
0x40f630:	add	al, byte ptr [rax]
0x40f632:	add	rsp, 0x10
0x40f636:	pop	rbp
0x40f637:	ret	
F 0x41c667
0x41a30c:	dec	dword ptr [rcx + rcx*4 - 0x20]
0x41a310:	pop	rbp
0x41a311:	pop	r12
0x41a313:	pop	r13
0x41a315:	ret	
F 0x417598
0x40f575:	pop	r13
0x40f577:	pop	r14
0x40f579:	pop	r15
0x40f57b:	ret	
F 0x41ace1
0x41ace1:	add	al, ch
0x41ace3:	sbb	dword ptr [rip - 0x3fce0001], esp
0x41ace9:	add	rsp, 8
0x41aced:	ret	
F 0x418b89
0x40d016:	ret	
F 0x4250f5
0x40f446:	pop	r12
0x40f448:	pop	r13
0x40f44a:	ret	
F 0x420bf7
0x40eff3:	xor	eax, eax
0x40eff5:	add	rsp, 8
0x40eff9:	ret	
F 0x418227
0x40f630:	add	al, byte ptr [rax]
0x40f632:	add	rsp, 0x10
0x40f636:	pop	rbp
0x40f637:	ret	
F 0x41cfb9
0x40f632:	add	rsp, 0x10
0x40f636:	pop	rbp
0x40f637:	ret	
F 0x4218fc
0x4218fc:	mov	rax, qword ptr [rip + 0x17afd]
0x421903:	add	rsp, 0x18
0x421907:	ret	
F 0x41256c
0x40f573:	pop	r12
0x40f575:	pop	r13
0x40f577:	pop	r14
0x40f579:	pop	r15
0x40f57b:	ret	
F 0x41d423
0x41d403:	movzx	eax, al
0x41d406:	ret	
F 0x418e98
0x411798:	xor	eax, eax
0x41179a:	pop	rbx
0x41179b:	pop	rbp
0x41179c:	pop	r12
0x41179e:	ret	
F 0x416b5e
0x40f573:	pop	r12
0x40f575:	pop	r13
0x40f577:	pop	r14
0x40f579:	pop	r15
0x40f57b:	ret	
F 0x413857
0x40d016:	ret	
F 0x41bd56
0x40eedf:	pop	rbp
0x40eee0:	ret	
F 0x425cc4
0x425cc4:	add	rsp, 0x50
0x425cc8:	pop	rbp
0x425cc9:	ret	
F 0x4204c9
0x4111e1:	add	rsp, 0x18
0x4111e5:	ret	
F 0x4225ae
0x413209:	xor	eax, eax
0x41320b:	pop	rbx
0x41320c:	pop	rbp
0x41320d:	ret	
F 0x413c70
0x413c70:	add	rsp, 8
0x413c74:	pop	rbp
0x413c75:	pop	r12
0x413c77:	pop	r13
0x413c79:	pop	r14
0x413c7b:	ret	
F 0x412e67
0x412ce7:	add	byte ptr [rax], al
0x412ce9:	add	byte ptr [rbp + 0x37], dh
0x412cec:	add	rsp, 0x38
0x412cf0:	pop	rbx
0x412cf1:	pop	rbp
0x412cf2:	ret	
F 0x41ac78
0x40d016:	ret	
F 0x40f576
0x40f576:	pop	rbp
0x40f577:	pop	r14
0x40f579:	pop	r15
0x40f57b:	ret	
F 0x40f7a0
0x40f7a0:	movsxd	rax, dword ptr [rip + 0x29969]
0x40f7a7:	add	rax, rdi
0x40f7aa:	mov	qword ptr [rdi + 0x28], rax
0x40f7ae:	ret	
F 0x425262
0x40f573:	pop	r12
0x40f575:	pop	r13
0x40f577:	pop	r14
0x40f579:	pop	r15
0x40f57b:	ret	
F 0x419712
0x40f632:	add	rsp, 0x10
0x40f636:	pop	rbp
0x40f637:	ret	
F 0x41b3ce
0x40f57a:	pop	rdi
0x40f57b:	ret	
F 0x426604
0x40d016:	ret	
F 0x411a2a
0x40f445:	pop	rbp
0x40f446:	pop	r12
0x40f448:	pop	r13
0x40f44a:	ret	
F 0x4130f6
0x4130f6:	add	rsp, 0x18
0x4130fa:	xor	eax, eax
0x4130fc:	pop	rbx
0x4130fd:	pop	rbp
0x4130fe:	pop	r12
0x413100:	pop	r13
0x413102:	ret	
F 0x40f7a9
0x40ef19:	clc	
0x40ef1a:	mov	qword ptr [rdi + 0x28], rax
0x40ef1e:	ret	
F 0x411641
0x40ee64:	add	byte ptr [rax], al
0x40ee66:	add	byte ptr [rax], al
0x40ee68:	ret	
F 0x422e0f
0x41c2a8:	add	byte ptr [rbx + 0x5d], bl
0x41c2ab:	pop	r12
0x41c2ad:	ret	
F 0x418e57
0x411757:	mov	qword ptr [rbx + 8], rbp
0x41175b:	pop	rbx
0x41175c:	pop	rbp
0x41175d:	pop	r12
0x41175f:	ret	
F 0x414a1b
0x414a1b:	mov	rax, qword ptr [rip + 0x247be]
0x414a22:	add	rsp, 0x10
0x414a26:	pop	rbp
0x414a27:	ret	
F 0x40f778
0x40ef18:	add	eax, edi
0x40ef1a:	mov	qword ptr [rdi + 0x28], rax
0x40ef1e:	ret	
F 0x420afa
0x420afa:	mov	dword ptr [rax + 0x48], 0
0x420b01:	mov	qword ptr [rax + 0x48], rbp
0x420b05:	mov	rax, r12
0x420b08:	pop	rbp
0x420b09:	pop	r12
0x420b0b:	pop	r13
0x420b0d:	ret	
F 0x420afe
0x420afe:	add	byte ptr [rax], al
0x420b00:	add	byte ptr [rax - 0x77], cl
0x420b03:	push	-0x1f76b3b8
0x420b08:	pop	rbp
0x420b09:	pop	r12
0x420b0b:	pop	r13
0x420b0d:	ret	
F 0x4178a0
0x416b58:	add	rsp, 0x18
0x416b5c:	pop	rbx
0x416b5d:	pop	rbp
0x416b5e:	pop	r12
0x416b60:	pop	r13
0x416b62:	pop	r14
0x416b64:	pop	r15
0x416b66:	ret	
F 0x418f16
0x412499:	or	byte ptr [rbx + 0x5d], bl
0x41249c:	ret	
F 0x419f67
0x419f67:	sub	byte ptr [rcx + rcx*4 - 0x20], cl
0x419f6b:	pop	rbx
0x419f6c:	pop	rbp
0x419f6d:	pop	r12
0x419f6f:	pop	r13
0x419f71:	ret	
F 0x41d403
0x41d403:	movzx	eax, al
0x41d406:	ret	
F 0x41047b
0x40d016:	ret	
F 0x4266b7
0x40d016:	ret	
F 0x4115f8
0x40d016:	ret	
F 0x415943
0x412c27:	add	byte ptr [rax], al
0x412c29:	add	byte ptr [rbx + 0x5d], bl
0x412c2c:	pop	r12
0x412c2e:	pop	r13
0x412c30:	pop	r14
0x412c32:	pop	r15
0x412c34:	ret	
F 0x4187f0
0x4115f0:	mov	qword ptr [rdi + 8], 0
0x4115f8:	ret	
F 0x419f71
0x40d016:	ret	
F 0x419970
0x40d016:	ret	
F 0x40eedf
0x40eedf:	pop	rbp
0x40eee0:	ret	
F 0x416fcf
0x40f579:	pop	r15
0x40f57b:	ret	
F 0x4114e9
0x41083a:	pop	rbp
0x41083b:	pop	r12
0x41083d:	pop	r13
0x41083f:	pop	r14
0x410841:	ret	
F 0x420bf9
0x40d012:	add	rsp, 8
0x40d016:	ret	
F 0x416d0c
0x412496:	add	rsp, 8
0x41249a:	pop	rbx
0x41249b:	pop	rbp
0x41249c:	ret	
F 0x411a2b
0x40f446:	pop	r12
0x40f448:	pop	r13
0x40f44a:	ret	
F 0x416991
0x416991:	imul	ebp, dword ptr [rax - 1], -1
0x416995:	add	rsp, 0x10
0x416999:	xor	eax, eax
0x41699b:	pop	rbx
0x41699c:	pop	rbp
0x41699d:	pop	r12
0x41699f:	ret	
F 0x420804
0x40f718:	dec	dword ptr [rax - 0x77]
0x40f71b:	ret	
F 0x41f800
0x41f800:	add	rsp, 8
0x41f804:	xor	eax, ebx
0x41f806:	pop	rbx
0x41f807:	pop	rbp
0x41f808:	ret	
F 0x4265e5
0x41175a:	or	byte ptr [rbx + 0x5d], bl
0x41175d:	pop	r12
0x41175f:	ret	
F 0x418eae
0x4117ae:	mov	qword ptr [rsi + 8], rax
0x4117b2:	ret	
F 0x41878c
0x40f57a:	pop	rdi
0x40f57b:	ret	
F 0x421907
0x40d016:	ret	
F 0x41abd9
0x412ed9:	mov	rax, qword ptr [rax + 0x18]
0x412edd:	ret	
F 0x414a18
0x414a18:	sal	byte ptr [rbp + rdx + 0x48], 0x8b
0x414a1d:	add	eax, 0x247be
0x414a22:	add	rsp, 0x10
0x414a26:	pop	rbp
0x414a27:	ret	
F 0x412335
0x40d016:	ret	
F 0x41905d
0x41905d:	add	byte ptr [rax], al
0x41905f:	mov	qword ptr [rax + 0x58], rbp
0x419063:	add	rsp, 8
0x419067:	pop	rbx
0x419068:	pop	rbp
0x419069:	ret	
F 0x4224ef
0x40eff3:	xor	eax, eax
0x40eff5:	add	rsp, 8
0x40eff9:	ret	
F 0x411ef9
0x411ef9:	add	byte ptr [rbx + 0x5d], bl
0x411efc:	pop	r12
0x411efe:	pop	r13
0x411f00:	pop	r14
0x411f02:	pop	r15
0x411f04:	ret	
F 0x416ff8
0x40f577:	pop	r14
0x40f579:	pop	r15
0x40f57b:	ret	
F 0x426ba4
0x40f573:	pop	r12
0x40f575:	pop	r13
0x40f577:	pop	r14
0x40f579:	pop	r15
0x40f57b:	ret	
F 0x4198e0
0x40d016:	ret	
F 0x4169dc
0x40d016:	ret	
F 0x410493
0x410493:	imul	ecx, ebp, 0xc031ffff
0x410499:	add	rsp, 8
0x41049d:	ret	
F 0x413345
0x40d016:	ret	
F 0x417de8
0x417de8:	add	rsp, 0x28
0x417ded:	pop	rbx
0x417dee:	pop	rbp
0x417def:	pop	r12
0x417df1:	pop	r13
0x417df3:	pop	r14
0x417df5:	pop	r15
0x417df7:	ret	
F 0x4106bb
0x4106bb:	mov	rax, qword ptr [rip + 0x28a3e]
0x4106c2:	add	rsp, 0x10
0x4106c6:	pop	rbp
0x4106c7:	ret	
F 0x411c14
0x40d016:	ret	
F 0x412edd
0x40d016:	ret	
F 0x4181bc
0x4181bc:	mov	eax, dword ptr [rip + 0x210ae]
0x4181c2:	add	rsp, 0x10
0x4181c6:	pop	rbp
0x4181c7:	ret	
F 0x4178a3
0x416b5b:	sbb	byte ptr [rbx + 0x5d], bl
0x416b5e:	pop	r12
0x416b60:	pop	r13
0x416b62:	pop	r14
0x416b64:	pop	r15
0x416b66:	ret	
F 0x41c956
0x40d016:	ret	
F 0x41159a
0x40f444:	pop	rbx
0x40f445:	pop	rbp
0x40f446:	pop	r12
0x40f448:	pop	r13
0x40f44a:	ret	
F 0x41ac39
0x413159:	mov	rax, qword ptr [rax + 0x28]
0x41315d:	ret	
F 0x4106c7
0x40d016:	ret	
F 0x426ba6
0x40f575:	pop	r13
0x40f577:	pop	r14
0x40f579:	pop	r15
0x40f57b:	ret	
F 0x4219ca
0x411664:	pop	rbx
0x411665:	ret	
F 0x41f83b
0x41f83b:	sbb	byte ptr [rbp + 2], dh
0x41f83e:	ret	
F 0x41a7f3
0x419936:	add	rsp, 8
0x41993a:	mov	rax, r12
0x41993d:	pop	rbp
0x41993e:	pop	r12
0x419940:	ret	
F 0x422e07
0x422e07:	nop	word ptr [rax + rax]
0x422e10:	pop	rbx
0x422e11:	pop	rbp
0x422e12:	pop	r12
0x422e14:	ret	
F 0x4116a1
0x4116a1:	mov	dword ptr [rdx], 0
0x4116a7:	xor	eax, eax
0x4116a9:	ret	
F 0x418796
0x418796:	test	byte ptr [rax], al
0x418798:	add	byte ptr [rax], al
0x41879a:	add	byte ptr [rax], al
0x41879c:	nop	dword ptr [rax]
0x4187a0:	ret	
F 0x40efc7
0x40efc7:	xor	eax, 0x48000007
0x40efcc:	mov	dword ptr [rax + 0x30], edx
0x40efcf:	pop	rbp
0x40efd0:	ret	
F 0x4192a2
0x410840:	pop	rsi
0x410841:	ret	
F 0x417c57
0x417c57:	add	byte ptr [rbx + 0x5d], bl
0x417c5a:	pop	r12
0x417c5c:	pop	r13
0x417c5e:	pop	r14
0x417c60:	ret	
F 0x426b9e
0x412566:	add	rsp, 8
0x41256a:	pop	rbx
0x41256b:	pop	rbp
0x41256c:	pop	r12
0x41256e:	pop	r13
0x412570:	pop	r14
0x412572:	pop	r15
0x412574:	ret	
F 0x4197df
0x4197df:	add	eax, 0x1fadc
0x4197e4:	add	rsp, 0x10
0x4197e8:	pop	rbp
0x4197e9:	ret	
F 0x419111
0x40eedf:	pop	rbp
0x40eee0:	ret	
F 0x418117
0x411ef8:	add	byte ptr [rax], al
0x411efa:	pop	rbx
0x411efb:	pop	rbp
0x411efc:	pop	r12
0x411efe:	pop	r13
0x411f00:	pop	r14
0x411f02:	pop	r15
0x411f04:	ret	
F 0x422152
0x40f572:	pop	rbp
0x40f573:	pop	r12
0x40f575:	pop	r13
0x40f577:	pop	r14
0x40f579:	pop	r15
0x40f57b:	ret	
F 0x40f78e
0x40d016:	ret	
F 0x41b3c4
0x412569:	or	byte ptr [rbx + 0x5d], bl
0x41256c:	pop	r12
0x41256e:	pop	r13
0x412570:	pop	r14
0x412572:	pop	r15
0x412574:	ret	
F 0x4113b7
0x40d016:	ret	
F 0x40efcc
0x40efcc:	mov	dword ptr [rax + 0x30], edx
0x40efcf:	pop	rbp
0x40efd0:	ret	
F 0x416058
0x41083f:	pop	r14
0x410841:	ret	
F 0x424433
0x416b58:	add	rsp, 0x18
0x416b5c:	pop	rbx
0x416b5d:	pop	rbp
0x416b5e:	pop	r12
0x416b60:	pop	r13
0x416b62:	pop	r14
0x416b64:	pop	r15
0x416b66:	ret	
F 0x411794
0x411794:	add	byte ptr [rax], al
0x411796:	add	byte ptr [rax], al
0x411798:	xor	eax, eax
0x41179a:	pop	rbx
0x41179b:	pop	rbp
0x41179c:	pop	r12
0x41179e:	ret	
F 0x42306d
0x42306d:	and	al, 0xc
0x42306f:	add	rsp, 0xd8
0x423076:	pop	rbx
0x423077:	pop	rbp
0x423078:	pop	r12
0x42307a:	pop	r13
0x42307c:	pop	r14
0x42307e:	pop	r15
0x423080:	ret	
F 0x41d1ca
0x41d1ca:	mov	dword ptr [rip + 0x1c1a8], eax
0x41d1d0:	lea	rax, [rip + 0x3c9]
0x41d1d7:	mov	qword ptr [rbx + 8], rax
0x41d1db:	pop	rbx
0x41d1dc:	ret	
F 0x40ff84
0x40d016:	ret	
F 0x425c20
0x41dc75:	add	rsp, 0x48
0x41dc79:	pop	rbx
0x41dc7a:	pop	rbp
0x41dc7b:	pop	r12
0x41dc7d:	pop	r13
0x41dc7f:	pop	r14
0x41dc81:	pop	r15
0x41dc83:	ret	
F 0x4143af
0x41083d:	pop	r13
0x41083f:	pop	r14
0x410841:	ret	
F 0x421216
0x40f602:	pop	r12
0x40f604:	ret	
F 0x411a22
0x411a22:	add	byte ptr [rbp + 0x3a], dh
0x411a25:	add	rsp, 0x28
0x411a29:	pop	rbx
0x411a2a:	pop	rbp
0x411a2b:	pop	r12
0x411a2d:	pop	r13
0x411a2f:	ret	
F 0x422677
0x40d012:	add	rsp, 8
0x40d016:	ret	
F 0x41dc78
0x41dc78:	pop	rbx
0x41dc7a:	pop	rbp
0x41dc7b:	pop	r12
0x41dc7d:	pop	r13
0x41dc7f:	pop	r14
0x41dc81:	pop	r15
0x41dc83:	ret	
F 0x41f0cc
0x41f0cc:	mov	eax, dword ptr [rip + 0x1a286]
0x41f0d2:	add	rsp, 0x10
0x41f0d6:	pop	rbp
0x41f0d7:	ret	
F 0x414a84
0x414a84:	dec	dword ptr [rax - 0x75]
0x414a87:	add	eax, 0x24754
0x414a8c:	add	rsp, 0x10
0x414a90:	pop	rbp
0x414a91:	ret	
F 0x4187a2
0x418792:	nop	word ptr cs:[rax + rax]
0x41879c:	nop	dword ptr [rax]
0x4187a0:	ret	
F 0x422462
0x422462:	mov	rax, qword ptr [rip + 0x16f8f]
0x422469:	add	rsp, 0x10
0x42246d:	pop	rbp
0x42246e:	ret	
F 0x410f41
0x410f41:	dec	dword ptr [rax - 0x75]
0x410f44:	add	eax, 0x281a7
0x410f49:	add	rsp, 0x10
0x410f4d:	pop	rbp
0x410f4e:	ret	
F 0x413c7a
0x410840:	pop	rsi
0x410841:	ret	
F 0x41d1ce
0x41d1ce:	add	dword ptr [rax], eax
0x41d1d0:	lea	rax, [rip + 0x3c9]
0x41d1d7:	mov	qword ptr [rbx + 8], rax
0x41d1db:	pop	rbx
0x41d1dc:	ret	
F 0x41cadc
0x40f579:	pop	r15
0x40f57b:	ret	
F 0x40f039
0x40eff3:	xor	eax, eax
0x40eff5:	add	rsp, 8
0x40eff9:	ret	
F 0x4217fc
0x40d016:	ret	
F 0x41c69c
0x41c69c:	mov	eax, dword ptr [rip + 0x1cc8e]
0x41c6a2:	add	rsp, 0x10
0x41c6a6:	pop	rbp
0x41c6a7:	ret	
F 0x41aca7
0x41aca7:	pop	rcx
0x41aca8:	ret	
F 0x418cd3
0x40d016:	ret	
F 0x415015
0x415015:	or	byte ptr [rcx + rcx*4 - 0x10], cl
0x415019:	pop	rbp
0x41501a:	pop	r12
0x41501c:	pop	r13
0x41501e:	pop	r14
0x415020:	ret	
F 0x415f83
0x410838:	and	byte ptr [rbx + 0x5d], bl
0x41083b:	pop	r12
0x41083d:	pop	r13
0x41083f:	pop	r14
0x410841:	ret	
F 0x4190d0
0x4190d0:	mov	dword ptr [rax + 0x40], ebp
0x4190d3:	add	rsp, 8
0x4190d7:	pop	rbx
0x4190d8:	pop	rbp
0x4190d9:	ret	
F 0x41b78b
0x40d016:	ret	
F 0x4219e2
0x40d016:	ret	
F 0x4143b3
0x40d016:	ret	
F 0x418d1f
0x410839:	pop	rbx
0x41083a:	pop	rbp
0x41083b:	pop	r12
0x41083d:	pop	r13
0x41083f:	pop	r14
0x410841:	ret	
F 0x418d86
0x411686:	or	byte ptr [rdi + rax + 0x48], dh
0x41168a:	mov	dword ptr [rdx], eax
0x41168c:	xor	eax, eax
0x41168e:	ret	
F 0x41b1ea
0x41249a:	pop	rbx
0x41249b:	pop	rbp
0x41249c:	ret	
F 0x412492
0x412492:	add	byte ptr [rax], al
0x412494:	add	byte ptr [rax], al
0x412496:	add	rsp, 8
0x41249a:	pop	rbx
0x41249b:	pop	rbp
0x41249c:	ret	
F 0x41d41a
0x41d41a:	clc	
0x41d41b:	add	al, 0xf
0x41d41d:	xchg	eax, esi
0x41d41e:	ror	byte ptr [rax - 0x7d], 0xc4
0x41d422:	or	byte ptr [rdi], cl
0x41d424:	mov	dh, 0xc0
0x41d426:	ret	
F 0x4187f6
0x40ee66:	add	byte ptr [rax], al
0x40ee68:	ret	
F 0x41248f
0x41248f:	mov	dword ptr [rbx + 0x20], 0
0x412496:	add	rsp, 8
0x41249a:	pop	rbx
0x41249b:	pop	rbp
0x41249c:	ret	
F 0x41ad5b
0x41ad5b:	push	rax
0x41ad5c:	ret	
F 0x4223fc
0x4223fc:	mov	eax, dword ptr [rip + 0x16ff6]
0x422402:	add	rsp, 0x10
0x422406:	pop	rbp
0x422407:	ret	
F 0x415ced
0x40d016:	ret	
F 0x410a1a
0x4104aa:	xor	byte ptr [rbp + 3], dh
0x4104ad:	ret	
F 0x41d4c2
0x41d4c2:	mov	dword ptr [rbx + 0xc], eax
0x41d4c5:	add	rsp, 0x30
0x41d4c9:	pop	rbx
0x41d4ca:	ret	
F 0x414a81
0x414a81:	cmp	ebx, dword ptr [rbx - 0x74b70001]
0x414a87:	add	eax, 0x24754
0x414a8c:	add	rsp, 0x10
0x414a90:	pop	rbp
0x414a91:	ret	
F 0x42662a
0x42662a:	mov	rax, qword ptr [rip + 0x12df7]
0x426631:	add	rsp, 0x18
0x426635:	ret	
F 0x42147a
0x42147a:	xchg	eax, edx
0x42147b:	sar	esi, 0xff
0x42147e:	add	rsp, 0x20
0x421482:	pop	rbx
0x421483:	pop	rbp
0x421484:	pop	r12
0x421486:	pop	r13
0x421488:	pop	r14
0x42148a:	ret	
F 0x4180e3
0x4180e3:	or	byte ptr [rax - 0x7d], cl
0x4180e6:	ret	
F 0x41d1a9
0x41d1a9:	clc	
0x41d1aa:	mov	qword ptr [rdi + 0x30], rax
0x41d1ae:	mov	qword ptr [rax], 0
0x41d1b5:	ret	
F 0x41bf0f
0x41bf0f:	mov	dword ptr [rip + 0x1d3f7], eax
0x41bf15:	pop	r12
0x41bf17:	ret	
F 0x411bc2
0x411bc2:	add	byte ptr [rbp + 0x4d], dh
0x411bc5:	add	rsp, 0x28
0x411bc9:	mov	eax, r9d
0x411bcc:	pop	rbx
0x411bcd:	pop	rbp
0x411bce:	pop	r12
0x411bd0:	pop	r13
0x411bd2:	ret	
F 0x41ffc8
0x40f576:	pop	rbp
0x40f577:	pop	r14
0x40f579:	pop	r15
0x40f57b:	ret	
F 0x4205a7
0x419b8f:	add	dword ptr [rax], eax
0x419b91:	add	rsp, 0x18
0x419b95:	ret	
F 0x41c698
0x41c698:	sal	byte ptr [rbp + rdx + 0x48], 0x8b
0x41c69d:	add	eax, 0x1cc8e
0x41c6a2:	add	rsp, 0x10
0x41c6a6:	pop	rbp
0x41c6a7:	ret	
F 0x41b895
0x40f575:	pop	r13
0x40f577:	pop	r14
0x40f579:	pop	r15
0x40f57b:	ret	
F 0x411efa
0x40f571:	pop	rbx
0x40f572:	pop	rbp
0x40f573:	pop	r12
0x40f575:	pop	r13
0x40f577:	pop	r14
0x40f579:	pop	r15
0x40f57b:	ret	
F 0x417029
0x40d012:	add	rsp, 8
0x40d016:	ret	
F 0x422cb3
0x40d016:	ret	
F 0x425de4
0x40d016:	ret	
F 0x4143a5
0x4143a5:	add	rsp, 0x10
0x4143a9:	xor	eax, eax
0x4143ab:	pop	rbx
0x4143ac:	pop	rbp
0x4143ad:	pop	r12
0x4143af:	pop	r13
0x4143b1:	pop	r14
0x4143b3:	ret	
F 0x42596d
0x410840:	pop	rsi
0x410841:	ret	
F 0x423163
0x423163:	add	byte ptr [rax], al
0x423165:	add	byte ptr [rax], al
0x423167:	add	al, ch
0x423169:	ret	
F 0x41286f
0x40d016:	ret	
F 0x422407
0x40d016:	ret	
F 0x40f7a5
0x40ef15:	add	al, byte ptr [rax]
0x40ef17:	add	rax, rdi
0x40ef1a:	mov	qword ptr [rdi + 0x28], rax
0x40ef1e:	ret	
F 0x416948
0x416948:	xor	eax, eax
0x41694a:	add	rsp, 0x10
0x41694e:	pop	rbx
0x41694f:	pop	rbp
0x416950:	pop	r12
0x416952:	ret	
F 0x424954
0x40f571:	pop	rbx
0x40f572:	pop	rbp
0x40f573:	pop	r12
0x40f575:	pop	r13
0x40f577:	pop	r14
0x40f579:	pop	r15
0x40f57b:	ret	
F 0x41c0cc
0x41730c:	pop	r12
0x41730e:	pop	r14
0x417310:	ret	
F 0x416972
0x41694a:	add	rsp, 0x10
0x41694e:	pop	rbx
0x41694f:	pop	rbp
0x416950:	pop	r12
0x416952:	ret	
F 0x424c49
0x40d016:	ret	
F 0x41fb00
0x40f718:	dec	dword ptr [rax - 0x77]
0x40f71b:	ret	
F 0x419c47
0x40d016:	ret	
F 0x418e9a
0x41175b:	pop	rbx
0x41175c:	pop	rbp
0x41175d:	pop	r12
0x41175f:	ret	
F 0x42443c
0x40f576:	pop	rbp
0x40f577:	pop	r14
0x40f579:	pop	r15
0x40f57b:	ret	
F 0x418e56
0x411756:	ror	byte ptr [rax - 0x77], 0x6b
0x41175a:	or	byte ptr [rbx + 0x5d], bl
0x41175d:	pop	r12
0x41175f:	ret	
F 0x413c7b
0x40d016:	ret	
F 0x41122c
0x41122c:	mov	rax, qword ptr [rip + 0x27eb5]
0x411233:	add	rsp, 0x18
0x411237:	ret	
F 0x423073
0x412c27:	add	byte ptr [rax], al
0x412c29:	add	byte ptr [rbx + 0x5d], bl
0x412c2c:	pop	r12
0x412c2e:	pop	r13
0x412c30:	pop	r14
0x412c32:	pop	r15
0x412c34:	ret	
F 0x4122ef
0x4111df:	add	al, byte ptr [rax]
0x4111e1:	add	rsp, 0x18
0x4111e5:	ret	
F 0x4178aa
0x40f577:	pop	r14
0x40f579:	pop	r15
0x40f57b:	ret	
F 0x419aa6
0x419a6e:	add	dword ptr [rax], eax
0x419a70:	add	byte ptr [rax], al
0x419a72:	mov	eax, r8d
0x419a75:	pop	rbp
0x419a76:	pop	r12
0x419a78:	ret	
F 0x421211
0x421211:	add	rsp, 0x28
0x421215:	pop	rbp
0x421216:	pop	r12
0x421218:	ret	
F 0x415416
0x415416:	push	rax
0x415417:	pop	rbx
0x415418:	pop	rbp
0x415419:	pop	r12
0x41541b:	ret	
F 0x418da9
0x40d016:	ret	
F 0x419a31
0x419a31:	rol	byte ptr [rax + rax*8 - 0x7cb7b58c], 0xc4
0x419a39:	or	byte ptr [rcx + rcx*4 - 0x40], al
0x419a3d:	pop	rbp
0x419a3e:	pop	r12
0x419a40:	ret	
F 0x419d07
0x40f287:	add	byte ptr [rax], al
0x40f289:	add	byte ptr [rax - 0x77], cl
0x40f28c:	ret	
F 0x4250f7
0x40f448:	pop	r13
0x40f44a:	ret	
F 0x41ac3d
0x40d016:	ret	
F 0x416a91
0x40d016:	ret	
F 0x41249b
0x40eedf:	pop	rbp
0x40eee0:	ret	
F 0x413a29
0x40d016:	ret	
F 0x41d4ca
0x40d016:	ret	
F 0x41dbce
0x41dbce:	mov	edi, 0x29182444
0x41dbd3:	ret	
F 0x41cfa9
0x41cfa9:	xchg	eax, ebx
0x41cfaa:	ret	
F 0x41d1a3
0x41d1a3:	leave	
0x41d1a4:	rol	dword ptr [rcx], 0
0x41d1a7:	add	rax, rdi
0x41d1aa:	mov	qword ptr [rdi + 0x30], rax
0x41d1ae:	mov	qword ptr [rax], 0
0x41d1b5:	ret	
F 0x420e47
0x40f577:	pop	r14
0x40f579:	pop	r15
0x40f57b:	ret	
F 0x414987
0x414987:	xor	eax, eax
0x414989:	pop	rbp
0x41498a:	pop	r12
0x41498c:	ret	
F 0x4260ef
0x425cbf:	add	byte ptr [rax], al
0x425cc1:	add	byte ptr [rbp + 0x40], dh
0x425cc4:	add	rsp, 0x50
0x425cc8:	pop	rbp
0x425cc9:	ret	
F 0x424c38
0x424c38:	nop	dword ptr [rax + rax]
0x424c40:	pop	rbp
0x424c41:	pop	r12
0x424c43:	pop	r13
0x424c45:	pop	r14
0x424c47:	pop	r15
0x424c49:	ret	
F 0x41d41f
0x41d3ff:	add	rsp, 8
0x41d403:	movzx	eax, al
0x41d406:	ret	
F 0x426712
0x426712:	mov	rax, qword ptr [rip + 0x12d07]
0x426719:	add	rsp, 0x10
0x42671d:	pop	rbp
0x42671e:	ret	
F 0x411028
0x41083d:	pop	r13
0x41083f:	pop	r14
0x410841:	ret	
F 0x412fad
0x412fad:	nop	
0x412fae:	add	byte ptr [rbx], 0
0x412fb1:	add	byte ptr [rbp + 0x5d0a75c0], al
0x412fb7:	ret	
F 0x4216f9
0x41b449:	clc	
0x41b44a:	mov	qword ptr [rdi + 0x30], rax
0x41b44e:	ret	
F 0x422755
0x422755:	add	byte ptr [rax], al
0x422757:	add	byte ptr [rbp + 0x4d], dh
0x42275a:	add	rsp, 0x10
0x42275e:	pop	rbx
0x42275f:	pop	rbp
0x422760:	pop	r12
0x422762:	ret	
F 0x41c62e
0x40f448:	pop	r13
0x40f44a:	ret	
F 0x412806
0x412806:	test	eax, 0xc031ffff
0x41280b:	add	rsp, 8
0x41280f:	ret	
F 0x41dc71
0x41dc71:	movabs	eax, dword ptr [0x5b48c48348000001]
0x41dc7a:	pop	rbp
0x41dc7b:	pop	r12
0x41dc7d:	pop	r13
0x41dc7f:	pop	r14
0x41dc81:	pop	r15
0x41dc83:	ret	
F 0x4262a2
0x40f576:	pop	rbp
0x40f577:	pop	r14
0x40f579:	pop	r15
0x40f57b:	ret	
F 0x4205a9
0x4111e1:	add	rsp, 0x18
0x4111e5:	ret	
F 0x4163b4
0x40eedf:	pop	rbp
0x40eee0:	ret	
F 0x41076b
0x40d016:	ret	
F 0x41ac69
0x417009:	mov	rax, qword ptr [rax + 0x30]
0x41700d:	ret	
F 0x4163ab
0x40f440:	add	rsp, 8
0x40f444:	pop	rbx
0x40f445:	pop	rbp
0x40f446:	pop	r12
0x40f448:	pop	r13
0x40f44a:	ret	
F 0x426684
0x40d016:	ret	
F 0x40f7aa
0x40ef1a:	mov	qword ptr [rdi + 0x28], rax
0x40ef1e:	ret	
F 0x40f544
0x40f544:	dec	dword ptr [rax - 0x7d]
0x40f547:	ret	
F 0x425c24
0x40f571:	pop	rbx
0x40f572:	pop	rbp
0x40f573:	pop	r12
0x40f575:	pop	r13
0x40f577:	pop	r14
0x40f579:	pop	r15
0x40f57b:	ret	
F 0x410479
0x410479:	mov	eax, dword ptr [rax]
0x41047b:	ret	
F 0x40f03f
0x40d016:	ret	
F 0x422cb0
0x41083e:	pop	rbp
0x41083f:	pop	r14
0x410841:	ret	
F 0x411698
0x411698:	nop	dword ptr [rax + rax]
0x4116a0:	mov	qword ptr [rdx], 0
0x4116a7:	xor	eax, eax
0x4116a9:	ret	
F 0x41b2be
0x40f575:	pop	r13
0x40f577:	pop	r14
0x40f579:	pop	r15
0x40f57b:	ret	
F 0x4187ea
0x4187ea:	sub	r11b, r8b
0x4187ed:	nop	dword ptr [rax]
0x4187f0:	mov	qword ptr [rdi + 8], 0
0x4187f8:	ret	
F 0x419db0
0x40d016:	ret	
F 0x416874
0x40eedf:	pop	rbp
0x40eee0:	ret	
F 0x410d16
0x410d16:	add	rsp, 0x28
0x410d1a:	pop	rbx
0x410d1b:	pop	rbp
0x410d1c:	pop	r12
0x410d1e:	pop	r13
0x410d20:	ret	
F 0x41019b
0x40d016:	ret	
F 0x412f7a
0x412f7a:	test	byte ptr [rax], al
0x412f7c:	add	byte ptr [rax], al
0x412f7e:	add	byte ptr [rax], al
0x412f80:	pop	rbp
0x412f81:	ret	
F 0x414dc6
0x40f718:	dec	dword ptr [rax - 0x77]
0x40f71b:	ret	
F 0x41cbcd
0x41cbcd:	add	byte ptr [rax], al
0x41cbcf:	add	byte ptr [rax - 0x7d], cl
0x41cbd2:	ret	0x4808
F 0x412865
0x412865:	xchg	eax, edi
0x412866:	test	eax, 0xc031ffff
0x41286b:	add	rsp, 8
0x41286f:	ret	
F 0x411bc5
0x411bc5:	add	rsp, 0x28
0x411bc9:	mov	eax, r9d
0x411bcc:	pop	rbx
0x411bcd:	pop	rbp
0x411bce:	pop	r12
0x411bd0:	pop	r13
0x411bd2:	ret	
F 0x41b80a
0x410479:	mov	eax, dword ptr [rax]
0x41047b:	ret	
F 0x418837
0x411613:	add	dword ptr [rax], eax
0x411615:	add	byte ptr [rax], al
0x411617:	ret	
F 0x41c11e
0x41c11e:	or	bl, ch
0x41c120:	ret	
F 0x41789e
0x416b56:	add	byte ptr [rax], al
0x416b58:	add	rsp, 0x18
0x416b5c:	pop	rbx
0x416b5d:	pop	rbp
0x416b5e:	pop	r12
0x416b60:	pop	r13
0x416b62:	pop	r14
0x416b64:	pop	r15
0x416b66:	ret	
F 0x419f62
0x419f62:	add	byte ptr [rax], al
0x419f64:	add	rsp, 0x28
0x419f68:	mov	rax, r12
0x419f6b:	pop	rbx
0x419f6c:	pop	rbp
0x419f6d:	pop	r12
0x419f6f:	pop	r13
0x419f71:	ret	
F 0x41433a
0x41433a:	ror	byte ptr [rax - 0x7d], 0xc4
0x41433e:	adc	byte ptr [rbx + 0x5d], bl
0x414341:	pop	r12
0x414343:	pop	r13
0x414345:	pop	r14
0x414347:	ret	
F 0x4216d0
0x40d016:	ret	
F 0x4132e0
0x40d016:	ret	
F 0x4187e3
0x4187e3:	add	eax, 0x58
0x4187e8:	mov	qword ptr [rdi + 0x28], rax
0x4187ec:	ret	
F 0x416c3c
0x416c3c:	nop	dword ptr [rax]
0x416c40:	add	rsp, 8
0x416c44:	pop	rbp
0x416c45:	pop	r12
0x416c47:	ret	
F 0x41d1a4
0x41d1a4:	rol	dword ptr [rcx], 0
0x41d1a7:	add	rax, rdi
0x41d1aa:	mov	qword ptr [rdi + 0x30], rax
0x41d1ae:	mov	qword ptr [rax], 0
0x41d1b5:	ret	
F 0x418d24
0x41083e:	pop	rbp
0x41083f:	pop	r14
0x410841:	ret	
F 0x41cfa3
0x41cfa3:	add	ebx, 0x5890001
0x41cfa9:	xchg	eax, ebx
0x41cfaa:	ret	
F 0x41267d
0x40f579:	pop	r15
0x40f57b:	ret	
F 0x418f19
0x40d016:	ret	
F 0x410eb1
0x410eb1:	ret	
F 0x40f6ca
0x40f6ca:	test	byte ptr [rax], al
0x40f6cc:	add	byte ptr [rax], al
0x40f6ce:	add	byte ptr [rax], al
0x40f6d0:	xor	eax, eax
0x40f6d2:	pop	rbp
0x40f6d3:	ret	
F 0x4131a9
0x41249a:	pop	rbx
0x41249b:	pop	rbp
0x41249c:	ret	
F 0x426027
0x426027:	pop	rbp
0x426029:	pop	r12
0x42602b:	pop	r13
0x42602d:	pop	r14
0x42602f:	pop	r15
0x426031:	ret	
F 0x41f134
0x41f134:	add	eax, 0x1a21f
0x41f139:	add	rsp, 0x10
0x41f13d:	pop	rbp
0x41f13e:	ret	
F 0x421483
0x41083a:	pop	rbp
0x41083b:	pop	r12
0x41083d:	pop	r13
0x41083f:	pop	r14
0x410841:	ret	
F 0x418922
0x418922:	add	byte ptr [rax], al
0x418924:	pop	rbp
0x418925:	pop	r12
0x418927:	pop	r13
0x418929:	ret	
F 0x41ad08
0x40dc57:	ret	0
F 0x4178a5
0x40f572:	pop	rbp
0x40f573:	pop	r12
0x40f575:	pop	r13
0x40f577:	pop	r14
0x40f579:	pop	r15
0x40f57b:	ret	
F 0x41ac5d
0x40d016:	ret	
F 0x40eee0
0x40d016:	ret	
F 0x41b2c0
0x40f577:	pop	r14
0x40f579:	pop	r15
0x40f57b:	ret	
F 0x41cea7
0x41cea7:	add	eax, 0xff11d3e8
0x41ceac:	dec	dword ptr [rax - 0x7d]
0x41ceaf:	ret	
F 0x40f137
0x40f137:	add	al, ch
0x40f139:	ret	
F 0x420fd2
0x40d016:	ret	
F 0x41da62
0x40f445:	pop	rbp
0x40f446:	pop	r12
0x40f448:	pop	r13
0x40f44a:	ret	
F 0x416d42
0x40d016:	ret	
F 0x412570
0x40f577:	pop	r14
0x40f579:	pop	r15
0x40f57b:	ret	
F 0x418794
0x418794:	nop	dword ptr [rax + rax]
0x41879c:	nop	dword ptr [rax]
0x4187a0:	ret	
F 0x40f05b
0x40d016:	ret	
F 0x416995
0x416995:	add	rsp, 0x10
0x416999:	xor	eax, eax
0x41699b:	pop	rbx
0x41699c:	pop	rbp
0x41699d:	pop	r12
0x41699f:	ret	
F 0x41b406
0x4126b6:	or	byte ptr [rcx], al
0x4126b8:	ret	
F 0x41ab4c
0x40d016:	ret	
F 0x4192a1
0x41083f:	pop	r14
0x410841:	ret	
F 0x422a15
0x40d016:	ret	
F 0x419b61
0x40f600:	mov	eax, esp
0x40f602:	pop	r12
0x40f604:	ret	
F 0x41f360
0x40d016:	ret	
F 0x410d20
0x40d016:	ret	
F 0x414a1d
0x414a1d:	add	eax, 0x247be
0x414a22:	add	rsp, 0x10
0x414a26:	pop	rbp
0x414a27:	ret	
F 0x41af8a
0x40d016:	ret	
F 0x41699c
0x41053a:	pop	rbp
0x41053b:	pop	r12
0x41053d:	ret	
F 0x40eed8
0x40eed8:	mov	byte ptr [rip + 0x2a1c9], 1
0x40eedf:	pop	rbp
0x40eee0:	ret	
F 0x424aae
0x424aae:	xor	byte ptr [rbx + 0x5d], bl
0x424ab1:	pop	r12
0x424ab3:	ret	
F 0x419a3d
0x41053a:	pop	rbp
0x41053b:	pop	r12
0x41053d:	ret	
F 0x42215a
0x40f57a:	pop	rdi
0x40f57b:	ret	
F 0x411b9c
0x40d016:	ret	
F 0x41b1e4
0x412494:	add	byte ptr [rax], al
0x412496:	add	rsp, 8
0x41249a:	pop	rbx
0x41249b:	pop	rbp
0x41249c:	ret	
F 0x41dd75
0x40d016:	ret	
F 0x410c50
0x410835:	add	rsp, 0x20
0x410839:	pop	rbx
0x41083a:	pop	rbp
0x41083b:	pop	r12
0x41083d:	pop	r13
0x41083f:	pop	r14
0x410841:	ret	
F 0x416b66
0x40d016:	ret	
F 0x41811e
0x40f576:	pop	rbp
0x40f577:	pop	r14
0x40f579:	pop	r15
0x40f57b:	ret	
F 0x41b679
0x41a30e:	mov	eax, esp
0x41a310:	pop	rbp
0x41a311:	pop	r12
0x41a313:	pop	r13
0x41a315:	ret	
F 0x4196b5
0x40f445:	pop	rbp
0x40f446:	pop	r12
0x40f448:	pop	r13
0x40f44a:	ret	
F 0x41320d
0x40d016:	ret	
F 0x4218fe
0x4218fe:	add	eax, 0x17afd
0x421903:	add	rsp, 0x18
0x421907:	ret	
F 0x41f71c
0x41cbaa:	adc	byte ptr [rax - 0x77], cl
0x41cbad:	ret	
F 0x41ceaa
0x41ceaa:	adc	edi, edi
0x41ceac:	dec	dword ptr [rax - 0x7d]
0x41ceaf:	ret	
F 0x4160ea
0x40d016:	ret	
F 0x40f770
0x40f770:	movsxd	rax, dword ptr [rip + 0x299b9]
0x40f777:	add	rax, rdi
0x40f77a:	mov	qword ptr [rdi + 0x28], rax
0x40f77e:	ret	
F 0x412c34
0x40d016:	ret	
F 0x41f4e7
0x41f4e7:	add	rsp, 0x70
0x41f4eb:	pop	rbx
0x41f4ec:	pop	rbp
0x41f4ed:	pop	r12
0x41f4ef:	ret	
F 0x422d2f
0x422d2f:	movsd	dword ptr [rdi], dword ptr [rsi]
0x422d30:	mov	edi, 0x1f0ffffe
0x422d35:	add	byte ptr [rax], r8b
0x422d38:	add	rsp, 8
0x422d3c:	pop	rbp
0x422d3d:	pop	r12
0x422d3f:	ret	
F 0x41c005
0x41083a:	pop	rbp
0x41083b:	pop	r12
0x41083d:	pop	r13
0x41083f:	pop	r14
0x410841:	ret	
F 0x41adc8
0x41adc8:	sal	byte ptr [rbp + rdx + 0x48], 0x8b
0x41adcd:	add	eax, 0x1e4de
0x41add2:	add	rsp, 0x10
0x41add6:	pop	rbp
0x41add7:	ret	
F 0x411357
0x4104a7:	sub	byte ptr [r11], r15b
0x4104aa:	xor	byte ptr [rbp + 3], dh
0x4104ad:	ret	
F 0x410381
0x40f448:	pop	r13
0x40f44a:	ret	
F 0x41f13e
0x40d016:	ret	
F 0x40f2eb
0x40f2eb:	ret	0xbfe8
F 0x41b54a
0x40eea2:	nop	word ptr [rax + rax]
0x40eea8:	ret	
F 0x41dcc9
0x40d016:	ret	
F 0x413c6c
0x413c6c:	add	byte ptr [rax], al
0x413c6e:	add	byte ptr [rax], al
0x413c70:	add	rsp, 8
0x413c74:	pop	rbp
0x413c75:	pop	r12
0x413c77:	pop	r13
0x413c79:	pop	r14
0x413c7b:	ret	
F 0x41169e
0x41169e:	add	byte ptr [rax], al
0x4116a0:	mov	qword ptr [rdx], 0
0x4116a7:	xor	eax, eax
0x4116a9:	ret	
F 0x416e19
0x416e19:	nop	dword ptr [rax]
0x416e20:	add	rsp, 8
0x416e24:	pop	rbp
0x416e25:	pop	r12
0x416e27:	ret	
F 0x41970b
0x41970b:	mov	rax, qword ptr [rip + 0x1fbae]
0x419712:	add	rsp, 0x10
0x419716:	pop	rbp
0x419717:	ret	
F 0x418eab
0x4117ab:	or	byte ptr [rcx], al
0x4117ae:	mov	qword ptr [rsi + 8], rax
0x4117b2:	ret	
F 0x4205a1
0x4205a1:	dec	dword ptr [rax - 0x75]
0x4205a4:	add	eax, 0x18ddf
0x4205a9:	add	rsp, 0x18
0x4205ad:	ret	
F 0x418a88
0x418a88:	add	byte ptr [rax], al
0x418a8a:	add	byte ptr [rcx + rcx*4 - 0x20], cl
0x418a8e:	pop	rbp
0x418a8f:	pop	r12
0x418a91:	ret	
F 0x41d179
0x41d179:	or	byte ptr [rcx + rcx*4 - 0x20], cl
0x41d17d:	pop	rbp
0x41d17e:	pop	r12
0x41d180:	pop	r13
0x41d182:	pop	r14
0x41d184:	ret	
F 0x4239f7
0x40f600:	mov	eax, esp
0x40f602:	pop	r12
0x40f604:	ret	
F 0x41970c
0x41970c:	mov	eax, dword ptr [rip + 0x1fbae]
0x419712:	add	rsp, 0x10
0x419716:	pop	rbp
0x419717:	ret	
F 0x411f2e
0x411f2e:	add	byte ptr [rax - 0x77], cl
0x411f31:	ret	0x8948
F 0x415f8b
0x410840:	pop	rsi
0x410841:	ret	
F 0x42495c
0x40f579:	pop	r15
0x40f57b:	ret	
F 0x41684d
0x41684d:	ror	byte ptr [rax - 0x7d], 0xc4
0x416851:	or	byte ptr [rbx + 0x5d], bl
0x416854:	ret	
F 0x41f707
0x41083d:	pop	r13
0x41083f:	pop	r14
0x410841:	ret	
F 0x415020
0x40d016:	ret	
F 0x4215fe
0x40f445:	pop	rbp
0x40f446:	pop	r12
0x40f448:	pop	r13
0x40f44a:	ret	
F 0x41f350
0x41f350:	mov	eax, dword ptr [rsi + 8]
0x41f353:	cmp	dword ptr [rdi + 8], eax
0x41f356:	sete	al
0x41f359:	add	rsp, 8
0x41f35d:	movzx	eax, al
0x41f360:	ret	
F 0x416b62
0x40f577:	pop	r14
0x40f579:	pop	r15
0x40f57b:	ret	
F 0x418e91
0x411791:	mov	dword ptr [rdi + 8], 0
0x411798:	xor	eax, eax
0x41179a:	pop	rbx
0x41179b:	pop	rbp
0x41179c:	pop	r12
0x41179e:	ret	
F 0x419daa
0x40f575:	pop	r13
0x40f577:	pop	r14
0x40f579:	pop	r15
0x40f57b:	ret	
F 0x419063
0x412496:	add	rsp, 8
0x41249a:	pop	rbx
0x41249b:	pop	rbp
0x41249c:	ret	
F 0x422671
0x422671:	mov	ebp, dword ptr [rbx - 0x3fce0002]
0x422677:	add	rsp, 8
0x42267b:	ret	
F 0x410b12
0x40f632:	add	rsp, 0x10
0x40f636:	pop	rbp
0x40f637:	ret	
F 0x413100
0x40f448:	pop	r13
0x40f44a:	ret	
F 0x420f72
0x420f72:	mov	rax, qword ptr [rip + 0x18407]
0x420f79:	add	rsp, 0x10
0x420f7d:	pop	rbp
0x420f7e:	ret	
F 0x4216f6
0x41b446:	add	byte ptr [rax + 1], cl
0x41b449:	clc	
0x41b44a:	mov	qword ptr [rdi + 0x30], rax
0x41b44e:	ret	
F 0x418a19
0x40d016:	ret	
F 0x418eb3
0x4117b3:	nop	dword ptr [rax + rax]
0x4117b8:	mov	qword ptr [rsi + 8], 0
0x4117c0:	ret	
F 0x41381a
0x40d016:	ret	
F 0x4149c7
0x4149c7:	sal	byte ptr [rsi + rax + 0x31], 0xc0
0x4149cc:	pop	rbp
0x4149cd:	ret	
F 0x426b97
0x40d016:	ret	
F 0x411bce
0x40f446:	pop	r12
0x40f448:	pop	r13
0x40f44a:	ret	
F 0x41416a
0x410840:	pop	rsi
0x410841:	ret	
F 0x416b53
0x416b53:	nop	dword ptr [rax + rax]
0x416b58:	add	rsp, 0x18
0x416b5c:	pop	rbx
0x416b5d:	pop	rbp
0x416b5e:	pop	r12
0x416b60:	pop	r13
0x416b62:	pop	r14
0x416b64:	pop	r15
0x416b66:	ret	
F 0x41cad3
0x41cad3:	cmp	byte ptr [rbx + 0x5d], bl
0x41cad6:	pop	r12
0x41cad8:	pop	r13
0x41cada:	pop	r14
0x41cadc:	pop	r15
0x41cade:	ret	
F 0x41684e
0x412496:	add	rsp, 8
0x41249a:	pop	rbx
0x41249b:	pop	rbp
0x41249c:	ret	
F 0x410dad
0x40d016:	ret	
F 0x41612d
0x40eea5:	add	byte ptr [rax], r8b
0x40eea8:	ret	
F 0x42055f
0x419b8f:	add	dword ptr [rax], eax
0x419b91:	add	rsp, 0x18
0x419b95:	ret	
F 0x426336
0x426336:	ret	0xa4e8
F 0x420842
0x420842:	ret	0x98e8
F 0x41c709
0x40f632:	add	rsp, 0x10
0x40f636:	pop	rbp
0x40f637:	ret	
F 0x411757
0x411757:	mov	qword ptr [rbx + 8], rbp
0x41175b:	pop	rbx
0x41175c:	pop	rbp
0x41175d:	pop	r12
0x41175f:	ret	
F 0x42047f
0x419b8f:	add	dword ptr [rax], eax
0x419b91:	add	rsp, 0x18
0x419b95:	ret	
F 0x41bf0c
0x41bf0c:	and	byte ptr [rbx + 0x5d], bl
0x41bf0f:	mov	dword ptr [rip + 0x1d3f7], eax
0x41bf15:	pop	r12
0x41bf17:	ret	
F 0x41d1b1
0x40ee64:	add	byte ptr [rax], al
0x40ee66:	add	byte ptr [rax], al
0x40ee68:	ret	
F 0x418a80
0x418a80:	mov	bh, 0
0x418a82:	add	byte ptr [rax], al
0x418a84:	add	rsp, 0xa8
0x418a8b:	mov	rax, r12
0x418a8e:	pop	rbp
0x418a8f:	pop	r12
0x418a91:	ret	
F 0x410197
0x40f577:	pop	r14
0x40f579:	pop	r15
0x40f57b:	ret	
F 0x411bc0
0x411bc0:	add	byte ptr [rax], al
0x411bc2:	add	byte ptr [rbp + 0x4d], dh
0x411bc5:	add	rsp, 0x28
0x411bc9:	mov	eax, r9d
0x411bcc:	pop	rbx
0x411bcd:	pop	rbp
0x411bce:	pop	r12
0x411bd0:	pop	r13
0x411bd2:	ret	
F 0x425968
0x41083b:	pop	r12
0x41083d:	pop	r13
0x41083f:	pop	r14
0x410841:	ret	
F 0x4209aa
0x4209aa:	push	qword ptr [rbp + 0xb]
0x4209ad:	add	rsp, 8
0x4209b1:	pop	rbx
0x4209b2:	pop	rbp
0x4209b3:	ret	
F 0x415017
0x415017:	mov	eax, esi
0x415019:	pop	rbp
0x41501a:	pop	r12
0x41501c:	pop	r13
0x41501e:	pop	r14
0x415020:	ret	
F 0x410edc
0x410edc:	mov	eax, dword ptr [rip + 0x2820e]
0x410ee2:	add	rsp, 0x10
0x410ee6:	pop	rbp
0x410ee7:	ret	
F 0x417f58
0x417f58:	xor	al, ch
0x417f5a:	ret	0xff68
F 0x411233
0x4111e1:	add	rsp, 0x18
0x4111e5:	ret	
F 0x421602
0x40eedf:	pop	rbp
0x40eee0:	ret	
F 0x420b2e
0x40f448:	pop	r13
0x40f44a:	ret	
F 0x41c6fe
0x41c6fe:	mov	esi, 0x48ffff1e
0x41c703:	mov	eax, dword ptr [rip + 0x1cc27]
0x41c709:	add	rsp, 0x10
0x41c70d:	pop	rbp
0x41c70e:	ret	
F 0x41ad19
0x40d012:	add	rsp, 8
0x40d016:	ret	
F 0x419aa8
0x419a70:	add	byte ptr [rax], al
0x419a72:	mov	eax, r8d
0x419a75:	pop	rbp
0x419a76:	pop	r12
0x419a78:	ret	
F 0x419da8
0x40f573:	pop	r12
0x40f575:	pop	r13
0x40f577:	pop	r14
0x40f579:	pop	r15
0x40f57b:	ret	
F 0x422a14
0x411664:	pop	rbx
0x411665:	ret	
F 0x40f774
0x40f764:	cdq	
0x40f765:	add	al, byte ptr [rax]
0x40f767:	add	rax, rdi
0x40f76a:	mov	qword ptr [rdi + 0x28], rax
0x40f76e:	ret	
F 0x411604
0x40d016:	ret	
F 0x420b67
0x40eff3:	xor	eax, eax
0x40eff5:	add	rsp, 8
0x40eff9:	ret	
F 0x41165a
0x41165a:	lea	eax, [rip + 0xdf0]
0x411660:	mov	qword ptr [rbx + 8], rax
0x411664:	pop	rbx
0x411665:	ret	
F 0x41993b
0x418a8c:	mov	eax, esp
0x418a8e:	pop	rbp
0x418a8f:	pop	r12
0x418a91:	ret	
F 0x41d39b
0x40d016:	ret	
F 0x424605
0x41018d:	add	rsp, 0x68
0x410191:	pop	rbx
0x410192:	pop	rbp
0x410193:	pop	r12
0x410195:	pop	r13
0x410197:	pop	r14
0x410199:	pop	r15
0x41019b:	ret	
F 0x423cd7
0x40f448:	pop	r13
0x40f44a:	ret	
F 0x418f0d
0x418f0d:	add	byte ptr [rax], al
0x418f0f:	mov	qword ptr [rax + 8], rbp
0x418f13:	add	rsp, 8
0x418f17:	pop	rbx
0x418f18:	pop	rbp
0x418f19:	ret	
F 0x41b3c5
0x40f571:	pop	rbx
0x40f572:	pop	rbp
0x40f573:	pop	r12
0x40f575:	pop	r13
0x40f577:	pop	r14
0x40f579:	pop	r15
0x40f57b:	ret	
F 0x419a3b
0x419a3b:	mov	eax, eax
0x419a3d:	pop	rbp
0x419a3e:	pop	r12
0x419a40:	ret	
F 0x415ee9
0x415015:	or	byte ptr [rcx + rcx*4 - 0x10], cl
0x415019:	pop	rbp
0x41501a:	pop	r12
0x41501c:	pop	r13
0x41501e:	pop	r14
0x415020:	ret	
F 0x41c838
0x40f718:	dec	dword ptr [rax - 0x77]
0x40f71b:	ret	
F 0x41604e
0x410835:	add	rsp, 0x20
0x410839:	pop	rbx
0x41083a:	pop	rbp
0x41083b:	pop	r12
0x41083d:	pop	r13
0x41083f:	pop	r14
0x410841:	ret	
F 0x4265e0
0x4265e0:	mov	qword ptr [rbx], r12
0x4265e3:	mov	dword ptr [rbx + 8], eax
0x4265e6:	pop	rbx
0x4265e7:	pop	rbp
0x4265e8:	pop	r12
0x4265ea:	ret	
F 0x415164
0x41083a:	pop	rbp
0x41083b:	pop	r12
0x41083d:	pop	r13
0x41083f:	pop	r14
0x410841:	ret	
F 0x41a45e
0x41a45e:	xor	al, 0xff
0x41a460:	dec	dword ptr [rax - 0x77]
0x41a463:	ret	
F 0x41bb92
0x40d016:	ret	
F 0x410a0d
0x40d016:	ret	
F 0x413ae5
0x41053a:	pop	rbp
0x41053b:	pop	r12
0x41053d:	ret	
F 0x41c836
0x41c836:	or	al, 0xff
0x41c838:	dec	dword ptr [rax - 0x77]
0x41c83b:	ret	
F 0x415ef0
0x41083d:	pop	r13
0x41083f:	pop	r14
0x410841:	ret	
F 0x419a36
0x419a36:	add	rsp, 8
0x419a3a:	mov	eax, r8d
0x419a3d:	pop	rbp
0x419a3e:	pop	r12
0x419a40:	ret	
F 0x42602c
0x40f576:	pop	rbp
0x40f577:	pop	r14
0x40f579:	pop	r15
0x40f57b:	ret	
F 0x4218e9
0x40d016:	ret	
F 0x415f85
0x41083a:	pop	rbp
0x41083b:	pop	r12
0x41083d:	pop	r13
0x41083f:	pop	r14
0x410841:	ret	
F 0x415ef4
0x40d016:	ret	
F 0x41cfbe
0x40d016:	ret	
F 0x420937
0x40f718:	dec	dword ptr [rax - 0x77]
0x40f71b:	ret	
F 0x420534
0x420534:	add	eax, 0x18e57
0x420539:	add	rsp, 0x18
0x42053d:	ret	
F 0x42495d
0x40f57a:	pop	rdi
0x40f57b:	ret	
F 0x41d186
0x41d186:	nop	dword ptr cs:[rax + rax]
0x41d18f:	nop	
0x41d190:	ret	
F 0x40f76b
0x40ef1b:	mov	dword ptr [rdi + 0x28], eax
0x40ef1e:	ret	
F 0x4116a9
0x40d016:	ret	
F 0x41e5de
0x411ef8:	add	byte ptr [rax], al
0x411efa:	pop	rbx
0x411efb:	pop	rbp
0x411efc:	pop	r12
0x411efe:	pop	r13
0x411f00:	pop	r14
0x411f02:	pop	r15
0x411f04:	ret	
F 0x4190c8
0x4190c8:	mov	dword ptr [rax + 0x40], 0
0x4190cf:	mov	qword ptr [rax + 0x40], rbp
0x4190d3:	add	rsp, 8
0x4190d7:	pop	rbx
0x4190d8:	pop	rbp
0x4190d9:	ret	
F 0x41f704
0x41083a:	pop	rbp
0x41083b:	pop	r12
0x41083d:	pop	r13
0x41083f:	pop	r14
0x410841:	ret	
F 0x4118b4
0x411824:	mov	ebp, 0xc031ffff
0x411829:	add	rsp, 8
0x41182d:	ret	
F 0x4196ab
0x4196ab:	add	byte ptr [rax], 0
0x4196ae:	add	byte ptr [rax], al
0x4196b0:	add	rsp, 8
0x4196b4:	pop	rbx
0x4196b5:	pop	rbp
0x4196b6:	pop	r12
0x4196b8:	pop	r13
0x4196ba:	ret	
F 0x4117f7
0x40eff3:	xor	eax, eax
0x40eff5:	add	rsp, 8
0x40eff9:	ret	
F 0x40f62b
0x40f62b:	mov	rax, qword ptr [rip + 0x29a7e]
0x40f632:	add	rsp, 0x10
0x40f636:	pop	rbp
0x40f637:	ret	
F 0x418c8a
0x418c8a:	mov	qword ptr [rax + 0x90], rdx
0x418c91:	pop	rbp
0x418c92:	ret	
F 0x40ef17
0x40ef17:	add	rax, rdi
0x40ef1a:	mov	qword ptr [rdi + 0x28], rax
0x40ef1e:	ret	
F 0x40f6cc
0x40f6cc:	add	byte ptr [rax], al
0x40f6ce:	add	byte ptr [rax], al
0x40f6d0:	xor	eax, eax
0x40f6d2:	pop	rbp
0x40f6d3:	ret	
F 0x414a87
0x414a87:	add	eax, 0x24754
0x414a8c:	add	rsp, 0x10
0x414a90:	pop	rbp
0x414a91:	ret	
F 0x420e3d
0x41018d:	add	rsp, 0x68
0x410191:	pop	rbx
0x410192:	pop	rbp
0x410193:	pop	r12
0x410195:	pop	r13
0x410197:	pop	r14
0x410199:	pop	r15
0x41019b:	ret	
F 0x42055b
0x42055b:	mov	eax, dword ptr [rip + 0x18e27]
0x420561:	add	rsp, 0x18
0x420565:	ret	
F 0x41cad8
0x40f575:	pop	r13
0x40f577:	pop	r14
0x40f579:	pop	r15
0x40f57b:	ret	
F 0x4204f5
0x40d016:	ret	
F 0x41d56b
0x41d56b:	dec	dword ptr [rax - 0x75]
0x41d56e:	add	eax, 0x1bded
0x41d573:	add	rsp, 0x18
0x41d577:	ret	
F 0x41f178
0x40f718:	dec	dword ptr [rax - 0x77]
0x40f71b:	ret	
F 0x420c39
0x420c39:	mov	eax, dword ptr [rax + 0x1c]
0x420c3c:	ret	
F 0x414167
0x41083d:	pop	r13
0x41083f:	pop	r14
0x410841:	ret	
F 0x418f10
0x418f10:	mov	dword ptr [rax + 8], ebp
0x418f13:	add	rsp, 8
0x418f17:	pop	rbx
0x418f18:	pop	rbp
0x418f19:	ret	
F 0x41053a
0x41053a:	pop	rbp
0x41053b:	pop	r12
0x41053d:	ret	
F 0x42525a
0x40fafe:	add	byte ptr [rax], al
0x40fb00:	add	rsp, 0x58
0x40fb04:	pop	rbx
0x40fb05:	pop	rbp
0x40fb06:	pop	r12
0x40fb08:	pop	r13
0x40fb0a:	pop	r14
0x40fb0c:	pop	r15
0x40fb0e:	ret	
F 0x411023
0x410838:	and	byte ptr [rbx + 0x5d], bl
0x41083b:	pop	r12
0x41083d:	pop	r13
0x41083f:	pop	r14
0x410841:	ret	
F 0x411661
0x411661:	mov	dword ptr [rbx + 8], eax
0x411664:	pop	rbx
0x411665:	ret	
F 0x41725d
0x41083e:	pop	rbp
0x41083f:	pop	r14
0x410841:	ret	
F 0x418ba0
0x418a80:	mov	bh, 0
0x418a82:	add	byte ptr [rax], al
0x418a84:	add	rsp, 0xa8
0x418a8b:	mov	rax, r12
0x418a8e:	pop	rbp
0x418a8f:	pop	r12
0x418a91:	ret	
F 0x41d1b3
0x40ee66:	add	byte ptr [rax], al
0x40ee68:	ret	
F 0x40f760
0x40f760:	movsxd	rax, dword ptr [rip + 0x299d9]
0x40f767:	add	rax, rdi
0x40f76a:	mov	qword ptr [rdi + 0x28], rax
0x40f76e:	ret	
F 0x40f77d
0x40f77d:	sub	bl, al
0x40f77f:	nop	
0x40f780:	movsxd	rax, dword ptr [rip + 0x29999]
0x40f787:	add	rax, rdi
0x40f78a:	mov	qword ptr [rdi + 0x28], rax
0x40f78e:	ret	
F 0x416977
0x41053a:	pop	rbp
0x41053b:	pop	r12
0x41053d:	ret	
F 0x41ac84
0x41ac24:	and	eax, 0xc031ffff
0x41ac29:	add	rsp, 8
0x41ac2d:	ret	
F 0x426bad
0x426bad:	nop	dword ptr [rax]
0x426bb0:	ret	
F 0x4113a8
0x4113a8:	sal	byte ptr [rbp + rdx + 0x48], 0x8b
0x4113ad:	add	eax, 0x27d2e
0x4113b2:	add	rsp, 0x10
0x4113b6:	pop	rbp
0x4113b7:	ret	
F 0x41d56d
0x41d56d:	mov	eax, dword ptr [rip + 0x1bded]
0x41d573:	add	rsp, 0x18
0x41d577:	ret	
F 0x41d1b5
0x40d016:	ret	
F 0x4156d7
0x40eff3:	xor	eax, eax
0x40eff5:	add	rsp, 8
0x40eff9:	ret	
F 0x411df4
0x40f571:	pop	rbx
0x40f572:	pop	rbp
0x40f573:	pop	r12
0x40f575:	pop	r13
0x40f577:	pop	r14
0x40f579:	pop	r15
0x40f57b:	ret	
F 0x4197e9
0x40d016:	ret	
F 0x415ef1
0x41083e:	pop	rbp
0x41083f:	pop	r14
0x410841:	ret	
F 0x420c6e
0x40d016:	ret	
F 0x4149f5
0x40f6d0:	xor	eax, eax
0x40f6d2:	pop	rbp
0x40f6d3:	ret	
F 0x422467
0x419710:	add	dword ptr [rax], eax
0x419712:	add	rsp, 0x10
0x419716:	pop	rbp
0x419717:	ret	
F 0x40f7a4
0x40f764:	cdq	
0x40f765:	add	al, byte ptr [rax]
0x40f767:	add	rax, rdi
0x40f76a:	mov	qword ptr [rdi + 0x28], rax
0x40f76e:	ret	
F 0x418fe8
0x418fe8:	mov	dword ptr [rax + 0x30], 0
0x418fef:	mov	qword ptr [rax + 0x30], rbp
0x418ff3:	add	rsp, 8
0x418ff7:	pop	rbx
0x418ff8:	pop	rbp
0x418ff9:	ret	
F 0x42596b
0x41083e:	pop	rbp
0x41083f:	pop	r14
0x410841:	ret	
F 0x410507
0x40eff3:	xor	eax, eax
0x40eff5:	add	rsp, 8
0x40eff9:	ret	
F 0x41694d
0x41694d:	adc	byte ptr [rbx + 0x5d], bl
0x416950:	pop	r12
0x416952:	ret	
F 0x41f68a
0x40d016:	ret	
F 0x41f2e5
0x40ef1a:	mov	qword ptr [rdi + 0x28], rax
0x40ef1e:	ret	
F 0x413dcd
0x40f576:	pop	rbp
0x40f577:	pop	r14
0x40f579:	pop	r15
0x40f57b:	ret	
F 0x4104ed
0x40d016:	ret	
F 0x41b896
0x40f576:	pop	rbp
0x40f577:	pop	r14
0x40f579:	pop	r15
0x40f57b:	ret	
F 0x423726
0x40d016:	ret	
F 0x41879e
0x41879e:	add	bl, al
0x4187a1:	nop	word ptr cs:[rax + rax]
0x4187ac:	nop	dword ptr [rax]
0x4187b0:	ret	
F 0x4117ae
0x4117ae:	mov	qword ptr [rsi + 8], rax
0x4117b2:	ret	
F 0x4215fd
0x40f444:	pop	rbx
0x40f445:	pop	rbp
0x40f446:	pop	r12
0x40f448:	pop	r13
0x40f44a:	ret	
F 0x4143ac
0x41083a:	pop	rbp
0x41083b:	pop	r12
0x41083d:	pop	r13
0x41083f:	pop	r14
0x410841:	ret	
F 0x418bac
0x418a8c:	mov	eax, esp
0x418a8e:	pop	rbp
0x418a8f:	pop	r12
0x418a91:	ret	
F 0x418ebc
0x40ee64:	add	byte ptr [rax], al
0x40ee66:	add	byte ptr [rax], al
0x40ee68:	ret	
F 0x424437
0x40f571:	pop	rbx
0x40f572:	pop	rbp
0x40f573:	pop	r12
0x40f575:	pop	r13
0x40f577:	pop	r14
0x40f579:	pop	r15
0x40f57b:	ret	
F 0x418bae
0x41053a:	pop	rbp
0x41053b:	pop	r12
0x41053d:	ret	
F 0x41e148
0x40f571:	pop	rbx
0x40f572:	pop	rbp
0x40f573:	pop	r12
0x40f575:	pop	r13
0x40f577:	pop	r14
0x40f579:	pop	r15
0x40f57b:	ret	
F 0x414347
0x40d016:	ret	
F 0x41ffca
0x40f578:	pop	rsi
0x40f579:	pop	r15
0x40f57b:	ret	
F 0x419da6
0x40f571:	pop	rbx
0x40f572:	pop	rbp
0x40f573:	pop	r12
0x40f575:	pop	r13
0x40f577:	pop	r14
0x40f579:	pop	r15
0x40f57b:	ret	
F 0x416840
0x40d016:	ret	
F 0x41135a
0x4104aa:	xor	byte ptr [rbp + 3], dh
0x4104ad:	ret	
F 0x41d2ca
0x40eea2:	nop	word ptr [rax + rax]
0x40eea8:	ret	
F 0x412869
0x40eff3:	xor	eax, eax
0x40eff5:	add	rsp, 8
0x40eff9:	ret	
F 0x41f2e6
0x40ef1b:	mov	dword ptr [rdi + 0x28], eax
0x40ef1e:	ret	
F 0x410c58
0x41083d:	pop	r13
0x41083f:	pop	r14
0x410841:	ret	
F 0x41acbd
0x40d016:	ret	
F 0x4219cb
0x40d016:	ret	
F 0x41953e
0x416e1e:	add	byte ptr [rax], al
0x416e20:	add	rsp, 8
0x416e24:	pop	rbp
0x416e25:	pop	r12
0x416e27:	ret	
F 0x41af84
0x41083b:	pop	r12
0x41083d:	pop	r13
0x41083f:	pop	r14
0x410841:	ret	
F 0x41704d
0x41704d:	add	eax, 0x22226
0x417052:	add	rsp, 0x10
0x417056:	pop	rbp
0x417057:	ret	
F 0x41d739
0x410840:	pop	rsi
0x410841:	ret	
F 0x4149f8
0x40d016:	ret	
F 0x41725a
0x41083b:	pop	r12
0x41083d:	pop	r13
0x41083f:	pop	r14
0x410841:	ret	
F 0x41b2b9
0x412569:	or	byte ptr [rbx + 0x5d], bl
0x41256c:	pop	r12
0x41256e:	pop	r13
0x412570:	pop	r14
0x412572:	pop	r15
0x412574:	ret	
F 0x418ff7
0x41249a:	pop	rbx
0x41249b:	pop	rbp
0x41249c:	ret	
F 0x411f03
0x40f57a:	pop	rdi
0x40f57b:	ret	
F 0x422402
0x40f632:	add	rsp, 0x10
0x40f636:	pop	rbp
0x40f637:	ret	
F 0x41cbd2
0x41cbd2:	ret	0x4808
F 0x42460a
0x40f572:	pop	rbp
0x40f573:	pop	r12
0x40f575:	pop	r13
0x40f577:	pop	r14
0x40f579:	pop	r15
0x40f57b:	ret	
F 0x410edd
0x410edd:	add	eax, 0x2820e
0x410ee2:	add	rsp, 0x10
0x410ee6:	pop	rbp
0x410ee7:	ret	
F 0x4163b1
0x40f446:	pop	r12
0x40f448:	pop	r13
0x40f44a:	ret	
F 0x41cfaa
0x40d016:	ret	
F 0x415519
0x40d012:	add	rsp, 8
0x40d016:	ret	
F 0x41083b
0x41083b:	pop	r12
0x41083d:	pop	r13
0x41083f:	pop	r14
0x410841:	ret	
F 0x41d18b
0x41d18b:	add	byte ptr [rax], al
0x41d18d:	add	byte ptr [rax], al
0x41d18f:	nop	
0x41d190:	ret	
F 0x418ba7
0x418a87:	test	al, 0
0x418a89:	add	byte ptr [rax], al
0x418a8b:	mov	rax, r12
0x418a8e:	pop	rbp
0x418a8f:	pop	r12
0x418a91:	ret	
F 0x418a87
0x418a87:	test	al, 0
0x418a89:	add	byte ptr [rax], al
0x418a8b:	mov	rax, r12
0x418a8e:	pop	rbp
0x418a8f:	pop	r12
0x418a91:	ret	
F 0x42147b
0x42147b:	sar	esi, 0xff
0x42147e:	add	rsp, 0x20
0x421482:	pop	rbx
0x421483:	pop	rbp
0x421484:	pop	r12
0x421486:	pop	r13
0x421488:	pop	r14
0x42148a:	ret	
F 0x413c78
0x41083e:	pop	rbp
0x41083f:	pop	r14
0x410841:	ret	
F 0x40f332
0x40f332:	ret	0x78e8
F 0x412ef4
0x412ef4:	movabs	dword ptr [0x8c48348c031ffff], eax
0x412efd:	ret	
F 0x41c629
0x41a30e:	mov	eax, esp
0x41a310:	pop	rbp
0x41a311:	pop	r12
0x41a313:	pop	r13
0x41a315:	ret	
F 0x40eea8
0x40d016:	ret	
F 0x41ad67
0x41ad67:	cdq	
0x41ad68:	ret	0
F 0x4152b9
0x4152b9:	push	rbx
0x4152ba:	cmp	edi, -1
0x4152bd:	add	rsp, 0x20
0x4152c1:	pop	rbx
0x4152c2:	pop	rbp
0x4152c3:	pop	r12
0x4152c5:	pop	r13
0x4152c7:	pop	r14
0x4152c9:	ret	
F 0x41cfa4
0x40d016:	ret	
F 0x42120c
0x42120c:	add	eax, 0x1819b
0x421211:	add	rsp, 0x28
0x421215:	pop	rbp
0x421216:	pop	r12
0x421218:	ret	
F 0x415a84
0x415a84:	add	eax, 0x237a7
0x415a89:	add	rsp, 0x10
0x415a8d:	pop	rbp
0x415a8e:	ret	
F 0x420b4a
0x410479:	mov	eax, dword ptr [rax]
0x41047b:	ret	
F 0x41fb03
0x40d016:	ret	
F 0x41e14e
0x40f577:	pop	r14
0x40f579:	pop	r15
0x40f57b:	ret	
F 0x40f69e
0x40d016:	ret	
F 0x4115fe
0x4115fe:	add	byte ptr [rax], al
0x411600:	mov	rax, qword ptr [rdi + 8]
0x411604:	ret	
F 0x4118bd
0x40d016:	ret	
F 0x411610
0x411610:	mov	dword ptr [rdi + 8], 1
0x411617:	ret	
F 0x411751
0x411751:	add	dword ptr [rbp + 8], 1
0x411755:	xor	eax, eax
0x411757:	mov	qword ptr [rbx + 8], rbp
0x41175b:	pop	rbx
0x41175c:	pop	rbp
0x41175d:	pop	r12
0x41175f:	ret	
F 0x415946
0x40f571:	pop	rbx
0x40f572:	pop	rbp
0x40f573:	pop	r12
0x40f575:	pop	r13
0x40f577:	pop	r14
0x40f579:	pop	r15
0x40f57b:	ret	
F 0x41d1a6
0x41d1a6:	add	byte ptr [rax + 1], cl
0x41d1a9:	clc	
0x41d1aa:	mov	qword ptr [rdi + 0x30], rax
0x41d1ae:	mov	qword ptr [rax], 0
0x41d1b5:	ret	
F 0x411854
0x411824:	mov	ebp, 0xc031ffff
0x411829:	add	rsp, 8
0x41182d:	ret	
F 0x425dd9
0x425dd9:	add	byte ptr [rbp + 0x6d], dh
0x425ddc:	add	rsp, 0x30
0x425de0:	pop	rbx
0x425de1:	pop	rbp
0x425de2:	pop	r12
0x425de4:	ret	
F 0x426679
0x426679:	mov	rax, qword ptr [rip + 0x12da8]
0x426680:	add	rsp, 0x18
0x426684:	ret	
F 0x4209b0
0x412499:	or	byte ptr [rbx + 0x5d], bl
0x41249c:	ret	
F 0x412496
0x412496:	add	rsp, 8
0x41249a:	pop	rbx
0x41249b:	pop	rbp
0x41249c:	ret	
F 0x422b86
0x41175b:	pop	rbx
0x41175c:	pop	rbp
0x41175d:	pop	r12
0x41175f:	ret	
F 0x417310
0x40d016:	ret	
F 0x41b01b
0x41243b:	nop	dword ptr [rax + rax]
0x412440:	mov	rax, qword ptr [rbx + 8]
0x412444:	pop	rbx
0x412445:	ret	
F 0x41a502
0x40f578:	pop	rsi
0x40f579:	pop	r15
0x40f57b:	ret	
F 0x4130fe
0x40f446:	pop	r12
0x40f448:	pop	r13
0x40f44a:	ret	
F 0x41811a
0x40f572:	pop	rbp
0x40f573:	pop	r12
0x40f575:	pop	r13
0x40f577:	pop	r14
0x40f579:	pop	r15
0x40f57b:	ret	
F 0x4104ad
0x40d016:	ret	
F 0x420485
0x40d016:	ret	
F 0x412c2a
0x40f571:	pop	rbx
0x40f572:	pop	rbp
0x40f573:	pop	r12
0x40f575:	pop	r13
0x40f577:	pop	r14
0x40f579:	pop	r15
0x40f57b:	ret	
F 0x410196
0x40f576:	pop	rbp
0x40f577:	pop	r14
0x40f579:	pop	r15
0x40f57b:	ret	
F 0x42253d
0x40eff3:	xor	eax, eax
0x40eff5:	add	rsp, 8
0x40eff9:	ret	
F 0x422ca3
0x422ca3:	add	byte ptr [rax], al
0x422ca5:	add	byte ptr [rbp + 0x27], dh
0x422ca8:	add	rsp, 0x18
0x422cac:	pop	rbp
0x422cad:	pop	r12
0x422caf:	pop	r13
0x422cb1:	pop	r14
0x422cb3:	ret	
F 0x41a313
0x40f448:	pop	r13
0x40f44a:	ret	
F 0x40fb0e
0x40d016:	ret	
F 0x418832
0x41160e:	add	byte ptr [rax], al
0x411610:	mov	dword ptr [rdi + 8], 1
0x411617:	ret	
F 0x422159
0x40f579:	pop	r15
0x40f57b:	ret	
F 0x413174
0x413174:	movabs	al, byte ptr [0x8c48348c031ffff]
0x41317d:	ret	
F 0x418d20
0x41083a:	pop	rbp
0x41083b:	pop	r12
0x41083d:	pop	r13
0x41083f:	pop	r14
0x410841:	ret	
F 0x42662c
0x42662c:	add	eax, 0x12df7
0x426631:	add	rsp, 0x18
0x426635:	ret	
F 0x40f7a2
0x40f7a2:	add	eax, 0x29969
0x40f7a7:	add	rax, rdi
0x40f7aa:	mov	qword ptr [rdi + 0x28], rax
0x40f7ae:	ret	
F 0x413173
0x413173:	mov	dword ptr [rax - 0x3fce0001], esp
0x413179:	add	rsp, 8
0x41317d:	ret	
F 0x416ff6
0x40f575:	pop	r13
0x40f577:	pop	r14
0x40f579:	pop	r15
0x40f57b:	ret	
F 0x417259
0x41083a:	pop	rbp
0x41083b:	pop	r12
0x41083d:	pop	r13
0x41083f:	pop	r14
0x410841:	ret	
F 0x418222
0x418222:	mov	rax, qword ptr [rip + 0x21047]
0x418229:	add	rsp, 0x10
0x41822d:	pop	rbp
0x41822e:	ret	
F 0x41dbc9
0x40d016:	ret	
F 0x418229
0x40f632:	add	rsp, 0x10
0x40f636:	pop	rbp
0x40f637:	ret	
F 0x41acb1
0x41acb1:	add	al, ch
0x41acb3:	and	rax, 0xffffffffc031ffff
0x41acb9:	add	rsp, 8
0x41acbd:	ret	
F 0x411656
0x411656:	sar	edi, 1
0x411658:	dec	dword ptr [rax - 0x73]
0x41165b:	add	eax, 0xdf0
0x411660:	mov	qword ptr [rbx + 8], rax
0x411664:	pop	rbx
0x411665:	ret	
F 0x4139b9
0x40d012:	add	rsp, 8
0x40d016:	ret	
F 0x4149a9
0x414987:	xor	eax, eax
0x414989:	pop	rbp
0x41498a:	pop	r12
0x41498c:	ret	
F 0x424953
0x416b5b:	sbb	byte ptr [rbx + 0x5d], bl
0x416b5e:	pop	r12
0x416b60:	pop	r13
0x416b62:	pop	r14
0x416b64:	pop	r15
0x416b66:	ret	
F 0x41ac27
0x40eff3:	xor	eax, eax
0x40eff5:	add	rsp, 8
0x40eff9:	ret	
F 0x422b83
0x41c2a6:	add	byte ptr [rax], al
0x41c2a8:	add	byte ptr [rbx + 0x5d], bl
0x41c2ab:	pop	r12
0x41c2ad:	ret	
F 0x411665
0x40d016:	ret	
F 0x416854
0x40d016:	ret	
F 0x41ac87
0x40eff3:	xor	eax, eax
0x40eff5:	add	rsp, 8
0x40eff9:	ret	
F 0x419dab
0x40f576:	pop	rbp
0x40f577:	pop	r14
0x40f579:	pop	r15
0x40f57b:	ret	
F 0x41b67c
0x40f446:	pop	r12
0x40f448:	pop	r13
0x40f44a:	ret	
F 0x41da63
0x40f446:	pop	r12
0x40f448:	pop	r13
0x40f44a:	ret	
F 0x418839
0x40ee66:	add	byte ptr [rax], al
0x40ee68:	ret	
F 0x40f78a
0x40ef1a:	mov	qword ptr [rdi + 0x28], rax
0x40ef1e:	ret	
F 0x424958
0x40f575:	pop	r13
0x40f577:	pop	r14
0x40f579:	pop	r15
0x40f57b:	ret	
F 0x420f12
0x40f632:	add	rsp, 0x10
0x40f636:	pop	rbp
0x40f637:	ret	
F 0x41b0c6
0x40eedf:	pop	rbp
0x40eee0:	ret	
F 0x42596e
0x40d016:	ret	
F 0x4209ad
0x412496:	add	rsp, 8
0x41249a:	pop	rbx
0x41249b:	pop	rbp
0x41249c:	ret	
F 0x42307d
0x40f578:	pop	rsi
0x40f579:	pop	r15
0x40f57b:	ret	
F 0x418eaa
0x4117aa:	add	dword ptr [rax + 8], 1
0x4117ae:	mov	qword ptr [rsi + 8], rax
0x4117b2:	ret	
F 0x420b03
0x420b03:	push	-0x1f76b3b8
0x420b08:	pop	rbp
0x420b09:	pop	r12
0x420b0b:	pop	r13
0x420b0d:	ret	
F 0x417050
0x40f630:	add	al, byte ptr [rax]
0x40f632:	add	rsp, 0x10
0x40f636:	pop	rbp
0x40f637:	ret	
F 0x41965d
0x40d016:	ret	
F 0x41680e
0x40ee66:	add	byte ptr [rax], al
0x40ee68:	ret	
F 0x41cfb3
0x41cfb3:	mov	eax, dword ptr [rip + 0x1c36f]
0x41cfb9:	add	rsp, 0x10
0x41cfbd:	pop	rbp
0x41cfbe:	ret	
F 0x41ff23
0x41aca7:	pop	rcx
0x41aca8:	ret	
F 0x4104ea
0x4104ea:	mov	eax, dword ptr [rax + 8]
0x4104ed:	ret	
F 0x416fc7
0x416fc7:	mov	eax, esp
0x416fc9:	pop	r12
0x416fcb:	pop	r13
0x416fcd:	pop	r14
0x416fcf:	pop	r15
0x416fd1:	ret	
F 0x41b2c3
0x40f57a:	pop	rdi
0x40f57b:	ret	
F 0x4187a8
0x418798:	add	byte ptr [rax], al
0x41879a:	add	byte ptr [rax], al
0x41879c:	nop	dword ptr [rax]
0x4187a0:	ret	
F 0x41fa7e
0x40ee66:	add	byte ptr [rax], al
0x40ee68:	ret	
F 0x41f2d9
0x41f2d9:	mov	eax, dword ptr [rdi + 0x28]
0x41f2dc:	cmp	qword ptr [rsi + 0x28], rax
0x41f2e0:	cmovae	rax, qword ptr [rsi + 0x28]
0x41f2e5:	mov	qword ptr [rdi + 0x28], rax
0x41f2e9:	ret	
F 0x41cf64
0x40d016:	ret	
F 0x419aa4
0x419a6c:	mov	r8d, 1
0x419a72:	mov	eax, r8d
0x419a75:	pop	rbp
0x419a76:	pop	r12
0x419a78:	ret	
F 0x4114e4
0x410835:	add	rsp, 0x20
0x410839:	pop	rbx
0x41083a:	pop	rbp
0x41083b:	pop	r12
0x41083d:	pop	r13
0x41083f:	pop	r14
0x410841:	ret	
F 0x42443b
0x40f575:	pop	r13
0x40f577:	pop	r14
0x40f579:	pop	r15
0x40f57b:	ret	
F 0x419f6f
0x40f448:	pop	r13
0x40f44a:	ret	
F 0x4117aa
0x4117aa:	add	dword ptr [rax + 8], 1
0x4117ae:	mov	qword ptr [rsi + 8], rax
0x4117b2:	ret	
F 0x42123b
0x40d016:	ret	
F 0x40d008
0x40d008:	mov	edi, 0x85480002
0x40d00d:	sal	byte ptr [rdx + rax - 1], 0xd0
0x40d012:	add	rsp, 8
0x40d016:	ret	
F 0x425264
0x40f575:	pop	r13
0x40f577:	pop	r14
0x40f579:	pop	r15
0x40f57b:	ret	
F 0x419057
0x419057:	mov	qword ptr [rax + 0x58], 0
0x41905f:	mov	qword ptr [rax + 0x58], rbp
0x419063:	add	rsp, 8
0x419067:	pop	rbx
0x419068:	pop	rbp
0x419069:	ret	
F 0x411a2f
0x40d016:	ret	
F 0x4115e9
0x4115e9:	add	byte ptr [rax], al
0x4115eb:	nop	dword ptr [rax + rax]
0x4115f0:	mov	qword ptr [rdi + 8], 0
0x4115f8:	ret	
F 0x413013
0x412fb3:	sal	byte ptr [rbp + 0xa], 0x5d
0x412fb7:	ret	
F 0x41d728
0x41d728:	add	byte ptr [rbp + 0x77], dh
0x41d72b:	add	rsp, 0x30
0x41d72f:	mov	eax, r13d
0x41d732:	pop	rbx
0x41d733:	pop	rbp
0x41d734:	pop	r12
0x41d736:	pop	r13
0x41d738:	pop	r14
0x41d73a:	ret	
F 0x424603
0x41018b:	add	byte ptr [rax], al
0x41018d:	add	rsp, 0x68
0x410191:	pop	rbx
0x410192:	pop	rbp
0x410193:	pop	r12
0x410195:	pop	r13
0x410197:	pop	r14
0x410199:	pop	r15
0x41019b:	ret	
F 0x4202b9
0x40d016:	ret	
F 0x41c2a8
0x41c2a8:	add	byte ptr [rbx + 0x5d], bl
0x41c2ab:	pop	r12
0x41c2ad:	ret	
F 0x41959d
0x40f718:	dec	dword ptr [rax - 0x77]
0x40f71b:	ret	
F 0x410839
0x410839:	pop	rbx
0x41083a:	pop	rbp
0x41083b:	pop	r12
0x41083d:	pop	r13
0x41083f:	pop	r14
0x410841:	ret	
F 0x41d41e
0x41d3fe:	ror	byte ptr [rax - 0x7d], 0xc4
0x41d402:	or	byte ptr [rdi], cl
0x41d404:	mov	dh, 0xc0
0x41d406:	ret	
F 0x41053d
0x40d016:	ret	
F 0x4223be
0x40f602:	pop	r12
0x40f604:	ret	
F 0x412349
0x412349:	add	eax, 0x26e9a
0x41234e:	add	rsp, 0x18
0x412352:	ret	
F 0x41f35d
0x41d403:	movzx	eax, al
0x41d406:	ret	
F 0x41ffc1
0x40f56f:	mov	eax, esp
0x40f571:	pop	rbx
0x40f572:	pop	rbp
0x40f573:	pop	r12
0x40f575:	pop	r13
0x40f577:	pop	r14
0x40f579:	pop	r15
0x40f57b:	ret	
F 0x40f775
0x40ef15:	add	al, byte ptr [rax]
0x40ef17:	add	rax, rdi
0x40ef1a:	mov	qword ptr [rdi + 0x28], rax
0x40ef1e:	ret	
F 0x41b1e2
0x412492:	add	byte ptr [rax], al
0x412494:	add	byte ptr [rax], al
0x412496:	add	rsp, 8
0x41249a:	pop	rbx
0x41249b:	pop	rbp
0x41249c:	ret	
F 0x420f0b
0x420f0b:	mov	rax, qword ptr [rip + 0x1846e]
0x420f12:	add	rsp, 0x10
0x420f16:	pop	rbp
0x420f17:	ret	
F 0x41b025
0x40d016:	ret	
F 0x411599
0x410d19:	sub	byte ptr [rbx + 0x5d], bl
0x410d1c:	pop	r12
0x410d1e:	pop	r13
0x410d20:	ret	
F 0x4170f8
0x40f718:	dec	dword ptr [rax - 0x77]
0x40f71b:	ret	
F 0x411347
0x40eff3:	xor	eax, eax
0x40eff5:	add	rsp, 8
0x40eff9:	ret	
F 0x41415b
0x41415b:	add	byte ptr [rax], al
0x41415d:	add	byte ptr [rbp + 0x5a], dh
0x414160:	add	rsp, 0x28
0x414164:	pop	rbp
0x414165:	pop	r12
0x414167:	pop	r13
0x414169:	pop	r14
0x41416b:	ret	
F 0x411df9
0x40f576:	pop	rbp
0x40f577:	pop	r14
0x40f579:	pop	r15
0x40f57b:	ret	
F 0x420847
0x40f718:	dec	dword ptr [rax - 0x77]
0x40f71b:	ret	
F 0x42246e
0x40d016:	ret	
F 0x418eb5
0x4117b5:	add	byte ptr [rax], r8b
0x4117b8:	mov	qword ptr [rsi + 8], 0
0x4117c0:	ret	
F 0x415a22
0x40f632:	add	rsp, 0x10
0x40f636:	pop	rbp
0x40f637:	ret	
F 0x418d1e
0x418d1e:	pop	rcx
0x418d1f:	pop	rbx
0x418d20:	pop	rbp
0x418d21:	pop	r12
0x418d23:	pop	r13
0x418d25:	pop	r14
0x418d27:	ret	
F 0x4265de
0x4265de:	or	byte ptr [r9 + rcx*4 + 0x23], r9b
0x4265e3:	mov	dword ptr [rbx + 8], eax
0x4265e6:	pop	rbx
0x4265e7:	pop	rbp
0x4265e8:	pop	r12
0x4265ea:	ret	
F 0x4117c0
0x40d016:	ret	
F 0x416875
0x40d016:	ret	
F 0x41c657
0x40dc57:	ret	0
F 0x417c59
0x41083a:	pop	rbp
0x41083b:	pop	r12
0x41083d:	pop	r13
0x41083f:	pop	r14
0x410841:	ret	
F 0x412c22
0x412c22:	add	rsp, 0xb8
0x412c2a:	pop	rbx
0x412c2b:	pop	rbp
0x412c2c:	pop	r12
0x412c2e:	pop	r13
0x412c30:	pop	r14
0x412c32:	pop	r15
0x412c34:	ret	
F 0x4265d9
0x4265d9:	movabs	dword ptr [0x894c08458bfffe7a], eax
0x4265e2:	and	ecx, dword ptr [rcx + 0x5d5b0843]
0x4265e8:	pop	r12
0x4265ea:	ret	
F 0x41cadb
0x40f578:	pop	rsi
0x40f579:	pop	r15
0x40f57b:	ret	
F 0x4133a4
0x40d016:	ret	
F 0x4104aa
0x4104aa:	xor	byte ptr [rbp + 3], dh
0x4104ad:	ret	
F 0x41612a
0x40eea2:	nop	word ptr [rax + rax]
0x40eea8:	ret	
F 0x41a81b
0x419939:	or	byte ptr [rcx + rcx*4 - 0x20], cl
0x41993d:	pop	rbp
0x41993e:	pop	r12
0x419940:	ret	
F 0x422464
0x422464:	add	eax, 0x16f8f
0x422469:	add	rsp, 0x10
0x42246d:	pop	rbp
0x42246e:	ret	
F 0x420b9d
0x40d016:	ret	
F 0x4187a4
0x418794:	nop	dword ptr [rax + rax]
0x41879c:	nop	dword ptr [rax]
0x4187a0:	ret	
F 0x422d36
0x416e1e:	add	byte ptr [rax], al
0x416e20:	add	rsp, 8
0x416e24:	pop	rbp
0x416e25:	pop	r12
0x416e27:	ret	
F 0x41d419
0x41d419:	cmp	eax, 4
0x41d41c:	setbe	al
0x41d41f:	add	rsp, 8
0x41d423:	movzx	eax, al
0x41d426:	ret	
F 0x418d89
0x411689:	mov	qword ptr [rdx], rax
0x41168c:	xor	eax, eax
0x41168e:	ret	
F 0x41acf9
0x41acf9:	mov	eax, dword ptr [rax + 0x48]
0x41acfc:	ret	
F 0x4239eb
0x4239eb:	pop	rbx
0x4239ec:	mov	qword ptr [r12], rbp
0x4239f0:	pop	rbp
0x4239f1:	mov	dword ptr [r12 + 8], eax
0x4239f6:	mov	rax, r12
0x4239f9:	pop	r12
0x4239fb:	ret	
F 0x41dc7e
0x40f576:	pop	rbp
0x40f577:	pop	r14
0x40f579:	pop	r15
0x40f57b:	ret	
F 0x41b88d
0x41b88d:	mov	byte ptr [rax], al
0x41b88f:	add	byte ptr [rax], al
0x41b891:	pop	rbx
0x41b892:	pop	rbp
0x41b893:	pop	r12
0x41b895:	pop	r13
0x41b897:	pop	r14
0x41b899:	pop	r15
0x41b89b:	ret	
F 0x41b3c6
0x40f572:	pop	rbp
0x40f573:	pop	r12
0x40f575:	pop	r13
0x40f577:	pop	r14
0x40f579:	pop	r15
0x40f57b:	ret	
F 0x410ee7
0x40d016:	ret	
F 0x410727
0x40f630:	add	al, byte ptr [rax]
0x40f632:	add	rsp, 0x10
0x40f636:	pop	rbp
0x40f637:	ret	
F 0x41e146
0x411ef8:	add	byte ptr [rax], al
0x411efa:	pop	rbx
0x411efb:	pop	rbp
0x411efc:	pop	r12
0x411efe:	pop	r13
0x411f00:	pop	r14
0x411f02:	pop	r15
0x411f04:	ret	
F 0x40efcf
0x40eedf:	pop	rbp
0x40eee0:	ret	
F 0x425e98
0x40eedf:	pop	rbp
0x40eee0:	ret	
F 0x41516a
0x410840:	pop	rsi
0x410841:	ret	
F 0x419a72
0x419a3a:	mov	eax, r8d
0x419a3d:	pop	rbp
0x419a3e:	pop	r12
0x419a40:	ret	
F 0x4218a7
0x4218a7:	sal	byte ptr [rsi + rdx + 0x48], 0x8b
0x4218ac:	add	eax, 0x17b4f
0x4218b1:	add	rsp, 0x18
0x4218b5:	ret	
F 0x411eff
0x40f576:	pop	rbp
0x40f577:	pop	r14
0x40f579:	pop	r15
0x40f57b:	ret	
F 0x41b898
0x40f578:	pop	rsi
0x40f579:	pop	r15
0x40f57b:	ret	
F 0x40f768
0x40ef18:	add	eax, edi
0x40ef1a:	mov	qword ptr [rdi + 0x28], rax
0x40ef1e:	ret	
F 0x41384d
0x40f571:	pop	rbx
0x40f572:	pop	rbp
0x40f573:	pop	r12
0x40f575:	pop	r13
0x40f577:	pop	r14
0x40f579:	pop	r15
0x40f57b:	ret	
F 0x41168e
0x40d016:	ret	
F 0x41694f
0x41053a:	pop	rbp
0x41053b:	pop	r12
0x41053d:	ret	
F 0x412494
0x412494:	add	byte ptr [rax], al
0x412496:	add	rsp, 8
0x41249a:	pop	rbx
0x41249b:	pop	rbp
0x41249c:	ret	
F 0x41c0cb
0x41730b:	pop	rbp
0x41730c:	pop	r12
0x41730e:	pop	r14
0x417310:	ret	
F 0x411ef8
0x411ef8:	add	byte ptr [rax], al
0x411efa:	pop	rbx
0x411efb:	pop	rbp
0x411efc:	pop	r12
0x411efe:	pop	r13
0x411f00:	pop	r14
0x411f02:	pop	r15
0x411f04:	ret	
F 0x411d29
0x411d29:	and	al, 0xe8
0x411d2b:	push	rcx
0x411d2c:	ret	
F 0x4223f5
0x4223f5:	or	byte ptr [rax - 0x7b], cl
0x4223f8:	sal	byte ptr [rbp + rdx + 0x48], 0x8b
0x4223fd:	add	eax, 0x16ff6
0x422402:	add	rsp, 0x10
0x422406:	pop	rbp
0x422407:	ret	
F 0x411df5
0x40f572:	pop	rbp
0x40f573:	pop	r12
0x40f575:	pop	r13
0x40f577:	pop	r14
0x40f579:	pop	r15
0x40f57b:	ret	
F 0x41f78d
0x41c29d:	mov	dword ptr [rdi + rax*8], esp
0x41c2a0:	mov	qword ptr [rdi + rax*8 + 8], 0
0x41c2a9:	pop	rbx
0x41c2aa:	pop	rbp
0x41c2ab:	pop	r12
0x41c2ad:	ret	
F 0x4152c5
0x41083d:	pop	r13
0x41083f:	pop	r14
0x410841:	ret	
F 0x416b55
0x416b55:	add	byte ptr [rax], r8b
0x416b58:	add	rsp, 0x18
0x416b5c:	pop	rbx
0x416b5d:	pop	rbp
0x416b5e:	pop	r12
0x416b60:	pop	r13
0x416b62:	pop	r14
0x416b64:	pop	r15
0x416b66:	ret	
F 0x40f637
0x40d016:	ret	
F 0x413dc6
0x411ef8:	add	byte ptr [rax], al
0x411efa:	pop	rbx
0x411efb:	pop	rbp
0x411efc:	pop	r12
0x411efe:	pop	r13
0x411f00:	pop	r14
0x411f02:	pop	r15
0x411f04:	ret	
F 0x40f697
0x40f630:	add	al, byte ptr [rax]
0x40f632:	add	rsp, 0x10
0x40f636:	pop	rbp
0x40f637:	ret	
F 0x41a501
0x40f577:	pop	r14
0x40f579:	pop	r15
0x40f57b:	ret	
F 0x40f572
0x40f572:	pop	rbp
0x40f573:	pop	r12
0x40f575:	pop	r13
0x40f577:	pop	r14
0x40f579:	pop	r15
0x40f57b:	ret	
F 0x410db8
0x4104a8:	sub	byte ptr [rbx], bh
0x4104aa:	xor	byte ptr [rbp + 3], dh
0x4104ad:	ret	
F 0x41730a
0x41730a:	pop	rbx
0x41730b:	pop	rbp
0x41730c:	pop	r12
0x41730e:	pop	r14
0x417310:	ret	
F 0x41f82d
0x40d016:	ret	
F 0x41c83b
0x40d016:	ret	
F 0x421849
0x421849:	setae	al
0x42184c:	ret	
F 0x416d3e
0x40d012:	add	rsp, 8
0x40d016:	ret	
F 0x41e141
0x41e141:	add	rsp, 0x158
0x41e148:	pop	rbx
0x41e149:	pop	rbp
0x41e14a:	pop	r12
0x41e14c:	pop	r13
0x41e14e:	pop	r14
0x41e150:	pop	r15
0x41e152:	ret	
F 0x41e145
0x411ef7:	add	dword ptr [rax], eax
0x411ef9:	add	byte ptr [rbx + 0x5d], bl
0x411efc:	pop	r12
0x411efe:	pop	r13
0x411f00:	pop	r14
0x411f02:	pop	r15
0x411f04:	ret	
F 0x41acfa
0x41acfa:	ret	
F 0x4181bb
0x4181bb:	mov	rax, qword ptr [rip + 0x210ae]
0x4181c2:	add	rsp, 0x10
0x4181c6:	pop	rbp
0x4181c7:	ret	
F 0x416ffa
0x40f579:	pop	r15
0x40f57b:	ret	
F 0x41129d
0x41129d:	cmp	al, ch
0x41129f:	popfq	
0x4112a0:	ret	
F 0x4112d1
0x40d016:	ret	
F 0x41175b
0x41175b:	pop	rbx
0x41175c:	pop	rbp
0x41175d:	pop	r12
0x41175f:	ret	
F 0x422b82
0x422b82:	nop	
0x422b83:	add	byte ptr [rax], al
0x422b85:	add	byte ptr [rbx + 0x5d], bl
0x422b88:	pop	r12
0x422b8a:	ret	
F 0x418e52
0x411752:	or	byte ptr [r9], r8b
0x411755:	xor	eax, eax
0x411757:	mov	qword ptr [rbx + 8], rbp
0x41175b:	pop	rbx
0x41175c:	pop	rbp
0x41175d:	pop	r12
0x41175f:	ret	
F 0x425965
0x41d17b:	mov	eax, esp
0x41d17d:	pop	rbp
0x41d17e:	pop	r12
0x41d180:	pop	r13
0x41d182:	pop	r14
0x41d184:	ret	
F 0x4104e9
0x4104e9:	mov	rax, qword ptr [rax + 8]
0x4104ed:	ret	
F 0x4116a3
0x4116a3:	add	byte ptr [rax], al
0x4116a5:	add	byte ptr [rax], al
0x4116a7:	xor	eax, eax
0x4116a9:	ret	
F 0x41b2ba
0x40f571:	pop	rbx
0x40f572:	pop	rbp
0x40f573:	pop	r12
0x40f575:	pop	r13
0x40f577:	pop	r14
0x40f579:	pop	r15
0x40f57b:	ret	
F 0x41c69d
0x41c69d:	add	eax, 0x1cc8e
0x41c6a2:	add	rsp, 0x10
0x41c6a6:	pop	rbp
0x41c6a7:	ret	
F 0x416945
0x416945:	nop	dword ptr [rax]
0x416948:	xor	eax, eax
0x41694a:	add	rsp, 0x10
0x41694e:	pop	rbx
0x41694f:	pop	rbp
0x416950:	pop	r12
0x416952:	ret	
F 0x42667a
0x42667a:	mov	eax, dword ptr [rip + 0x12da8]
0x426680:	add	rsp, 0x18
0x426684:	ret	
F 0x41b6d2
0x40f632:	add	rsp, 0x10
0x40f636:	pop	rbp
0x40f637:	ret	
F 0x41676a
0x40eea2:	nop	word ptr [rax + rax]
0x40eea8:	ret	
F 0x41a315
0x40d016:	ret	
F 0x416ff2
0x416fc7:	mov	eax, esp
0x416fc9:	pop	r12
0x416fcb:	pop	r13
0x416fcd:	pop	r14
0x416fcf:	pop	r15
0x416fd1:	ret	
F 0x422543
0x40d016:	ret	
F 0x4265e3
0x4265e3:	mov	dword ptr [rbx + 8], eax
0x4265e6:	pop	rbx
0x4265e7:	pop	rbp
0x4265e8:	pop	r12
0x4265ea:	ret	
F 0x41f765
0x41083b:	pop	r12
0x41083d:	pop	r13
0x41083f:	pop	r14
0x410841:	ret	
F 0x412574
0x40d016:	ret	
F 0x41dc73
0x41dc73:	add	byte ptr [rax], al
0x41dc75:	add	rsp, 0x48
0x41dc79:	pop	rbx
0x41dc7a:	pop	rbp
0x41dc7b:	pop	r12
0x41dc7d:	pop	r13
0x41dc7f:	pop	r14
0x41dc81:	pop	r15
0x41dc83:	ret	
F 0x41b893
0x40f573:	pop	r12
0x40f575:	pop	r13
0x40f577:	pop	r14
0x40f579:	pop	r15
0x40f57b:	ret	
F 0x418ff9
0x40d016:	ret	
F 0x42667c
0x42667c:	test	al, 0x2d
0x42667e:	add	dword ptr [rax], eax
0x426680:	add	rsp, 0x18
0x426684:	ret	
F 0x412daf
0x412cef:	cmp	byte ptr [rbx + 0x5d], bl
0x412cf2:	ret	
F 0x4117f3
0x4117f3:	sbb	dword ptr [rsi - 0x3fce0001], edi
0x4117f9:	add	rsp, 8
0x4117fd:	ret	
F 0x413dbf
0x413dbf:	add	byte ptr [rax], al
0x413dc1:	add	rsp, 0xb8
0x413dc8:	pop	rbx
0x413dc9:	pop	rbp
0x413dca:	pop	r12
0x413dcc:	pop	r13
0x413dce:	pop	r14
0x413dd0:	pop	r15
0x413dd2:	ret	
F 0x41f0cb
0x41f0cb:	mov	rax, qword ptr [rip + 0x1a286]
0x41f0d2:	add	rsp, 0x10
0x41f0d6:	pop	rbp
0x41f0d7:	ret	
F 0x4266b2
0x40f632:	add	rsp, 0x10
0x40f636:	pop	rbp
0x40f637:	ret	
F 0x41037a
0x41037a:	dec	dword ptr [rcx + rcx*4 - 0x18]
0x41037e:	pop	rbp
0x41037f:	pop	r12
0x410381:	pop	r13
0x410383:	ret	
F 0x41b0bc
0x41b0bc:	add	eax, 0x1e213
0x41b0c1:	add	rsp, 0x28
0x41b0c5:	pop	rbx
0x41b0c6:	pop	rbp
0x41b0c7:	ret	
F 0x41037c
0x41037c:	mov	eax, ebp
0x41037e:	pop	rbp
0x41037f:	pop	r12
0x410381:	pop	r13
0x410383:	ret	
F 0x413c74
0x41083a:	pop	rbp
0x41083b:	pop	r12
0x41083d:	pop	r13
0x41083f:	pop	r14
0x410841:	ret	
F 0x41d185
0x41d185:	nop	word ptr cs:[rax + rax]
0x41d18f:	nop	
0x41d190:	ret	
F 0x413dc9
0x40f572:	pop	rbp
0x40f573:	pop	r12
0x40f575:	pop	r13
0x40f577:	pop	r14
0x40f579:	pop	r15
0x40f57b:	ret	
F 0x4117ac
0x4117ac:	or	byte ptr [rcx], al
0x4117ae:	mov	qword ptr [rsi + 8], rax
0x4117b2:	ret	
F 0x41acc4
0x41acc4:	or	ecx, dword ptr [rax - 0x75]
0x41acc7:	adc	byte ptr [r8 - 0x75], r9b
0x41accb:	ret	
F 0x40fb0c
0x40f579:	pop	r15
0x40f57b:	ret	
F 0x419aa5
0x419a6d:	mov	eax, 1
0x419a72:	mov	eax, r8d
0x419a75:	pop	rbp
0x419a76:	pop	r12
0x419a78:	ret	
F 0x41384a
0x41384a:	push	0x5d5bc031
0x41384f:	pop	r12
0x413851:	pop	r13
0x413853:	pop	r14
0x413855:	pop	r15
0x413857:	ret	
F 0x41ff75
0x41aca7:	pop	rcx
0x41aca8:	ret	
F 0x418c8f
0x412f7e:	add	byte ptr [rax], al
0x412f80:	pop	rbp
0x412f81:	ret	
F 0x4216eb
0x41d404:	mov	dh, 0xc0
0x41d406:	ret	
F 0x41a818
0x419936:	add	rsp, 8
0x41993a:	mov	rax, r12
0x41993d:	pop	rbp
0x41993e:	pop	r12
0x419940:	ret	
F 0x415948
0x40f573:	pop	r12
0x40f575:	pop	r13
0x40f577:	pop	r14
0x40f579:	pop	r15
0x40f57b:	ret	
F 0x4112da
0x41083b:	pop	r12
0x41083d:	pop	r13
0x41083f:	pop	r14
0x410841:	ret	
F 0x41399d
0x40d016:	ret	
F 0x4113b6
0x40eedf:	pop	rbp
0x40eee0:	ret	
F 0x41f356
0x41f356:	sete	al
0x41f359:	add	rsp, 8
0x41f35d:	movzx	eax, al
0x41f360:	ret	
F 0x419966
0x419936:	add	rsp, 8
0x41993a:	mov	rax, r12
0x41993d:	pop	rbp
0x41993e:	pop	r12
0x419940:	ret	
F 0x4115a0
0x40d016:	ret	
F 0x41e5e5
0x40f576:	pop	rbp
0x40f577:	pop	r14
0x40f579:	pop	r15
0x40f57b:	ret	
F 0x40f604
0x40d016:	ret	
F 0x4192c2
0x40d016:	ret	
F 0x41267b
0x40f577:	pop	r14
0x40f579:	pop	r15
0x40f57b:	ret	
F 0x41c6a6
0x40eedf:	pop	rbp
0x40eee0:	ret	
F 0x41cace
0x41cace:	add	byte ptr [rax], al
0x41cad0:	add	rsp, 0x38
0x41cad4:	pop	rbx
0x41cad5:	pop	rbp
0x41cad6:	pop	r12
0x41cad8:	pop	r13
0x41cada:	pop	r14
0x41cadc:	pop	r15
0x41cade:	ret	
F 0x41e152
0x40d016:	ret	
F 0x41acc9
0x41acc9:	mov	rax, qword ptr [rax + 0x40]
0x41accd:	ret	
F 0x418d19
0x40d016:	ret	
F 0x41fa37
0x40d016:	ret	
F 0x410b0b
0x410b0b:	mov	rax, qword ptr [rip + 0x285e6]
0x410b12:	add	rsp, 0x10
0x410b16:	pop	rbp
0x410b17:	ret	
F 0x412c32
0x40f579:	pop	r15
0x40f57b:	ret	
F 0x40f5fe
0x40f5fe:	dec	dword ptr [rcx + rcx*4 - 0x20]
0x40f602:	pop	r12
0x40f604:	ret	
F 0x41122b
0x41122b:	dec	dword ptr [rax - 0x75]
0x41122e:	add	eax, 0x27eb5
0x411233:	add	rsp, 0x18
0x411237:	ret	
F 0x4117b9
0x4117b9:	mov	dword ptr [rsi + 8], 0
0x4117c0:	ret	
F 0x420b0d
0x40d016:	ret	
F 0x416d3a
0x416d3a:	add	dword ptr [rax], eax
0x416d3c:	add	byte ptr [rax], al
0x416d3e:	add	rsp, 8
0x416d42:	ret	
F 0x4265e2
0x4265e2:	and	ecx, dword ptr [rcx + 0x5d5b0843]
0x4265e8:	pop	r12
0x4265ea:	ret	
F 0x40f315
0x40f287:	add	byte ptr [rax], al
0x40f289:	add	byte ptr [rax - 0x77], cl
0x40f28c:	ret	
F 0x4149dd
0x40d016:	ret	
F 0x41f0c5
0x41f0c5:	or	byte ptr [rax - 0x7b], cl
0x41f0c8:	sal	byte ptr [rbp + rdx + 0x48], 0x8b
0x41f0cd:	add	eax, 0x1a286
0x41f0d2:	add	rsp, 0x10
0x41f0d6:	pop	rbp
0x41f0d7:	ret	
F 0x41b0e8
0x40f718:	dec	dword ptr [rax - 0x77]
0x40f71b:	ret	
F 0x41f5d8
0x40d016:	ret	
F 0x418a8e
0x41053a:	pop	rbp
0x41053b:	pop	r12
0x41053d:	ret	
F 0x412805
0x412805:	imul	dword ptr [rcx - 0x3fce0001]
0x41280b:	add	rsp, 8
0x41280f:	ret	
F 0x4219c5
0x4219c5:	sub	al, 0xc1
0x4219c7:	mov	dword ptr [rbx + 0x78], eax
0x4219ca:	pop	rbx
0x4219cb:	ret	
F 0x42675b
0x40d016:	ret	
F 0x412569
0x412569:	or	byte ptr [rbx + 0x5d], bl
0x41256c:	pop	r12
0x41256e:	pop	r13
0x412570:	pop	r14
0x412572:	pop	r15
0x412574:	ret	
F 0x41ac59
0x40d012:	add	rsp, 8
0x40d016:	ret	
F 0x413ae0
0x413ae0:	add	rsp, 0x20
0x413ae4:	pop	rbx
0x413ae5:	pop	rbp
0x413ae6:	pop	r12
0x413ae8:	ret	
F 0x41bf17
0x40d016:	ret	
F 0x417def
0x40f573:	pop	r12
0x40f575:	pop	r13
0x40f577:	pop	r14
0x40f579:	pop	r15
0x40f57b:	ret	
F 0x412c31
0x40f578:	pop	rsi
0x40f579:	pop	r15
0x40f57b:	ret	
F 0x42251e
0x40d012:	add	rsp, 8
0x40d016:	ret	
F 0x41f76b
0x40d016:	ret	
F 0x4154fa
0x4154fa:	mov	eax, dword ptr [rax + 0x10]
0x4154fd:	ret	
F 0x420ada
0x420ada:	ret	0xfee0
F 0x415165
0x41083b:	pop	r12
0x41083d:	pop	r13
0x41083f:	pop	r14
0x410841:	ret	
F 0x41e006
0x40d016:	ret	
F 0x4122ea
0x4122ea:	mov	rax, qword ptr [rip + 0x26ef7]
0x4122f1:	add	rsp, 0x18
0x4122f5:	ret	
F 0x419a6f
0x419a6f:	add	byte ptr [rax], al
0x419a71:	add	byte ptr [rcx + rcx*4 - 0x40], al
0x419a75:	pop	rbp
0x419a76:	pop	r12
0x419a78:	ret	
F 0x41b3cc
0x40f578:	pop	rsi
0x40f579:	pop	r15
0x40f57b:	ret	
F 0x41501d
0x41083e:	pop	rbp
0x41083f:	pop	r14
0x410841:	ret	
F 0x425c23
0x41dc78:	pop	rbx
0x41dc7a:	pop	rbp
0x41dc7b:	pop	r12
0x41dc7d:	pop	r13
0x41dc7f:	pop	r14
0x41dc81:	pop	r15
0x41dc83:	ret	
F 0x4122e7
0x4122e7:	sal	byte ptr [rsi + rdx + 0x48], 0x8b
0x4122ec:	add	eax, 0x26ef7
0x4122f1:	add	rsp, 0x18
0x4122f5:	ret	
F 0x424da6
0x40f578:	pop	rsi
0x40f579:	pop	r15
0x40f57b:	ret	
F 0x418112
0x41593f:	add	rsp, 0x98
0x415946:	pop	rbx
0x415947:	pop	rbp
0x415948:	pop	r12
0x41594a:	pop	r13
0x41594c:	pop	r14
0x41594e:	pop	r15
0x415950:	ret	
F 0x41fc30
0x41175b:	pop	rbx
0x41175c:	pop	rbp
0x41175d:	pop	r12
0x41175f:	ret	
F 0x411a28
0x410d19:	sub	byte ptr [rbx + 0x5d], bl
0x410d1c:	pop	r12
0x410d1e:	pop	r13
0x410d20:	ret	
F 0x420b4c
0x40d016:	ret	
F 0x415417
0x41175b:	pop	rbx
0x41175c:	pop	rbp
0x41175d:	pop	r12
0x41175f:	ret	
F 0x4152c9
0x40d016:	ret	
F 0x40ee5c
0x40ee5c:	sal	byte ptr [rcx + rcx - 1], 0xe0
0x40ee61:	nop	dword ptr [rax]
0x40ee68:	ret	
F 0x41add7
0x40d016:	ret	
F 0x410ee0
0x40f630:	add	al, byte ptr [rax]
0x40f632:	add	rsp, 0x10
0x40f636:	pop	rbp
0x40f637:	ret	
F 0x41a664
0x41a664:	clc	
0x41a665:	xor	bh, bh
0x41a667:	dec	dword ptr [rax - 0x77]
0x41a66a:	ret	
F 0x426b47
0x40f446:	pop	r12
0x40f448:	pop	r13
0x40f44a:	ret	
F 0x413856
0x40f57a:	pop	rdi
0x40f57b:	ret	
F 0x41da67
0x40d016:	ret	
F 0x4246f3
0x40d016:	ret	
F 0x41b680
0x40d016:	ret	
F 0x40f62d
0x40f62d:	add	eax, 0x29a7e
0x40f632:	add	rsp, 0x10
0x40f636:	pop	rbp
0x40f637:	ret	
F 0x422caf
0x41083d:	pop	r13
0x41083f:	pop	r14
0x410841:	ret	
F 0x41bf13
0x41bf13:	add	dword ptr [rax], eax
0x41bf15:	pop	r12
0x41bf17:	ret	
F 0x40f78d
0x40f78d:	sub	bl, al
0x40f78f:	nop	
0x40f790:	ret	
F 0x411414
0x411414:	add	eax, 0x27cc7
0x411419:	add	rsp, 0x10
0x41141d:	pop	rbp
0x41141e:	ret	
F 0x424df9
0x40d016:	ret	
F 0x41cde4
0x40d016:	ret	
F 0x413209
0x413209:	xor	eax, eax
0x41320b:	pop	rbx
0x41320c:	pop	rbp
0x41320d:	ret	
F 0x40f3ef
0x40d016:	ret	
F 0x413adb
0x413adb:	add	byte ptr [rax], al
0x413add:	add	byte ptr [rbp + 0x3d], dh
0x413ae0:	add	rsp, 0x20
0x413ae4:	pop	rbx
0x413ae5:	pop	rbp
0x413ae6:	pop	r12
0x413ae8:	ret	
F 0x41993d
0x41053a:	pop	rbp
0x41053b:	pop	r12
0x41053d:	ret	
F 0x41c46e
0x40d016:	ret	
F 0x419bc3
0x419bc3:	dec	dword ptr [rax - 0x75]
0x419bc6:	add	eax, 0x1f6ed
0x419bcb:	add	rsp, 0x18
0x419bcf:	ret	
F 0x4132cd
0x4132cd:	add	byte ptr [rax], al
0x4132cf:	add	byte ptr [rbp + 0x2f], dh
0x4132d2:	add	rsp, 0x78
0x4132d6:	pop	rbx
0x4132d7:	pop	rbp
0x4132d8:	pop	r12
0x4132da:	pop	r13
0x4132dc:	pop	r14
0x4132de:	pop	r15
0x4132e0:	ret	
F 0x41315d
0x40d016:	ret	
F 0x42602d
0x40f577:	pop	r14
0x40f579:	pop	r15
0x40f57b:	ret	
F 0x41d1dc
0x40d016:	ret	
F 0x419969
0x419939:	or	byte ptr [rcx + rcx*4 - 0x20], cl
0x41993d:	pop	rbp
0x41993e:	pop	r12
0x419940:	ret	
F 0x41f807
0x40eedf:	pop	rbp
0x40eee0:	ret	
F 0x40eea0
0x40ee5f:	jmp	rax
F 0x4143b2
0x410840:	pop	rsi
0x410841:	ret	
F 0x41a34c
0x40f446:	pop	r12
0x40f448:	pop	r13
0x40f44a:	ret	
F 0x415410
0x415410:	add	byte ptr [rbp + 9], dh
0x415413:	add	rsp, 0x50
0x415417:	pop	rbx
0x415418:	pop	rbp
0x415419:	pop	r12
0x41541b:	ret	
F 0x4196b6
0x40f446:	pop	r12
0x40f448:	pop	r13
0x40f44a:	ret	
F 0x41179b
0x41053a:	pop	rbp
0x41053b:	pop	r12
0x41053d:	ret	
F 0x418ff0
0x418ff0:	mov	dword ptr [rax + 0x30], ebp
0x418ff3:	add	rsp, 8
0x418ff7:	pop	rbx
0x418ff8:	pop	rbp
0x418ff9:	ret	
F 0x40f691
0x40f691:	dec	dword ptr [rax - 0x75]
0x40f694:	add	eax, 0x29a17
0x40f699:	add	rsp, 0x10
0x40f69d:	pop	rbp
0x40f69e:	ret	
F 0x412466
0x412466:	mov	al, 0xff
0x412468:	dec	dword ptr [rax - 0x77]
0x41246b:	ret	
F 0x41f5d5
0x40eea5:	add	byte ptr [rax], r8b
0x40eea8:	ret	
F 0x410b0d
0x410b0d:	add	eax, 0x285e6
0x410b12:	add	rsp, 0x10
0x410b16:	pop	rbp
0x410b17:	ret	
F 0x41abf9
0x40d012:	add	rsp, 8
0x40d016:	ret	
F 0x411689
0x411689:	mov	qword ptr [rdx], rax
0x41168c:	xor	eax, eax
0x41168e:	ret	
F 0x418a89
0x418a89:	add	byte ptr [rax], al
0x418a8b:	mov	rax, r12
0x418a8e:	pop	rbp
0x418a8f:	pop	r12
0x418a91:	ret	
F 0x40f773
0x40f773:	mov	ecx, 0x48000299
0x40f778:	add	eax, edi
0x40f77a:	mov	qword ptr [rdi + 0x28], rax
0x40f77e:	ret	
F 0x426624
0x426624:	or	byte ptr [rax - 0x7b], cl
0x426627:	sal	byte ptr [rsi + rdx + 0x48], 0x8b
0x42662c:	add	eax, 0x12df7
0x426631:	add	rsp, 0x18
0x426635:	ret	
F 0x40f77c
0x40f77c:	sub	r11b, r8b
0x40f77f:	nop	
0x40f780:	movsxd	rax, dword ptr [rip + 0x29999]
0x40f787:	add	rax, rdi
0x40f78a:	mov	qword ptr [rdi + 0x28], rax
0x40f78e:	ret	
F 0x413d4f
0x413d4f:	ret	0x9be8
F 0x416e1e
0x416e1e:	add	byte ptr [rax], al
0x416e20:	add	rsp, 8
0x416e24:	pop	rbp
0x416e25:	pop	r12
0x416e27:	ret	
F 0x424da5
0x40f577:	pop	r14
0x40f579:	pop	r15
0x40f57b:	ret	
F 0x41d3fc
0x41d3fc:	seta	al
0x41d3ff:	add	rsp, 8
0x41d403:	movzx	eax, al
0x41d406:	ret	
F 0x41f8be
0x40d016:	ret	
F 0x416059
0x410840:	pop	rsi
0x410841:	ret	
F 0x41256f
0x40f576:	pop	rbp
0x40f577:	pop	r14
0x40f579:	pop	r15
0x40f57b:	ret	
F 0x41d569
0x41d569:	adc	bh, bh
0x41d56b:	dec	dword ptr [rax - 0x75]
0x41d56e:	add	eax, 0x1bded
0x41d573:	add	rsp, 0x18
0x41d577:	ret	
F 0x412c33
0x40f57a:	pop	rdi
0x40f57b:	ret	
F 0x413a27
0x413a27:	and	al, 0xe8
0x413a29:	ret	
F 0x415418
0x41053a:	pop	rbp
0x41053b:	pop	r12
0x41053d:	ret	
F 0x412499
0x412499:	or	byte ptr [rbx + 0x5d], bl
0x41249c:	ret	
F 0x41a350
0x40d016:	ret	
F 0x41a344
0x41a344:	mov	eax, 0x4cffff2e
0x41a349:	mov	eax, esp
0x41a34b:	pop	rbp
0x41a34c:	pop	r12
0x41a34e:	pop	r13
0x41a350:	ret	
F 0x42460f
0x40f577:	pop	r14
0x40f579:	pop	r15
0x40f57b:	ret	
F 0x42667e
0x419b8f:	add	dword ptr [rax], eax
0x419b91:	add	rsp, 0x18
0x419b95:	ret	
F 0x415a1d
0x415a1d:	add	eax, 0x2380e
0x415a22:	add	rsp, 0x10
0x415a26:	pop	rbp
0x415a27:	ret	
F 0x418789
0x40f577:	pop	r14
0x40f579:	pop	r15
0x40f57b:	ret	
F 0x416e1c
0x416e1c:	add	byte ptr [rax], al
0x416e1e:	add	byte ptr [rax], al
0x416e20:	add	rsp, 8
0x416e24:	pop	rbp
0x416e25:	pop	r12
0x416e27:	ret	
F 0x415a7f
0x415a7f:	mov	edi, edi
0x415a81:	dec	dword ptr [rax - 0x75]
0x415a84:	add	eax, 0x237a7
0x415a89:	add	rsp, 0x10
0x415a8d:	pop	rbp
0x415a8e:	ret	
F 0x416b60
0x40f575:	pop	r13
0x40f577:	pop	r14
0x40f579:	pop	r15
0x40f57b:	ret	
F 0x41c665
0x41c665:	or	edi, edi
0x41c667:	dec	dword ptr [rcx + rcx*4 - 0x20]
0x41c66b:	pop	rbp
0x41c66c:	pop	r12
0x41c66e:	pop	r13
0x41c670:	ret	
F 0x413ae4
0x41175b:	pop	rbx
0x41175c:	pop	rbp
0x41175d:	pop	r12
0x41175f:	ret	
F 0x4116ce
0x40d016:	ret	
F 0x4132d7
0x40f572:	pop	rbp
0x40f573:	pop	r12
0x40f575:	pop	r13
0x40f577:	pop	r14
0x40f579:	pop	r15
0x40f57b:	ret	
F 0x413add
0x413add:	add	byte ptr [rbp + 0x3d], dh
0x413ae0:	add	rsp, 0x20
0x413ae4:	pop	rbx
0x413ae5:	pop	rbp
0x413ae6:	pop	r12
0x413ae8:	ret	
F 0x4130fa
0x4130fa:	xor	eax, eax
0x4130fc:	pop	rbx
0x4130fd:	pop	rbp
0x4130fe:	pop	r12
0x413100:	pop	r13
0x413102:	ret	
F 0x4115eb
0x4115eb:	nop	dword ptr [rax + rax]
0x4115f0:	mov	qword ptr [rdi + 8], 0
0x4115f8:	ret	
F 0x41bf36
0x41bf36:	adc	eax, 0x8948ffff
0x41bf3b:	ret	
F 0x41a349
0x41a30e:	mov	eax, esp
0x41a310:	pop	rbp
0x41a311:	pop	r12
0x41a313:	pop	r13
0x41a315:	ret	
F 0x41b0c7
0x40d016:	ret	
F 0x4187f7
0x4115f7:	add	bl, al
0x4115f9:	nop	dword ptr [rax]
0x411600:	mov	rax, qword ptr [rdi + 8]
0x411604:	ret	
F 0x418123
0x40d016:	ret	
F 0x41e5dc
0x411ef6:	mov	byte ptr [rcx], al
0x411ef8:	add	byte ptr [rax], al
0x411efa:	pop	rbx
0x411efb:	pop	rbp
0x411efc:	pop	r12
0x411efe:	pop	r13
0x411f00:	pop	r14
0x411f02:	pop	r15
0x411f04:	ret	
F 0x4218fb
0x4218fb:	dec	dword ptr [rax - 0x75]
0x4218fe:	add	eax, 0x17afd
0x421903:	add	rsp, 0x18
0x421907:	ret	
F 0x41128a
0x41128a:	add	byte ptr [r8 - 0x75], r9b
0x41128e:	cmp	al, ch
0x411290:	lodsb	al, byte ptr [rsi]
0x411291:	ret	
F 0x41f35c
0x41d402:	or	byte ptr [rdi], cl
0x41d404:	mov	dh, 0xc0
0x41d406:	ret	
F 0x4116a7
0x41168c:	xor	eax, eax
0x41168e:	ret	
F 0x4117b6
0x4117b6:	add	byte ptr [rax], al
0x4117b8:	mov	qword ptr [rsi + 8], 0
0x4117c0:	ret	
F 0x41b2bc
0x40f573:	pop	r12
0x40f575:	pop	r13
0x40f577:	pop	r14
0x40f579:	pop	r15
0x40f57b:	ret	
F 0x426ba3
0x40f572:	pop	rbp
0x40f573:	pop	r12
0x40f575:	pop	r13
0x40f577:	pop	r14
0x40f579:	pop	r15
0x40f57b:	ret	
F 0x412e69
0x412ce9:	add	byte ptr [rbp + 0x37], dh
0x412cec:	add	rsp, 0x38
0x412cf0:	pop	rbx
0x412cf1:	pop	rbp
0x412cf2:	ret	
F 0x4264d3
0x4180e3:	or	byte ptr [rax - 0x7d], cl
0x4180e6:	ret	
F 0x423ba8
0x40d016:	ret	
F 0x41415f
0x41415f:	pop	rdx
0x414160:	add	rsp, 0x28
0x414164:	pop	rbp
0x414165:	pop	r12
0x414167:	pop	r13
0x414169:	pop	r14
0x41416b:	ret	
F 0x416fce
0x40f578:	pop	rsi
0x40f579:	pop	r15
0x40f57b:	ret	
F 0x40f769
0x40ef19:	clc	
0x40ef1a:	mov	qword ptr [rdi + 0x28], rax
0x40ef1e:	ret	
F 0x410c56
0x41083b:	pop	r12
0x41083d:	pop	r13
0x41083f:	pop	r14
0x410841:	ret	
F 0x411755
0x411755:	xor	eax, eax
0x411757:	mov	qword ptr [rbx + 8], rbp
0x41175b:	pop	rbx
0x41175c:	pop	rbp
0x41175d:	pop	r12
0x41175f:	ret	
F 0x41bf11
0x41bf11:	not	ebx
0x41bf13:	add	dword ptr [rax], eax
0x41bf15:	pop	r12
0x41bf17:	ret	
F 0x4224f5
0x40d016:	ret	
F 0x40f379
0x40f379:	ret	0x31e8
F 0x420c57
0x40eff3:	xor	eax, eax
0x40eff5:	add	rsp, 8
0x40eff9:	ret	
F 0x41811f
0x40f577:	pop	r14
0x40f579:	pop	r15
0x40f57b:	ret	
F 0x424535
0x40f6d0:	xor	eax, eax
0x40f6d2:	pop	rbp
0x40f6d3:	ret	
F 0x4180e6
0x40d016:	ret	
F 0x419b91
0x4111e1:	add	rsp, 0x18
0x4111e5:	ret	
F 0x417c60
0x40d016:	ret	
F 0x410f47
0x40f630:	add	al, byte ptr [rax]
0x40f632:	add	rsp, 0x10
0x40f636:	pop	rbp
0x40f637:	ret	
F 0x419717
0x40d016:	ret	
F 0x420477
0x420477:	sal	byte ptr [rsi + rdx + 0x48], 0x8b
0x42047c:	add	eax, 0x18f17
0x420481:	add	rsp, 0x18
0x420485:	ret	
F 0x41982f
0x40eedf:	pop	rbp
0x40eee0:	ret	
F 0x42460e
0x40f576:	pop	rbp
0x40f577:	pop	r14
0x40f579:	pop	r15
0x40f57b:	ret	
F 0x4223f8
0x4223f8:	sal	byte ptr [rbp + rdx + 0x48], 0x8b
0x4223fd:	add	eax, 0x16ff6
0x422402:	add	rsp, 0x10
0x422406:	pop	rbp
0x422407:	ret	
F 0x425963
0x425963:	sbb	byte ptr [rcx + rcx*4 - 0x20], cl
0x425967:	pop	rbp
0x425968:	pop	r12
0x42596a:	pop	r13
0x42596c:	pop	r14
0x42596e:	ret	
F 0x421901
0x419b8f:	add	dword ptr [rax], eax
0x419b91:	add	rsp, 0x18
0x419b95:	ret	
F 0x41676d
0x40eea5:	add	byte ptr [rax], r8b
0x40eea8:	ret	
F 0x4196b3
0x40f443:	or	byte ptr [rbx + 0x5d], bl
0x40f446:	pop	r12
0x40f448:	pop	r13
0x40f44a:	ret	
F 0x4163ae
0x40f443:	or	byte ptr [rbx + 0x5d], bl
0x40f446:	pop	r12
0x40f448:	pop	r13
0x40f44a:	ret	
F 0x418ead
0x4117ad:	add	dword ptr [rax - 0x77], ecx
0x4117b0:	or	bl, r8b
0x4117b3:	nop	dword ptr [rax + rax]
0x4117b8:	mov	qword ptr [rsi + 8], 0
0x4117c0:	ret	
F 0x40f7a6
0x40ef16:	add	byte ptr [rax + 1], cl
0x40ef19:	clc	
0x40ef1a:	mov	qword ptr [rdi + 0x28], rax
0x40ef1e:	ret	
F 0x41f99c
0x41053a:	pop	rbp
0x41053b:	pop	r12
0x41053d:	ret	
F 0x418d8a
0x41168a:	mov	dword ptr [rdx], eax
0x41168c:	xor	eax, eax
0x41168e:	ret	
F 0x415eba
0x41083a:	pop	rbp
0x41083b:	pop	r12
0x41083d:	pop	r13
0x41083f:	pop	r14
0x410841:	ret	
F 0x41320b
0x41249a:	pop	rbx
0x41249b:	pop	rbp
0x41249c:	ret	
F 0x41cbfc
0x4180e3:	or	byte ptr [rax - 0x7d], cl
0x4180e6:	ret	
F 0x41140c
0x41140c:	add	al, ch
0x41140e:	scasb	al, byte ptr [rdi]
0x41140f:	sar	edi, 1
0x411411:	dec	dword ptr [rax - 0x75]
0x411414:	add	eax, 0x27cc7
0x411419:	add	rsp, 0x10
0x41141d:	pop	rbp
0x41141e:	ret	
F 0x41c3a7
0x40d016:	ret	
F 0x4123a8
0x41083f:	pop	r14
0x410841:	ret	
F 0x41a311
0x40f446:	pop	r12
0x40f448:	pop	r13
0x40f44a:	ret	
F 0x412f29
0x40d012:	add	rsp, 8
0x40d016:	ret	
F 0x41ad5a
0x41ad5a:	push	rax
0x41ad5c:	ret	
F 0x421486
0x41083d:	pop	r13
0x41083f:	pop	r14
0x410841:	ret	
F 0x418c8b
0x418c8b:	mov	dword ptr [rax + 0x90], edx
0x418c91:	pop	rbp
0x418c92:	ret	
F 0x418d97
0x411697:	nop	word ptr [rax + rax]
0x4116a0:	mov	qword ptr [rdx], 0
0x4116a7:	xor	eax, eax
0x4116a9:	ret	
F 0x414164
0x41083a:	pop	rbp
0x41083b:	pop	r12
0x41083d:	pop	r13
0x41083f:	pop	r14
0x410841:	ret	
F 0x4190cf
0x4190cf:	mov	qword ptr [rax + 0x40], rbp
0x4190d3:	add	rsp, 8
0x4190d7:	pop	rbx
0x4190d8:	pop	rbp
0x4190d9:	ret	
F 0x4143a9
0x4143a9:	xor	eax, eax
0x4143ab:	pop	rbx
0x4143ac:	pop	rbp
0x4143ad:	pop	r12
0x4143af:	pop	r13
0x4143b1:	pop	r14
0x4143b3:	ret	
F 0x413dc8
0x40f571:	pop	rbx
0x40f572:	pop	rbp
0x40f573:	pop	r12
0x40f575:	pop	r13
0x40f577:	pop	r14
0x40f579:	pop	r15
0x40f57b:	ret	
F 0x416999
0x411798:	xor	eax, eax
0x41179a:	pop	rbx
0x41179b:	pop	rbp
0x41179c:	pop	r12
0x41179e:	ret	
F 0x417056
0x40eedf:	pop	rbp
0x40eee0:	ret	
F 0x420539
0x4111e1:	add	rsp, 0x18
0x4111e5:	ret	
F 0x410198
0x40f578:	pop	rsi
0x40f579:	pop	r15
0x40f57b:	ret	
F 0x41bf0e
0x41bf0e:	pop	rbp
0x41bf0f:	mov	dword ptr [rip + 0x1d3f7], eax
0x41bf15:	pop	r12
0x41bf17:	ret	
F 0x410195
0x40f575:	pop	r13
0x40f577:	pop	r14
0x40f579:	pop	r15
0x40f57b:	ret	
F 0x4163b5
0x40d016:	ret	
F 0x41b731
0x41b731:	dec	dword ptr [rax - 0x75]
0x41b734:	add	eax, 0x1dbaf
0x41b739:	add	rsp, 0x10
0x41b73d:	pop	rbp
0x41b73e:	ret	
F 0x411bcd
0x40f445:	pop	rbp
0x40f446:	pop	r12
0x40f448:	pop	r13
0x40f44a:	ret	
F 0x41680d
0x40eea5:	add	byte ptr [rax], r8b
0x40eea8:	ret	
F 0x41c00c
0x40d016:	ret	
F 0x418d8e
0x40d016:	ret	
F 0x4187e2
0x4187e2:	lea	eax, [rip + 0x58]
0x4187e8:	mov	qword ptr [rdi + 0x28], rax
0x4187ec:	ret	
F 0x412440
0x412440:	mov	rax, qword ptr [rbx + 8]
0x412444:	pop	rbx
0x412445:	ret	
F 0x41e14f
0x40f578:	pop	rsi
0x40f579:	pop	r15
0x40f57b:	ret	
F 0x412441
0x412441:	mov	eax, dword ptr [rbx + 8]
0x412444:	pop	rbx
0x412445:	ret	
F 0x41f799
0x41175b:	pop	rbx
0x41175c:	pop	rbp
0x41175d:	pop	r12
0x41175f:	ret	
F 0x41694e
0x41175b:	pop	rbx
0x41175c:	pop	rbp
0x41175d:	pop	r12
0x41175f:	ret	
F 0x41b6d7
0x40d016:	ret	
F 0x4187e7
0x4187e7:	add	byte ptr [rax - 0x77], cl
0x4187ea:	sub	r11b, r8b
0x4187ed:	nop	dword ptr [rax]
0x4187f0:	mov	qword ptr [rdi + 8], 0
0x4187f8:	ret	
F 0x410b69
0x40d016:	ret	
F 0x4223ae
0x40d016:	ret	
F 0x4130fd
0x40f445:	pop	rbp
0x40f446:	pop	r12
0x40f448:	pop	r13
0x40f44a:	ret	
F 0x41b67b
0x40f445:	pop	rbp
0x40f446:	pop	r12
0x40f448:	pop	r13
0x40f44a:	ret	
F 0x41267c
0x40f578:	pop	rsi
0x40f579:	pop	r15
0x40f57b:	ret	
F 0x4117bc
0x40ee64:	add	byte ptr [rax], al
0x40ee66:	add	byte ptr [rax], al
0x40ee68:	ret	
F 0x41d3fe
0x41d3fe:	ror	byte ptr [rax - 0x7d], 0xc4
0x41d402:	or	byte ptr [rdi], cl
0x41d404:	mov	dh, 0xc0
0x41d406:	ret	
F 0x410c5a
0x41083f:	pop	r14
0x410841:	ret	
F 0x418da3
0x4116a3:	add	byte ptr [rax], al
0x4116a5:	add	byte ptr [rax], al
0x4116a7:	xor	eax, eax
0x4116a9:	ret	
F 0x424950
0x416b58:	add	rsp, 0x18
0x416b5c:	pop	rbx
0x416b5d:	pop	rbp
0x416b5e:	pop	r12
0x416b60:	pop	r13
0x416b62:	pop	r14
0x416b64:	pop	r15
0x416b66:	ret	
F 0x4215fc
0x4215fc:	cmp	byte ptr [rbx + 0x5d], bl
0x4215ff:	pop	r12
0x421601:	pop	r13
0x421603:	ret	
F 0x41c2ad
0x40d016:	ret	
F 0x4187e6
0x4187e6:	add	byte ptr [rax], al
0x4187e8:	mov	qword ptr [rdi + 0x28], rax
0x4187ec:	ret	
F 0x42037c
0x41083b:	pop	r12
0x41083d:	pop	r13
0x41083f:	pop	r14
0x410841:	ret	
F 0x41a0e5
0x40d016:	ret	
F 0x418e58
0x411758:	mov	dword ptr [rbx + 8], ebp
0x41175b:	pop	rbx
0x41175c:	pop	rbp
0x41175d:	pop	r12
0x41175f:	ret	
F 0x40ee59
0x40ee59:	add	byte ptr [rax - 0x7b], cl
0x40ee5c:	sal	byte ptr [rcx + rcx - 1], 0xe0
0x40ee61:	nop	dword ptr [rax]
0x40ee68:	ret	
F 0x41ad37
0x41ad37:	leave	
0x41ad38:	ret	0
F 0x41c003
0x410838:	and	byte ptr [rbx + 0x5d], bl
0x41083b:	pop	r12
0x41083d:	pop	r13
0x41083f:	pop	r14
0x410841:	ret	
F 0x40f2ce
0x40f287:	add	byte ptr [rax], al
0x40f289:	add	byte ptr [rax - 0x77], cl
0x40f28c:	ret	
F 0x418d8c
0x41168c:	xor	eax, eax
0x41168e:	ret	
F 0x4131a8
0x412499:	or	byte ptr [rbx + 0x5d], bl
0x41249c:	ret	
F 0x41fa7a
0x40eea2:	nop	word ptr [rax + rax]
0x40eea8:	ret	
F 0x41c627
0x41a30c:	dec	dword ptr [rcx + rcx*4 - 0x20]
0x41a310:	pop	rbp
0x41a311:	pop	r12
0x41a313:	pop	r13
0x41a315:	ret	
F 0x41440d
0x40f579:	pop	r15
0x40f57b:	ret	
F 0x426678
0x426678:	dec	dword ptr [rax - 0x75]
0x42667b:	add	eax, 0x12da8
0x426680:	add	rsp, 0x18
0x426684:	ret	
F 0x418f0f
0x418f0f:	mov	qword ptr [rax + 8], rbp
0x418f13:	add	rsp, 8
0x418f17:	pop	rbx
0x418f18:	pop	rbp
0x418f19:	ret	
F 0x41b0eb
0x40d016:	ret	
F 0x425c1d
0x425c1d:	add	byte ptr [rbp + 0x57], dh
0x425c20:	add	rsp, 0x48
0x425c24:	pop	rbx
0x425c25:	pop	rbp
0x425c26:	pop	r12
0x425c28:	pop	r13
0x425c2a:	pop	r14
0x425c2c:	pop	r15
0x425c2e:	ret	
F 0x41dd58
0x40dc57:	ret	0
F 0x41e5e6
0x40f577:	pop	r14
0x40f579:	pop	r15
0x40f57b:	ret	
F 0x415a1b
0x415a1b:	mov	rax, qword ptr [rip + 0x2380e]
0x415a22:	add	rsp, 0x10
0x415a26:	pop	rbp
0x415a27:	ret	
F 0x418f86
0x412499:	or	byte ptr [rbx + 0x5d], bl
0x41249c:	ret	
F 0x4197dc
0x4197dc:	dec	dword ptr [rax - 0x75]
0x4197df:	add	eax, 0x1fadc
0x4197e4:	add	rsp, 0x10
0x4197e8:	pop	rbp
0x4197e9:	ret	
F 0x4126b8
0x40d016:	ret	
F 0x4106bc
0x4106bc:	mov	eax, dword ptr [rip + 0x28a3e]
0x4106c2:	add	rsp, 0x10
0x4106c6:	pop	rbp
0x4106c7:	ret	
F 0x417599
0x40f576:	pop	rbp
0x40f577:	pop	r14
0x40f579:	pop	r15
0x40f57b:	ret	
F 0x420c27
0x40eff3:	xor	eax, eax
0x40eff5:	add	rsp, 8
0x40eff9:	ret	
F 0x418eaf
0x4117af:	mov	dword ptr [rsi + 8], eax
0x4117b2:	ret	
F 0x41a7f8
0x418a8c:	mov	eax, esp
0x418a8e:	pop	rbp
0x418a8f:	pop	r12
0x418a91:	ret	
F 0x424959
0x40f576:	pop	rbp
0x40f577:	pop	r14
0x40f579:	pop	r15
0x40f57b:	ret	
F 0x421c7e
0x421c7e:	ret	0x6f8
F 0x423ba2
0x41083b:	pop	r12
0x41083d:	pop	r13
0x41083f:	pop	r14
0x410841:	ret	
F 0x42077c
0x40f577:	pop	r14
0x40f579:	pop	r15
0x40f57b:	ret	
F 0x40eee1
0x40ee61:	nop	dword ptr [rax]
0x40ee68:	ret	
F 0x4170b9
0x40f632:	add	rsp, 0x10
0x40f636:	pop	rbp
0x40f637:	ret	
F 0x4152c3
0x41083b:	pop	r12
0x41083d:	pop	r13
0x41083f:	pop	r14
0x410841:	ret	
F 0x41ae45
0x40eedf:	pop	rbp
0x40eee0:	ret	
F 0x4262a1
0x40f575:	pop	r13
0x40f577:	pop	r14
0x40f579:	pop	r15
0x40f57b:	ret	
F 0x417df1
0x40f575:	pop	r13
0x40f577:	pop	r14
0x40f579:	pop	r15
0x40f57b:	ret	
F 0x425265
0x40f576:	pop	rbp
0x40f577:	pop	r14
0x40f579:	pop	r15
0x40f57b:	ret	
F 0x41acb3
0x41acb3:	and	rax, 0xffffffffc031ffff
0x41acb9:	add	rsp, 8
0x41acbd:	ret	
F 0x4223c0
0x40d016:	ret	
F 0x419aa9
0x419a71:	add	byte ptr [rcx + rcx*4 - 0x40], al
0x419a75:	pop	rbp
0x419a76:	pop	r12
0x419a78:	ret	
F 0x420f7e
0x40d016:	ret	
F 0x413364
0x40d016:	ret	
F 0x411cd1
0x411cd1:	stosd	dword ptr [rdi], eax
0x411cd2:	ret	
F 0x40f3a8
0x40d016:	ret	
F 0x41e147
0x411ef9:	add	byte ptr [rbx + 0x5d], bl
0x411efc:	pop	r12
0x411efe:	pop	r13
0x411f00:	pop	r14
0x411f02:	pop	r15
0x411f04:	ret	
F 0x41759b
0x40f578:	pop	rsi
0x40f579:	pop	r15
0x40f57b:	ret	
F 0x413999
0x413999:	mov	rax, qword ptr [rax + 0x38]
0x41399d:	ret	
F 0x41cf50
0x419710:	add	dword ptr [rax], eax
0x419712:	add	rsp, 0x10
0x419716:	pop	rbp
0x419717:	ret	
F 0x422a09
0x422a09:	mov	qword ptr [rax + 0xe8], 0
0x422a14:	pop	rbx
0x422a15:	ret	
F 0x419bc4
0x419bc4:	mov	rax, qword ptr [rip + 0x1f6ed]
0x419bcb:	add	rsp, 0x18
0x419bcf:	ret	
F 0x4187f5
0x4115f5:	add	byte ptr [rax], al
0x4115f7:	add	bl, al
0x4115f9:	nop	dword ptr [rax]
0x411600:	mov	rax, qword ptr [rdi + 8]
0x411604:	ret	
F 0x41878a
0x40f578:	pop	rsi
0x40f579:	pop	r15
0x40f57b:	ret	
F 0x41c00b
0x410840:	pop	rsi
0x410841:	ret	
F 0x41dc7a
0x40f572:	pop	rbp
0x40f573:	pop	r12
0x40f575:	pop	r13
0x40f577:	pop	r14
0x40f579:	pop	r15
0x40f57b:	ret	
F 0x41bd4b
0x41bd4b:	mov	rax, qword ptr [rip + 0x1d58e]
0x41bd52:	add	rsp, 0x10
0x41bd56:	pop	rbp
0x41bd57:	ret	
F 0x41f08c
0x40f600:	mov	eax, esp
0x40f602:	pop	r12
0x40f604:	ret	
F 0x4250f4
0x40f445:	pop	rbp
0x40f446:	pop	r12
0x40f448:	pop	r13
0x40f44a:	ret	
F 0x41a4f9
0x40f56f:	mov	eax, esp
0x40f571:	pop	rbx
0x40f572:	pop	rbp
0x40f573:	pop	r12
0x40f575:	pop	r13
0x40f577:	pop	r14
0x40f579:	pop	r15
0x40f57b:	ret	
F 0x41243a
0x40d016:	ret	
F 0x411ef1
0x411ef1:	add	byte ptr [rax], al
0x411ef3:	add	rsp, 0x188
0x411efa:	pop	rbx
0x411efb:	pop	rbp
0x411efc:	pop	r12
0x411efe:	pop	r13
0x411f00:	pop	r14
0x411f02:	pop	r15
0x411f04:	ret	
F 0x4198df
0x40eedf:	pop	rbp
0x40eee0:	ret	
F 0x41fc2d
0x41c2a6:	add	byte ptr [rax], al
0x41c2a8:	add	byte ptr [rbx + 0x5d], bl
0x41c2ab:	pop	r12
0x41c2ad:	ret	
F 0x4217fa
0x4217fa:	add	al, 0x5b
0x4217fc:	ret	
F 0x421850
0x41168c:	xor	eax, eax
0x41168e:	ret	
F 0x40eea3
0x40eea3:	nop	dword ptr [rax + rax]
0x40eea8:	ret	
F 0x40eede
0x40eede:	add	dword ptr [rbp - 0x3d], ebx
0x40eee1:	nop	dword ptr [rax]
0x40eee8:	ret	
F 0x422aff
0x422aff:	ret	0x8d48
F 0x424519
0x40eedf:	pop	rbp
0x40eee0:	ret	
F 0x414da0
0x41053a:	pop	rbp
0x41053b:	pop	r12
0x41053d:	ret	
F 0x413c75
0x41083b:	pop	r12
0x41083d:	pop	r13
0x41083f:	pop	r14
0x410841:	ret	
F 0x414dc9
0x40d016:	ret	
F 0x41adc5
0x41adc5:	or	byte ptr [rax - 0x7b], cl
0x41adc8:	sal	byte ptr [rbp + rdx + 0x48], 0x8b
0x41adcd:	add	eax, 0x1e4de
0x41add2:	add	rsp, 0x10
0x41add6:	pop	rbp
0x41add7:	ret	
F 0x410935
0x41083f:	pop	r14
0x410841:	ret	
F 0x421873
0x40d012:	add	rsp, 8
0x40d016:	ret	
F 0x4181b5
0x4181b5:	or	byte ptr [rax - 0x7b], cl
0x4181b8:	sal	byte ptr [rbp + rdx + 0x48], 0x8b
0x4181bd:	add	eax, 0x210ae
0x4181c2:	add	rsp, 0x10
0x4181c6:	pop	rbp
0x4181c7:	ret	
F 0x41d2fc
0x40d012:	add	rsp, 8
0x40d016:	ret	
F 0x41b448
0x41b448:	add	eax, edi
0x41b44a:	mov	qword ptr [rdi + 0x30], rax
0x41b44e:	ret	
F 0x414d9c
0x414d9c:	add	rsp, 0x38
0x414da0:	pop	rbp
0x414da1:	pop	r12
0x414da3:	ret	
F 0x412f2d
0x40d016:	ret	
F 0x4216f7
0x41b447:	add	rax, rdi
0x41b44a:	mov	qword ptr [rdi + 0x30], rax
0x41b44e:	ret	
F 0x418d27
0x40d016:	ret	
F 0x411bd0
0x40f448:	pop	r13
0x40f44a:	ret	
F 0x40fb06
0x40f573:	pop	r12
0x40f575:	pop	r13
0x40f577:	pop	r14
0x40f579:	pop	r15
0x40f57b:	ret	
F 0x41c69b
0x41c69b:	mov	rax, qword ptr [rip + 0x1cc8e]
0x41c6a2:	add	rsp, 0x10
0x41c6a6:	pop	rbp
0x41c6a7:	ret	
F 0x4111e1
0x4111e1:	add	rsp, 0x18
0x4111e5:	ret	
F 0x41f5d6
0x40ee66:	add	byte ptr [rax], al
0x40ee68:	ret	
F 0x421477
0x421477:	add	byte ptr [rbx - 0x18], dl
0x42147a:	xchg	eax, edx
0x42147b:	sar	esi, 0xff
0x42147e:	add	rsp, 0x20
0x421482:	pop	rbx
0x421483:	pop	rbp
0x421484:	pop	r12
0x421486:	pop	r13
0x421488:	pop	r14
0x42148a:	ret	
F 0x414a8c
0x40f632:	add	rsp, 0x10
0x40f636:	pop	rbp
0x40f637:	ret	
F 0x40f56d
0x40f56d:	sub	byte ptr [rcx + rcx*4 - 0x20], cl
0x40f571:	pop	rbx
0x40f572:	pop	rbp
0x40f573:	pop	r12
0x40f575:	pop	r13
0x40f577:	pop	r14
0x40f579:	pop	r15
0x40f57b:	ret	
F 0x41758c
0x41758c:	add	byte ptr [rax], al
0x41758e:	add	byte ptr [rax], al
0x417590:	add	rsp, 8
0x417594:	pop	rbx
0x417595:	pop	rbp
0x417596:	pop	r12
0x417598:	pop	r13
0x41759a:	pop	r14
0x41759c:	pop	r15
0x41759e:	ret	
F 0x41b6cd
0x41b6cd:	add	eax, 0x1dc16
0x41b6d2:	add	rsp, 0x10
0x41b6d6:	pop	rbp
0x41b6d7:	ret	
F 0x418800
0x411600:	mov	rax, qword ptr [rdi + 8]
0x411604:	ret	
F 0x415ec1
0x40d016:	ret	
F 0x413101
0x40eedf:	pop	rbp
0x40eee0:	ret	
F 0x41fc2e
0x41c2a7:	add	byte ptr [rax], al
0x41c2a9:	pop	rbx
0x41c2aa:	pop	rbp
0x41c2ab:	pop	r12
0x41c2ad:	ret	
F 0x41178e
0x41178e:	add	byte ptr [rax], al
0x411790:	mov	qword ptr [rdi + 8], 0
0x411798:	xor	eax, eax
0x41179a:	pop	rbx
0x41179b:	pop	rbp
0x41179c:	pop	r12
0x41179e:	ret	
F 0x40f054
0x40f054:	push	qword ptr [rcx]
0x40f056:	ror	byte ptr [rax - 0x7d], 0xc4
0x40f05a:	or	bl, al
0x40f05c:	nop	dword ptr [rax]
0x40f060:	mov	eax, 0xffffffff
0x40f065:	jmp	0x40f03b
F 0x419a3c
0x414988:	rcr	byte ptr [rbp + 0x41], 0x5c
0x41498c:	ret	
F 0x41f78c
0x41c29c:	mov	qword ptr [rdi + rax*8], r12
0x41c2a0:	mov	qword ptr [rdi + rax*8 + 8], 0
0x41c2a9:	pop	rbx
0x41c2aa:	pop	rbp
0x41c2ab:	pop	r12
0x41c2ad:	ret	
F 0x420807
0x40d016:	ret	
F 0x41bf49
0x40d016:	ret	
F 0x41b734
0x41b734:	add	eax, 0x1dbaf
0x41b739:	add	rsp, 0x10
0x41b73d:	pop	rbp
0x41b73e:	ret	
F 0x414a91
0x40d016:	ret	
F 0x40f692
0x40f692:	mov	rax, qword ptr [rip + 0x29a17]
0x40f699:	add	rsp, 0x10
0x40f69d:	pop	rbp
0x40f69e:	ret	
F 0x425cc8
0x40eedf:	pop	rbp
0x40eee0:	ret	
F 0x41accd
0x40d016:	ret	
F 0x41d300
0x40d016:	ret	
F 0x4112df
0x410840:	pop	rsi
0x410841:	ret	
F 0x410190
0x410190:	push	0x5c415d5b
0x410195:	pop	r13
0x410197:	pop	r14
0x410199:	pop	r15
0x41019b:	ret	
F 0x423ba4
0x41083d:	pop	r13
0x41083f:	pop	r14
0x410841:	ret	
F 0x41d17b
0x41d17b:	mov	eax, esp
0x41d17d:	pop	rbp
0x41d17e:	pop	r12
0x41d180:	pop	r13
0x41d182:	pop	r14
0x41d184:	ret	
F 0x41d1c9
0x41d1c9:	mov	qword ptr [rip + 0x1c1a8], rax
0x41d1d0:	lea	rax, [rip + 0x3c9]
0x41d1d7:	mov	qword ptr [rbx + 8], rax
0x41d1db:	pop	rbx
0x41d1dc:	ret	
F 0x41cffb
0x40d016:	ret	
F 0x41300f
0x412faf:	add	eax, dword ptr [rax]
0x412fb1:	add	byte ptr [rbp + 0x5d0a75c0], al
0x412fb7:	ret	
F 0x415ebb
0x41083b:	pop	r12
0x41083d:	pop	r13
0x41083f:	pop	r14
0x410841:	ret	
F 0x4265df
0x4265df:	or	byte ptr [rcx + rcx*4 + 0x23], cl
0x4265e3:	mov	dword ptr [rbx + 8], eax
0x4265e6:	pop	rbx
0x4265e7:	pop	rbp
0x4265e8:	pop	r12
0x4265ea:	ret	
F 0x417595
0x40f572:	pop	rbp
0x40f573:	pop	r12
0x40f575:	pop	r13
0x40f577:	pop	r14
0x40f579:	pop	r15
0x40f57b:	ret	
F 0x41f34c
0x40d016:	ret	
F 0x410edb
0x410edb:	mov	rax, qword ptr [rip + 0x2820e]
0x410ee2:	add	rsp, 0x10
0x410ee6:	pop	rbp
0x410ee7:	ret	
F 0x422a10
0x422a10:	add	byte ptr [rax], al
0x422a12:	add	byte ptr [rax], al
0x422a14:	pop	rbx
0x422a15:	ret	
F 0x41996b
0x418a8c:	mov	eax, esp
0x418a8e:	pop	rbp
0x418a8f:	pop	r12
0x418a91:	ret	
F 0x418f89
0x40d016:	ret	
F 0x418787
0x40f575:	pop	r13
0x40f577:	pop	r14
0x40f579:	pop	r15
0x40f57b:	ret	
F 0x420554
0x420554:	or	byte ptr [rax - 0x7b], cl
0x420557:	sal	byte ptr [rsi + rdx + 0x48], 0x8b
0x42055c:	add	eax, 0x18e27
0x420561:	add	rsp, 0x18
0x420565:	ret	
F 0x420374
0x4143a5:	add	rsp, 0x10
0x4143a9:	xor	eax, eax
0x4143ab:	pop	rbx
0x4143ac:	pop	rbp
0x4143ad:	pop	r12
0x4143af:	pop	r13
0x4143b1:	pop	r14
0x4143b3:	ret	
F 0x41704c
0x41704c:	mov	eax, dword ptr [rip + 0x22226]
0x417052:	add	rsp, 0x10
0x417056:	pop	rbp
0x417057:	ret	
F 0x415eee
0x41083b:	pop	r12
0x41083d:	pop	r13
0x41083f:	pop	r14
0x410841:	ret	
F 0x411026
0x41083b:	pop	r12
0x41083d:	pop	r13
0x41083f:	pop	r14
0x410841:	ret	
F 0x42629f
0x40f573:	pop	r12
0x40f575:	pop	r13
0x40f577:	pop	r14
0x40f579:	pop	r15
0x40f57b:	ret	
F 0x41ac8d
0x40d016:	ret	
F 0x422356
0x40d016:	ret	
F 0x416847
0x416847:	mov	eax, eax
0x416849:	mov	eax, ebx
0x41684b:	sub	eax, r8d
0x41684e:	add	rsp, 8
0x416852:	pop	rbx
0x416853:	pop	rbp
0x416854:	ret	
F 0x40f03b
0x40d012:	add	rsp, 8
0x40d016:	ret	
F 0x41699b
0x41175b:	pop	rbx
0x41175c:	pop	rbp
0x41175d:	pop	r12
0x41175f:	ret	
F 0x416e1b
0x416e1b:	add	byte ptr [rax], 0
0x416e1e:	add	byte ptr [rax], al
0x416e20:	add	rsp, 8
0x416e24:	pop	rbp
0x416e25:	pop	r12
0x416e27:	ret	
F 0x41cacc
0x41cacc:	add	byte ptr [rax], al
0x41cace:	add	byte ptr [rax], al
0x41cad0:	add	rsp, 0x38
0x41cad4:	pop	rbx
0x41cad5:	pop	rbp
0x41cad6:	pop	r12
0x41cad8:	pop	r13
0x41cada:	pop	r14
0x41cadc:	pop	r15
0x41cade:	ret	
F 0x411419
0x40f632:	add	rsp, 0x10
0x40f636:	pop	rbp
0x40f637:	ret	
F 0x4205a3
0x4205a3:	mov	eax, dword ptr [rip + 0x18ddf]
0x4205a9:	add	rsp, 0x18
0x4205ad:	ret	
F 0x41ad59
0x41ad59:	mov	eax, dword ptr [rax + 0x50]
0x41ad5c:	ret	
F 0x413c68
0x413c68:	nop	dword ptr [rax + rax]
0x413c70:	add	rsp, 8
0x413c74:	pop	rbp
0x413c75:	pop	r12
0x413c77:	pop	r13
0x413c79:	pop	r14
0x413c7b:	ret	
F 0x41ffc5
0x40f573:	pop	r12
0x40f575:	pop	r13
0x40f577:	pop	r14
0x40f579:	pop	r15
0x40f57b:	ret	
F 0x419297
0x41433b:	add	rsp, 0x10
0x41433f:	pop	rbx
0x414340:	pop	rbp
0x414341:	pop	r12
0x414343:	pop	r13
0x414345:	pop	r14
0x414347:	ret	
F 0x410937
0x40d016:	ret	
F 0x41a139
0x41a096:	cmp	bh, bh
0x41a098:	dec	dword ptr [rax - 0x77]
0x41a09b:	ret	
F 0x40ef15
0x40ef15:	add	al, byte ptr [rax]
0x40ef17:	add	rax, rdi
0x40ef1a:	mov	qword ptr [rdi + 0x28], rax
0x40ef1e:	ret	
F 0x411ef3
0x411ef3:	add	rsp, 0x188
0x411efa:	pop	rbx
0x411efb:	pop	rbp
0x411efc:	pop	r12
0x411efe:	pop	r13
0x411f00:	pop	r14
0x411f02:	pop	r15
0x411f04:	ret	
F 0x41d73a
0x40d016:	ret	
F 0x41697a
0x40d016:	ret	
F 0x423cd9
0x40d016:	ret	
F 0x41b405
0x4126b5:	or	byte ptr [r9], r8b
0x4126b8:	ret	
F 0x425e91
0x425cc1:	add	byte ptr [rbp + 0x40], dh
0x425cc4:	add	rsp, 0x50
0x425cc8:	pop	rbp
0x425cc9:	ret	
F 0x414481
0x414481:	xchg	eax, ebp
0x414482:	ret	
F 0x418da0
0x4116a0:	mov	qword ptr [rdx], 0
0x4116a7:	xor	eax, eax
0x4116a9:	ret	
F 0x4112d7
0x410838:	and	byte ptr [rbx + 0x5d], bl
0x41083b:	pop	r12
0x41083d:	pop	r13
0x41083f:	pop	r14
0x410841:	ret	
F 0x4204e4
0x4204e4:	or	byte ptr [rax - 0x7b], cl
0x4204e7:	sal	byte ptr [rsi + rdx + 0x48], 0x8b
0x4204ec:	add	eax, 0x18e9f
0x4204f1:	add	rsp, 0x18
0x4204f5:	ret	
F 0x418221
0x418221:	dec	dword ptr [rax - 0x75]
0x418224:	add	eax, 0x21047
0x418229:	add	rsp, 0x10
0x41822d:	pop	rbp
0x41822e:	ret	
F 0x424ab0
0x41053a:	pop	rbp
0x41053b:	pop	r12
0x41053d:	ret	
F 0x4266b0
0x419710:	add	dword ptr [rax], eax
0x419712:	add	rsp, 0x10
0x419716:	pop	rbp
0x419717:	ret	
F 0x41b1ec
0x40d016:	ret	
F 0x42275d
0x41694d:	adc	byte ptr [rbx + 0x5d], bl
0x416950:	pop	r12
0x416952:	ret	
F 0x41d4c5
0x41d4c5:	add	rsp, 0x30
0x41d4c9:	pop	rbx
0x41d4ca:	ret	
F 0x423cd8
0x40eedf:	pop	rbp
0x40eee0:	ret	
F 0x41b2c1
0x40f578:	pop	rsi
0x40f579:	pop	r15
0x40f57b:	ret	
F 0x4110f0
0x40d016:	ret	
F 0x42494d
0x42494d:	nop	dword ptr [rax]
0x424950:	add	rsp, 0x18
0x424954:	pop	rbx
0x424955:	pop	rbp
0x424956:	pop	r12
0x424958:	pop	r13
0x42495a:	pop	r14
0x42495c:	pop	r15
0x42495e:	ret	
F 0x424d9a
0x424d9a:	add	byte ptr [rax], al
0x424d9c:	add	rsp, 0x20
0x424da0:	pop	rbp
0x424da1:	pop	r12
0x424da3:	pop	r13
0x424da5:	pop	r14
0x424da7:	pop	r15
0x424da9:	ret	
F 0x424538
0x40d016:	ret	
F 0x418d17
0x418d17:	adc	al, ch
0x418d19:	ret	
F 0x40f782
0x40f782:	add	eax, 0x29999
0x40f787:	add	rax, rdi
0x40f78a:	mov	qword ptr [rdi + 0x28], rax
0x40f78e:	ret	
F 0x41696f
0x41696f:	and	al, 0xc
0x416972:	add	rsp, 0x10
0x416976:	pop	rbx
0x416977:	pop	rbp
0x416978:	pop	r12
0x41697a:	ret	
F 0x412cf0
0x41249a:	pop	rbx
0x41249b:	pop	rbp
0x41249c:	ret	
F 0x426ba9
0x40f578:	pop	rsi
0x40f579:	pop	r15
0x40f57b:	ret	
F 0x422e14
0x40d016:	ret	
F 0x41d738
0x41083f:	pop	r14
0x410841:	ret	
F 0x41fc2a
0x41fc2a:	test	byte ptr [rax], al
0x41fc2c:	add	byte ptr [rax], al
0x41fc2e:	add	byte ptr [rax], al
0x41fc30:	pop	rbx
0x41fc31:	pop	rbp
0x41fc32:	pop	r12
0x41fc34:	ret	
F 0x416846
0x416846:	mov	r8, rax
0x416849:	mov	eax, ebx
0x41684b:	sub	eax, r8d
0x41684e:	add	rsp, 8
0x416852:	pop	rbx
0x416853:	pop	rbp
0x416854:	ret	
F 0x41bf0d
0x41bf0d:	pop	rbx
0x41bf0e:	pop	rbp
0x41bf0f:	mov	dword ptr [rip + 0x1d3f7], eax
0x41bf15:	pop	r12
0x41bf17:	ret	
F 0x40e0d2
0x40e0d2:	ret	0x2a8
F 0x41128b
0x41128b:	add	byte ptr [rax - 0x75], cl
0x41128e:	cmp	al, ch
0x411290:	lodsb	al, byte ptr [rsi]
0x411291:	ret	
F 0x418fef
0x418fef:	mov	qword ptr [rax + 0x30], rbp
0x418ff3:	add	rsp, 8
0x418ff7:	pop	rbx
0x418ff8:	pop	rbp
0x418ff9:	ret	
F 0x426028
0x40f572:	pop	rbp
0x40f573:	pop	r12
0x40f575:	pop	r13
0x40f577:	pop	r14
0x40f579:	pop	r15
0x40f57b:	ret	
F 0x4216fe
0x40d016:	ret	
F 0x418eb8
0x4117b8:	mov	qword ptr [rsi + 8], 0
0x4117c0:	ret	
F 0x422406
0x40eedf:	pop	rbp
0x40eee0:	ret	
F 0x411607
0x411607:	nop	dword ptr cs:[rax + rax]
0x411610:	mov	dword ptr [rdi + 8], 1
0x411617:	ret	
F 0x417593
0x412569:	or	byte ptr [rbx + 0x5d], bl
0x41256c:	pop	r12
0x41256e:	pop	r13
0x412570:	pop	r14
0x412572:	pop	r15
0x412574:	ret	
F 0x41050d
0x40d016:	ret	
F 0x41acfc
0x40d016:	ret	
F 0x417df6
0x40f57a:	pop	rdi
0x40f57b:	ret	
F 0x40f443
0x40f443:	or	byte ptr [rbx + 0x5d], bl
0x40f446:	pop	r12
0x40f448:	pop	r13
0x40f44a:	ret	
F 0x4122eb
0x4122eb:	mov	eax, dword ptr [rip + 0x26ef7]
0x4122f1:	add	rsp, 0x18
0x4122f5:	ret	
F 0x42120b
0x42120b:	mov	dword ptr [rip + 0x1819b], eax
0x421211:	add	rsp, 0x28
0x421215:	pop	rbp
0x421216:	pop	r12
0x421218:	ret	
F 0x410931
0x41083b:	pop	r12
0x41083d:	pop	r13
0x41083f:	pop	r14
0x410841:	ret	
F 0x41970f
0x41970f:	sti	
F 0x41b88e
0x412c27:	add	byte ptr [rax], al
0x412c29:	add	byte ptr [rbx + 0x5d], bl
0x412c2c:	pop	r12
0x412c2e:	pop	r13
0x412c30:	pop	r14
0x412c32:	pop	r15
0x412c34:	ret	
F 0x42662f
0x419b8f:	add	dword ptr [rax], eax
0x419b91:	add	rsp, 0x18
0x419b95:	ret	
F 0x42077a
0x40f575:	pop	r13
0x40f577:	pop	r14
0x40f579:	pop	r15
0x40f57b:	ret	
F 0x41c664
0x41c664:	cwde	
0x41c665:	or	edi, edi
0x41c667:	dec	dword ptr [rcx + rcx*4 - 0x20]
0x41c66b:	pop	rbp
0x41c66c:	pop	r12
0x41c66e:	pop	r13
0x41c670:	ret	
F 0x41b1e9
0x412499:	or	byte ptr [rbx + 0x5d], bl
0x41249c:	ret	
F 0x422d38
0x410536:	add	rsp, 8
0x41053a:	pop	rbp
0x41053b:	pop	r12
0x41053d:	ret	
F 0x412352
0x40d016:	ret	
F 0x40eea2
0x40eea2:	nop	word ptr [rax + rax]
0x40eea8:	ret	
F 0x411859
0x40d012:	add	rsp, 8
0x40d016:	ret	
F 0x41b88a
0x41b88a:	add	rsp, 0x88
0x41b891:	pop	rbx
0x41b892:	pop	rbp
0x41b893:	pop	r12
0x41b895:	pop	r13
0x41b897:	pop	r14
0x41b899:	pop	r15
0x41b89b:	ret	
F 0x419a75
0x41053a:	pop	rbp
0x41053b:	pop	r12
0x41053d:	ret	
F 0x41e150
0x40f579:	pop	r15
0x40f57b:	ret	
F 0x4216f0
0x4216f0:	movsxd	rax, dword ptr [rip + 0x17d19]
0x4216f7:	add	rax, rdi
0x4216fa:	mov	qword ptr [rdi + 0x30], rax
0x4216fe:	ret	
F 0x42264d
0x42264d:	mov	esi, 0xc031fffe
0x422652:	add	rsp, 8
0x422656:	ret	
F 0x41e5e2
0x40f573:	pop	r12
0x40f575:	pop	r13
0x40f577:	pop	r14
0x40f579:	pop	r15
0x40f57b:	ret	
F 0x420780
0x40d016:	ret	
F 0x412cf2
0x40d016:	ret	
F 0x41cf4c
0x41cf4c:	mov	eax, dword ptr [rip + 0x1c3d6]
0x41cf52:	add	rsp, 0x10
0x41cf56:	pop	rbp
0x41cf57:	ret	
F 0x420b30
0x40d016:	ret	
F 0x41878f
0x40f78f:	nop	
0x40f790:	ret	
F 0x41ae46
0x40d016:	ret	
F 0x411660
0x411660:	mov	qword ptr [rbx + 8], rax
0x411664:	pop	rbx
0x411665:	ret	
F 0x418d26
0x410840:	pop	rsi
0x410841:	ret	
F 0x4209b1
0x41249a:	pop	rbx
0x41249b:	pop	rbp
0x41249c:	ret	
F 0x40f449
0x40eedf:	pop	rbp
0x40eee0:	ret	
F 0x40f575
0x40f575:	pop	r13
0x40f577:	pop	r14
0x40f579:	pop	r15
0x40f57b:	ret	
F 0x40ef18
0x40ef18:	add	eax, edi
0x40ef1a:	mov	qword ptr [rdi + 0x28], rax
0x40ef1e:	ret	
F 0x414339
0x414339:	xor	eax, eax
0x41433b:	add	rsp, 0x10
0x41433f:	pop	rbx
0x414340:	pop	rbp
0x414341:	pop	r12
0x414343:	pop	r13
0x414345:	pop	r14
0x414347:	ret	
F 0x416e24
0x41053a:	pop	rbp
0x41053b:	pop	r12
0x41053d:	ret	
F 0x414344
0x41083e:	pop	rbp
0x41083f:	pop	r14
0x410841:	ret	
F 0x41ad07
0x41ad07:	stc	
0x41ad08:	ret	0
F 0x4209b2
0x40eedf:	pop	rbp
0x40eee0:	ret	
F 0x41b44e
0x40d016:	ret	
F 0x418927
0x40f448:	pop	r13
0x40f44a:	ret	
F 0x4190d8
0x40eedf:	pop	rbp
0x40eee0:	ret	
F 0x415cea
0x415cea:	cmp	byte ptr [rax - 0x77], cl
0x415ced:	ret	
F 0x41ae39
0x41ae39:	dec	dword ptr [rax - 0x75]
0x41ae3c:	add	eax, 0x1e46f
0x41ae41:	add	rsp, 0x10
0x41ae45:	pop	rbp
0x41ae46:	ret	
F 0x411790
0x411790:	mov	qword ptr [rdi + 8], 0
0x411798:	xor	eax, eax
0x41179a:	pop	rbx
0x41179b:	pop	rbp
0x41179c:	pop	r12
0x41179e:	ret	
F 0x4216ef
0x4216ef:	nop	
0x4216f0:	movsxd	rax, dword ptr [rip + 0x17d19]
0x4216f7:	add	rax, rdi
0x4216fa:	mov	qword ptr [rdi + 0x30], rax
0x4216fe:	ret	
F 0x422ae9
0x40d016:	ret	
F 0x41d1ae
0x41d1ae:	mov	qword ptr [rax], 0
0x41d1b5:	ret	
F 0x417c5f
0x410840:	pop	rsi
0x410841:	ret	
F 0x41f2dc
0x41f2dc:	cmp	qword ptr [rsi + 0x28], rax
0x41f2e0:	cmovae	rax, qword ptr [rsi + 0x28]
0x41f2e5:	mov	qword ptr [rdi + 0x28], rax
0x41f2e9:	ret	
F 0x41f83e
0x40d016:	ret	
F 0x426719
0x40f632:	add	rsp, 0x10
0x40f636:	pop	rbp
0x40f637:	ret	
F 0x41bdb9
0x40f632:	add	rsp, 0x10
0x40f636:	pop	rbp
0x40f637:	ret	
F 0x418ba2
0x418a82:	add	byte ptr [rax], al
0x418a84:	add	rsp, 0xa8
0x418a8b:	mov	rax, r12
0x418a8e:	pop	rbp
0x418a8f:	pop	r12
0x418a91:	ret	
F 0x42460d
0x40f575:	pop	r13
0x40f577:	pop	r14
0x40f579:	pop	r15
0x40f57b:	ret	
F 0x41da66
0x40eedf:	pop	rbp
0x40eee0:	ret	
F 0x40f69d
0x40eedf:	pop	rbp
0x40eee0:	ret	
F 0x41bf12
0x41bf12:	rol	dword ptr [rcx], cl
0x41bf14:	add	byte ptr [rcx + 0x5c], al
0x41bf17:	ret	
F 0x41b6a3
0x40f445:	pop	rbp
0x40f446:	pop	r12
0x40f448:	pop	r13
0x40f44a:	ret	
F 0x41a503
0x40f579:	pop	r15
0x40f57b:	ret	
F 0x42186e
0x42186e:	mov	ecx, 0xc031fffe
0x421873:	add	rsp, 8
0x421877:	ret	
F 0x41ab97
0x40eff3:	xor	eax, eax
0x40eff5:	add	rsp, 8
0x40eff9:	ret	
F 0x424514
0x424514:	mov	eax, 1
0x424519:	pop	rbp
0x42451a:	ret	
F 0x419539
0x416e19:	nop	dword ptr [rax]
0x416e20:	add	rsp, 8
0x416e24:	pop	rbp
0x416e25:	pop	r12
0x416e27:	ret	
F 0x411bf1
0x40d016:	ret	
F 0x419d09
0x40f289:	add	byte ptr [rax - 0x77], cl
0x40f28c:	ret	
F 0x411349
0x40d012:	add	rsp, 8
0x40d016:	ret	
F 0x411411
0x411411:	dec	dword ptr [rax - 0x75]
0x411414:	add	eax, 0x27cc7
0x411419:	add	rsp, 0x10
0x41141d:	pop	rbp
0x41141e:	ret	
F 0x40ef13
0x40ef13:	mov	cl, 0xa1
0x40ef15:	add	al, byte ptr [rax]
0x40ef17:	add	rax, rdi
0x40ef1a:	mov	qword ptr [rdi + 0x28], rax
0x40ef1e:	ret	
F 0x4117b5
0x4117b5:	add	byte ptr [rax], r8b
0x4117b8:	mov	qword ptr [rsi + 8], 0
0x4117c0:	ret	
F 0x424438
0x40f572:	pop	rbp
0x40f573:	pop	r12
0x40f575:	pop	r13
0x40f577:	pop	r14
0x40f579:	pop	r15
0x40f57b:	ret	
F 0x41bb33
0x40d016:	ret	
F 0x41d51b
0x41d51b:	mov	eax, dword ptr [rip + 0x1be3f]
0x41d521:	add	rsp, 0x18
0x41d525:	ret	
F 0x412da7
0x412ce7:	add	byte ptr [rax], al
0x412ce9:	add	byte ptr [rbp + 0x37], dh
0x412cec:	add	rsp, 0x38
0x412cf0:	pop	rbx
0x412cf1:	pop	rbp
0x412cf2:	ret	
F 0x418116
0x412c27:	add	byte ptr [rax], al
0x412c29:	add	byte ptr [rbx + 0x5d], bl
0x412c2c:	pop	r12
0x412c2e:	pop	r13
0x412c30:	pop	r14
0x412c32:	pop	r15
0x412c34:	ret	
F 0x414a1a
0x414a1a:	adc	eax, 0xbe058b48
0x414a1f:	add	r8b, byte ptr [r8]
0x414a22:	add	rsp, 0x10
0x414a26:	pop	rbp
0x414a27:	ret	
F 0x41cc3f
0x40d016:	ret	
F 0x4149f7
0x40eedf:	pop	rbp
0x40eee0:	ret	
F 0x426030
0x40f57a:	pop	rdi
0x40f57b:	ret	
F 0x4209b3
0x40d016:	ret	
F 0x4223aa
0x40f600:	mov	eax, esp
0x40f602:	pop	r12
0x40f604:	ret	
F 0x412c2b
0x40f572:	pop	rbp
0x40f573:	pop	r12
0x40f575:	pop	r13
0x40f577:	pop	r14
0x40f579:	pop	r15
0x40f57b:	ret	
F 0x41c944
0x40d016:	ret	
F 0x41694a
0x41694a:	add	rsp, 0x10
0x41694e:	pop	rbx
0x41694f:	pop	rbp
0x416950:	pop	r12
0x416952:	ret	
F 0x410c55
0x41083a:	pop	rbp
0x41083b:	pop	r12
0x41083d:	pop	r13
0x41083f:	pop	r14
0x410841:	ret	
F 0x41cff8
0x40f718:	dec	dword ptr [rax - 0x77]
0x40f71b:	ret	
F 0x40ee9a
0x40ee9a:	add	byte ptr [rax - 0x7b], cl
0x40ee9d:	sal	byte ptr [rax + rcx - 1], 0xe0
0x40eea2:	nop	word ptr [rax + rax]
0x40eea8:	ret	
F 0x420b99
0x40d012:	add	rsp, 8
0x40d016:	ret	
F 0x41d56c
0x41d56c:	mov	rax, qword ptr [rip + 0x1bded]
0x41d573:	add	rsp, 0x18
0x41d577:	ret	
F 0x41f346
0x40eff3:	xor	eax, eax
0x40eff5:	add	rsp, 8
0x40eff9:	ret	
F 0x41929b
0x410839:	pop	rbx
0x41083a:	pop	rbp
0x41083b:	pop	r12
0x41083d:	pop	r13
0x41083f:	pop	r14
0x410841:	ret	
F 0x412eda
0x412eda:	mov	eax, dword ptr [rax + 0x18]
0x412edd:	ret	
F 0x411664
0x411664:	pop	rbx
0x411665:	ret	
F 0x42171c
0x40d016:	ret	
F 0x425dd7
0x425dd7:	add	byte ptr [rax], al
0x425dd9:	add	byte ptr [rbp + 0x6d], dh
0x425ddc:	add	rsp, 0x30
0x425de0:	pop	rbx
0x425de1:	pop	rbp
0x425de2:	pop	r12
0x425de4:	ret	
F 0x411a7c
0x40d016:	ret	
F 0x410936
0x410840:	pop	rsi
0x410841:	ret	
F 0x42264a
0x42264a:	ret	0x10e8
F 0x4130f5
0x4130f5:	push	rcx
0x4130f6:	add	rsp, 0x18
0x4130fa:	xor	eax, eax
0x4130fc:	pop	rbx
0x4130fd:	pop	rbp
0x4130fe:	pop	r12
0x413100:	pop	r13
0x413102:	ret	
F 0x41d571
0x419b8f:	add	dword ptr [rax], eax
0x419b91:	add	rsp, 0x18
0x419b95:	ret	
F 0x41ad98
0x40dc57:	ret	0
F 0x40fb04
0x40f571:	pop	rbx
0x40f572:	pop	rbp
0x40f573:	pop	r12
0x40f575:	pop	r13
0x40f577:	pop	r14
0x40f579:	pop	r15
0x40f57b:	ret	
F 0x419068
0x40eedf:	pop	rbp
0x40eee0:	ret	
F 0x411635
0x411635:	add	bh, al
0x411637:	and	byte ptr [rip + 0x48000000], al
0x41163e:	mov	dword ptr [rax + 0x38], 0
0x411645:	ret	
F 0x412fb7
0x40d016:	ret	
F 0x411857
0x40eff3:	xor	eax, eax
0x40eff5:	add	rsp, 8
0x40eff9:	ret	
F 0x416a8b
0x416a8b:	rol	dword ptr [rax - 0x76b70001], 1
0x416a91:	ret	
F 0x41cad4
0x40f571:	pop	rbx
0x40f572:	pop	rbp
0x40f573:	pop	r12
0x40f575:	pop	r13
0x40f577:	pop	r14
0x40f579:	pop	r15
0x40f57b:	ret	
F 0x418d21
0x41083b:	pop	r12
0x41083d:	pop	r13
0x41083f:	pop	r14
0x410841:	ret	
F 0x416c47
0x40d016:	ret	
F 0x40f43e
0x40f43e:	add	byte ptr [rax], al
0x40f440:	add	rsp, 8
0x40f444:	pop	rbx
0x40f445:	pop	rbp
0x40f446:	pop	r12
0x40f448:	pop	r13
0x40f44a:	ret	
F 0x40ee61
0x40ee61:	nop	dword ptr [rax]
0x40ee68:	ret	
F 0x425ddf
0x424aae:	xor	byte ptr [rbx + 0x5d], bl
0x424ab1:	pop	r12
0x424ab3:	ret	
F 0x41bf3b
0x40d016:	ret	
F 0x40f75e
0x40f75e:	add	byte ptr [rax], al
0x40f760:	movsxd	rax, dword ptr [rip + 0x299d9]
0x40f767:	add	rax, rdi
0x40f76a:	mov	qword ptr [rdi + 0x28], rax
0x40f76e:	ret	
F 0x420fcc
0x420fcc:	rol	byte ptr [rbx + 0x2be80001], 1
0x420fd2:	ret	
F 0x4123aa
0x40d016:	ret	
F 0x4117f4
0x411344:	mov	esi, 0xc031ffff
0x411349:	add	rsp, 8
0x41134d:	ret	
F 0x40efcb
0x40efcb:	mov	qword ptr [rax + 0x30], rdx
0x40efcf:	pop	rbp
0x40efd0:	ret	
F 0x410f43
0x410f43:	mov	eax, dword ptr [rip + 0x281a7]
0x410f49:	add	rsp, 0x10
0x410f4d:	pop	rbp
0x410f4e:	ret	
F 0x426bb0
0x40d016:	ret	
F 0x41f28e
0x41f28e:	mov	dword ptr [rax + 0x40], 0
0x41f295:	ret	
F 0x420f08
0x420f08:	sal	byte ptr [rbp + rdx + 0x48], 0x8b
0x420f0d:	add	eax, 0x1846e
0x420f12:	add	rsp, 0x10
0x420f16:	pop	rbp
0x420f17:	ret	
F 0x419366
0x419366:	xor	byte ptr [rax - 0x77], cl
0x419369:	ret	
F 0x4204c3
0x4204c3:	mov	eax, dword ptr [rip + 0x18ecf]
0x4204c9:	add	rsp, 0x18
0x4204cd:	ret	
F 0x4126b6
0x4126b6:	or	byte ptr [rcx], al
0x4126b8:	ret	
F 0x422762
0x40d016:	ret	
F 0x41605a
0x40d016:	ret	
F 0x40f579
0x40f579:	pop	r15
0x40f57b:	ret	
F 0x422760
0x40f602:	pop	r12
0x40f604:	ret	
F 0x419dad
0x40f578:	pop	rsi
0x40f579:	pop	r15
0x40f57b:	ret	
F 0x4218aa
0x4218aa:	mov	rax, qword ptr [rip + 0x17b4f]
0x4218b1:	add	rsp, 0x18
0x4218b5:	ret	
F 0x419f70
0x40eedf:	pop	rbp
0x40eee0:	ret	
F 0x40f630
0x40f630:	add	al, byte ptr [rax]
0x40f632:	add	rsp, 0x10
0x40f636:	pop	rbp
0x40f637:	ret	
F 0x4111df
0x4111df:	add	al, byte ptr [rax]
0x4111e1:	add	rsp, 0x18
0x4111e5:	ret	
F 0x41072e
0x40d016:	ret	
F 0x4239ec
0x4239ec:	mov	qword ptr [r12], rbp
0x4239f0:	pop	rbp
0x4239f1:	mov	dword ptr [r12 + 8], eax
0x4239f6:	mov	rax, r12
0x4239f9:	pop	r12
0x4239fb:	ret	
F 0x4218ac
0x4218ac:	add	eax, 0x17b4f
0x4218b1:	add	rsp, 0x18
0x4218b5:	ret	
F 0x41a4f7
0x41a4f7:	sbb	byte ptr [rcx + rcx*4 - 0x20], cl
0x41a4fb:	pop	rbx
0x41a4fc:	pop	rbp
0x41a4fd:	pop	r12
0x41a4ff:	pop	r13
0x41a501:	pop	r14
0x41a503:	pop	r15
0x41a505:	ret	
F 0x41fc31
0x41053a:	pop	rbp
0x41053b:	pop	r12
0x41053d:	ret	
F 0x416a19
0x40d016:	ret	
F 0x413dc1
0x412c23:	add	rsp, 0xb8
0x412c2a:	pop	rbx
0x412c2b:	pop	rbp
0x412c2c:	pop	r12
0x412c2e:	pop	r13
0x412c30:	pop	r14
0x412c32:	pop	r15
0x412c34:	ret	
F 0x41c2a7
0x41c2a7:	add	byte ptr [rax], al
0x41c2a9:	pop	rbx
0x41c2aa:	pop	rbp
0x41c2ab:	pop	r12
0x41c2ad:	ret	
F 0x417048
0x417048:	sal	byte ptr [rbp + rdx + 0x48], 0x8b
0x41704d:	add	eax, 0x22226
0x417052:	add	rsp, 0x10
0x417056:	pop	rbp
0x417057:	ret	
F 0x4187ed
0x4187ed:	nop	dword ptr [rax]
0x4187f0:	mov	qword ptr [rdi + 8], 0
0x4187f8:	ret	
F 0x419dac
0x40f577:	pop	r14
0x40f579:	pop	r15
0x40f57b:	ret	
F 0x4215ff
0x40f446:	pop	r12
0x40f448:	pop	r13
0x40f44a:	ret	
F 0x4265fd
0x4265fd:	mov	dword ptr [rbx], 0
0x426603:	pop	rbx
0x426604:	ret	
F 0x424da0
0x40f572:	pop	rbp
0x40f573:	pop	r12
0x40f575:	pop	r13
0x40f577:	pop	r14
0x40f579:	pop	r15
0x40f57b:	ret	
F 0x41f0d0
0x419710:	add	dword ptr [rax], eax
0x419712:	add	rsp, 0x10
0x419716:	pop	rbp
0x419717:	ret	
F 0x4126b5
0x4126b5:	or	byte ptr [r9], r8b
0x4126b8:	ret	
F 0x418d13
0x418d13:	add	byte ptr [rax - 0x77], cl
0x418d16:	adc	r8b, bpl
0x418d19:	ret	
F 0x4216f8
0x41b448:	add	eax, edi
0x41b44a:	mov	qword ptr [rdi + 0x30], rax
0x41b44e:	ret	
F 0x426ba1
0x412569:	or	byte ptr [rbx + 0x5d], bl
0x41256c:	pop	r12
0x41256e:	pop	r13
0x412570:	pop	r14
0x412572:	pop	r15
0x412574:	ret	
F 0x41c66e
0x40f448:	pop	r13
0x40f44a:	ret	
F 0x412676
0x40f572:	pop	rbp
0x40f573:	pop	r12
0x40f575:	pop	r13
0x40f577:	pop	r14
0x40f579:	pop	r15
0x40f57b:	ret	
F 0x423ba6
0x41083f:	pop	r14
0x410841:	ret	
F 0x424da8
0x40f57a:	pop	rdi
0x40f57b:	ret	
F 0x422d3c
0x41053a:	pop	rbp
0x41053b:	pop	r12
0x41053d:	ret	
F 0x4110e9
0x410d19:	sub	byte ptr [rbx + 0x5d], bl
0x410d1c:	pop	r12
0x410d1e:	pop	r13
0x410d20:	ret	
F 0x41ac9d
0x40d016:	ret	
F 0x4132df
0x40f57a:	pop	rdi
0x40f57b:	ret	
F 0x418e5a
0x41175a:	or	byte ptr [rbx + 0x5d], bl
0x41175d:	pop	r12
0x41175f:	ret	
F 0x41c704
0x41c704:	add	eax, 0x1cc27
0x41c709:	add	rsp, 0x10
0x41c70d:	pop	rbp
0x41c70e:	ret	
F 0x41add0
0x419710:	add	dword ptr [rax], eax
0x419712:	add	rsp, 0x10
0x419716:	pop	rbp
0x419717:	ret	
F 0x4183ab
0x40d016:	ret	
F 0x41317d
0x40d016:	ret	
F 0x41d148
0x41d148:	ret	0xd2e8
F 0x416d3c
0x416d3c:	add	byte ptr [rax], al
0x416d3e:	add	rsp, 8
0x416d42:	ret	
F 0x41929f
0x41083d:	pop	r13
0x41083f:	pop	r14
0x410841:	ret	
F 0x40f718
0x40f718:	dec	dword ptr [rax - 0x77]
0x40f71b:	ret	
F 0x416d12
0x40d016:	ret	
F 0x411024
0x410839:	pop	rbx
0x41083a:	pop	rbp
0x41083b:	pop	r12
0x41083d:	pop	r13
0x41083f:	pop	r14
0x410841:	ret	
F 0x418f88
0x40eedf:	pop	rbp
0x40eee0:	ret	
F 0x41b6c5
0x41b6c5:	or	byte ptr [rax - 0x7b], cl
0x41b6c8:	sal	byte ptr [rbp + rdx + 0x48], 0x8b
0x41b6cd:	add	eax, 0x1dc16
0x41b6d2:	add	rsp, 0x10
0x41b6d6:	pop	rbp
0x41b6d7:	ret	
F 0x416ff7
0x40f576:	pop	rbp
0x40f577:	pop	r14
0x40f579:	pop	r15
0x40f57b:	ret	
F 0x41447f
0x41447f:	add	byte ptr [rdi], cl
0x414481:	xchg	eax, ebp
0x414482:	ret	
F 0x415f86
0x41083b:	pop	r12
0x41083d:	pop	r13
0x41083f:	pop	r14
0x410841:	ret	
F 0x420778
0x40f573:	pop	r12
0x40f575:	pop	r13
0x40f577:	pop	r14
0x40f579:	pop	r15
0x40f57b:	ret	
F 0x41c62c
0x40f446:	pop	r12
0x40f448:	pop	r13
0x40f44a:	ret	
F 0x41a347
0x41a30c:	dec	dword ptr [rcx + rcx*4 - 0x20]
0x41a310:	pop	rbp
0x41a311:	pop	r12
0x41a313:	pop	r13
0x41a315:	ret	
F 0x41b021
0x412441:	mov	eax, dword ptr [rbx + 8]
0x412444:	pop	rbx
0x412445:	ret	
F 0x426bac
0x40d016:	ret	
F 0x41f768
0x41083e:	pop	rbp
0x41083f:	pop	r14
0x410841:	ret	
F 0x41f131
0x41f131:	dec	dword ptr [rax - 0x75]
0x41f134:	add	eax, 0x1a21f
0x41f139:	add	rsp, 0x10
0x41f13d:	pop	rbp
0x41f13e:	ret	
F 0x419a71
0x419a71:	add	byte ptr [rcx + rcx*4 - 0x40], al
0x419a75:	pop	rbp
0x419a76:	pop	r12
0x419a78:	ret	
F 0x412809
0x40eff3:	xor	eax, eax
0x40eff5:	add	rsp, 8
0x40eff9:	ret	
F 0x41440e
0x40f57a:	pop	rdi
0x40f57b:	ret	
F 0x41d184
0x40d016:	ret	
F 0x41f70a
0x410840:	pop	rsi
0x410841:	ret	
F 0x411e19
0x40d016:	ret	
F 0x411756
0x411756:	ror	byte ptr [rax - 0x77], 0x6b
0x41175a:	or	byte ptr [rbx + 0x5d], bl
0x41175d:	pop	r12
0x41175f:	ret	
F 0x4266e9
0x40d016:	ret	
F 0x42089c
0x412499:	or	byte ptr [rbx + 0x5d], bl
0x41249c:	ret	
F 0x41cad9
0x40f576:	pop	rbp
0x40f577:	pop	r14
0x40f579:	pop	r15
0x40f57b:	ret	
F 0x41a34b
0x40f445:	pop	rbp
0x40f446:	pop	r12
0x40f448:	pop	r13
0x40f44a:	ret	
F 0x41cc3c
0x40f544:	dec	dword ptr [rax - 0x7d]
0x40f547:	ret	
F 0x41b897
0x40f577:	pop	r14
0x40f579:	pop	r15
0x40f57b:	ret	
F 0x40f287
0x40f287:	add	byte ptr [rax], al
0x40f289:	add	byte ptr [rax - 0x77], cl
0x40f28c:	ret	
F 0x41ace7
0x40eff3:	xor	eax, eax
0x40eff5:	add	rsp, 8
0x40eff9:	ret	
F 0x412c26
0x412c26:	mov	eax, 0x5b000000
0x412c2b:	pop	rbp
0x412c2c:	pop	r12
0x412c2e:	pop	r13
0x412c30:	pop	r14
0x412c32:	pop	r15
0x412c34:	ret	
F 0x41d1af
0x41d1af:	mov	dword ptr [rax], 0
0x41d1b5:	ret	
F 0x425ddc
0x424aab:	add	rsp, 0x30
0x424aaf:	pop	rbx
0x424ab0:	pop	rbp
0x424ab1:	pop	r12
0x424ab3:	ret	
F 0x40efd0
0x40d016:	ret	
F 0x41f137
0x419710:	add	dword ptr [rax], eax
0x419712:	add	rsp, 0x10
0x419716:	pop	rbp
0x419717:	ret	
F 0x420b08
0x40f445:	pop	rbp
0x40f446:	pop	r12
0x40f448:	pop	r13
0x40f44a:	ret	
F 0x411df2
0x411df2:	mov	eax, edi
0x411df4:	pop	rbx
0x411df5:	pop	rbp
0x411df6:	pop	r12
0x411df8:	pop	r13
0x411dfa:	pop	r14
0x411dfc:	pop	r15
0x411dfe:	ret	
F 0x41c703
0x41c703:	mov	eax, dword ptr [rip + 0x1cc27]
0x41c709:	add	rsp, 0x10
0x41c70d:	pop	rbp
0x41c70e:	ret	
F 0x41498c
0x40d016:	ret	
F 0x419f6d
0x40f446:	pop	r12
0x40f448:	pop	r13
0x40f44a:	ret	
F 0x413dcf
0x40f578:	pop	rsi
0x40f579:	pop	r15
0x40f57b:	ret	
F 0x42306f
0x42306f:	add	rsp, 0xd8
0x423076:	pop	rbx
0x423077:	pop	rbp
0x423078:	pop	r12
0x42307a:	pop	r13
0x42307c:	pop	r14
0x42307e:	pop	r15
0x423080:	ret	
F 0x41d1cb
0x41d1cb:	add	eax, 0x1c1a8
0x41d1d0:	lea	rax, [rip + 0x3c9]
0x41d1d7:	mov	qword ptr [rbx + 8], rax
0x41d1db:	pop	rbx
0x41d1dc:	ret	
F 0x41f5d3
0x40eea3:	nop	dword ptr [rax + rax]
0x40eea8:	ret	
F 0x41b6c8
0x41b6c8:	sal	byte ptr [rbp + rdx + 0x48], 0x8b
0x41b6cd:	add	eax, 0x1dc16
0x41b6d2:	add	rsp, 0x10
0x41b6d6:	pop	rbp
0x41b6d7:	ret	
F 0x423ba5
0x41083e:	pop	rbp
0x41083f:	pop	r14
0x410841:	ret	
F 0x425269
0x40f57a:	pop	rdi
0x40f57b:	ret	
F 0x4228f6
0x416d39:	mov	eax, 1
0x416d3e:	add	rsp, 8
0x416d42:	ret	
F 0x415ebf
0x41083f:	pop	r14
0x410841:	ret	
F 0x41d2cd
0x40eea5:	add	byte ptr [rax], r8b
0x40eea8:	ret	
F 0x41a81f
0x41053a:	pop	rbp
0x41053b:	pop	r12
0x41053d:	ret	
F 0x42047c
0x42047c:	add	eax, 0x18f17
0x420481:	add	rsp, 0x18
0x420485:	ret	
F 0x41acb7
0x40eff3:	xor	eax, eax
0x40eff5:	add	rsp, 8
0x40eff9:	ret	
F 0x411291
0x40d016:	ret	
F 0x40fb09
0x40f576:	pop	rbp
0x40f577:	pop	r14
0x40f579:	pop	r15
0x40f57b:	ret	
F 0x410934
0x41083e:	pop	rbp
0x41083f:	pop	r14
0x410841:	ret	
F 0x41af83
0x41083a:	pop	rbp
0x41083b:	pop	r12
0x41083d:	pop	r13
0x41083f:	pop	r14
0x410841:	ret	
F 0x425c2b
0x40f578:	pop	rsi
0x40f579:	pop	r15
0x40f57b:	ret	
F 0x422b87
0x41053a:	pop	rbp
0x41053b:	pop	r12
0x41053d:	ret	
F 0x4117b3
0x4117b3:	nop	dword ptr [rax + rax]
0x4117b8:	mov	qword ptr [rsi + 8], 0
0x4117c0:	ret	
F 0x418e94
0x411794:	add	byte ptr [rax], al
0x411796:	add	byte ptr [rax], al
0x411798:	xor	eax, eax
0x41179a:	pop	rbx
0x41179b:	pop	rbp
0x41179c:	pop	r12
0x41179e:	ret	
F 0x41f35e
0x41d404:	mov	dh, 0xc0
0x41d406:	ret	
F 0x419daf
0x40f57a:	pop	rdi
0x40f57b:	ret	
F 0x4122e4
0x4122e4:	or	byte ptr [rax - 0x7b], cl
0x4122e7:	sal	byte ptr [rsi + rdx + 0x48], 0x8b
0x4122ec:	add	eax, 0x26ef7
0x4122f1:	add	rsp, 0x18
0x4122f5:	ret	
F 0x4204f1
0x4111e1:	add	rsp, 0x18
0x4111e5:	ret	
F 0x4130fc
0x40f444:	pop	rbx
0x40f445:	pop	rbp
0x40f446:	pop	r12
0x40f448:	pop	r13
0x40f44a:	ret	
F 0x412e72
0x40d016:	ret	
F 0x41b2bf
0x40f576:	pop	rbp
0x40f577:	pop	r14
0x40f579:	pop	r15
0x40f57b:	ret	
F 0x41b892
0x40f572:	pop	rbp
0x40f573:	pop	r12
0x40f575:	pop	r13
0x40f577:	pop	r14
0x40f579:	pop	r15
0x40f57b:	ret	
F 0x418d98
0x411698:	nop	dword ptr [rax + rax]
0x4116a0:	mov	qword ptr [rdx], 0
0x4116a7:	xor	eax, eax
0x4116a9:	ret	
F 0x41b024
0x411664:	pop	rbx
0x411665:	ret	
F 0x412cec
0x412cec:	add	rsp, 0x38
0x412cf0:	pop	rbx
0x412cf1:	pop	rbp
0x412cf2:	ret	
F 0x416ffc
0x40d016:	ret	
F 0x420b04
0x420b04:	mov	rax, r12
0x420b08:	pop	rbp
0x420b09:	pop	r12
0x420b0b:	pop	r13
0x420b0d:	ret	
F 0x4187a1
0x418791:	nop	word ptr cs:[rax + rax]
0x41879c:	nop	dword ptr [rax]
0x4187a0:	ret	
F 0x4266ad
0x4266ad:	add	eax, 0x12d6e
0x4266b2:	add	rsp, 0x10
0x4266b6:	pop	rbp
0x4266b7:	ret	
F 0x4110e6
0x410d16:	add	rsp, 0x28
0x410d1a:	pop	rbx
0x410d1b:	pop	rbp
0x410d1c:	pop	r12
0x410d1e:	pop	r13
0x410d20:	ret	
F 0x41f268
0x40f445:	pop	rbp
0x40f446:	pop	r12
0x40f448:	pop	r13
0x40f44a:	ret	
F 0x416051
0x410838:	and	byte ptr [rbx + 0x5d], bl
0x41083b:	pop	r12
0x41083d:	pop	r13
0x41083f:	pop	r14
0x410841:	ret	
F 0x418925
0x40f446:	pop	r12
0x40f448:	pop	r13
0x40f44a:	ret	
F 0x41684c
0x41684c:	sub	eax, eax
0x41684e:	add	rsp, 8
0x416852:	pop	rbx
0x416853:	pop	rbp
0x416854:	ret	
F 0x418a17
0x40f448:	pop	r13
0x40f44a:	ret	
F 0x412c2e
0x40f575:	pop	r13
0x40f577:	pop	r14
0x40f579:	pop	r15
0x40f57b:	ret	
F 0x416fd0
0x40f57a:	pop	rdi
0x40f57b:	ret	
F 0x418eb6
0x4117b6:	add	byte ptr [rax], al
0x4117b8:	mov	qword ptr [rsi + 8], 0
0x4117c0:	ret	
F 0x41b737
0x419710:	add	dword ptr [rax], eax
0x419712:	add	rsp, 0x10
0x419716:	pop	rbp
0x419717:	ret	
F 0x4228f0
0x4228f0:	add	al, ch
0x4228f2:	mov	edx, 0xb8fffec2
0x4228f7:	add	dword ptr [rax], eax
0x4228f9:	add	byte ptr [rax], al
0x4228fb:	add	rsp, 8
0x4228ff:	ret	
F 0x414409
0x40f575:	pop	r13
0x40f577:	pop	r14
0x40f579:	pop	r15
0x40f57b:	ret	
F 0x4106b8
0x4106b8:	sal	byte ptr [rbp + rdx + 0x48], 0x8b
0x4106bd:	add	eax, 0x28a3e
0x4106c2:	add	rsp, 0x10
0x4106c6:	pop	rbp
0x4106c7:	ret	
F 0x41ad47
0x40eff3:	xor	eax, eax
0x40eff5:	add	rsp, 8
0x40eff9:	ret	
F 0x41415d
0x41415d:	add	byte ptr [rbp + 0x5a], dh
0x414160:	add	rsp, 0x28
0x414164:	pop	rbp
0x414165:	pop	r12
0x414167:	pop	r13
0x414169:	pop	r14
0x41416b:	ret	
F 0x41d180
0x41083d:	pop	r13
0x41083f:	pop	r14
0x410841:	ret	
F 0x424436
0x416b5b:	sbb	byte ptr [rbx + 0x5d], bl
0x416b5e:	pop	r12
0x416b60:	pop	r13
0x416b62:	pop	r14
0x416b64:	pop	r15
0x416b66:	ret	
F 0x418e53
0x411753:	or	byte ptr [rcx], al
0x411755:	xor	eax, eax
0x411757:	mov	qword ptr [rbx + 8], rbp
0x41175b:	pop	rbx
0x41175c:	pop	rbp
0x41175d:	pop	r12
0x41175f:	ret	
F 0x422c00
0x422c00:	ret	0x6ae8
F 0x420f74
0x420f74:	add	eax, 0x18407
0x420f79:	add	rsp, 0x10
0x420f7d:	pop	rbp
0x420f7e:	ret	
F 0x41910e
0x411aae:	add	dword ptr [rdi + rax + 0x5d], esi
0x411ab2:	ret	
F 0x41ada7
0x40eff3:	xor	eax, eax
0x40eff5:	add	rsp, 8
0x40eff9:	ret	
F 0x4149ae
0x40d016:	ret	
F 0x417254
0x410835:	add	rsp, 0x20
0x410839:	pop	rbx
0x41083a:	pop	rbp
0x41083b:	pop	r12
0x41083d:	pop	r13
0x41083f:	pop	r14
0x410841:	ret	
F 0x415a82
0x415a82:	mov	rax, qword ptr [rip + 0x237a7]
0x415a89:	add	rsp, 0x10
0x415a8d:	pop	rbp
0x415a8e:	ret	
F 0x41d181
0x41083e:	pop	rbp
0x41083f:	pop	r14
0x410841:	ret	
F 0x424c40
0x40f572:	pop	rbp
0x40f573:	pop	r12
0x40f575:	pop	r13
0x40f577:	pop	r14
0x40f579:	pop	r15
0x40f57b:	ret	
F 0x41eea9
0x40d016:	ret	
F 0x415f80
0x410835:	add	rsp, 0x20
0x410839:	pop	rbx
0x41083a:	pop	rbp
0x41083b:	pop	r12
0x41083d:	pop	r13
0x41083f:	pop	r14
0x410841:	ret	
F 0x4187aa
0x41879a:	add	byte ptr [rax], al
0x41879c:	nop	dword ptr [rax]
0x4187a0:	ret	
F 0x41b786
0x41b786:	sbb	eax, 0x8948ffff
0x41b78b:	ret	
F 0x4154fd
0x40d016:	ret	
F 0x4164c7
0x4164c7:	xor	al, ch
0x4164c9:	ret	
F 0x41d1aa
0x41d1aa:	mov	qword ptr [rdi + 0x30], rax
0x41d1ae:	mov	qword ptr [rax], 0
0x41d1b5:	ret	
F 0x415a26
0x40eedf:	pop	rbp
0x40eee0:	ret	
F 0x4197e2
0x419710:	add	dword ptr [rax], eax
0x419712:	add	rsp, 0x10
0x419716:	pop	rbp
0x419717:	ret	
F 0x42215b
0x40d016:	ret	
F 0x4204ea
0x4204ea:	mov	rax, qword ptr [rip + 0x18e9f]
0x4204f1:	add	rsp, 0x18
0x4204f5:	ret	
F 0x41702d
0x40d016:	ret	
F 0x4225aa
0x4225aa:	add	rsp, 0x18
0x4225ae:	xor	eax, eax
0x4225b0:	pop	rbx
0x4225b1:	pop	rbp
0x4225b2:	ret	
F 0x411ef7
0x411ef7:	add	dword ptr [rax], eax
0x411ef9:	add	byte ptr [rbx + 0x5d], bl
0x411efc:	pop	r12
0x411efe:	pop	r13
0x411f00:	pop	r14
0x411f02:	pop	r15
0x411f04:	ret	
F 0x41ab7d
0x40d016:	ret	
F 0x424da7
0x40f579:	pop	r15
0x40f57b:	ret	
F 0x41f2e9
0x40d016:	ret	
F 0x41beae
0x40d016:	ret	
F 0x425c25
0x40f572:	pop	rbp
0x40f573:	pop	r12
0x40f575:	pop	r13
0x40f577:	pop	r14
0x40f579:	pop	r15
0x40f57b:	ret	
F 0x41c009
0x41083e:	pop	rbp
0x41083f:	pop	r14
0x410841:	ret	
F 0x41267f
0x40d016:	ret	
F 0x41c669
0x41a30e:	mov	eax, esp
0x41a310:	pop	rbp
0x41a311:	pop	r12
0x41a313:	pop	r13
0x41a315:	ret	
F 0x4266ab
0x4266ab:	mov	rax, qword ptr [rip + 0x12d6e]
0x4266b2:	add	rsp, 0x10
0x4266b6:	pop	rbp
0x4266b7:	ret	
F 0x413dc7
0x411ef9:	add	byte ptr [rbx + 0x5d], bl
0x411efc:	pop	r12
0x411efe:	pop	r13
0x411f00:	pop	r14
0x411f02:	pop	r15
0x411f04:	ret	
F 0x411bc8
0x411bc8:	sub	byte ptr [rcx + rcx*4 - 0x38], al
0x411bcc:	pop	rbx
0x411bcd:	pop	rbp
0x411bce:	pop	r12
0x411bd0:	pop	r13
0x411bd2:	ret	
F 0x420e42
0x40f572:	pop	rbp
0x40f573:	pop	r12
0x40f575:	pop	r13
0x40f577:	pop	r14
0x40f579:	pop	r15
0x40f57b:	ret	
F 0x41283b
0x40d012:	add	rsp, 8
0x40d016:	ret	
F 0x420bda
0x4154fa:	mov	eax, dword ptr [rax + 0x10]
0x4154fd:	ret	
F 0x410193
0x40f573:	pop	r12
0x40f575:	pop	r13
0x40f577:	pop	r14
0x40f579:	pop	r15
0x40f57b:	ret	
F 0x417c5c
0x41083d:	pop	r13
0x41083f:	pop	r14
0x410841:	ret	
F 0x41b80c
0x40d016:	ret	
F 0x416fcd
0x40f577:	pop	r14
0x40f579:	pop	r15
0x40f57b:	ret	
F 0x4149cc
0x40eedf:	pop	rbp
0x40eee0:	ret	
F 0x41594a
0x40f575:	pop	r13
0x40f577:	pop	r14
0x40f579:	pop	r15
0x40f57b:	ret	
F 0x40f057
0x40d012:	add	rsp, 8
0x40d016:	ret	
F 0x41adad
0x40d016:	ret	
F 0x41bb8d
0x41bb8d:	sal	byte ptr [rbx + rbx*2 + 0x48], 0x89
0x41bb92:	ret	
F 0x41d1cf
0x41d1cf:	add	byte ptr [rax - 0x73], cl
0x41d1d2:	add	eax, 0x3c9
0x41d1d7:	mov	qword ptr [rbx + 8], rax
0x41d1db:	pop	rbx
0x41d1dc:	ret	
F 0x410d1c
0x40f446:	pop	r12
0x40f448:	pop	r13
0x40f44a:	ret	
F 0x41c630
0x40d016:	ret	
F 0x41bb24
0x411f31:	ret	0x8948
F 0x419aa0
0x419a68:	add	rsp, 8
0x419a6c:	mov	r8d, 1
0x419a72:	mov	eax, r8d
0x419a75:	pop	rbp
0x419a76:	pop	r12
0x419a78:	ret	
F 0x4190d6
0x412499:	or	byte ptr [rbx + 0x5d], bl
0x41249c:	ret	
F 0x418929
0x40d016:	ret	
F 0x41b6a7
0x40eedf:	pop	rbp
0x40eee0:	ret	
F 0x4260f4
0x425cc4:	add	rsp, 0x50
0x425cc8:	pop	rbp
0x425cc9:	ret	
F 0x425c2d
0x40f57a:	pop	rdi
0x40f57b:	ret	
F 0x4260f1
0x425cc1:	add	byte ptr [rbp + 0x40], dh
0x425cc4:	add	rsp, 0x50
0x425cc8:	pop	rbp
0x425cc9:	ret	
F 0x424609
0x40f571:	pop	rbx
0x40f572:	pop	rbp
0x40f573:	pop	r12
0x40f575:	pop	r13
0x40f577:	pop	r14
0x40f579:	pop	r15
0x40f57b:	ret	
F 0x41d3f9
0x41d3f9:	cmp	eax, 1
0x41d3fc:	seta	al
0x41d3ff:	add	rsp, 8
0x41d403:	movzx	eax, al
0x41d406:	ret	
F 0x4265dc
0x4265dc:	dec	dword ptr [rbx - 0x76b3f7bb]
0x4265e2:	and	ecx, dword ptr [rcx + 0x5d5b0843]
0x4265e8:	pop	r12
0x4265ea:	ret	
F 0x419a78
0x40d016:	ret	
F 0x41f808
0x40d016:	ret	
F 0x413016
0x40eedf:	pop	rbp
0x40eee0:	ret	
F 0x41b447
0x41b447:	add	rax, rdi
0x41b44a:	mov	qword ptr [rdi + 0x30], rax
0x41b44e:	ret	
F 0x41c29e
0x41c29e:	and	al, 0xc7
0x41c2a0:	mov	qword ptr [rdi + rax*8 + 8], 0
0x41c2a9:	pop	rbx
0x41c2aa:	pop	rbp
0x41c2ab:	pop	r12
0x41c2ad:	ret	
F 0x4115f1
0x4115f1:	mov	dword ptr [rdi + 8], 0
0x4115f8:	ret	
F 0x41c46b
0x40f289:	add	byte ptr [rax - 0x77], cl
0x40f28c:	ret	
F 0x40eff9
0x40d016:	ret	
F 0x410491
0x410491:	add	al, ch
0x410493:	imul	ecx, ebp, 0xc031ffff
0x410499:	add	rsp, 8
0x41049d:	ret	
F 0x4239f0
0x4239f0:	pop	rbp
0x4239f1:	mov	dword ptr [r12 + 8], eax
0x4239f6:	mov	rax, r12
0x4239f9:	pop	r12
0x4239fb:	ret	
F 0x41fa80
0x40d016:	ret	
F 0x4190cd
0x4190cd:	add	byte ptr [rax], al
0x4190cf:	mov	qword ptr [rax + 0x40], rbp
0x4190d3:	add	rsp, 8
0x4190d7:	pop	rbx
0x4190d8:	pop	rbp
0x4190d9:	ret	
F 0x41d1a2
0x41d1a2:	add	eax, 0x1c1c9
0x41d1a7:	add	rax, rdi
0x41d1aa:	mov	qword ptr [rdi + 0x30], rax
0x41d1ae:	mov	qword ptr [rax], 0
0x41d1b5:	ret	
F 0x4264bf
0x40d016:	ret	
F 0x4190d7
0x41249a:	pop	rbx
0x41249b:	pop	rbp
0x41249c:	ret	
F 0x413ae8
0x40d016:	ret	
F 0x419ab0
0x40d016:	ret	
F 0x423ba1
0x41083a:	pop	rbp
0x41083b:	pop	r12
0x41083d:	pop	r13
0x41083f:	pop	r14
0x410841:	ret	
F 0x42037f
0x41083e:	pop	rbp
0x41083f:	pop	r14
0x410841:	ret	
F 0x411d2b
0x411d2b:	push	rcx
0x411d2c:	ret	
F 0x41bd57
0x40d016:	ret	
F 0x424600
0x424600:	test	dword ptr [rbp + 1], eax
0x424603:	add	byte ptr [rax], al
0x424605:	add	rsp, 0x68
0x424609:	pop	rbx
0x42460a:	pop	rbp
0x42460b:	pop	r12
0x42460d:	pop	r13
0x42460f:	pop	r14
0x424611:	pop	r15
0x424613:	ret	
F 0x419f6b
0x40f444:	pop	rbx
0x40f445:	pop	rbp
0x40f446:	pop	r12
0x40f448:	pop	r13
0x40f44a:	ret	
F 0x4216fa
0x41b44a:	mov	qword ptr [rdi + 0x30], rax
0x41b44e:	ret	
F 0x41dcd0
0x40d016:	ret	
F 0x4117af
0x4117af:	mov	dword ptr [rsi + 8], eax
0x4117b2:	ret	
F 0x417c5d
0x41083e:	pop	rbp
0x41083f:	pop	r14
0x410841:	ret	
F 0x418223
0x418223:	mov	eax, dword ptr [rip + 0x21047]
0x418229:	add	rsp, 0x10
0x41822d:	pop	rbp
0x41822e:	ret	
F 0x41168a
0x41168a:	mov	dword ptr [rdx], eax
0x41168c:	xor	eax, eax
0x41168e:	ret	
F 0x418fed
0x418fed:	add	byte ptr [rax], al
0x418fef:	mov	qword ptr [rax + 0x30], rbp
0x418ff3:	add	rsp, 8
0x418ff7:	pop	rbx
0x418ff8:	pop	rbp
0x418ff9:	ret	
F 0x41f790
0x41c2a0:	mov	qword ptr [rdi + rax*8 + 8], 0
0x41c2a9:	pop	rbx
0x41c2aa:	pop	rbp
0x41c2ab:	pop	r12
0x41c2ad:	ret	
F 0x4181c2
0x40f632:	add	rsp, 0x10
0x40f636:	pop	rbp
0x40f637:	ret	
F 0x41ab69
0x40d012:	add	rsp, 8
0x40d016:	ret	
F 0x419aa7
0x419a6f:	add	byte ptr [rax], al
0x419a71:	add	byte ptr [rcx + rcx*4 - 0x40], al
0x419a75:	pop	rbp
0x419a76:	pop	r12
0x419a78:	ret	
F 0x424440
0x40f57a:	pop	rdi
0x40f57b:	ret	
F 0x412677
0x40f573:	pop	r12
0x40f575:	pop	r13
0x40f577:	pop	r14
0x40f579:	pop	r15
0x40f57b:	ret	
F 0x418793
0x418793:	nop	dword ptr cs:[rax + rax]
0x41879c:	nop	dword ptr [rax]
0x4187a0:	ret	
F 0x415163
0x410839:	pop	rbx
0x41083a:	pop	rbp
0x41083b:	pop	r12
0x41083d:	pop	r13
0x41083f:	pop	r14
0x410841:	ret	
F 0x41612b
0x40eea3:	nop	dword ptr [rax + rax]
0x40eea8:	ret	
F 0x410499
0x40d012:	add	rsp, 8
0x40d016:	ret	
F 0x4250ef
0x4250ef:	sbb	byte ptr [rcx + rcx*4 - 0x20], al
0x4250f3:	pop	rbx
0x4250f4:	pop	rbp
0x4250f5:	pop	r12
0x4250f7:	pop	r13
0x4250f9:	ret	
F 0x412f09
0x412f09:	mov	eax, dword ptr [rax + 0x20]
0x412f0c:	ret	
F 0x41abcd
0x40d016:	ret	
F 0x415f8c
0x40d016:	ret	
F 0x421218
0x40d016:	ret	
F 0x4250f1
0x419f69:	mov	eax, esp
0x419f6b:	pop	rbx
0x419f6c:	pop	rbp
0x419f6d:	pop	r12
0x419f6f:	pop	r13
0x419f71:	ret	
F 0x41ad5c
0x40d016:	ret	
F 0x416952
0x40d016:	ret	
F 0x41b733
0x41b733:	mov	eax, dword ptr [rip + 0x1dbaf]
0x41b739:	add	rsp, 0x10
0x41b73d:	pop	rbp
0x41b73e:	ret	
F 0x41676e
0x40ee66:	add	byte ptr [rax], al
0x40ee68:	ret	
F 0x41d18d
0x41d18d:	add	byte ptr [rax], al
0x41d18f:	nop	
0x41d190:	ret	
F 0x42084a
0x40d016:	ret	
F 0x418baa
0x418a8a:	add	byte ptr [rcx + rcx*4 - 0x20], cl
0x418a8e:	pop	rbp
0x418a8f:	pop	r12
0x418a91:	ret	
F 0x419bc9
0x419b8f:	add	dword ptr [rax], eax
0x419b91:	add	rsp, 0x18
0x419b95:	ret	
F 0x40ef0e
0x40ef0e:	add	byte ptr [rax + 0x63], cl
0x40ef12:	add	eax, 0x2a1b1
0x40ef17:	add	rax, rdi
0x40ef1a:	mov	qword ptr [rdi + 0x28], rax
0x40ef1e:	ret	
F 0x41730f
0x410840:	pop	rsi
0x410841:	ret	
F 0x4264d6
0x40d016:	ret	
F 0x40f7a8
0x40ef18:	add	eax, edi
0x40ef1a:	mov	qword ptr [rdi + 0x28], rax
0x40ef1e:	ret	
F 0x40f789
0x40ef19:	clc	
0x40ef1a:	mov	qword ptr [rdi + 0x28], rax
0x40ef1e:	ret	
F 0x41676b
0x40eea3:	nop	dword ptr [rax + rax]
0x40eea8:	ret	
F 0x4152c6
0x41083e:	pop	rbp
0x41083f:	pop	r14
0x410841:	ret	
F 0x41f2d8
0x41f2d8:	mov	rax, qword ptr [rdi + 0x28]
0x41f2dc:	cmp	qword ptr [rsi + 0x28], rax
0x41f2e0:	cmovae	rax, qword ptr [rsi + 0x28]
0x41f2e5:	mov	qword ptr [rdi + 0x28], rax
0x41f2e9:	ret	
F 0x40f31a
0x40d016:	ret	
F 0x41febc
0x40d016:	ret	
F 0x41b2bb
0x40f572:	pop	rbp
0x40f573:	pop	r12
0x40f575:	pop	r13
0x40f577:	pop	r14
0x40f579:	pop	r15
0x40f57b:	ret	
F 0x4117f1
0x4117f1:	shr	al, 0x19
0x4117f4:	mov	esi, 0xc031ffff
0x4117f9:	add	rsp, 8
0x4117fd:	ret	
F 0x41320c
0x40eedf:	pop	rbp
0x40eee0:	ret	
F 0x41cf4b
0x41cf4b:	mov	rax, qword ptr [rip + 0x1c3d6]
0x41cf52:	add	rsp, 0x10
0x41cf56:	pop	rbp
0x41cf57:	ret	
F 0x413dcc
0x40f575:	pop	r13
0x40f577:	pop	r14
0x40f579:	pop	r15
0x40f57b:	ret	
F 0x419b59
0x419b59:	add	byte ptr [rbp + 0xa], dh
0x419b5c:	add	rsp, 0x20
0x419b60:	mov	rax, r12
0x419b63:	pop	r12
0x419b65:	ret	
F 0x42629e
0x40f572:	pop	rbp
0x40f573:	pop	r12
0x40f575:	pop	r13
0x40f577:	pop	r14
0x40f579:	pop	r15
0x40f57b:	ret	
F 0x41c008
0x41083d:	pop	r13
0x41083f:	pop	r14
0x410841:	ret	
F 0x41d398
0x41d398:	mov	dword ptr [rbx], eax
0x41d39a:	pop	rbx
0x41d39b:	ret	
F 0x420aff
0x420aff:	add	byte ptr [rax], al
0x420b01:	mov	qword ptr [rax + 0x48], rbp
0x420b05:	mov	rax, r12
0x420b08:	pop	rbp
0x420b09:	pop	r12
0x420b0b:	pop	r13
0x420b0d:	ret	
F 0x41abdd
0x40d016:	ret	
F 0x42077f
0x40f57a:	pop	rdi
0x40f57b:	ret	
F 0x42037a
0x410839:	pop	rbx
0x41083a:	pop	rbp
0x41083b:	pop	r12
0x41083d:	pop	r13
0x41083f:	pop	r14
0x410841:	ret	
F 0x41179e
0x40d016:	ret	
F 0x4225b1
0x40eedf:	pop	rbp
0x40eee0:	ret	
F 0x4265e6
0x41175b:	pop	rbx
0x41175c:	pop	rbp
0x41175d:	pop	r12
0x41175f:	ret	
F 0x41d182
0x41083f:	pop	r14
0x410841:	ret	
F 0x415f84
0x410839:	pop	rbx
0x41083a:	pop	rbp
0x41083b:	pop	r12
0x41083d:	pop	r13
0x41083f:	pop	r14
0x410841:	ret	
F 0x418a8c
0x418a8c:	mov	eax, esp
0x418a8e:	pop	rbp
0x418a8f:	pop	r12
0x418a91:	ret	
F 0x411025
0x41083a:	pop	rbp
0x41083b:	pop	r12
0x41083d:	pop	r13
0x41083f:	pop	r14
0x410841:	ret	
F 0x41f132
0x41f132:	mov	rax, qword ptr [rip + 0x1a21f]
0x41f139:	add	rsp, 0x10
0x41f13d:	pop	rbp
0x41f13e:	ret	
F 0x413177
0x40eff3:	xor	eax, eax
0x40eff5:	add	rsp, 8
0x40eff9:	ret	
F 0x417260
0x40d016:	ret	
F 0x412faf
0x412faf:	add	eax, dword ptr [rax]
0x412fb1:	add	byte ptr [rbp + 0x5d0a75c0], al
0x412fb7:	ret	
F 0x414986
0x414986:	or	byte ptr [rcx], dh
0x414988:	rcr	byte ptr [rbp + 0x41], 0x5c
0x41498c:	ret	
F 0x415167
0x41083d:	pop	r13
0x41083f:	pop	r14
0x410841:	ret	
F 0x415a81
0x415a81:	dec	dword ptr [rax - 0x75]
0x415a84:	add	eax, 0x237a7
0x415a89:	add	rsp, 0x10
0x415a8d:	pop	rbp
0x415a8e:	ret	
F 0x413269
0x413269:	ret	0x81e8
F 0x41d56e
0x41d56e:	add	eax, 0x1bded
0x41d573:	add	rsp, 0x18
0x41d577:	ret	
F 0x41ad8a
0x41ad8a:	mov	eax, dword ptr [rax + 0x58]
0x41ad8d:	ret	
F 0x426029
0x40f573:	pop	r12
0x40f575:	pop	r13
0x40f577:	pop	r14
0x40f579:	pop	r15
0x40f57b:	ret	
F 0x410933
0x41083d:	pop	r13
0x41083f:	pop	r14
0x410841:	ret	
F 0x41f70b
0x40d016:	ret	
F 0x40eed9
0x40eed9:	add	eax, 0x2a1c9
0x40eede:	add	dword ptr [rbp - 0x3d], ebx
0x40eee1:	nop	dword ptr [rax]
0x40eee8:	ret	
F 0x41185d
0x40d016:	ret	
F 0x4139b7
0x40eff3:	xor	eax, eax
0x40eff5:	add	rsp, 8
0x40eff9:	ret	
F 0x420770
0x420770:	add	byte ptr [rax], al
0x420772:	add	byte ptr [rcx + rcx*4 - 0x18], cl
0x420776:	pop	rbx
0x420777:	pop	rbp
0x420778:	pop	r12
0x42077a:	pop	r13
0x42077c:	pop	r14
0x42077e:	pop	r15
0x420780:	ret	
F 0x423080
0x40d016:	ret	
F 0x421715
0x41165e:	add	byte ptr [rax], al
0x411660:	mov	qword ptr [rbx + 8], rax
0x411664:	pop	rbx
0x411665:	ret	
F 0x40f35e
0x40f289:	add	byte ptr [rax - 0x77], cl
0x40f28c:	ret	
F 0x4239f5
0x4239f5:	or	byte ptr [rcx + rcx*4 - 0x20], cl
0x4239f9:	pop	r12
0x4239fb:	ret	
F 0x415eb6
0x415015:	or	byte ptr [rcx + rcx*4 - 0x10], cl
0x415019:	pop	rbp
0x41501a:	pop	r12
0x41501c:	pop	r13
0x41501e:	pop	r14
0x415020:	ret	
F 0x41b9fc
0x40d016:	ret	
F 0x4223a4
0x41f074:	inc	dword ptr [rbp + 0x4c0774c0]
0x41f07a:	mov	eax, esp
0x41f07c:	pop	r12
0x41f07e:	ret	
F 0x414a86
0x414a86:	mov	eax, dword ptr [rip + 0x24754]
0x414a8c:	add	rsp, 0x10
0x414a90:	pop	rbp
0x414a91:	ret	
F 0x41501f
0x410840:	pop	rsi
0x410841:	ret	
F 0x41c702
0x41c702:	mov	rax, qword ptr [rip + 0x1cc27]
0x41c709:	add	rsp, 0x10
0x41c70d:	pop	rbp
0x41c70e:	ret	
F 0x40f139
0x40d016:	ret	
F 0x40f786
0x40ef16:	add	byte ptr [rax + 1], cl
0x40ef19:	clc	
0x40ef1a:	mov	qword ptr [rdi + 0x28], rax
0x40ef1e:	ret	
F 0x418f17
0x41249a:	pop	rbx
0x41249b:	pop	rbp
0x41249c:	ret	
F 0x40ee64
0x40ee64:	add	byte ptr [rax], al
0x40ee66:	add	byte ptr [rax], al
0x40ee68:	ret	
F 0x4117b0
0x4117b0:	or	bl, r8b
0x4117b3:	nop	dword ptr [rax + rax]
0x4117b8:	mov	qword ptr [rsi + 8], 0
0x4117c0:	ret	
F 0x4106bd
0x4106bd:	add	eax, 0x28a3e
0x4106c2:	add	rsp, 0x10
0x4106c6:	pop	rbp
0x4106c7:	ret	
F 0x418e9b
0x41053a:	pop	rbp
0x41053b:	pop	r12
0x41053d:	ret	
F 0x41af88
0x41083f:	pop	r14
0x410841:	ret	
F 0x41822e
0x40d016:	ret	
F 0x41b408
0x40d016:	ret	
F 0x411bd2
0x40d016:	ret	
F 0x418a8f
0x40f602:	pop	r12
0x40f604:	ret	
F 0x416e27
0x40d016:	ret	
F 0x41ffcc
0x40f57a:	pop	rdi
0x40f57b:	ret	
F 0x422151
0x40f571:	pop	rbx
0x40f572:	pop	rbp
0x40f573:	pop	r12
0x40f575:	pop	r13
0x40f577:	pop	r14
0x40f579:	pop	r15
0x40f57b:	ret	
F 0x420561
0x4111e1:	add	rsp, 0x18
0x4111e5:	ret	
F 0x41c0ce
0x41083f:	pop	r14
0x410841:	ret	
F 0x41ff72
0x41ff72:	sal	dl, 0xf
0x41ff75:	pop	rcx
0x41ff76:	ret	
F 0x41cfb6
0x40d016:	ret	
F 0x4187dd
0x4187dd:	mov	qword ptr [rdi + 0x20], rax
0x4187e1:	lea	rax, [rip + 0x58]
0x4187e8:	mov	qword ptr [rdi + 0x28], rax
0x4187ec:	ret	
F 0x4196a9
0x4196a9:	nop	dword ptr [rax]
0x4196b0:	add	rsp, 8
0x4196b4:	pop	rbx
0x4196b5:	pop	rbp
0x4196b6:	pop	r12
0x4196b8:	pop	r13
0x4196ba:	ret	
F 0x411636
0x411636:	mov	dword ptr [rax + 0x20], 5
0x41163d:	mov	qword ptr [rax + 0x38], 0
0x411645:	ret	
F 0x42214e
0x412c27:	add	byte ptr [rax], al
0x412c29:	add	byte ptr [rbx + 0x5d], bl
0x412c2c:	pop	r12
0x412c2e:	pop	r13
0x412c30:	pop	r14
0x412c32:	pop	r15
0x412c34:	ret	
F 0x41b2c4
0x40d016:	ret	
F 0x417a87
0x40d016:	ret	
F 0x421639
0x40d016:	ret	
F 0x40f2a4
0x40f2a4:	ret	0x6e8
F 0x41165e
0x41165e:	add	byte ptr [rax], al
0x411660:	mov	qword ptr [rbx + 8], rax
0x411664:	pop	rbx
0x411665:	ret	
F 0x41d736
0x41083d:	pop	r13
0x41083f:	pop	r14
0x410841:	ret	
F 0x41f28f
0x41f28f:	add	byte ptr [rax], al
0x41f293:	add	byte ptr [rax], al
0x41f295:	ret	
F 0x41822d
0x40eedf:	pop	rbp
0x40eee0:	ret	
F 0x420777
0x40f572:	pop	rbp
0x40f573:	pop	r12
0x40f575:	pop	r13
0x40f577:	pop	r14
0x40f579:	pop	r15
0x40f57b:	ret	
F 0x422757
0x422757:	add	byte ptr [rbp + 0x4d], dh
0x42275a:	add	rsp, 0x10
0x42275e:	pop	rbx
0x42275f:	pop	rbp
0x422760:	pop	r12
0x422762:	ret	
F 0x41dbeb
0x40d016:	ret	
F 0x4219d3
0x4219d3:	ror	byte ptr [rcx + 0xff27443], 0x2c
0x4219da:	rol	dword ptr [rbx + 0x438906e8], 0x78
0x4219e1:	pop	rbx
0x4219e2:	ret	
F 0x41a665
0x41a665:	xor	bh, bh
0x41a667:	dec	dword ptr [rax - 0x77]
0x41a66a:	ret	
F 0x41ad2c
0x40d016:	ret	
F 0x41c62f
0x40eedf:	pop	rbp
0x40eee0:	ret	
F 0x416b65
0x40f57a:	pop	rdi
0x40f57b:	ret	
F 0x41c29c
0x41c29c:	mov	qword ptr [rdi + rax*8], r12
0x41c2a0:	mov	qword ptr [rdi + rax*8 + 8], 0
0x41c2a9:	pop	rbx
0x41c2aa:	pop	rbp
0x41c2ab:	pop	r12
0x41c2ad:	ret	
F 0x42055c
0x42055c:	add	eax, 0x18e27
0x420561:	add	rsp, 0x18
0x420565:	ret	
F 0x419547
0x40d016:	ret	
F 0x421215
0x41053a:	pop	rbp
0x41053b:	pop	r12
0x41053d:	ret	
F 0x41a552
0x40d016:	ret	
F 0x426635
0x40d016:	ret	
F 0x416056
0x41083d:	pop	r13
0x41083f:	pop	r14
0x410841:	ret	
F 0x41267e
0x40f57a:	pop	rdi
0x40f57b:	ret	
F 0x40f361
0x40d016:	ret	
F 0x41594b
0x40f576:	pop	rbp
0x40f577:	pop	r14
0x40f579:	pop	r15
0x40f57b:	ret	
F 0x414346
0x410840:	pop	rsi
0x410841:	ret	
F 0x41cbaa
0x41cbaa:	adc	byte ptr [rax - 0x77], cl
0x41cbad:	ret	
F 0x410f49
0x40f632:	add	rsp, 0x10
0x40f636:	pop	rbp
0x40f637:	ret	
F 0x413102
0x40d016:	ret	
F 0x41ace4
0x41ac24:	and	eax, 0xc031ffff
0x41ac29:	add	rsp, 8
0x41ac2d:	ret	
F 0x41af86
0x41083d:	pop	r13
0x41083f:	pop	r14
0x410841:	ret	
F 0x419369
0x40d016:	ret	
F 0x424956
0x40f573:	pop	r12
0x40f575:	pop	r13
0x40f577:	pop	r14
0x40f579:	pop	r15
0x40f57b:	ret	
F 0x411d08
0x40d016:	ret	
F 0x4139bd
0x40d016:	ret	
F 0x41a310
0x40f445:	pop	rbp
0x40f446:	pop	r12
0x40f448:	pop	r13
0x40f44a:	ret	
F 0x41a096
0x41a096:	cmp	bh, bh
0x41a098:	dec	dword ptr [rax - 0x77]
0x41a09b:	ret	
F 0x4130f1
0x4130f1:	add	byte ptr [rax], al
0x4130f3:	add	byte ptr [rbp + 0x51], dh
0x4130f6:	add	rsp, 0x18
0x4130fa:	xor	eax, eax
0x4130fc:	pop	rbx
0x4130fd:	pop	rbp
0x4130fe:	pop	r12
0x413100:	pop	r13
0x413102:	ret	
F 0x410835
0x410835:	add	rsp, 0x20
0x410839:	pop	rbx
0x41083a:	pop	rbp
0x41083b:	pop	r12
0x41083d:	pop	r13
0x41083f:	pop	r14
0x410841:	ret	
F 0x4260f8
0x40eedf:	pop	rbp
0x40eee0:	ret	
F 0x419b5f
0x419b5f:	and	byte ptr [rcx + rcx*4 - 0x20], cl
0x419b63:	pop	r12
0x419b65:	ret	
F 0x40f57a
0x40f57a:	pop	rdi
0x40f57b:	ret	
F 0x40ef0f
0x40ef0f:	add	byte ptr [rax + 0x63], cl
0x40ef12:	add	eax, 0x2a1b1
0x40ef17:	add	rax, rdi
0x40ef1a:	mov	qword ptr [rdi + 0x28], rax
0x40ef1e:	ret	
F 0x42275e
0x41175b:	pop	rbx
0x41175c:	pop	rbp
0x41175d:	pop	r12
0x41175f:	ret	
F 0x421871
0x40eff3:	xor	eax, eax
0x40eff5:	add	rsp, 8
0x40eff9:	ret	
F 0x42120f
0x42120f:	add	dword ptr [rax], eax
0x421211:	add	rsp, 0x28
0x421215:	pop	rbp
0x421216:	pop	r12
0x421218:	ret	
F 0x420bc9
0x40d012:	add	rsp, 8
0x40d016:	ret	
F 0x41bdb2
0x41bdb2:	mov	rax, qword ptr [rip + 0x1d527]
0x41bdb9:	add	rsp, 0x10
0x41bdbd:	pop	rbp
0x41bdbe:	ret	
F 0x420c59
0x40d012:	add	rsp, 8
0x40d016:	ret	
F 0x4218ab
0x4218ab:	mov	eax, dword ptr [rip + 0x17b4f]
0x4218b1:	add	rsp, 0x18
0x4218b5:	ret	
F 0x423786
0x40d016:	ret	
F 0x411229
0x411229:	sar	edi, cl
0x41122b:	dec	dword ptr [rax - 0x75]
0x41122e:	add	eax, 0x27eb5
0x411233:	add	rsp, 0x18
0x411237:	ret	
F 0x412f0c
0x40d016:	ret	
F 0x422cb1
0x41083f:	pop	r14
0x410841:	ret	
F 0x416e20
0x410536:	add	rsp, 8
0x41053a:	pop	rbp
0x41053b:	pop	r12
0x41053d:	ret	
F 0x420f16
0x40eedf:	pop	rbp
0x40eee0:	ret	
F 0x41576b
0x40f718:	dec	dword ptr [rax - 0x77]
0x40f71b:	ret	
F 0x41882b
0x41882b:	add	byte ptr [rax], al
0x41882d:	mov	dword ptr [rax + 0x60], 0
0x418834:	mov	dword ptr [rdi + 8], 1
0x41883b:	ret	
F 0x41f87f
0x40d016:	ret	
F 0x411617
0x40d016:	ret	
F 0x413851
0x40f575:	pop	r13
0x40f577:	pop	r14
0x40f579:	pop	r15
0x40f57b:	ret	
F 0x41686d
0x413205:	add	rsp, 8
0x413209:	xor	eax, eax
0x41320b:	pop	rbx
0x41320c:	pop	rbp
0x41320d:	ret	
F 0x416807
0x416807:	cmp	bh, 0xff
0x41680a:	nop	word ptr [rax + rax]
0x416810:	ret	
F 0x411697
0x411697:	nop	word ptr [rax + rax]
0x4116a0:	mov	qword ptr [rdx], 0
0x4116a7:	xor	eax, eax
0x4116a9:	ret	
F 0x41165b
0x41165b:	add	eax, 0xdf0
0x411660:	mov	qword ptr [rbx + 8], rax
0x411664:	pop	rbx
0x411665:	ret	
F 0x419a6d
0x419a6d:	mov	eax, 1
0x419a72:	mov	eax, r8d
0x419a75:	pop	rbp
0x419a76:	pop	r12
0x419a78:	ret	
F 0x411606
0x411606:	nop	word ptr cs:[rax + rax]
0x411610:	mov	dword ptr [rdi + 8], 1
0x411617:	ret	
F 0x40f784
0x40f764:	cdq	
0x40f765:	add	al, byte ptr [rax]
0x40f767:	add	rax, rdi
0x40f76a:	mov	qword ptr [rdi + 0x28], rax
0x40f76e:	ret	
F 0x41f28b
0x41f28b:	add	byte ptr [rax], al
0x41f28d:	mov	qword ptr [rax + 0x40], 0
0x41f295:	ret	
F 0x411f04
0x40d016:	ret	
F 0x41b0bf
0x41b0bf:	add	dword ptr [rax], eax
0x41b0c1:	add	rsp, 0x28
0x41b0c5:	pop	rbx
0x41b0c6:	pop	rbp
0x41b0c7:	ret	
F 0x417c56
0x417c56:	add	byte ptr [rbx + 0x5d], bl
0x417c5a:	pop	r12
0x417c5c:	pop	r13
0x417c5e:	pop	r14
0x417c60:	ret	
F 0x416130
0x40d016:	ret	
F 0x40f448
0x40f448:	pop	r13
0x40f44a:	ret	
F 0x41f07e
0x40d016:	ret	
F 0x41f762
0x41d17b:	mov	eax, esp
0x41d17d:	pop	rbp
0x41d17e:	pop	r12
0x41d180:	pop	r13
0x41d182:	pop	r14
0x41d184:	ret	
F 0x422153
0x40f573:	pop	r12
0x40f575:	pop	r13
0x40f577:	pop	r14
0x40f579:	pop	r15
0x40f57b:	ret	
F 0x41b827
0x40eff3:	xor	eax, eax
0x40eff5:	add	rsp, 8
0x40eff9:	ret	
F 0x41d1d7
0x411660:	mov	qword ptr [rbx + 8], rax
0x411664:	pop	rbx
0x411665:	ret	
F 0x41ada9
0x40d012:	add	rsp, 8
0x40d016:	ret	
F 0x41d577
0x40d016:	ret	
F 0x4218af
0x419b8f:	add	dword ptr [rax], eax
0x419b91:	add	rsp, 0x18
0x419b95:	ret	
F 0x414160
0x414160:	add	rsp, 0x28
0x414164:	pop	rbp
0x414165:	pop	r12
0x414167:	pop	r13
0x414169:	pop	r14
0x41416b:	ret	
